# III Stage-0 Ring-3 codegen output
# Microsoft x64 ABI; gas syntax (AT&T); PE/COFF target
    .att_syntax
    .file 1 "<iii-source>"
    .section .rodata
L_str_0:
    .ascii "ast.c\0"
L_str_1:
    .ascii "ast.c\0"
L_str_2:
    .ascii "ast.c\0"
L_str_3:
    .ascii "hexad_check.c\0"
L_str_4:
    .ascii "hexad_check.c\0"
L_str_5:
    .ascii "ast_accessors.c\0"
L_str_6:
    .ascii "ast_accessors.c\0"
L_str_7:
    .ascii "ast_accessors.c\0"
L_str_8:
    .ascii "ast_accessors.c\0"
L_str_9:
    .ascii "ast_accessors.c\0"
L_str_10:
    .ascii "ast_accessors.c\0"
L_str_11:
    .ascii "ast_accessors.c\0"
L_str_12:
    .ascii "ast_accessors.c\0"
L_str_13:
    .ascii "ast_accessors.c\0"
L_str_14:
    .ascii "ast_accessors.c\0"
L_str_15:
    .ascii "ast_accessors.c\0"
L_str_16:
    .ascii "ast_accessors.c\0"
L_str_17:
    .ascii "ast_accessors.c\0"
L_str_18:
    .ascii "ast_accessors.c\0"
L_str_19:
    .ascii "ast_accessors.c\0"
L_str_20:
    .ascii "ast_accessors.c\0"
L_str_21:
    .ascii "ast_accessors.c\0"
L_str_22:
    .ascii "ast_accessors.c\0"
L_str_23:
    .ascii "ast_accessors.c\0"
L_str_24:
    .ascii "ast_accessors.c\0"
L_str_25:
    .ascii "ast_accessors.c\0"
L_str_26:
    .ascii "ast_accessors.c\0"
L_str_27:
    .ascii "ast_accessors.c\0"
L_str_28:
    .ascii "ast_accessors.c\0"
L_str_29:
    .ascii "ast_accessors.c\0"
L_str_30:
    .ascii "ast_accessors.c\0"
L_str_31:
    .ascii "ast_accessors.c\0"
L_str_32:
    .ascii "ast_accessors.c\0"
L_str_33:
    .ascii "ast_accessors.c\0"
L_str_34:
    .ascii "ast_accessors.c\0"
L_str_35:
    .ascii "ast_accessors.c\0"
L_str_36:
    .ascii "ast_accessors.c\0"
L_str_37:
    .ascii "ast_accessors.c\0"
L_str_38:
    .ascii "ast_accessors.c\0"
L_str_39:
    .ascii "ast_accessors.c\0"
L_str_40:
    .ascii "ast_accessors.c\0"
L_str_41:
    .ascii "ast_accessors.c\0"
L_str_42:
    .ascii "ast_accessors.c\0"
L_str_43:
    .ascii "ast_accessors.c\0"
L_str_44:
    .ascii "ast_accessors.c\0"
L_str_45:
    .ascii "ast_accessors.c\0"
L_str_46:
    .ascii "ast_accessors.c\0"
L_str_47:
    .ascii "ast_accessors.c\0"
L_str_48:
    .ascii "ast_accessors.c\0"
L_str_49:
    .ascii "ast_accessors.c\0"
L_str_50:
    .ascii "ast_accessors.c\0"
L_str_51:
    .ascii "ast_accessors.c\0"
L_str_52:
    .ascii "ast_accessors.c\0"
L_str_53:
    .ascii "ast_accessors.c\0"
L_str_54:
    .ascii "ast_accessors.c\0"
L_str_55:
    .ascii "ast_accessors.c\0"
L_str_56:
    .ascii "ast_accessors.c\0"
L_str_57:
    .ascii "ast_accessors.c\0"
L_str_58:
    .ascii "ast_accessors.c\0"
L_str_59:
    .ascii "sema_accessors.c\0"
L_str_60:
    .ascii "sema_accessors.c\0"
L_str_61:
    .ascii "sema_accessors.c\0"
L_str_62:
    .ascii "sema_accessors.c\0"
L_str_63:
    .ascii "sema_accessors.c\0"
L_str_64:
    .ascii "sema_accessors.c\0"
L_str_65:
    .ascii "sema_accessors.c\0"
L_str_66:
    .ascii "sema_accessors.c\0"
L_str_67:
    .ascii "sema_accessors.c\0"
L_str_68:
    .ascii "sema_accessors.c\0"
L_str_69:
    .ascii "sema_accessors.c\0"
L_str_70:
    .ascii "sema_accessors.c\0"
L_str_71:
    .ascii "sema_accessors.c\0"
L_str_72:
    .ascii "sema_accessors.c\0"
L_str_73:
    .ascii "sema_accessors.c\0"
L_str_74:
    .ascii "sema_accessors.c\0"
L_str_75:
    .ascii "sema_accessors.c\0"
L_str_76:
    .ascii "sema_accessors.c\0"
L_str_77:
    .ascii "sema_accessors.c\0"
L_str_78:
    .ascii "sema_accessors.c\0"
L_str_79:
    .ascii "sema_accessors.c\0"
L_str_80:
    .ascii "sema_accessors.c\0"
L_str_81:
    .ascii "sema_accessors.c\0"
L_str_82:
    .ascii "sema_accessors.c\0"
L_str_83:
    .ascii "sema_accessors.c\0"
L_str_84:
    .ascii "sema_accessors.c\0"
L_str_85:
    .ascii "sema_accessors.c\0"
L_str_86:
    .ascii "sema_accessors.c\0"
L_str_87:
    .ascii "sema_accessors.c\0"
L_str_88:
    .ascii "sema_accessors.c\0"
L_str_89:
    .ascii "sema_accessors.c\0"
L_str_90:
    .ascii "sema_accessors.c\0"
L_str_91:
    .ascii "sema_accessors.c\0"
L_str_92:
    .ascii "sema_accessors.c\0"
L_str_93:
    .ascii "sema_accessors.c\0"
L_str_94:
    .ascii "sema_accessors.c\0"
L_str_95:
    .ascii "sema_accessors.c\0"
L_str_96:
    .ascii "sema_accessors.c\0"
L_str_97:
    .ascii "sema_accessors.c\0"
L_str_98:
    .ascii "sema_accessors.c\0"
L_str_99:
    .ascii "sema_accessors.c\0"
L_str_100:
    .ascii "sema_accessors.c\0"
L_str_101:
    .ascii "sema_accessors.c\0"
L_str_102:
    .ascii "sema_accessors.c\0"
L_str_103:
    .ascii "sema_accessors.c\0"
L_str_104:
    .ascii "sema_accessors.c\0"
L_str_105:
    .ascii "sema_accessors.c\0"
L_str_106:
    .ascii "sema_accessors.c\0"
L_str_107:
    .ascii "sema_accessors.c\0"
L_str_108:
    .ascii "sema_accessors.c\0"
L_str_109:
    .ascii "sema_accessors.c\0"
L_str_110:
    .ascii "sema_accessors.c\0"
L_str_111:
    .ascii "sema_accessors.c\0"
L_str_112:
    .ascii "sema_accessors.c\0"
L_str_113:
    .ascii "sema_accessors.c\0"
L_str_114:
    .ascii "sema_accessors.c\0"
L_str_115:
    .ascii "sema_accessors.c\0"
L_str_116:
    .ascii "sema_accessors.c\0"
L_str_117:
    .ascii "sema_accessors.c\0"
L_str_118:
    .ascii "sema_accessors.c\0"
L_str_119:
    .ascii "sema_accessors.c\0"
L_str_120:
    .ascii "sema_accessors.c\0"
L_str_121:
    .ascii "sema_accessors.c\0"
L_str_122:
    .ascii "sema_accessors.c\0"
L_str_123:
    .ascii "sema_accessors.c\0"
L_str_124:
    .ascii "sema_accessors.c\0"
L_str_125:
    .ascii "ast.c\0"
L_str_126:
    .ascii "sema_accessors.c\0"
    .section .rodata
L_SEMA_E_OK:
    .quad 0x0
L_SEMA_E_DECL_DUP:
    .quad 0x1
L_SEMA_E_IDENT_UNRESOLVED:
    .quad 0x2
L_SEMA_E_HEXAD_MISSING:
    .quad 0x3
L_SEMA_E_HEXAD_UNREP:
    .quad 0x4
L_SEMA_E_RING_MALFORMED:
    .quad 0x5
L_SEMA_E_RING_MISSING:
    .quad 0x6
L_SEMA_E_IRPD_RAW:
    .quad 0x7
L_SEMA_E_METAL_RING:
    .quad 0x8
L_SEMA_E_EXTERN_ABI:
    .quad 0x9
L_SEMA_E_SEAL_COLLISION:
    .quad 0xa
L_SEMA_E_ERROR_NODE:
    .quad 0xb
L_SEMA_E_PFS_BRICK:
    .quad 0xc
L_SEMA_E_OOM:
    .quad 0x63
L_SEMA_RING_R3:
    .quad 0x1
L_SEMA_RING_R0:
    .quad 0x2
L_SEMA_RING_RM1:
    .quad 0x4
L_SEMA_RING_RM2:
    .quad 0x8
L_SEMA_RING_ANY:
    .quad 0xf
L_SEMA_ABI_C_MSVC_X64:
    .quad 0x1
L_SEMA_ABI_IOCTL:
    .quad 0x5
L_SEMA_TRIT_NEG:
    .quad 0x0
L_SEMA_TRIT_ZERO:
    .quad 0x1
L_SEMA_TRIT_POS:
    .quad 0x2
L_SEMA_UN_NEG:
    .quad 0x1
L_SEMA_K_MODULE:
    .quad 0x1
L_SEMA_K_USE:
    .quad 0x2
L_SEMA_K_CYCLE_DECL:
    .quad 0x3
L_SEMA_K_FN_DECL:
    .quad 0x4
L_SEMA_K_TYPE_DECL:
    .quad 0x5
L_SEMA_K_CONST_DECL:
    .quad 0x6
L_SEMA_K_EXTERN_DECL:
    .quad 0x7
L_SEMA_K_MOBIUS_CANDIDATE_DECL:
    .quad 0x8
L_SEMA_K_SCHEMA_DECL:
    .quad 0x9
L_SEMA_K_SEALED_CALL_METHOD_DECL:
    .quad 0xb
L_SEMA_K_PARAM:
    .quad 0xc
L_SEMA_K_MODIFIER:
    .quad 0xe
L_SEMA_K_STMT_LET:
    .quad 0x14
L_SEMA_K_STMT_WAVEFRONT:
    .quad 0x15
L_SEMA_K_STMT_SANCTUM_ENTER:
    .quad 0x16
L_SEMA_K_STMT_METAL:
    .quad 0x17
L_SEMA_K_STMT_FOR:
    .quad 0x18
L_SEMA_K_STMT_MATCH:
    .quad 0x19
L_SEMA_K_STMT_RETURN:
    .quad 0x1a
L_SEMA_K_STMT_ASSIGN:
    .quad 0x1b
L_SEMA_K_STMT_EXPR:
    .quad 0x1c
L_SEMA_K_FORWARD_BLOCK:
    .quad 0x1d
L_SEMA_K_COMPROMISE_BLOCK:
    .quad 0x1e
L_SEMA_K_MATCH_ARM:
    .quad 0x1f
L_SEMA_K_PAT_LITERAL:
    .quad 0x20
L_SEMA_K_PAT_IDENT:
    .quad 0x21
L_SEMA_K_PAT_HEXAD:
    .quad 0x22
L_SEMA_K_EXPR_INT:
    .quad 0x25
L_SEMA_K_EXPR_HEX:
    .quad 0x26
L_SEMA_K_EXPR_MHASH:
    .quad 0x27
L_SEMA_K_EXPR_STR:
    .quad 0x28
L_SEMA_K_EXPR_BOOL:
    .quad 0x29
L_SEMA_K_EXPR_TRIT:
    .quad 0x2a
L_SEMA_K_EXPR_HEXAD:
    .quad 0x2b
L_SEMA_K_EXPR_UNIT:
    .quad 0x2c
L_SEMA_K_EXPR_IDENT:
    .quad 0x2d
L_SEMA_K_EXPR_CALL:
    .quad 0x2e
L_SEMA_K_EXPR_FIELD:
    .quad 0x2f
L_SEMA_K_EXPR_INDEX:
    .quad 0x30
L_SEMA_K_EXPR_BINARY:
    .quad 0x31
L_SEMA_K_EXPR_UNARY:
    .quad 0x32
L_SEMA_K_EXPR_BLOCK:
    .quad 0x33
L_SEMA_K_EXPR_MATCH:
    .quad 0x34
L_SEMA_K_EXPR_PAREN:
    .quad 0x35
L_SEMA_K_EXPR_RAW_ASM:
    .quad 0x36
L_SEMA_K_RING_SET:
    .quad 0x37
L_SEMA_K_HEXAD_NAME:
    .quad 0x38
L_SEMA_K_ARG:
    .quad 0x39
L_SEMA_K_EXPR_HOLE:
    .quad 0x3c
L_SEMA_K_EXPR_PARALLEL:
    .quad 0x3d
L_SEMA_K_ERROR_NODE:
    .quad 0x3e
L_SEMA_K_STMT_IF:
    .quad 0x45
L_SEMA_K_STMT_WHILE:
    .quad 0x46
L_SEMA_K_EXPR_RANGE:
    .quad 0x47
L_SEMA_K_EXPR_CAST:
    .quad 0x48
L_SEMA_K_EXPR_SIZEOF:
    .quad 0x49
L_SEMA_K_VAR_DECL:
    .quad 0x4a
L_SEMA_K_STRUCT_DECL:
    .quad 0x4b
L_SEMA_NAME_CAP:
    .quad 0x40
L_SEMA_DECL_CAP:
    .quad 0x400
L_SEMA_ANNO_CAP:
    .quad 0x400
L_SEMA_STRUCT_CAP:
    .quad 0x100
L_SEMA_STRUCT_FIELD_CAP:
    .quad 0x40
L_SEMA_ERR_CAP:
    .quad 0x100
L_SEMA_LOCAL_CAP:
    .quad 0x100
L_SEMA_SEAL_SCAN_CAP:
    .quad 0x40
L_SEMA_HEXAD_DEFAULT_IRPD:
    .quad 0x179
L_SEMA_HEXAD_UNSET:
    .quad 0xffff
    .section .bss
    .global L_SEMA_SENTINEL
L_SEMA_SENTINEL:
    .zero 8
    .section .data
    .global L_SEMA_AST
L_SEMA_AST:
    .quad 0x0
    .global L_SEMA_INIT
L_SEMA_INIT:
    .quad 0x0
    .global L_SEMA_RAN
L_SEMA_RAN:
    .quad 0x0
    .global L_SEMA_CURRENT_CYCLE
L_SEMA_CURRENT_CYCLE:
    .quad 0x0
    .section .bss
    .global L_SEMA_ARENA
L_SEMA_ARENA:
    .zero 2097152
    .section .data
    .global L_SEMA_ARENA_USED
L_SEMA_ARENA_USED:
    .quad 0x0
    .section .bss
    .global L_SEMA_DECLS_NAME_OFF
L_SEMA_DECLS_NAME_OFF:
    .zero 8192
    .global L_SEMA_DECLS_NAME_LEN
L_SEMA_DECLS_NAME_LEN:
    .zero 8192
    .global L_SEMA_DECLS_NODE
L_SEMA_DECLS_NODE:
    .zero 8192
    .global L_SEMA_DECLS_KIND
L_SEMA_DECLS_KIND:
    .zero 8192
    .section .data
    .global L_SEMA_DECL_COUNT
L_SEMA_DECL_COUNT:
    .quad 0x0
    .section .bss
    .global L_SEMA_DECL_IDX
L_SEMA_DECL_IDX:
    .zero 16384
    .global L_SEMA_ANNO_NODE
L_SEMA_ANNO_NODE:
    .zero 8192
    .global L_SEMA_ANNO_HEXAD
L_SEMA_ANNO_HEXAD:
    .zero 8192
    .global L_SEMA_ANNO_RING
L_SEMA_ANNO_RING:
    .zero 8192
    .global L_SEMA_ANNO_TIER
L_SEMA_ANNO_TIER:
    .zero 8192
    .global L_SEMA_ANNO_EPOCH_LO
L_SEMA_ANNO_EPOCH_LO:
    .zero 8192
    .global L_SEMA_ANNO_EPOCH_HI
L_SEMA_ANNO_EPOCH_HI:
    .zero 8192
    .global L_SEMA_ANNO_ABI
L_SEMA_ANNO_ABI:
    .zero 8192
    .section .data
    .global L_SEMA_ANNO_COUNT
L_SEMA_ANNO_COUNT:
    .quad 0x0
    .section .bss
    .global L_SEMA_STRUCT_NODE
L_SEMA_STRUCT_NODE:
    .zero 2048
    .global L_SEMA_STRUCT_NAME_OFF
L_SEMA_STRUCT_NAME_OFF:
    .zero 2048
    .global L_SEMA_STRUCT_NAME_LEN
L_SEMA_STRUCT_NAME_LEN:
    .zero 2048
    .global L_SEMA_STRUCT_FIELD_COUNT
L_SEMA_STRUCT_FIELD_COUNT:
    .zero 2048
    .global L_SEMA_STRUCT_FIELD_NAME_OFF
L_SEMA_STRUCT_FIELD_NAME_OFF:
    .zero 131072
    .global L_SEMA_STRUCT_FIELD_NAME_LEN
L_SEMA_STRUCT_FIELD_NAME_LEN:
    .zero 131072
    .section .data
    .global L_SEMA_STRUCT_COUNT
L_SEMA_STRUCT_COUNT:
    .quad 0x0
    .section .bss
    .global L_SEMA_ERR_CODE
L_SEMA_ERR_CODE:
    .zero 2048
    .global L_SEMA_ERR_LINE
L_SEMA_ERR_LINE:
    .zero 2048
    .global L_SEMA_ERR_COL
L_SEMA_ERR_COL:
    .zero 2048
    .global L_SEMA_ERR_HEXAD
L_SEMA_ERR_HEXAD:
    .zero 2048
    .global L_SEMA_ERR_NODE
L_SEMA_ERR_NODE:
    .zero 2048
    .global L_SEMA_ERR_MSG_PTR
L_SEMA_ERR_MSG_PTR:
    .zero 2048
    .section .data
    .global L_SEMA_ERR_COUNT
L_SEMA_ERR_COUNT:
    .quad 0x0
    .section .bss
    .global L_SEMA_LOCAL_NAME_OFF
L_SEMA_LOCAL_NAME_OFF:
    .zero 2048
    .global L_SEMA_LOCAL_NAME_LEN
L_SEMA_LOCAL_NAME_LEN:
    .zero 2048
    .global L_SEMA_LOCAL_BINDER
L_SEMA_LOCAL_BINDER:
    .zero 2048
    .global L_SEMA_LOCAL_DEF
L_SEMA_LOCAL_DEF:
    .zero 2048
    .section .data
    .global L_SEMA_LOCAL_COUNT
L_SEMA_LOCAL_COUNT:
    .quad 0x0
    .global L_SEMA_NEXT_BINDER
L_SEMA_NEXT_BINDER:
    .quad 0x1
    .section .bss
    .global L_SEMA_ENAME_BUF
L_SEMA_ENAME_BUF:
    .zero 3072
    .global L_SEMA_ENAME_OFF
L_SEMA_ENAME_OFF:
    .zero 128
    .global L_SEMA_ENAME_LEN
L_SEMA_ENAME_LEN:
    .zero 128
    .section .data
    .global L_SEMA_ENAME_INIT
L_SEMA_ENAME_INIT:
    .quad 0x0
    .section .bss
    .global L_SEMA_IRPD_BUF
L_SEMA_IRPD_BUF:
    .zero 3072
    .global L_SEMA_IRPD_OFF
L_SEMA_IRPD_OFF:
    .zero 192
    .global L_SEMA_IRPD_LEN
L_SEMA_IRPD_LEN:
    .zero 192
    .section .data
    .global L_SEMA_IRPD_COUNT
L_SEMA_IRPD_COUNT:
    .quad 0x0
    .global L_SEMA_IRPD_INIT
L_SEMA_IRPD_INIT:
    .quad 0x0
    .section .bss
    .global L_SEMA_PFS_BUF
L_SEMA_PFS_BUF:
    .zero 512
    .global L_SEMA_PFS_OFF
L_SEMA_PFS_OFF:
    .zero 64
    .global L_SEMA_PFS_LEN
L_SEMA_PFS_LEN:
    .zero 64
    .section .data
    .global L_SEMA_PFS_COUNT
L_SEMA_PFS_COUNT:
    .quad 0x0
    .section .bss
    .global L_SEMA_RAWOP_BUF
L_SEMA_RAWOP_BUF:
    .zero 1536
    .global L_SEMA_RAWOP_OFF
L_SEMA_RAWOP_OFF:
    .zero 128
    .global L_SEMA_RAWOP_LEN
L_SEMA_RAWOP_LEN:
    .zero 128
    .section .data
    .global L_SEMA_RAWOP_COUNT
L_SEMA_RAWOP_COUNT:
    .quad 0x0
    .section .bss
    .global L_SEMA_BUILTIN_BUF
L_SEMA_BUILTIN_BUF:
    .zero 8192
    .global L_SEMA_BUILTIN_OFF
L_SEMA_BUILTIN_OFF:
    .zero 512
    .global L_SEMA_BUILTIN_LEN
L_SEMA_BUILTIN_LEN:
    .zero 512
    .section .data
    .global L_SEMA_BUILTIN_COUNT
L_SEMA_BUILTIN_COUNT:
    .quad 0x0
    .section .bss
    .global L_SEMA_LOWER_BUF
L_SEMA_LOWER_BUF:
    .zero 32768
    .section .data
    .global L_SEMA_LOWER_LEN
L_SEMA_LOWER_LEN:
    .quad 0x0
    .section .bss
    .global L_SEMA_LITS_BUF
L_SEMA_LITS_BUF:
    .zero 512
    .section .data
    .global L_SEMA_LITS_INIT
L_SEMA_LITS_INIT:
    .quad 0x0
    .global L_SEMA_TMP_NAME_OFF
L_SEMA_TMP_NAME_OFF:
    .quad 0x0
    .global L_SEMA_TMP_NAME_LEN
L_SEMA_TMP_NAME_LEN:
    .quad 0x0
    .global L_SEMA_CURRENT_RING_MASK
L_SEMA_CURRENT_RING_MASK:
    .quad 0x0
    .section .bss
    .global L_SEMA_SEAL_SEEN
L_SEMA_SEAL_SEEN:
    .zero 512
    .section .data
    .global L_SEMA_SEAL_SEEN_N
L_SEMA_SEAL_SEEN_N:
    .quad 0x0
    .section .iii.ring3,"n"
    .asciz "s_load_u8"
    .text
    .seh_proc L_s_load_u8
L_s_load_u8:
    pushq %rbp
    .seh_pushreg %rbp
    movq %rsp, %rbp
    .seh_setframe %rbp, 0
    subq $1024, %rsp
    .seh_stackalloc 1024
    .seh_endprologue
    movq %rcx, -8(%rbp)
    movq -8(%rbp), %rax
    pushq %rax
    popq %rcx
    subq $32, %rsp
    callq iii_ast_load_u8
    addq $32, %rsp
    movl %eax, %eax
    pushq %rax
    popq %rax
    movq %rbp, %rsp
    popq %rbp
    retq
    movq $0, %rax
    pushq %rax
    movq $0, %rax
    movq %rbp, %rsp
    popq %rbp
    retq
    .seh_endproc
    .section .iii.ring3,"n"
    .asciz "s_store_u8"
    .text
    .seh_proc L_s_store_u8
L_s_store_u8:
    pushq %rbp
    .seh_pushreg %rbp
    movq %rsp, %rbp
    .seh_setframe %rbp, 0
    subq $1024, %rsp
    .seh_stackalloc 1024
    .seh_endprologue
    movq %rcx, -8(%rbp)
    movq %rdx, -16(%rbp)
    movl -16(%rbp), %eax
    pushq %rax
    movq -8(%rbp), %rax
    pushq %rax
    popq %rcx
    popq %rdx
    subq $32, %rsp
    callq iii_ast_store_u8
    addq $32, %rsp
    movl %eax, %eax
    pushq %rax
    popq %rax
    movabsq $0x0, %rax
    pushq %rax
    popq %rax
    movq %rbp, %rsp
    popq %rbp
    retq
    movq $0, %rax
    pushq %rax
    movq $0, %rax
    movq %rbp, %rsp
    popq %rbp
    retq
    .seh_endproc
    .section .iii.ring3,"n"
    .asciz "s_to_lower"
    .text
    .seh_proc L_s_to_lower
L_s_to_lower:
    pushq %rbp
    .seh_pushreg %rbp
    movq %rsp, %rbp
    .seh_setframe %rbp, 0
    subq $1024, %rsp
    .seh_stackalloc 1024
    .seh_endprologue
    movq %rcx, -8(%rbp)
    movl -8(%rbp), %eax
    pushq %rax
    movabsq $0x41, %rax
    pushq %rax
    popq %rcx
    popq %rax
    cmpq %rcx, %rax
    setae %al
    movzbq %al, %rax
    pushq %rax
    popq %rax
    testq %rax, %rax
    jz L_if_end_1
    movl -8(%rbp), %eax
    pushq %rax
    movabsq $0x5a, %rax
    pushq %rax
    popq %rcx
    popq %rax
    cmpq %rcx, %rax
    setbe %al
    movzbq %al, %rax
    pushq %rax
    popq %rax
    testq %rax, %rax
    jz L_if_end_3
    movl -8(%rbp), %eax
    pushq %rax
    movabsq $0x20, %rax
    pushq %rax
    popq %rcx
    popq %rax
    addq %rcx, %rax
    movl %eax, %eax
    pushq %rax
    popq %rax
    movq %rbp, %rsp
    popq %rbp
    retq
    movq $0, %rax
    pushq %rax
    popq %rax
L_if_end_3:
    movq $0, %rax
    pushq %rax
    popq %rax
L_if_end_1:
    movl -8(%rbp), %eax
    pushq %rax
    popq %rax
    movq %rbp, %rsp
    popq %rbp
    retq
    movq $0, %rax
    pushq %rax
    movq $0, %rax
    movq %rbp, %rsp
    popq %rbp
    retq
    .seh_endproc
    .section .iii.ring3,"n"
    .asciz "s_arena_alloc"
    .text
    .seh_proc L_s_arena_alloc
L_s_arena_alloc:
    pushq %rbp
    .seh_pushreg %rbp
    movq %rsp, %rbp
    .seh_setframe %rbp, 0
    subq $1024, %rsp
    .seh_stackalloc 1024
    .seh_endprologue
    movq %rcx, -8(%rbp)
    movl L_SEMA_ARENA_USED(%rip), %eax
    pushq %rax
    popq %rax
    movq %rax, -16(%rbp)
    movl -16(%rbp), %eax
    pushq %rax
    movl -8(%rbp), %eax
    pushq %rax
    popq %rcx
    popq %rax
    addq %rcx, %rax
    movl %eax, %eax
    pushq %rax
    movabsq $0x40000, %rax
    pushq %rax
    popq %rcx
    popq %rax
    cmpq %rcx, %rax
    seta %al
    movzbq %al, %rax
    pushq %rax
    popq %rax
    testq %rax, %rax
    jz L_if_end_5
    movabsq $0xffffffff, %rax
    pushq %rax
    popq %rax
    movq %rbp, %rsp
    popq %rbp
    retq
    movq $0, %rax
    pushq %rax
    popq %rax
L_if_end_5:
    movl -16(%rbp), %eax
    pushq %rax
    movl -8(%rbp), %eax
    pushq %rax
    popq %rcx
    popq %rax
    addq %rcx, %rax
    movl %eax, %eax
    pushq %rax
    popq %rax
    movl %eax, L_SEMA_ARENA_USED(%rip)
    movl -16(%rbp), %eax
    pushq %rax
    popq %rax
    movq %rbp, %rsp
    popq %rbp
    retq
    movq $0, %rax
    pushq %rax
    movq $0, %rax
    movq %rbp, %rsp
    popq %rbp
    retq
    .seh_endproc
    .section .iii.ring3,"n"
    .asciz "s_arena_addr"
    .text
    .seh_proc L_s_arena_addr
L_s_arena_addr:
    pushq %rbp
    .seh_pushreg %rbp
    movq %rsp, %rbp
    .seh_setframe %rbp, 0
    subq $1024, %rsp
    .seh_stackalloc 1024
    .seh_endprologue
    movq %rcx, -8(%rbp)
    leaq L_SEMA_ARENA(%rip), %rax
    pushq %rax
    popq %rax
    pushq %rax
    movl -8(%rbp), %eax
    pushq %rax
    popq %rax
    pushq %rax
    popq %rcx
    popq %rax
    addq %rcx, %rax
    pushq %rax
    popq %rax
    movq %rbp, %rsp
    popq %rbp
    retq
    movq $0, %rax
    pushq %rax
    movq $0, %rax
    movq %rbp, %rsp
    popq %rbp
    retq
    .seh_endproc
    .section .iii.ring3,"n"
    .asciz "s_arena_strdup"
    .text
    .seh_proc L_s_arena_strdup
L_s_arena_strdup:
    pushq %rbp
    .seh_pushreg %rbp
    movq %rsp, %rbp
    .seh_setframe %rbp, 0
    subq $1024, %rsp
    .seh_stackalloc 1024
    .seh_endprologue
    movq %rcx, -8(%rbp)
    movq %rdx, -16(%rbp)
    movq L_SEMA_AST(%rip), %rax
    pushq %rax
    popq %rcx
    subq $32, %rsp
    callq iii_ast_source_buf
    addq $32, %rsp
    pushq %rax
    popq %rax
    movq %rax, -24(%rbp)
    movl -16(%rbp), %eax
    pushq %rax
    movabsq $0x1, %rax
    pushq %rax
    popq %rcx
    popq %rax
    addq %rcx, %rax
    movl %eax, %eax
    pushq %rax
    popq %rcx
    subq $32, %rsp
    callq L_s_arena_alloc
    addq $32, %rsp
    movl %eax, %eax
    pushq %rax
    popq %rax
    movq %rax, -32(%rbp)
    movl -32(%rbp), %eax
    pushq %rax
    movabsq $0xffffffff, %rax
    pushq %rax
    popq %rcx
    popq %rax
    cmpq %rcx, %rax
    sete %al
    movzbq %al, %rax
    pushq %rax
    popq %rax
    testq %rax, %rax
    jz L_if_end_7
    movabsq $0xffffffff, %rax
    pushq %rax
    popq %rax
    movq %rbp, %rsp
    popq %rbp
    retq
    movq $0, %rax
    pushq %rax
    popq %rax
L_if_end_7:
    movabsq $0x0, %rax
    pushq %rax
    popq %rax
    movq %rax, -40(%rbp)
L_loop_top_8:
    movl -40(%rbp), %eax
    pushq %rax
    movl -16(%rbp), %eax
    pushq %rax
    popq %rcx
    popq %rax
    cmpq %rcx, %rax
    setb %al
    movzbq %al, %rax
    pushq %rax
    popq %rax
    testq %rax, %rax
    jz L_loop_end_9
    movq -24(%rbp), %rax
    pushq %rax
    movl -8(%rbp), %eax
    pushq %rax
    movl -40(%rbp), %eax
    pushq %rax
    popq %rcx
    popq %rax
    addq %rcx, %rax
    movl %eax, %eax
    pushq %rax
    popq %rax
    pushq %rax
    popq %rcx
    popq %rax
    addq %rcx, %rax
    pushq %rax
    popq %rcx
    subq $32, %rsp
    callq L_s_load_u8
    addq $32, %rsp
    movl %eax, %eax
    pushq %rax
    popq %rax
    movq %rax, -48(%rbp)
    movl -48(%rbp), %eax
    pushq %rax
    subq $8, %rsp
    movl -32(%rbp), %eax
    pushq %rax
    movl -40(%rbp), %eax
    pushq %rax
    popq %rcx
    popq %rax
    addq %rcx, %rax
    movl %eax, %eax
    pushq %rax
    popq %rcx
    subq $32, %rsp
    callq L_s_arena_addr
    addq $32, %rsp
    addq $8, %rsp
    pushq %rax
    popq %rcx
    popq %rdx
    subq $32, %rsp
    callq L_s_store_u8
    addq $32, %rsp
    movl %eax, %eax
    pushq %rax
    popq %rax
    movl -40(%rbp), %eax
    pushq %rax
    movabsq $0x1, %rax
    pushq %rax
    popq %rcx
    popq %rax
    addq %rcx, %rax
    movl %eax, %eax
    pushq %rax
    popq %rax
    movq %rax, -40(%rbp)
    movq $0, %rax
    pushq %rax
    popq %rax
    jmp L_loop_top_8
L_loop_end_9:
    movabsq $0x0, %rax
    pushq %rax
    subq $8, %rsp
    movl -32(%rbp), %eax
    pushq %rax
    movl -16(%rbp), %eax
    pushq %rax
    popq %rcx
    popq %rax
    addq %rcx, %rax
    movl %eax, %eax
    pushq %rax
    popq %rcx
    subq $32, %rsp
    callq L_s_arena_addr
    addq $32, %rsp
    addq $8, %rsp
    pushq %rax
    popq %rcx
    popq %rdx
    subq $32, %rsp
    callq L_s_store_u8
    addq $32, %rsp
    movl %eax, %eax
    pushq %rax
    popq %rax
    movl -32(%rbp), %eax
    pushq %rax
    popq %rax
    movq %rbp, %rsp
    popq %rbp
    retq
    movq $0, %rax
    pushq %rax
    movq $0, %rax
    movq %rbp, %rsp
    popq %rbp
    retq
    .seh_endproc
    .section .iii.ring3,"n"
    .asciz "s_arena_strdup_lower"
    .text
    .seh_proc L_s_arena_strdup_lower
L_s_arena_strdup_lower:
    pushq %rbp
    .seh_pushreg %rbp
    movq %rsp, %rbp
    .seh_setframe %rbp, 0
    subq $1024, %rsp
    .seh_stackalloc 1024
    .seh_endprologue
    movq %rcx, -8(%rbp)
    movq %rdx, -16(%rbp)
    movq L_SEMA_AST(%rip), %rax
    pushq %rax
    popq %rcx
    subq $32, %rsp
    callq iii_ast_source_buf
    addq $32, %rsp
    pushq %rax
    popq %rax
    movq %rax, -24(%rbp)
    movl -16(%rbp), %eax
    pushq %rax
    movabsq $0x1, %rax
    pushq %rax
    popq %rcx
    popq %rax
    addq %rcx, %rax
    movl %eax, %eax
    pushq %rax
    popq %rcx
    subq $32, %rsp
    callq L_s_arena_alloc
    addq $32, %rsp
    movl %eax, %eax
    pushq %rax
    popq %rax
    movq %rax, -32(%rbp)
    movl -32(%rbp), %eax
    pushq %rax
    movabsq $0xffffffff, %rax
    pushq %rax
    popq %rcx
    popq %rax
    cmpq %rcx, %rax
    sete %al
    movzbq %al, %rax
    pushq %rax
    popq %rax
    testq %rax, %rax
    jz L_if_end_11
    movabsq $0xffffffff, %rax
    pushq %rax
    popq %rax
    movq %rbp, %rsp
    popq %rbp
    retq
    movq $0, %rax
    pushq %rax
    popq %rax
L_if_end_11:
    movabsq $0x0, %rax
    pushq %rax
    popq %rax
    movq %rax, -40(%rbp)
L_loop_top_12:
    movl -40(%rbp), %eax
    pushq %rax
    movl -16(%rbp), %eax
    pushq %rax
    popq %rcx
    popq %rax
    cmpq %rcx, %rax
    setb %al
    movzbq %al, %rax
    pushq %rax
    popq %rax
    testq %rax, %rax
    jz L_loop_end_13
    movq -24(%rbp), %rax
    pushq %rax
    movl -8(%rbp), %eax
    pushq %rax
    movl -40(%rbp), %eax
    pushq %rax
    popq %rcx
    popq %rax
    addq %rcx, %rax
    movl %eax, %eax
    pushq %rax
    popq %rax
    pushq %rax
    popq %rcx
    popq %rax
    addq %rcx, %rax
    pushq %rax
    popq %rcx
    subq $32, %rsp
    callq L_s_load_u8
    addq $32, %rsp
    movl %eax, %eax
    pushq %rax
    popq %rax
    movq %rax, -48(%rbp)
    movl -48(%rbp), %eax
    pushq %rax
    popq %rcx
    subq $32, %rsp
    callq L_s_to_lower
    addq $32, %rsp
    movl %eax, %eax
    pushq %rax
    subq $8, %rsp
    movl -32(%rbp), %eax
    pushq %rax
    movl -40(%rbp), %eax
    pushq %rax
    popq %rcx
    popq %rax
    addq %rcx, %rax
    movl %eax, %eax
    pushq %rax
    popq %rcx
    subq $32, %rsp
    callq L_s_arena_addr
    addq $32, %rsp
    addq $8, %rsp
    pushq %rax
    popq %rcx
    popq %rdx
    subq $32, %rsp
    callq L_s_store_u8
    addq $32, %rsp
    movl %eax, %eax
    pushq %rax
    popq %rax
    movl -40(%rbp), %eax
    pushq %rax
    movabsq $0x1, %rax
    pushq %rax
    popq %rcx
    popq %rax
    addq %rcx, %rax
    movl %eax, %eax
    pushq %rax
    popq %rax
    movq %rax, -40(%rbp)
    movq $0, %rax
    pushq %rax
    popq %rax
    jmp L_loop_top_12
L_loop_end_13:
    movabsq $0x0, %rax
    pushq %rax
    subq $8, %rsp
    movl -32(%rbp), %eax
    pushq %rax
    movl -16(%rbp), %eax
    pushq %rax
    popq %rcx
    popq %rax
    addq %rcx, %rax
    movl %eax, %eax
    pushq %rax
    popq %rcx
    subq $32, %rsp
    callq L_s_arena_addr
    addq $32, %rsp
    addq $8, %rsp
    pushq %rax
    popq %rcx
    popq %rdx
    subq $32, %rsp
    callq L_s_store_u8
    addq $32, %rsp
    movl %eax, %eax
    pushq %rax
    popq %rax
    movl -32(%rbp), %eax
    pushq %rax
    popq %rax
    movq %rbp, %rsp
    popq %rbp
    retq
    movq $0, %rax
    pushq %rax
    movq $0, %rax
    movq %rbp, %rsp
    popq %rbp
    retq
    .seh_endproc
    .section .iii.ring3,"n"
    .asciz "s_arena_slice_eq"
    .text
    .seh_proc L_s_arena_slice_eq
L_s_arena_slice_eq:
    pushq %rbp
    .seh_pushreg %rbp
    movq %rsp, %rbp
    .seh_setframe %rbp, 0
    subq $1024, %rsp
    .seh_stackalloc 1024
    .seh_endprologue
    movq %rcx, -8(%rbp)
    movq %rdx, -16(%rbp)
    movq %r8, -24(%rbp)
    movq %r9, -32(%rbp)
    movl -16(%rbp), %eax
    pushq %rax
    movl -32(%rbp), %eax
    pushq %rax
    popq %rcx
    popq %rax
    cmpq %rcx, %rax
    setne %al
    movzbq %al, %rax
    pushq %rax
    popq %rax
    testq %rax, %rax
    jz L_if_end_15
    movabsq $0x0, %rax
    pushq %rax
    popq %rax
    movq %rbp, %rsp
    popq %rbp
    retq
    movq $0, %rax
    pushq %rax
    popq %rax
L_if_end_15:
    movabsq $0x0, %rax
    pushq %rax
    popq %rax
    movq %rax, -40(%rbp)
L_loop_top_16:
    movl -40(%rbp), %eax
    pushq %rax
    movl -16(%rbp), %eax
    pushq %rax
    popq %rcx
    popq %rax
    cmpq %rcx, %rax
    setb %al
    movzbq %al, %rax
    pushq %rax
    popq %rax
    testq %rax, %rax
    jz L_loop_end_17
    movl -8(%rbp), %eax
    pushq %rax
    movl -40(%rbp), %eax
    pushq %rax
    popq %rcx
    popq %rax
    addq %rcx, %rax
    movl %eax, %eax
    pushq %rax
    popq %rcx
    subq $32, %rsp
    callq L_s_arena_addr
    addq $32, %rsp
    pushq %rax
    popq %rcx
    subq $32, %rsp
    callq L_s_load_u8
    addq $32, %rsp
    movl %eax, %eax
    pushq %rax
    subq $8, %rsp
    movl -24(%rbp), %eax
    pushq %rax
    movl -40(%rbp), %eax
    pushq %rax
    popq %rcx
    popq %rax
    addq %rcx, %rax
    movl %eax, %eax
    pushq %rax
    popq %rcx
    subq $32, %rsp
    callq L_s_arena_addr
    addq $32, %rsp
    pushq %rax
    popq %rcx
    subq $32, %rsp
    callq L_s_load_u8
    addq $32, %rsp
    addq $8, %rsp
    movl %eax, %eax
    pushq %rax
    popq %rcx
    popq %rax
    cmpq %rcx, %rax
    setne %al
    movzbq %al, %rax
    pushq %rax
    popq %rax
    testq %rax, %rax
    jz L_if_end_19
    movabsq $0x0, %rax
    pushq %rax
    popq %rax
    movq %rbp, %rsp
    popq %rbp
    retq
    movq $0, %rax
    pushq %rax
    popq %rax
L_if_end_19:
    movl -40(%rbp), %eax
    pushq %rax
    movabsq $0x1, %rax
    pushq %rax
    popq %rcx
    popq %rax
    addq %rcx, %rax
    movl %eax, %eax
    pushq %rax
    popq %rax
    movq %rax, -40(%rbp)
    movq $0, %rax
    pushq %rax
    popq %rax
    jmp L_loop_top_16
L_loop_end_17:
    movabsq $0x1, %rax
    pushq %rax
    popq %rax
    movq %rbp, %rsp
    popq %rbp
    retq
    movq $0, %rax
    pushq %rax
    movq $0, %rax
    movq %rbp, %rsp
    popq %rbp
    retq
    .seh_endproc
    .section .iii.ring3,"n"
    .asciz "s_arena_eq_cstr"
    .text
    .seh_proc L_s_arena_eq_cstr
L_s_arena_eq_cstr:
    pushq %rbp
    .seh_pushreg %rbp
    movq %rsp, %rbp
    .seh_setframe %rbp, 0
    subq $1024, %rsp
    .seh_stackalloc 1024
    .seh_endprologue
    movq %rcx, -8(%rbp)
    movq %rdx, -16(%rbp)
    movq %r8, -24(%rbp)
    movabsq $0x0, %rax
    pushq %rax
    popq %rax
    movq %rax, -32(%rbp)
L_loop_top_20:
    movl -32(%rbp), %eax
    pushq %rax
    movl -16(%rbp), %eax
    pushq %rax
    popq %rcx
    popq %rax
    cmpq %rcx, %rax
    setb %al
    movzbq %al, %rax
    pushq %rax
    popq %rax
    testq %rax, %rax
    jz L_loop_end_21
    movl -8(%rbp), %eax
    pushq %rax
    movl -32(%rbp), %eax
    pushq %rax
    popq %rcx
    popq %rax
    addq %rcx, %rax
    movl %eax, %eax
    pushq %rax
    popq %rcx
    subq $32, %rsp
    callq L_s_arena_addr
    addq $32, %rsp
    pushq %rax
    popq %rcx
    subq $32, %rsp
    callq L_s_load_u8
    addq $32, %rsp
    movl %eax, %eax
    pushq %rax
    popq %rax
    movq %rax, -40(%rbp)
    movq -24(%rbp), %rax
    pushq %rax
    movl -32(%rbp), %eax
    pushq %rax
    popq %rax
    pushq %rax
    popq %rcx
    popq %rax
    addq %rcx, %rax
    pushq %rax
    popq %rcx
    subq $32, %rsp
    callq L_s_load_u8
    addq $32, %rsp
    movl %eax, %eax
    pushq %rax
    popq %rax
    movq %rax, -48(%rbp)
    movl -48(%rbp), %eax
    pushq %rax
    movabsq $0x0, %rax
    pushq %rax
    popq %rcx
    popq %rax
    cmpq %rcx, %rax
    sete %al
    movzbq %al, %rax
    pushq %rax
    popq %rax
    testq %rax, %rax
    jz L_if_end_23
    movabsq $0x0, %rax
    pushq %rax
    popq %rax
    movq %rbp, %rsp
    popq %rbp
    retq
    movq $0, %rax
    pushq %rax
    popq %rax
L_if_end_23:
    movl -40(%rbp), %eax
    pushq %rax
    movl -48(%rbp), %eax
    pushq %rax
    popq %rcx
    popq %rax
    cmpq %rcx, %rax
    setne %al
    movzbq %al, %rax
    pushq %rax
    popq %rax
    testq %rax, %rax
    jz L_if_end_25
    movabsq $0x0, %rax
    pushq %rax
    popq %rax
    movq %rbp, %rsp
    popq %rbp
    retq
    movq $0, %rax
    pushq %rax
    popq %rax
L_if_end_25:
    movl -32(%rbp), %eax
    pushq %rax
    movabsq $0x1, %rax
    pushq %rax
    popq %rcx
    popq %rax
    addq %rcx, %rax
    movl %eax, %eax
    pushq %rax
    popq %rax
    movq %rax, -32(%rbp)
    movq $0, %rax
    pushq %rax
    popq %rax
    jmp L_loop_top_20
L_loop_end_21:
    movq -24(%rbp), %rax
    pushq %rax
    movl -16(%rbp), %eax
    pushq %rax
    popq %rax
    pushq %rax
    popq %rcx
    popq %rax
    addq %rcx, %rax
    pushq %rax
    popq %rcx
    subq $32, %rsp
    callq L_s_load_u8
    addq $32, %rsp
    movl %eax, %eax
    pushq %rax
    popq %rax
    movq %rax, -40(%rbp)
    movl -40(%rbp), %eax
    pushq %rax
    movabsq $0x0, %rax
    pushq %rax
    popq %rcx
    popq %rax
    cmpq %rcx, %rax
    sete %al
    movzbq %al, %rax
    pushq %rax
    popq %rax
    testq %rax, %rax
    jz L_if_end_27
    movabsq $0x1, %rax
    pushq %rax
    popq %rax
    movq %rbp, %rsp
    popq %rbp
    retq
    movq $0, %rax
    pushq %rax
    popq %rax
L_if_end_27:
    movabsq $0x0, %rax
    pushq %rax
    popq %rax
    movq %rbp, %rsp
    popq %rbp
    retq
    movq $0, %rax
    pushq %rax
    movq $0, %rax
    movq %rbp, %rsp
    popq %rbp
    retq
    .seh_endproc
    .section .iii.ring3,"n"
    .asciz "s_src_eq_cstr"
    .text
    .seh_proc L_s_src_eq_cstr
L_s_src_eq_cstr:
    pushq %rbp
    .seh_pushreg %rbp
    movq %rsp, %rbp
    .seh_setframe %rbp, 0
    subq $1024, %rsp
    .seh_stackalloc 1024
    .seh_endprologue
    movq %rcx, -8(%rbp)
    movq %rdx, -16(%rbp)
    movq %r8, -24(%rbp)
    movq L_SEMA_AST(%rip), %rax
    pushq %rax
    popq %rcx
    subq $32, %rsp
    callq iii_ast_source_buf
    addq $32, %rsp
    pushq %rax
    popq %rax
    movq %rax, -32(%rbp)
    movabsq $0x0, %rax
    pushq %rax
    popq %rax
    movq %rax, -40(%rbp)
L_loop_top_28:
    movl -40(%rbp), %eax
    pushq %rax
    movl -16(%rbp), %eax
    pushq %rax
    popq %rcx
    popq %rax
    cmpq %rcx, %rax
    setb %al
    movzbq %al, %rax
    pushq %rax
    popq %rax
    testq %rax, %rax
    jz L_loop_end_29
    movq -32(%rbp), %rax
    pushq %rax
    movl -8(%rbp), %eax
    pushq %rax
    movl -40(%rbp), %eax
    pushq %rax
    popq %rcx
    popq %rax
    addq %rcx, %rax
    movl %eax, %eax
    pushq %rax
    popq %rax
    pushq %rax
    popq %rcx
    popq %rax
    addq %rcx, %rax
    pushq %rax
    popq %rcx
    subq $32, %rsp
    callq L_s_load_u8
    addq $32, %rsp
    movl %eax, %eax
    pushq %rax
    popq %rax
    movq %rax, -48(%rbp)
    movq -24(%rbp), %rax
    pushq %rax
    movl -40(%rbp), %eax
    pushq %rax
    popq %rax
    pushq %rax
    popq %rcx
    popq %rax
    addq %rcx, %rax
    pushq %rax
    popq %rcx
    subq $32, %rsp
    callq L_s_load_u8
    addq $32, %rsp
    movl %eax, %eax
    pushq %rax
    popq %rax
    movq %rax, -56(%rbp)
    movl -56(%rbp), %eax
    pushq %rax
    movabsq $0x0, %rax
    pushq %rax
    popq %rcx
    popq %rax
    cmpq %rcx, %rax
    sete %al
    movzbq %al, %rax
    pushq %rax
    popq %rax
    testq %rax, %rax
    jz L_if_end_31
    movabsq $0x0, %rax
    pushq %rax
    popq %rax
    movq %rbp, %rsp
    popq %rbp
    retq
    movq $0, %rax
    pushq %rax
    popq %rax
L_if_end_31:
    movl -48(%rbp), %eax
    pushq %rax
    movl -56(%rbp), %eax
    pushq %rax
    popq %rcx
    popq %rax
    cmpq %rcx, %rax
    setne %al
    movzbq %al, %rax
    pushq %rax
    popq %rax
    testq %rax, %rax
    jz L_if_end_33
    movabsq $0x0, %rax
    pushq %rax
    popq %rax
    movq %rbp, %rsp
    popq %rbp
    retq
    movq $0, %rax
    pushq %rax
    popq %rax
L_if_end_33:
    movl -40(%rbp), %eax
    pushq %rax
    movabsq $0x1, %rax
    pushq %rax
    popq %rcx
    popq %rax
    addq %rcx, %rax
    movl %eax, %eax
    pushq %rax
    popq %rax
    movq %rax, -40(%rbp)
    movq $0, %rax
    pushq %rax
    popq %rax
    jmp L_loop_top_28
L_loop_end_29:
    movq -24(%rbp), %rax
    pushq %rax
    movl -16(%rbp), %eax
    pushq %rax
    popq %rax
    pushq %rax
    popq %rcx
    popq %rax
    addq %rcx, %rax
    pushq %rax
    popq %rcx
    subq $32, %rsp
    callq L_s_load_u8
    addq $32, %rsp
    movl %eax, %eax
    pushq %rax
    popq %rax
    movq %rax, -48(%rbp)
    movl -48(%rbp), %eax
    pushq %rax
    movabsq $0x0, %rax
    pushq %rax
    popq %rcx
    popq %rax
    cmpq %rcx, %rax
    sete %al
    movzbq %al, %rax
    pushq %rax
    popq %rax
    testq %rax, %rax
    jz L_if_end_35
    movabsq $0x1, %rax
    pushq %rax
    popq %rax
    movq %rbp, %rsp
    popq %rbp
    retq
    movq $0, %rax
    pushq %rax
    popq %rax
L_if_end_35:
    movabsq $0x0, %rax
    pushq %rax
    popq %rax
    movq %rbp, %rsp
    popq %rbp
    retq
    movq $0, %rax
    pushq %rax
    movq $0, %rax
    movq %rbp, %rsp
    popq %rbp
    retq
    .seh_endproc
    .section .iii.ring3,"n"
    .asciz "s_src_eq_cstr_lower"
    .text
    .seh_proc L_s_src_eq_cstr_lower
L_s_src_eq_cstr_lower:
    pushq %rbp
    .seh_pushreg %rbp
    movq %rsp, %rbp
    .seh_setframe %rbp, 0
    subq $1024, %rsp
    .seh_stackalloc 1024
    .seh_endprologue
    movq %rcx, -8(%rbp)
    movq %rdx, -16(%rbp)
    movq %r8, -24(%rbp)
    movq L_SEMA_AST(%rip), %rax
    pushq %rax
    popq %rcx
    subq $32, %rsp
    callq iii_ast_source_buf
    addq $32, %rsp
    pushq %rax
    popq %rax
    movq %rax, -32(%rbp)
    movabsq $0x0, %rax
    pushq %rax
    popq %rax
    movq %rax, -40(%rbp)
L_loop_top_36:
    movl -40(%rbp), %eax
    pushq %rax
    movl -16(%rbp), %eax
    pushq %rax
    popq %rcx
    popq %rax
    cmpq %rcx, %rax
    setb %al
    movzbq %al, %rax
    pushq %rax
    popq %rax
    testq %rax, %rax
    jz L_loop_end_37
    movq -32(%rbp), %rax
    pushq %rax
    movl -8(%rbp), %eax
    pushq %rax
    movl -40(%rbp), %eax
    pushq %rax
    popq %rcx
    popq %rax
    addq %rcx, %rax
    movl %eax, %eax
    pushq %rax
    popq %rax
    pushq %rax
    popq %rcx
    popq %rax
    addq %rcx, %rax
    pushq %rax
    popq %rcx
    subq $32, %rsp
    callq L_s_load_u8
    addq $32, %rsp
    movl %eax, %eax
    pushq %rax
    popq %rcx
    subq $32, %rsp
    callq L_s_to_lower
    addq $32, %rsp
    movl %eax, %eax
    pushq %rax
    popq %rax
    movq %rax, -48(%rbp)
    movq -24(%rbp), %rax
    pushq %rax
    movl -40(%rbp), %eax
    pushq %rax
    popq %rax
    pushq %rax
    popq %rcx
    popq %rax
    addq %rcx, %rax
    pushq %rax
    popq %rcx
    subq $32, %rsp
    callq L_s_load_u8
    addq $32, %rsp
    movl %eax, %eax
    pushq %rax
    popq %rax
    movq %rax, -56(%rbp)
    movl -56(%rbp), %eax
    pushq %rax
    movabsq $0x0, %rax
    pushq %rax
    popq %rcx
    popq %rax
    cmpq %rcx, %rax
    sete %al
    movzbq %al, %rax
    pushq %rax
    popq %rax
    testq %rax, %rax
    jz L_if_end_39
    movabsq $0x0, %rax
    pushq %rax
    popq %rax
    movq %rbp, %rsp
    popq %rbp
    retq
    movq $0, %rax
    pushq %rax
    popq %rax
L_if_end_39:
    movl -48(%rbp), %eax
    pushq %rax
    movl -56(%rbp), %eax
    pushq %rax
    popq %rcx
    popq %rax
    cmpq %rcx, %rax
    setne %al
    movzbq %al, %rax
    pushq %rax
    popq %rax
    testq %rax, %rax
    jz L_if_end_41
    movabsq $0x0, %rax
    pushq %rax
    popq %rax
    movq %rbp, %rsp
    popq %rbp
    retq
    movq $0, %rax
    pushq %rax
    popq %rax
L_if_end_41:
    movl -40(%rbp), %eax
    pushq %rax
    movabsq $0x1, %rax
    pushq %rax
    popq %rcx
    popq %rax
    addq %rcx, %rax
    movl %eax, %eax
    pushq %rax
    popq %rax
    movq %rax, -40(%rbp)
    movq $0, %rax
    pushq %rax
    popq %rax
    jmp L_loop_top_36
L_loop_end_37:
    movq -24(%rbp), %rax
    pushq %rax
    movl -16(%rbp), %eax
    pushq %rax
    popq %rax
    pushq %rax
    popq %rcx
    popq %rax
    addq %rcx, %rax
    pushq %rax
    popq %rcx
    subq $32, %rsp
    callq L_s_load_u8
    addq $32, %rsp
    movl %eax, %eax
    pushq %rax
    popq %rax
    movq %rax, -48(%rbp)
    movl -48(%rbp), %eax
    pushq %rax
    movabsq $0x0, %rax
    pushq %rax
    popq %rcx
    popq %rax
    cmpq %rcx, %rax
    sete %al
    movzbq %al, %rax
    pushq %rax
    popq %rax
    testq %rax, %rax
    jz L_if_end_43
    movabsq $0x1, %rax
    pushq %rax
    popq %rax
    movq %rbp, %rsp
    popq %rbp
    retq
    movq $0, %rax
    pushq %rax
    popq %rax
L_if_end_43:
    movabsq $0x0, %rax
    pushq %rax
    popq %rax
    movq %rbp, %rsp
    popq %rbp
    retq
    movq $0, %rax
    pushq %rax
    movq $0, %rax
    movq %rbp, %rsp
    popq %rbp
    retq
    .seh_endproc
    .section .iii.ring3,"n"
    .asciz "s_ename_step"
    .text
    .seh_proc L_s_ename_step
L_s_ename_step:
    pushq %rbp
    .seh_pushreg %rbp
    movq %rsp, %rbp
    .seh_setframe %rbp, 0
    subq $1024, %rsp
    .seh_stackalloc 1024
    .seh_endprologue
    movq %rcx, -8(%rbp)
    movq %rdx, -16(%rbp)
    movq %r8, -24(%rbp)
    movq %r9, -32(%rbp)
    movl -32(%rbp), %eax
    pushq %rax
    movabsq $0x0, %rax
    pushq %rax
    popq %rcx
    popq %rax
    cmpq %rcx, %rax
    sete %al
    movzbq %al, %rax
    pushq %rax
    popq %rax
    testq %rax, %rax
    jz L_if_end_45
    movabsq $0x0, %rax
    pushq %rax
    popq %rax
    movq %rbp, %rsp
    popq %rbp
    retq
    movq $0, %rax
    pushq %rax
    popq %rax
L_if_end_45:
    movq -24(%rbp), %rax
    pushq %rax
    popq %rcx
    subq $32, %rsp
    callq L_s_load_u32_le
    addq $32, %rsp
    movl %eax, %eax
    pushq %rax
    popq %rax
    movq %rax, -40(%rbp)
    movl -32(%rbp), %eax
    pushq %rax
    leaq L_SEMA_ENAME_BUF(%rip), %rax
    pushq %rax
    popq %rax
    pushq %rax
    movl -16(%rbp), %eax
    pushq %rax
    movl -40(%rbp), %eax
    pushq %rax
    popq %rcx
    popq %rax
    addq %rcx, %rax
    movl %eax, %eax
    pushq %rax
    popq %rax
    pushq %rax
    popq %rcx
    popq %rax
    addq %rcx, %rax
    pushq %rax
    popq %rcx
    popq %rdx
    subq $32, %rsp
    callq L_s_store_u8
    addq $32, %rsp
    movl %eax, %eax
    pushq %rax
    popq %rax
    movl -40(%rbp), %eax
    pushq %rax
    movabsq $0x1, %rax
    pushq %rax
    popq %rcx
    popq %rax
    addq %rcx, %rax
    movl %eax, %eax
    pushq %rax
    movq -24(%rbp), %rax
    pushq %rax
    popq %rcx
    popq %rdx
    subq $32, %rsp
    callq L_s_store_u32_le
    addq $32, %rsp
    movl %eax, %eax
    pushq %rax
    popq %rax
    movabsq $0x0, %rax
    pushq %rax
    popq %rax
    movq %rbp, %rsp
    popq %rbp
    retq
    movq $0, %rax
    pushq %rax
    movq $0, %rax
    movq %rbp, %rsp
    popq %rbp
    retq
    .seh_endproc
    .section .iii.ring3,"n"
    .asciz "s_load_u32_le"
    .text
    .seh_proc L_s_load_u32_le
L_s_load_u32_le:
    pushq %rbp
    .seh_pushreg %rbp
    movq %rsp, %rbp
    .seh_setframe %rbp, 0
    subq $1024, %rsp
    .seh_stackalloc 1024
    .seh_endprologue
    movq %rcx, -8(%rbp)
    movq -8(%rbp), %rax
    pushq %rax
    popq %rax
    pushq %rax
    popq %rcx
    subq $32, %rsp
    callq iii_ast_load_u8
    addq $32, %rsp
    movl %eax, %eax
    pushq %rax
    popq %rax
    movq %rax, -16(%rbp)
    movq -8(%rbp), %rax
    pushq %rax
    movabsq $0x1, %rax
    pushq %rax
    popq %rcx
    popq %rax
    addq %rcx, %rax
    pushq %rax
    popq %rcx
    subq $32, %rsp
    callq iii_ast_load_u8
    addq $32, %rsp
    movl %eax, %eax
    pushq %rax
    popq %rax
    movq %rax, -24(%rbp)
    movq -8(%rbp), %rax
    pushq %rax
    movabsq $0x2, %rax
    pushq %rax
    popq %rcx
    popq %rax
    addq %rcx, %rax
    pushq %rax
    popq %rcx
    subq $32, %rsp
    callq iii_ast_load_u8
    addq $32, %rsp
    movl %eax, %eax
    pushq %rax
    popq %rax
    movq %rax, -32(%rbp)
    movq -8(%rbp), %rax
    pushq %rax
    movabsq $0x3, %rax
    pushq %rax
    popq %rcx
    popq %rax
    addq %rcx, %rax
    pushq %rax
    popq %rcx
    subq $32, %rsp
    callq iii_ast_load_u8
    addq $32, %rsp
    movl %eax, %eax
    pushq %rax
    popq %rax
    movq %rax, -40(%rbp)
    movl -16(%rbp), %eax
    pushq %rax
    movl -24(%rbp), %eax
    pushq %rax
    popq %rax
    shlq $8, %rax
    movl %eax, %eax
    pushq %rax
    popq %rcx
    popq %rax
    orq %rcx, %rax
    pushq %rax
    movl -32(%rbp), %eax
    pushq %rax
    popq %rax
    shlq $16, %rax
    movl %eax, %eax
    pushq %rax
    popq %rcx
    popq %rax
    orq %rcx, %rax
    pushq %rax
    movl -40(%rbp), %eax
    pushq %rax
    popq %rax
    shlq $24, %rax
    movl %eax, %eax
    pushq %rax
    popq %rcx
    popq %rax
    orq %rcx, %rax
    pushq %rax
    popq %rax
    movq %rbp, %rsp
    popq %rbp
    retq
    movq $0, %rax
    pushq %rax
    movq $0, %rax
    movq %rbp, %rsp
    popq %rbp
    retq
    .seh_endproc
    .section .iii.ring3,"n"
    .asciz "s_store_u32_le"
    .text
    .seh_proc L_s_store_u32_le
L_s_store_u32_le:
    pushq %rbp
    .seh_pushreg %rbp
    movq %rsp, %rbp
    .seh_setframe %rbp, 0
    subq $1024, %rsp
    .seh_stackalloc 1024
    .seh_endprologue
    movq %rcx, -8(%rbp)
    movq %rdx, -16(%rbp)
    movl -16(%rbp), %eax
    pushq %rax
    movabsq $0xff, %rax
    pushq %rax
    popq %rcx
    popq %rax
    andq %rcx, %rax
    pushq %rax
    movq -8(%rbp), %rax
    pushq %rax
    popq %rax
    pushq %rax
    popq %rcx
    popq %rdx
    subq $32, %rsp
    callq iii_ast_store_u8
    addq $32, %rsp
    movl %eax, %eax
    pushq %rax
    popq %rax
    movl -16(%rbp), %eax
    pushq %rax
    popq %rax
    shrq $8, %rax
    pushq %rax
    movabsq $0xff, %rax
    pushq %rax
    popq %rcx
    popq %rax
    andq %rcx, %rax
    pushq %rax
    movq -8(%rbp), %rax
    pushq %rax
    movabsq $0x1, %rax
    pushq %rax
    popq %rcx
    popq %rax
    addq %rcx, %rax
    pushq %rax
    popq %rcx
    popq %rdx
    subq $32, %rsp
    callq iii_ast_store_u8
    addq $32, %rsp
    movl %eax, %eax
    pushq %rax
    popq %rax
    movl -16(%rbp), %eax
    pushq %rax
    popq %rax
    shrq $16, %rax
    pushq %rax
    movabsq $0xff, %rax
    pushq %rax
    popq %rcx
    popq %rax
    andq %rcx, %rax
    pushq %rax
    movq -8(%rbp), %rax
    pushq %rax
    movabsq $0x2, %rax
    pushq %rax
    popq %rcx
    popq %rax
    addq %rcx, %rax
    pushq %rax
    popq %rcx
    popq %rdx
    subq $32, %rsp
    callq iii_ast_store_u8
    addq $32, %rsp
    movl %eax, %eax
    pushq %rax
    popq %rax
    movl -16(%rbp), %eax
    pushq %rax
    popq %rax
    shrq $24, %rax
    pushq %rax
    movabsq $0xff, %rax
    pushq %rax
    popq %rcx
    popq %rax
    andq %rcx, %rax
    pushq %rax
    movq -8(%rbp), %rax
    pushq %rax
    movabsq $0x3, %rax
    pushq %rax
    popq %rcx
    popq %rax
    addq %rcx, %rax
    pushq %rax
    popq %rcx
    popq %rdx
    subq $32, %rsp
    callq iii_ast_store_u8
    addq $32, %rsp
    movl %eax, %eax
    pushq %rax
    popq %rax
    movabsq $0x0, %rax
    pushq %rax
    popq %rax
    movq %rbp, %rsp
    popq %rbp
    retq
    movq $0, %rax
    pushq %rax
    movq $0, %rax
    movq %rbp, %rsp
    popq %rbp
    retq
    .seh_endproc
    .section .iii.ring3,"n"
    .asciz "s_ename_write"
    .text
    .seh_proc L_s_ename_write
L_s_ename_write:
    pushq %rbp
    .seh_pushreg %rbp
    movq %rsp, %rbp
    .seh_setframe %rbp, 0
    subq $1024, %rsp
    .seh_stackalloc 1024
    .seh_endprologue
    movq %rcx, -8(%rbp)
    movq %rdx, -16(%rbp)
    movq %r8, -24(%rbp)
    movq %r9, -32(%rbp)
    movq 48(%rbp), %rax
    movq %rax, -40(%rbp)
    movq 56(%rbp), %rax
    movq %rax, -48(%rbp)
    movq 64(%rbp), %rax
    movq %rax, -56(%rbp)
    movq 72(%rbp), %rax
    movq %rax, -64(%rbp)
    movq 80(%rbp), %rax
    movq %rax, -72(%rbp)
    movq 88(%rbp), %rax
    movq %rax, -80(%rbp)
    movq 96(%rbp), %rax
    movq %rax, -88(%rbp)
    movq 104(%rbp), %rax
    movq %rax, -96(%rbp)
    movq 112(%rbp), %rax
    movq %rax, -104(%rbp)
    movq 120(%rbp), %rax
    movq %rax, -112(%rbp)
    movq 128(%rbp), %rax
    movq %rax, -120(%rbp)
    movq 136(%rbp), %rax
    movq %rax, -128(%rbp)
    movq 144(%rbp), %rax
    movq %rax, -136(%rbp)
    leaq L_SEMA_ENAME_OFF(%rip), %rax
    pushq %rax
    movl -8(%rbp), %eax
    pushq %rax
    popq %rcx
    popq %rax
    movl (%rax,%rcx,4), %eax
    pushq %rax
    popq %rax
    movq %rax, -144(%rbp)
    movabsq $0x0, %rax
    pushq %rax
    popq %rax
    movq %rax, -152(%rbp)
    movl -16(%rbp), %eax
    pushq %rax
    leaq -152(%rbp), %rax
    pushq %rax
    movl -144(%rbp), %eax
    pushq %rax
    movl -8(%rbp), %eax
    pushq %rax
    popq %rcx
    popq %rdx
    popq %r8
    popq %r9
    subq $32, %rsp
    callq L_s_ename_step
    addq $32, %rsp
    movl %eax, %eax
    pushq %rax
    popq %rax
    movl -24(%rbp), %eax
    pushq %rax
    leaq -152(%rbp), %rax
    pushq %rax
    movl -144(%rbp), %eax
    pushq %rax
    movl -8(%rbp), %eax
    pushq %rax
    popq %rcx
    popq %rdx
    popq %r8
    popq %r9
    subq $32, %rsp
    callq L_s_ename_step
    addq $32, %rsp
    movl %eax, %eax
    pushq %rax
    popq %rax
    movl -32(%rbp), %eax
    pushq %rax
    leaq -152(%rbp), %rax
    pushq %rax
    movl -144(%rbp), %eax
    pushq %rax
    movl -8(%rbp), %eax
    pushq %rax
    popq %rcx
    popq %rdx
    popq %r8
    popq %r9
    subq $32, %rsp
    callq L_s_ename_step
    addq $32, %rsp
    movl %eax, %eax
    pushq %rax
    popq %rax
    movl -40(%rbp), %eax
    pushq %rax
    leaq -152(%rbp), %rax
    pushq %rax
    movl -144(%rbp), %eax
    pushq %rax
    movl -8(%rbp), %eax
    pushq %rax
    popq %rcx
    popq %rdx
    popq %r8
    popq %r9
    subq $32, %rsp
    callq L_s_ename_step
    addq $32, %rsp
    movl %eax, %eax
    pushq %rax
    popq %rax
    movl -48(%rbp), %eax
    pushq %rax
    leaq -152(%rbp), %rax
    pushq %rax
    movl -144(%rbp), %eax
    pushq %rax
    movl -8(%rbp), %eax
    pushq %rax
    popq %rcx
    popq %rdx
    popq %r8
    popq %r9
    subq $32, %rsp
    callq L_s_ename_step
    addq $32, %rsp
    movl %eax, %eax
    pushq %rax
    popq %rax
    movl -56(%rbp), %eax
    pushq %rax
    leaq -152(%rbp), %rax
    pushq %rax
    movl -144(%rbp), %eax
    pushq %rax
    movl -8(%rbp), %eax
    pushq %rax
    popq %rcx
    popq %rdx
    popq %r8
    popq %r9
    subq $32, %rsp
    callq L_s_ename_step
    addq $32, %rsp
    movl %eax, %eax
    pushq %rax
    popq %rax
    movl -64(%rbp), %eax
    pushq %rax
    leaq -152(%rbp), %rax
    pushq %rax
    movl -144(%rbp), %eax
    pushq %rax
    movl -8(%rbp), %eax
    pushq %rax
    popq %rcx
    popq %rdx
    popq %r8
    popq %r9
    subq $32, %rsp
    callq L_s_ename_step
    addq $32, %rsp
    movl %eax, %eax
    pushq %rax
    popq %rax
    movl -72(%rbp), %eax
    pushq %rax
    leaq -152(%rbp), %rax
    pushq %rax
    movl -144(%rbp), %eax
    pushq %rax
    movl -8(%rbp), %eax
    pushq %rax
    popq %rcx
    popq %rdx
    popq %r8
    popq %r9
    subq $32, %rsp
    callq L_s_ename_step
    addq $32, %rsp
    movl %eax, %eax
    pushq %rax
    popq %rax
    movl -80(%rbp), %eax
    pushq %rax
    leaq -152(%rbp), %rax
    pushq %rax
    movl -144(%rbp), %eax
    pushq %rax
    movl -8(%rbp), %eax
    pushq %rax
    popq %rcx
    popq %rdx
    popq %r8
    popq %r9
    subq $32, %rsp
    callq L_s_ename_step
    addq $32, %rsp
    movl %eax, %eax
    pushq %rax
    popq %rax
    movl -88(%rbp), %eax
    pushq %rax
    leaq -152(%rbp), %rax
    pushq %rax
    movl -144(%rbp), %eax
    pushq %rax
    movl -8(%rbp), %eax
    pushq %rax
    popq %rcx
    popq %rdx
    popq %r8
    popq %r9
    subq $32, %rsp
    callq L_s_ename_step
    addq $32, %rsp
    movl %eax, %eax
    pushq %rax
    popq %rax
    movl -96(%rbp), %eax
    pushq %rax
    leaq -152(%rbp), %rax
    pushq %rax
    movl -144(%rbp), %eax
    pushq %rax
    movl -8(%rbp), %eax
    pushq %rax
    popq %rcx
    popq %rdx
    popq %r8
    popq %r9
    subq $32, %rsp
    callq L_s_ename_step
    addq $32, %rsp
    movl %eax, %eax
    pushq %rax
    popq %rax
    movl -104(%rbp), %eax
    pushq %rax
    leaq -152(%rbp), %rax
    pushq %rax
    movl -144(%rbp), %eax
    pushq %rax
    movl -8(%rbp), %eax
    pushq %rax
    popq %rcx
    popq %rdx
    popq %r8
    popq %r9
    subq $32, %rsp
    callq L_s_ename_step
    addq $32, %rsp
    movl %eax, %eax
    pushq %rax
    popq %rax
    movl -112(%rbp), %eax
    pushq %rax
    leaq -152(%rbp), %rax
    pushq %rax
    movl -144(%rbp), %eax
    pushq %rax
    movl -8(%rbp), %eax
    pushq %rax
    popq %rcx
    popq %rdx
    popq %r8
    popq %r9
    subq $32, %rsp
    callq L_s_ename_step
    addq $32, %rsp
    movl %eax, %eax
    pushq %rax
    popq %rax
    movl -120(%rbp), %eax
    pushq %rax
    leaq -152(%rbp), %rax
    pushq %rax
    movl -144(%rbp), %eax
    pushq %rax
    movl -8(%rbp), %eax
    pushq %rax
    popq %rcx
    popq %rdx
    popq %r8
    popq %r9
    subq $32, %rsp
    callq L_s_ename_step
    addq $32, %rsp
    movl %eax, %eax
    pushq %rax
    popq %rax
    movl -128(%rbp), %eax
    pushq %rax
    leaq -152(%rbp), %rax
    pushq %rax
    movl -144(%rbp), %eax
    pushq %rax
    movl -8(%rbp), %eax
    pushq %rax
    popq %rcx
    popq %rdx
    popq %r8
    popq %r9
    subq $32, %rsp
    callq L_s_ename_step
    addq $32, %rsp
    movl %eax, %eax
    pushq %rax
    popq %rax
    movl -136(%rbp), %eax
    pushq %rax
    leaq -152(%rbp), %rax
    pushq %rax
    movl -144(%rbp), %eax
    pushq %rax
    movl -8(%rbp), %eax
    pushq %rax
    popq %rcx
    popq %rdx
    popq %r8
    popq %r9
    subq $32, %rsp
    callq L_s_ename_step
    addq $32, %rsp
    movl %eax, %eax
    pushq %rax
    popq %rax
    leaq L_SEMA_ENAME_LEN(%rip), %rax
    pushq %rax
    movl -8(%rbp), %eax
    pushq %rax
    movl -152(%rbp), %eax
    pushq %rax
    popq %rdx
    popq %rcx
    popq %rax
    movl %edx, (%rax,%rcx,4)
    movabsq $0x0, %rax
    pushq %rax
    leaq L_SEMA_ENAME_BUF(%rip), %rax
    pushq %rax
    popq %rax
    pushq %rax
    movl -144(%rbp), %eax
    pushq %rax
    movl -152(%rbp), %eax
    pushq %rax
    popq %rcx
    popq %rax
    addq %rcx, %rax
    movl %eax, %eax
    pushq %rax
    popq %rax
    pushq %rax
    popq %rcx
    popq %rax
    addq %rcx, %rax
    pushq %rax
    popq %rcx
    popq %rdx
    subq $32, %rsp
    callq L_s_store_u8
    addq $32, %rsp
    movl %eax, %eax
    pushq %rax
    popq %rax
    movl -8(%rbp), %eax
    pushq %rax
    movabsq $0x1, %rax
    pushq %rax
    popq %rcx
    popq %rax
    addq %rcx, %rax
    movl %eax, %eax
    pushq %rax
    movabsq $0x10, %rax
    pushq %rax
    popq %rcx
    popq %rax
    cmpq %rcx, %rax
    setb %al
    movzbq %al, %rax
    pushq %rax
    popq %rax
    testq %rax, %rax
    jz L_if_end_47
    leaq L_SEMA_ENAME_OFF(%rip), %rax
    pushq %rax
    movl -8(%rbp), %eax
    pushq %rax
    movabsq $0x1, %rax
    pushq %rax
    popq %rcx
    popq %rax
    addq %rcx, %rax
    movl %eax, %eax
    pushq %rax
    movl -144(%rbp), %eax
    pushq %rax
    movl -152(%rbp), %eax
    pushq %rax
    popq %rcx
    popq %rax
    addq %rcx, %rax
    movl %eax, %eax
    pushq %rax
    movabsq $0x1, %rax
    pushq %rax
    popq %rcx
    popq %rax
    addq %rcx, %rax
    movl %eax, %eax
    pushq %rax
    popq %rdx
    popq %rcx
    popq %rax
    movl %edx, (%rax,%rcx,4)
    movq $0, %rax
    pushq %rax
    popq %rax
L_if_end_47:
    movabsq $0x0, %rax
    pushq %rax
    popq %rax
    movq %rbp, %rsp
    popq %rbp
    retq
    movq $0, %rax
    pushq %rax
    movq $0, %rax
    movq %rbp, %rsp
    popq %rbp
    retq
    .seh_endproc
    .section .iii.ring3,"n"
    .asciz "s_init_ename_table"
    .text
    .seh_proc L_s_init_ename_table
L_s_init_ename_table:
    pushq %rbp
    .seh_pushreg %rbp
    movq %rsp, %rbp
    .seh_setframe %rbp, 0
    subq $1024, %rsp
    .seh_stackalloc 1024
    .seh_endprologue
    leaq L_SEMA_ENAME_OFF(%rip), %rax
    pushq %rax
    movabsq $0x0, %rax
    pushq %rax
    movabsq $0x0, %rax
    pushq %rax
    popq %rdx
    popq %rcx
    popq %rax
    movl %edx, (%rax,%rcx,4)
    subq $8, %rsp
    movabsq $0x0, %rax
    pushq %rax
    movabsq $0x0, %rax
    pushq %rax
    movabsq $0x0, %rax
    pushq %rax
    movabsq $0x0, %rax
    pushq %rax
    movabsq $0x0, %rax
    pushq %rax
    movabsq $0x0, %rax
    pushq %rax
    movabsq $0x0, %rax
    pushq %rax
    movabsq $0x0, %rax
    pushq %rax
    movabsq $0x0, %rax
    pushq %rax
    movabsq $0x0, %rax
    pushq %rax
    movabsq $0x0, %rax
    pushq %rax
    movabsq $0x0, %rax
    pushq %rax
    movabsq $0x0, %rax
    pushq %rax
    movabsq $0x0, %rax
    pushq %rax
    movabsq $0x4b, %rax
    pushq %rax
    movabsq $0x4f, %rax
    pushq %rax
    movabsq $0x0, %rax
    pushq %rax
    popq %rcx
    popq %rdx
    popq %r8
    popq %r9
    subq $32, %rsp
    callq L_s_ename_write
    addq $32, %rsp
    addq $8, %rsp
    addq $104, %rsp
    movl %eax, %eax
    pushq %rax
    popq %rax
    subq $8, %rsp
    movabsq $0x0, %rax
    pushq %rax
    movabsq $0x0, %rax
    pushq %rax
    movabsq $0x0, %rax
    pushq %rax
    movabsq $0x31, %rax
    pushq %rax
    movabsq $0x30, %rax
    pushq %rax
    movabsq $0x30, %rax
    pushq %rax
    movabsq $0x2d, %rax
    pushq %rax
    movabsq $0x4c, %rax
    pushq %rax
    movabsq $0x43, %rax
    pushq %rax
    movabsq $0x45, %rax
    pushq %rax
    movabsq $0x44, %rax
    pushq %rax
    movabsq $0x2d, %rax
    pushq %rax
    movabsq $0x45, %rax
    pushq %rax
    movabsq $0x50, %rax
    pushq %rax
    movabsq $0x59, %rax
    pushq %rax
    movabsq $0x54, %rax
    pushq %rax
    movabsq $0x1, %rax
    pushq %rax
    popq %rcx
    popq %rdx
    popq %r8
    popq %r9
    subq $32, %rsp
    callq L_s_ename_write
    addq $32, %rsp
    addq $8, %rsp
    addq $104, %rsp
    movl %eax, %eax
    pushq %rax
    popq %rax
    subq $8, %rsp
    movabsq $0x0, %rax
    pushq %rax
    movabsq $0x0, %rax
    pushq %rax
    movabsq $0x31, %rax
    pushq %rax
    movabsq $0x30, %rax
    pushq %rax
    movabsq $0x30, %rax
    pushq %rax
    movabsq $0x2d, %rax
    pushq %rax
    movabsq $0x54, %rax
    pushq %rax
    movabsq $0x4e, %rax
    pushq %rax
    movabsq $0x45, %rax
    pushq %rax
    movabsq $0x44, %rax
    pushq %rax
    movabsq $0x49, %rax
    pushq %rax
    movabsq $0x2d, %rax
    pushq %rax
    movabsq $0x45, %rax
    pushq %rax
    movabsq $0x50, %rax
    pushq %rax
    movabsq $0x59, %rax
    pushq %rax
    movabsq $0x54, %rax
    pushq %rax
    movabsq $0x2, %rax
    pushq %rax
    popq %rcx
    popq %rdx
    popq %r8
    popq %r9
    subq $32, %rsp
    callq L_s_ename_write
    addq $32, %rsp
    addq $8, %rsp
    addq $104, %rsp
    movl %eax, %eax
    pushq %rax
    popq %rax
    subq $8, %rsp
    movabsq $0x0, %rax
    pushq %rax
    movabsq $0x0, %rax
    pushq %rax
    movabsq $0x31, %rax
    pushq %rax
    movabsq $0x30, %rax
    pushq %rax
    movabsq $0x30, %rax
    pushq %rax
    movabsq $0x2d, %rax
    pushq %rax
    movabsq $0x44, %rax
    pushq %rax
    movabsq $0x41, %rax
    pushq %rax
    movabsq $0x58, %rax
    pushq %rax
    movabsq $0x45, %rax
    pushq %rax
    movabsq $0x48, %rax
    pushq %rax
    movabsq $0x2d, %rax
    pushq %rax
    movabsq $0x45, %rax
    pushq %rax
    movabsq $0x50, %rax
    pushq %rax
    movabsq $0x59, %rax
    pushq %rax
    movabsq $0x54, %rax
    pushq %rax
    movabsq $0x3, %rax
    pushq %rax
    popq %rcx
    popq %rdx
    popq %r8
    popq %r9
    subq $32, %rsp
    callq L_s_ename_write
    addq $32, %rsp
    addq $8, %rsp
    addq $104, %rsp
    movl %eax, %eax
    pushq %rax
    popq %rax
    subq $8, %rsp
    movabsq $0x0, %rax
    pushq %rax
    movabsq $0x0, %rax
    pushq %rax
    movabsq $0x32, %rax
    pushq %rax
    movabsq $0x30, %rax
    pushq %rax
    movabsq $0x30, %rax
    pushq %rax
    movabsq $0x2d, %rax
    pushq %rax
    movabsq $0x44, %rax
    pushq %rax
    movabsq $0x41, %rax
    pushq %rax
    movabsq $0x58, %rax
    pushq %rax
    movabsq $0x45, %rax
    pushq %rax
    movabsq $0x48, %rax
    pushq %rax
    movabsq $0x2d, %rax
    pushq %rax
    movabsq $0x45, %rax
    pushq %rax
    movabsq $0x50, %rax
    pushq %rax
    movabsq $0x59, %rax
    pushq %rax
    movabsq $0x54, %rax
    pushq %rax
    movabsq $0x4, %rax
    pushq %rax
    popq %rcx
    popq %rdx
    popq %r8
    popq %r9
    subq $32, %rsp
    callq L_s_ename_write
    addq $32, %rsp
    addq $8, %rsp
    addq $104, %rsp
    movl %eax, %eax
    pushq %rax
    popq %rax
    subq $8, %rsp
    movabsq $0x0, %rax
    pushq %rax
    movabsq $0x0, %rax
    pushq %rax
    movabsq $0x0, %rax
    pushq %rax
    movabsq $0x31, %rax
    pushq %rax
    movabsq $0x30, %rax
    pushq %rax
    movabsq $0x30, %rax
    pushq %rax
    movabsq $0x2d, %rax
    pushq %rax
    movabsq $0x47, %rax
    pushq %rax
    movabsq $0x4e, %rax
    pushq %rax
    movabsq $0x49, %rax
    pushq %rax
    movabsq $0x52, %rax
    pushq %rax
    movabsq $0x2d, %rax
    pushq %rax
    movabsq $0x45, %rax
    pushq %rax
    movabsq $0x50, %rax
    pushq %rax
    movabsq $0x59, %rax
    pushq %rax
    movabsq $0x54, %rax
    pushq %rax
    movabsq $0x5, %rax
    pushq %rax
    popq %rcx
    popq %rdx
    popq %r8
    popq %r9
    subq $32, %rsp
    callq L_s_ename_write
    addq $32, %rsp
    addq $8, %rsp
    addq $104, %rsp
    movl %eax, %eax
    pushq %rax
    popq %rax
    subq $8, %rsp
    movabsq $0x0, %rax
    pushq %rax
    movabsq $0x0, %rax
    pushq %rax
    movabsq $0x0, %rax
    pushq %rax
    movabsq $0x32, %rax
    pushq %rax
    movabsq $0x30, %rax
    pushq %rax
    movabsq $0x30, %rax
    pushq %rax
    movabsq $0x2d, %rax
    pushq %rax
    movabsq $0x47, %rax
    pushq %rax
    movabsq $0x4e, %rax
    pushq %rax
    movabsq $0x49, %rax
    pushq %rax
    movabsq $0x52, %rax
    pushq %rax
    movabsq $0x2d, %rax
    pushq %rax
    movabsq $0x45, %rax
    pushq %rax
    movabsq $0x50, %rax
    pushq %rax
    movabsq $0x59, %rax
    pushq %rax
    movabsq $0x54, %rax
    pushq %rax
    movabsq $0x6, %rax
    pushq %rax
    popq %rcx
    popq %rdx
    popq %r8
    popq %r9
    subq $32, %rsp
    callq L_s_ename_write
    addq $32, %rsp
    addq $8, %rsp
    addq $104, %rsp
    movl %eax, %eax
    pushq %rax
    popq %rax
    subq $8, %rsp
    movabsq $0x0, %rax
    pushq %rax
    movabsq $0x0, %rax
    pushq %rax
    movabsq $0x31, %rax
    pushq %rax
    movabsq $0x30, %rax
    pushq %rax
    movabsq $0x30, %rax
    pushq %rax
    movabsq $0x2d, %rax
    pushq %rax
    movabsq $0x44, %rax
    pushq %rax
    movabsq $0x50, %rax
    pushq %rax
    movabsq $0x52, %rax
    pushq %rax
    movabsq $0x49, %rax
    pushq %rax
    movabsq $0x2d, %rax
    pushq %rax
    movabsq $0x45, %rax
    pushq %rax
    movabsq $0x53, %rax
    pushq %rax
    movabsq $0x52, %rax
    pushq %rax
    movabsq $0x41, %rax
    pushq %rax
    movabsq $0x50, %rax
    pushq %rax
    movabsq $0x7, %rax
    pushq %rax
    popq %rcx
    popq %rdx
    popq %r8
    popq %r9
    subq $32, %rsp
    callq L_s_ename_write
    addq $32, %rsp
    addq $8, %rsp
    addq $104, %rsp
    movl %eax, %eax
    pushq %rax
    popq %rax
    subq $8, %rsp
    movabsq $0x0, %rax
    pushq %rax
    movabsq $0x0, %rax
    pushq %rax
    movabsq $0x31, %rax
    pushq %rax
    movabsq $0x30, %rax
    pushq %rax
    movabsq $0x30, %rax
    pushq %rax
    movabsq $0x2d, %rax
    pushq %rax
    movabsq $0x4c, %rax
    pushq %rax
    movabsq $0x41, %rax
    pushq %rax
    movabsq $0x54, %rax
    pushq %rax
    movabsq $0x45, %rax
    pushq %rax
    movabsq $0x4d, %rax
    pushq %rax
    movabsq $0x2d, %rax
    pushq %rax
    movabsq $0x45, %rax
    pushq %rax
    movabsq $0x50, %rax
    pushq %rax
    movabsq $0x59, %rax
    pushq %rax
    movabsq $0x54, %rax
    pushq %rax
    movabsq $0x8, %rax
    pushq %rax
    popq %rcx
    popq %rdx
    popq %r8
    popq %r9
    subq $32, %rsp
    callq L_s_ename_write
    addq $32, %rsp
    addq $8, %rsp
    addq $104, %rsp
    movl %eax, %eax
    pushq %rax
    popq %rax
    subq $8, %rsp
    movabsq $0x0, %rax
    pushq %rax
    movabsq $0x31, %rax
    pushq %rax
    movabsq $0x30, %rax
    pushq %rax
    movabsq $0x30, %rax
    pushq %rax
    movabsq $0x2d, %rax
    pushq %rax
    movabsq $0x4e, %rax
    pushq %rax
    movabsq $0x52, %rax
    pushq %rax
    movabsq $0x45, %rax
    pushq %rax
    movabsq $0x54, %rax
    pushq %rax
    movabsq $0x58, %rax
    pushq %rax
    movabsq $0x45, %rax
    pushq %rax
    movabsq $0x2d, %rax
    pushq %rax
    movabsq $0x45, %rax
    pushq %rax
    movabsq $0x50, %rax
    pushq %rax
    movabsq $0x59, %rax
    pushq %rax
    movabsq $0x54, %rax
    pushq %rax
    movabsq $0x9, %rax
    pushq %rax
    popq %rcx
    popq %rdx
    popq %r8
    popq %r9
    subq $32, %rsp
    callq L_s_ename_write
    addq $32, %rsp
    addq $8, %rsp
    addq $104, %rsp
    movl %eax, %eax
    pushq %rax
    popq %rax
    subq $8, %rsp
    movabsq $0x0, %rax
    pushq %rax
    movabsq $0x0, %rax
    pushq %rax
    movabsq $0x0, %rax
    pushq %rax
    movabsq $0x31, %rax
    pushq %rax
    movabsq $0x30, %rax
    pushq %rax
    movabsq $0x30, %rax
    pushq %rax
    movabsq $0x2d, %rax
    pushq %rax
    movabsq $0x4c, %rax
    pushq %rax
    movabsq $0x41, %rax
    pushq %rax
    movabsq $0x45, %rax
    pushq %rax
    movabsq $0x53, %rax
    pushq %rax
    movabsq $0x2d, %rax
    pushq %rax
    movabsq $0x45, %rax
    pushq %rax
    movabsq $0x50, %rax
    pushq %rax
    movabsq $0x59, %rax
    pushq %rax
    movabsq $0x54, %rax
    pushq %rax
    movabsq $0xa, %rax
    pushq %rax
    popq %rcx
    popq %rdx
    popq %r8
    popq %r9
    subq $32, %rsp
    callq L_s_ename_write
    addq $32, %rsp
    addq $8, %rsp
    addq $104, %rsp
    movl %eax, %eax
    pushq %rax
    popq %rax
    subq $8, %rsp
    movabsq $0x0, %rax
    pushq %rax
    movabsq $0x0, %rax
    pushq %rax
    movabsq $0x31, %rax
    pushq %rax
    movabsq $0x30, %rax
    pushq %rax
    movabsq $0x30, %rax
    pushq %rax
    movabsq $0x2d, %rax
    pushq %rax
    movabsq $0x52, %rax
    pushq %rax
    movabsq $0x4f, %rax
    pushq %rax
    movabsq $0x52, %rax
    pushq %rax
    movabsq $0x52, %rax
    pushq %rax
    movabsq $0x45, %rax
    pushq %rax
    movabsq $0x2d, %rax
    pushq %rax
    movabsq $0x45, %rax
    pushq %rax
    movabsq $0x50, %rax
    pushq %rax
    movabsq $0x59, %rax
    pushq %rax
    movabsq $0x54, %rax
    pushq %rax
    movabsq $0xb, %rax
    pushq %rax
    popq %rcx
    popq %rdx
    popq %r8
    popq %r9
    subq $32, %rsp
    callq L_s_ename_write
    addq $32, %rsp
    addq $8, %rsp
    addq $104, %rsp
    movl %eax, %eax
    pushq %rax
    popq %rax
    subq $8, %rsp
    movabsq $0x0, %rax
    pushq %rax
    movabsq $0x0, %rax
    pushq %rax
    movabsq $0x0, %rax
    pushq %rax
    movabsq $0x0, %rax
    pushq %rax
    movabsq $0x31, %rax
    pushq %rax
    movabsq $0x30, %rax
    pushq %rax
    movabsq $0x30, %rax
    pushq %rax
    movabsq $0x2d, %rax
    pushq %rax
    movabsq $0x53, %rax
    pushq %rax
    movabsq $0x46, %rax
    pushq %rax
    movabsq $0x50, %rax
    pushq %rax
    movabsq $0x2d, %rax
    pushq %rax
    movabsq $0x45, %rax
    pushq %rax
    movabsq $0x50, %rax
    pushq %rax
    movabsq $0x59, %rax
    pushq %rax
    movabsq $0x54, %rax
    pushq %rax
    movabsq $0xc, %rax
    pushq %rax
    popq %rcx
    popq %rdx
    popq %r8
    popq %r9
    subq $32, %rsp
    callq L_s_ename_write
    addq $32, %rsp
    addq $8, %rsp
    addq $104, %rsp
    movl %eax, %eax
    pushq %rax
    popq %rax
    subq $8, %rsp
    movabsq $0x0, %rax
    pushq %rax
    movabsq $0x0, %rax
    pushq %rax
    movabsq $0x0, %rax
    pushq %rax
    movabsq $0x0, %rax
    pushq %rax
    movabsq $0x0, %rax
    pushq %rax
    movabsq $0x0, %rax
    pushq %rax
    movabsq $0x0, %rax
    pushq %rax
    movabsq $0x0, %rax
    pushq %rax
    movabsq $0x0, %rax
    pushq %rax
    movabsq $0x0, %rax
    pushq %rax
    movabsq $0x0, %rax
    pushq %rax
    movabsq $0x0, %rax
    pushq %rax
    movabsq $0x0, %rax
    pushq %rax
    movabsq $0x4d, %rax
    pushq %rax
    movabsq $0x4f, %rax
    pushq %rax
    movabsq $0x4f, %rax
    pushq %rax
    movabsq $0xd, %rax
    pushq %rax
    popq %rcx
    popq %rdx
    popq %r8
    popq %r9
    subq $32, %rsp
    callq L_s_ename_write
    addq $32, %rsp
    addq $8, %rsp
    addq $104, %rsp
    movl %eax, %eax
    pushq %rax
    popq %rax
    subq $8, %rsp
    movabsq $0x0, %rax
    pushq %rax
    movabsq $0x0, %rax
    pushq %rax
    movabsq $0x0, %rax
    pushq %rax
    movabsq $0x0, %rax
    pushq %rax
    movabsq $0x0, %rax
    pushq %rax
    movabsq $0x0, %rax
    pushq %rax
    movabsq $0x0, %rax
    pushq %rax
    movabsq $0x0, %rax
    pushq %rax
    movabsq $0x0, %rax
    pushq %rax
    movabsq $0x4e, %rax
    pushq %rax
    movabsq $0x57, %rax
    pushq %rax
    movabsq $0x4f, %rax
    pushq %rax
    movabsq $0x4e, %rax
    pushq %rax
    movabsq $0x4b, %rax
    pushq %rax
    movabsq $0x4e, %rax
    pushq %rax
    movabsq $0x55, %rax
    pushq %rax
    movabsq $0xe, %rax
    pushq %rax
    popq %rcx
    popq %rdx
    popq %r8
    popq %r9
    subq $32, %rsp
    callq L_s_ename_write
    addq $32, %rsp
    addq $8, %rsp
    addq $104, %rsp
    movl %eax, %eax
    pushq %rax
    popq %rax
    movabsq $0x0, %rax
    pushq %rax
    popq %rax
    movq %rbp, %rsp
    popq %rbp
    retq
    movq $0, %rax
    pushq %rax
    movq $0, %rax
    movq %rbp, %rsp
    popq %rbp
    retq
    .seh_endproc
    .section .iii.ring3,"n"
    .asciz "s_decl_hash"
    .text
    .seh_proc L_s_decl_hash
L_s_decl_hash:
    pushq %rbp
    .seh_pushreg %rbp
    movq %rsp, %rbp
    .seh_setframe %rbp, 0
    subq $1024, %rsp
    .seh_stackalloc 1024
    .seh_endprologue
    movq %rcx, -8(%rbp)
    movq %rdx, -16(%rbp)
    movl -8(%rbp), %eax
    pushq %rax
    popq %rcx
    subq $32, %rsp
    callq L_s_arena_addr
    addq $32, %rsp
    pushq %rax
    popq %rax
    movq %rax, -24(%rbp)
    movabsq $0x811c9dc5, %rax
    pushq %rax
    popq %rax
    movq %rax, -32(%rbp)
    movabsq $0x0, %rax
    pushq %rax
    popq %rax
    movq %rax, -40(%rbp)
L_loop_top_48:
    movl -40(%rbp), %eax
    pushq %rax
    movl -16(%rbp), %eax
    pushq %rax
    popq %rcx
    popq %rax
    cmpq %rcx, %rax
    setb %al
    movzbq %al, %rax
    pushq %rax
    popq %rax
    testq %rax, %rax
    jz L_loop_end_49
    movl -32(%rbp), %eax
    pushq %rax
    subq $8, %rsp
    movq -24(%rbp), %rax
    pushq %rax
    movl -40(%rbp), %eax
    pushq %rax
    popq %rax
    pushq %rax
    popq %rcx
    popq %rax
    addq %rcx, %rax
    pushq %rax
    popq %rcx
    subq $32, %rsp
    callq L_s_load_u8
    addq $32, %rsp
    addq $8, %rsp
    movl %eax, %eax
    pushq %rax
    popq %rcx
    popq %rax
    xorq %rcx, %rax
    pushq %rax
    movabsq $0x1000193, %rax
    pushq %rax
    popq %rcx
    popq %rax
    imulq %rcx, %rax
    movl %eax, %eax
    pushq %rax
    popq %rax
    movq %rax, -32(%rbp)
    movl -40(%rbp), %eax
    pushq %rax
    movabsq $0x1, %rax
    pushq %rax
    popq %rcx
    popq %rax
    addq %rcx, %rax
    movl %eax, %eax
    pushq %rax
    popq %rax
    movq %rax, -40(%rbp)
    movq $0, %rax
    pushq %rax
    popq %rax
    jmp L_loop_top_48
L_loop_end_49:
    movl -32(%rbp), %eax
    pushq %rax
    popq %rax
    movq %rbp, %rsp
    popq %rbp
    retq
    movq $0, %rax
    pushq %rax
    movq $0, %rax
    movq %rbp, %rsp
    popq %rbp
    retq
    .seh_endproc
    .section .iii.ring3,"n"
    .asciz "s_decl_hash_cstr"
    .text
    .seh_proc L_s_decl_hash_cstr
L_s_decl_hash_cstr:
    pushq %rbp
    .seh_pushreg %rbp
    movq %rsp, %rbp
    .seh_setframe %rbp, 0
    subq $1024, %rsp
    .seh_stackalloc 1024
    .seh_endprologue
    movq %rcx, -8(%rbp)
    movabsq $0x811c9dc5, %rax
    pushq %rax
    popq %rax
    movq %rax, -16(%rbp)
    movabsq $0x0, %rax
    pushq %rax
    popq %rax
    movq %rax, -24(%rbp)
    movq -8(%rbp), %rax
    pushq %rax
    popq %rcx
    subq $32, %rsp
    callq L_s_load_u8
    addq $32, %rsp
    movl %eax, %eax
    pushq %rax
    popq %rax
    movq %rax, -32(%rbp)
L_loop_top_50:
    movl -32(%rbp), %eax
    pushq %rax
    movabsq $0x0, %rax
    pushq %rax
    popq %rcx
    popq %rax
    cmpq %rcx, %rax
    setne %al
    movzbq %al, %rax
    pushq %rax
    popq %rax
    testq %rax, %rax
    jz L_loop_end_51
    movl -16(%rbp), %eax
    pushq %rax
    movl -32(%rbp), %eax
    pushq %rax
    popq %rcx
    popq %rax
    xorq %rcx, %rax
    pushq %rax
    movabsq $0x1000193, %rax
    pushq %rax
    popq %rcx
    popq %rax
    imulq %rcx, %rax
    movl %eax, %eax
    pushq %rax
    popq %rax
    movq %rax, -16(%rbp)
    movq -24(%rbp), %rax
    pushq %rax
    movabsq $0x1, %rax
    pushq %rax
    popq %rcx
    popq %rax
    addq %rcx, %rax
    pushq %rax
    popq %rax
    movq %rax, -24(%rbp)
    movq -8(%rbp), %rax
    pushq %rax
    movq -24(%rbp), %rax
    pushq %rax
    popq %rcx
    popq %rax
    addq %rcx, %rax
    pushq %rax
    popq %rcx
    subq $32, %rsp
    callq L_s_load_u8
    addq $32, %rsp
    movl %eax, %eax
    pushq %rax
    popq %rax
    movq %rax, -32(%rbp)
    movq $0, %rax
    pushq %rax
    popq %rax
    jmp L_loop_top_50
L_loop_end_51:
    movl -16(%rbp), %eax
    pushq %rax
    popq %rax
    movq %rbp, %rsp
    popq %rbp
    retq
    movq $0, %rax
    pushq %rax
    movq $0, %rax
    movq %rbp, %rsp
    popq %rbp
    retq
    .seh_endproc
    .section .iii.ring3,"n"
    .asciz "s_decl_idx_clear"
    .text
    .seh_proc L_s_decl_idx_clear
L_s_decl_idx_clear:
    pushq %rbp
    .seh_pushreg %rbp
    movq %rsp, %rbp
    .seh_setframe %rbp, 0
    subq $1024, %rsp
    .seh_stackalloc 1024
    .seh_endprologue
    movabsq $0x0, %rax
    pushq %rax
    popq %rax
    movq %rax, -8(%rbp)
L_loop_top_52:
    movl -8(%rbp), %eax
    pushq %rax
    movabsq $0x800, %rax
    pushq %rax
    popq %rcx
    popq %rax
    cmpq %rcx, %rax
    setb %al
    movzbq %al, %rax
    pushq %rax
    popq %rax
    testq %rax, %rax
    jz L_loop_end_53
    leaq L_SEMA_DECL_IDX(%rip), %rax
    pushq %rax
    movl -8(%rbp), %eax
    pushq %rax
    movabsq $0x0, %rax
    pushq %rax
    popq %rdx
    popq %rcx
    popq %rax
    movl %edx, (%rax,%rcx,4)
    movl -8(%rbp), %eax
    pushq %rax
    movabsq $0x1, %rax
    pushq %rax
    popq %rcx
    popq %rax
    addq %rcx, %rax
    movl %eax, %eax
    pushq %rax
    popq %rax
    movq %rax, -8(%rbp)
    movq $0, %rax
    pushq %rax
    popq %rax
    jmp L_loop_top_52
L_loop_end_53:
    movabsq $0x0, %rax
    pushq %rax
    popq %rax
    movq %rbp, %rsp
    popq %rbp
    retq
    movq $0, %rax
    pushq %rax
    movq $0, %rax
    movq %rbp, %rsp
    popq %rbp
    retq
    .seh_endproc
    .section .iii.ring3,"n"
    .asciz "s_decl_table_lookup"
    .text
    .seh_proc L_s_decl_table_lookup
L_s_decl_table_lookup:
    pushq %rbp
    .seh_pushreg %rbp
    movq %rsp, %rbp
    .seh_setframe %rbp, 0
    subq $1024, %rsp
    .seh_stackalloc 1024
    .seh_endprologue
    movq %rcx, -8(%rbp)
    movq %rdx, -16(%rbp)
    movl -16(%rbp), %eax
    pushq %rax
    movl -8(%rbp), %eax
    pushq %rax
    popq %rcx
    popq %rdx
    subq $32, %rsp
    callq L_s_decl_hash
    addq $32, %rsp
    movl %eax, %eax
    pushq %rax
    movabsq $0x7ff, %rax
    pushq %rax
    popq %rcx
    popq %rax
    andq %rcx, %rax
    pushq %rax
    popq %rax
    movq %rax, -24(%rbp)
    movabsq $0x0, %rax
    pushq %rax
    popq %rax
    movq %rax, -32(%rbp)
    movabsq $0x1, %rax
    pushq %rax
    popq %rax
    movq %rax, -40(%rbp)
L_loop_top_54:
    movl -40(%rbp), %eax
    pushq %rax
    movabsq $0x1, %rax
    pushq %rax
    popq %rcx
    popq %rax
    cmpq %rcx, %rax
    sete %al
    movzbq %al, %rax
    pushq %rax
    popq %rax
    testq %rax, %rax
    jz L_loop_end_55
    leaq L_SEMA_DECL_IDX(%rip), %rax
    pushq %rax
    movl -24(%rbp), %eax
    pushq %rax
    popq %rcx
    popq %rax
    movl (%rax,%rcx,4), %eax
    pushq %rax
    popq %rax
    movq %rax, -48(%rbp)
    movl -48(%rbp), %eax
    pushq %rax
    movabsq $0x0, %rax
    pushq %rax
    popq %rcx
    popq %rax
    cmpq %rcx, %rax
    sete %al
    movzbq %al, %rax
    pushq %rax
    popq %rax
    testq %rax, %rax
    jz L_if_else_56
    movabsq $0x0, %rax
    pushq %rax
    popq %rax
    movq %rax, -40(%rbp)
    movq $0, %rax
    pushq %rax
    popq %rax
    jmp L_if_end_57
L_if_else_56:
    movl -16(%rbp), %eax
    pushq %rax
    movl -8(%rbp), %eax
    pushq %rax
    leaq L_SEMA_DECLS_NAME_LEN(%rip), %rax
    pushq %rax
    movl -48(%rbp), %eax
    pushq %rax
    movabsq $0x1, %rax
    pushq %rax
    popq %rcx
    popq %rax
    subq %rcx, %rax
    movl %eax, %eax
    pushq %rax
    popq %rcx
    popq %rax
    movl (%rax,%rcx,4), %eax
    pushq %rax
    leaq L_SEMA_DECLS_NAME_OFF(%rip), %rax
    pushq %rax
    movl -48(%rbp), %eax
    pushq %rax
    movabsq $0x1, %rax
    pushq %rax
    popq %rcx
    popq %rax
    subq %rcx, %rax
    movl %eax, %eax
    pushq %rax
    popq %rcx
    popq %rax
    movl (%rax,%rcx,4), %eax
    pushq %rax
    popq %rcx
    popq %rdx
    popq %r8
    popq %r9
    subq $32, %rsp
    callq L_s_arena_slice_eq
    addq $32, %rsp
    movl %eax, %eax
    pushq %rax
    movabsq $0x1, %rax
    pushq %rax
    popq %rcx
    popq %rax
    cmpq %rcx, %rax
    sete %al
    movzbq %al, %rax
    pushq %rax
    popq %rax
    testq %rax, %rax
    jz L_if_else_58
    leaq L_SEMA_DECLS_NODE(%rip), %rax
    pushq %rax
    movl -48(%rbp), %eax
    pushq %rax
    movabsq $0x1, %rax
    pushq %rax
    popq %rcx
    popq %rax
    subq %rcx, %rax
    movl %eax, %eax
    pushq %rax
    popq %rcx
    popq %rax
    movl (%rax,%rcx,4), %eax
    pushq %rax
    popq %rax
    movq %rax, -32(%rbp)
    movabsq $0x0, %rax
    pushq %rax
    popq %rax
    movq %rax, -40(%rbp)
    movq $0, %rax
    pushq %rax
    popq %rax
    jmp L_if_end_59
L_if_else_58:
    movl -24(%rbp), %eax
    pushq %rax
    movabsq $0x1, %rax
    pushq %rax
    popq %rcx
    popq %rax
    addq %rcx, %rax
    movl %eax, %eax
    pushq %rax
    movabsq $0x7ff, %rax
    pushq %rax
    popq %rcx
    popq %rax
    andq %rcx, %rax
    pushq %rax
    popq %rax
    movq %rax, -24(%rbp)
    movq $0, %rax
    pushq %rax
    popq %rax
L_if_end_59:
    movq $0, %rax
    pushq %rax
    popq %rax
L_if_end_57:
    movq $0, %rax
    pushq %rax
    popq %rax
    jmp L_loop_top_54
L_loop_end_55:
    movl -32(%rbp), %eax
    pushq %rax
    popq %rax
    movq %rbp, %rsp
    popq %rbp
    retq
    movq $0, %rax
    pushq %rax
    movq $0, %rax
    movq %rbp, %rsp
    popq %rbp
    retq
    .seh_endproc
    .section .iii.ring3,"n"
    .asciz "s_decl_table_lookup_cstr"
    .text
    .seh_proc L_s_decl_table_lookup_cstr
L_s_decl_table_lookup_cstr:
    pushq %rbp
    .seh_pushreg %rbp
    movq %rsp, %rbp
    .seh_setframe %rbp, 0
    subq $1024, %rsp
    .seh_stackalloc 1024
    .seh_endprologue
    movq %rcx, -8(%rbp)
    movq -8(%rbp), %rax
    pushq %rax
    popq %rcx
    subq $32, %rsp
    callq L_s_decl_hash_cstr
    addq $32, %rsp
    movl %eax, %eax
    pushq %rax
    movabsq $0x7ff, %rax
    pushq %rax
    popq %rcx
    popq %rax
    andq %rcx, %rax
    pushq %rax
    popq %rax
    movq %rax, -16(%rbp)
    movabsq $0x0, %rax
    pushq %rax
    popq %rax
    movq %rax, -24(%rbp)
    movabsq $0x1, %rax
    pushq %rax
    popq %rax
    movq %rax, -32(%rbp)
L_loop_top_60:
    movl -32(%rbp), %eax
    pushq %rax
    movabsq $0x1, %rax
    pushq %rax
    popq %rcx
    popq %rax
    cmpq %rcx, %rax
    sete %al
    movzbq %al, %rax
    pushq %rax
    popq %rax
    testq %rax, %rax
    jz L_loop_end_61
    leaq L_SEMA_DECL_IDX(%rip), %rax
    pushq %rax
    movl -16(%rbp), %eax
    pushq %rax
    popq %rcx
    popq %rax
    movl (%rax,%rcx,4), %eax
    pushq %rax
    popq %rax
    movq %rax, -40(%rbp)
    movl -40(%rbp), %eax
    pushq %rax
    movabsq $0x0, %rax
    pushq %rax
    popq %rcx
    popq %rax
    cmpq %rcx, %rax
    sete %al
    movzbq %al, %rax
    pushq %rax
    popq %rax
    testq %rax, %rax
    jz L_if_else_62
    movabsq $0x0, %rax
    pushq %rax
    popq %rax
    movq %rax, -32(%rbp)
    movq $0, %rax
    pushq %rax
    popq %rax
    jmp L_if_end_63
L_if_else_62:
    movq -8(%rbp), %rax
    pushq %rax
    leaq L_SEMA_DECLS_NAME_LEN(%rip), %rax
    pushq %rax
    movl -40(%rbp), %eax
    pushq %rax
    movabsq $0x1, %rax
    pushq %rax
    popq %rcx
    popq %rax
    subq %rcx, %rax
    movl %eax, %eax
    pushq %rax
    popq %rcx
    popq %rax
    movl (%rax,%rcx,4), %eax
    pushq %rax
    leaq L_SEMA_DECLS_NAME_OFF(%rip), %rax
    pushq %rax
    movl -40(%rbp), %eax
    pushq %rax
    movabsq $0x1, %rax
    pushq %rax
    popq %rcx
    popq %rax
    subq %rcx, %rax
    movl %eax, %eax
    pushq %rax
    popq %rcx
    popq %rax
    movl (%rax,%rcx,4), %eax
    pushq %rax
    popq %rcx
    popq %rdx
    popq %r8
    subq $32, %rsp
    callq L_s_arena_eq_cstr
    addq $32, %rsp
    movl %eax, %eax
    pushq %rax
    movabsq $0x1, %rax
    pushq %rax
    popq %rcx
    popq %rax
    cmpq %rcx, %rax
    sete %al
    movzbq %al, %rax
    pushq %rax
    popq %rax
    testq %rax, %rax
    jz L_if_else_64
    leaq L_SEMA_DECLS_NODE(%rip), %rax
    pushq %rax
    movl -40(%rbp), %eax
    pushq %rax
    movabsq $0x1, %rax
    pushq %rax
    popq %rcx
    popq %rax
    subq %rcx, %rax
    movl %eax, %eax
    pushq %rax
    popq %rcx
    popq %rax
    movl (%rax,%rcx,4), %eax
    pushq %rax
    popq %rax
    movq %rax, -24(%rbp)
    movabsq $0x0, %rax
    pushq %rax
    popq %rax
    movq %rax, -32(%rbp)
    movq $0, %rax
    pushq %rax
    popq %rax
    jmp L_if_end_65
L_if_else_64:
    movl -16(%rbp), %eax
    pushq %rax
    movabsq $0x1, %rax
    pushq %rax
    popq %rcx
    popq %rax
    addq %rcx, %rax
    movl %eax, %eax
    pushq %rax
    movabsq $0x7ff, %rax
    pushq %rax
    popq %rcx
    popq %rax
    andq %rcx, %rax
    pushq %rax
    popq %rax
    movq %rax, -16(%rbp)
    movq $0, %rax
    pushq %rax
    popq %rax
L_if_end_65:
    movq $0, %rax
    pushq %rax
    popq %rax
L_if_end_63:
    movq $0, %rax
    pushq %rax
    popq %rax
    jmp L_loop_top_60
L_loop_end_61:
    movl -24(%rbp), %eax
    pushq %rax
    popq %rax
    movq %rbp, %rsp
    popq %rbp
    retq
    movq $0, %rax
    pushq %rax
    movq $0, %rax
    movq %rbp, %rsp
    popq %rbp
    retq
    .seh_endproc
    .section .iii.ring3,"n"
    .asciz "s_decl_table_add"
    .text
    .seh_proc L_s_decl_table_add
L_s_decl_table_add:
    pushq %rbp
    .seh_pushreg %rbp
    movq %rsp, %rbp
    .seh_setframe %rbp, 0
    subq $1024, %rsp
    .seh_stackalloc 1024
    .seh_endprologue
    movq %rcx, -8(%rbp)
    movq %rdx, -16(%rbp)
    movq %r8, -24(%rbp)
    movq %r9, -32(%rbp)
    movl L_SEMA_DECL_COUNT(%rip), %eax
    pushq %rax
    movl L_SEMA_DECL_CAP(%rip), %eax
    pushq %rax
    popq %rcx
    popq %rax
    cmpq %rcx, %rax
    setae %al
    movzbq %al, %rax
    pushq %rax
    popq %rax
    testq %rax, %rax
    jz L_if_end_67
    movabsq $0x0, %rax
    pushq %rax
    popq %rax
    movq %rbp, %rsp
    popq %rbp
    retq
    movq $0, %rax
    pushq %rax
    popq %rax
L_if_end_67:
    movl L_SEMA_DECL_COUNT(%rip), %eax
    pushq %rax
    popq %rax
    movq %rax, -40(%rbp)
    leaq L_SEMA_DECLS_NAME_OFF(%rip), %rax
    pushq %rax
    movl -40(%rbp), %eax
    pushq %rax
    movl -8(%rbp), %eax
    pushq %rax
    popq %rdx
    popq %rcx
    popq %rax
    movl %edx, (%rax,%rcx,4)
    leaq L_SEMA_DECLS_NAME_LEN(%rip), %rax
    pushq %rax
    movl -40(%rbp), %eax
    pushq %rax
    movl -16(%rbp), %eax
    pushq %rax
    popq %rdx
    popq %rcx
    popq %rax
    movl %edx, (%rax,%rcx,4)
    leaq L_SEMA_DECLS_NODE(%rip), %rax
    pushq %rax
    movl -40(%rbp), %eax
    pushq %rax
    movl -24(%rbp), %eax
    pushq %rax
    popq %rdx
    popq %rcx
    popq %rax
    movl %edx, (%rax,%rcx,4)
    leaq L_SEMA_DECLS_KIND(%rip), %rax
    pushq %rax
    movl -40(%rbp), %eax
    pushq %rax
    movl -32(%rbp), %eax
    pushq %rax
    popq %rdx
    popq %rcx
    popq %rax
    movl %edx, (%rax,%rcx,4)
    movl -40(%rbp), %eax
    pushq %rax
    movabsq $0x1, %rax
    pushq %rax
    popq %rcx
    popq %rax
    addq %rcx, %rax
    movl %eax, %eax
    pushq %rax
    popq %rax
    movl %eax, L_SEMA_DECL_COUNT(%rip)
    movl -16(%rbp), %eax
    pushq %rax
    movl -8(%rbp), %eax
    pushq %rax
    popq %rcx
    popq %rdx
    subq $32, %rsp
    callq L_s_decl_hash
    addq $32, %rsp
    movl %eax, %eax
    pushq %rax
    movabsq $0x7ff, %rax
    pushq %rax
    popq %rcx
    popq %rax
    andq %rcx, %rax
    pushq %rax
    popq %rax
    movq %rax, -48(%rbp)
    movabsq $0x1, %rax
    pushq %rax
    popq %rax
    movq %rax, -56(%rbp)
L_loop_top_68:
    movl -56(%rbp), %eax
    pushq %rax
    movabsq $0x1, %rax
    pushq %rax
    popq %rcx
    popq %rax
    cmpq %rcx, %rax
    sete %al
    movzbq %al, %rax
    pushq %rax
    popq %rax
    testq %rax, %rax
    jz L_loop_end_69
    leaq L_SEMA_DECL_IDX(%rip), %rax
    pushq %rax
    movl -48(%rbp), %eax
    pushq %rax
    popq %rcx
    popq %rax
    movl (%rax,%rcx,4), %eax
    pushq %rax
    popq %rax
    movq %rax, -64(%rbp)
    movl -64(%rbp), %eax
    pushq %rax
    movabsq $0x0, %rax
    pushq %rax
    popq %rcx
    popq %rax
    cmpq %rcx, %rax
    sete %al
    movzbq %al, %rax
    pushq %rax
    popq %rax
    testq %rax, %rax
    jz L_if_else_70
    leaq L_SEMA_DECL_IDX(%rip), %rax
    pushq %rax
    movl -48(%rbp), %eax
    pushq %rax
    movl -40(%rbp), %eax
    pushq %rax
    movabsq $0x1, %rax
    pushq %rax
    popq %rcx
    popq %rax
    addq %rcx, %rax
    movl %eax, %eax
    pushq %rax
    popq %rdx
    popq %rcx
    popq %rax
    movl %edx, (%rax,%rcx,4)
    movabsq $0x0, %rax
    pushq %rax
    popq %rax
    movq %rax, -56(%rbp)
    movq $0, %rax
    pushq %rax
    popq %rax
    jmp L_if_end_71
L_if_else_70:
    movl -16(%rbp), %eax
    pushq %rax
    movl -8(%rbp), %eax
    pushq %rax
    leaq L_SEMA_DECLS_NAME_LEN(%rip), %rax
    pushq %rax
    movl -64(%rbp), %eax
    pushq %rax
    movabsq $0x1, %rax
    pushq %rax
    popq %rcx
    popq %rax
    subq %rcx, %rax
    movl %eax, %eax
    pushq %rax
    popq %rcx
    popq %rax
    movl (%rax,%rcx,4), %eax
    pushq %rax
    leaq L_SEMA_DECLS_NAME_OFF(%rip), %rax
    pushq %rax
    movl -64(%rbp), %eax
    pushq %rax
    movabsq $0x1, %rax
    pushq %rax
    popq %rcx
    popq %rax
    subq %rcx, %rax
    movl %eax, %eax
    pushq %rax
    popq %rcx
    popq %rax
    movl (%rax,%rcx,4), %eax
    pushq %rax
    popq %rcx
    popq %rdx
    popq %r8
    popq %r9
    subq $32, %rsp
    callq L_s_arena_slice_eq
    addq $32, %rsp
    movl %eax, %eax
    pushq %rax
    movabsq $0x1, %rax
    pushq %rax
    popq %rcx
    popq %rax
    cmpq %rcx, %rax
    sete %al
    movzbq %al, %rax
    pushq %rax
    popq %rax
    testq %rax, %rax
    jz L_if_else_72
    movabsq $0x0, %rax
    pushq %rax
    popq %rax
    movq %rax, -56(%rbp)
    movq $0, %rax
    pushq %rax
    popq %rax
    jmp L_if_end_73
L_if_else_72:
    movl -48(%rbp), %eax
    pushq %rax
    movabsq $0x1, %rax
    pushq %rax
    popq %rcx
    popq %rax
    addq %rcx, %rax
    movl %eax, %eax
    pushq %rax
    movabsq $0x7ff, %rax
    pushq %rax
    popq %rcx
    popq %rax
    andq %rcx, %rax
    pushq %rax
    popq %rax
    movq %rax, -48(%rbp)
    movq $0, %rax
    pushq %rax
    popq %rax
L_if_end_73:
    movq $0, %rax
    pushq %rax
    popq %rax
L_if_end_71:
    movq $0, %rax
    pushq %rax
    popq %rax
    jmp L_loop_top_68
L_loop_end_69:
    movabsq $0x1, %rax
    pushq %rax
    popq %rax
    movq %rbp, %rsp
    popq %rbp
    retq
    movq $0, %rax
    pushq %rax
    movq $0, %rax
    movq %rbp, %rsp
    popq %rbp
    retq
    .seh_endproc
    .section .iii.ring3,"n"
    .asciz "s_anno_find"
    .text
    .seh_proc L_s_anno_find
L_s_anno_find:
    pushq %rbp
    .seh_pushreg %rbp
    movq %rsp, %rbp
    .seh_setframe %rbp, 0
    subq $1024, %rsp
    .seh_stackalloc 1024
    .seh_endprologue
    movq %rcx, -8(%rbp)
    movabsq $0x0, %rax
    pushq %rax
    popq %rax
    movq %rax, -16(%rbp)
L_loop_top_74:
    movl -16(%rbp), %eax
    pushq %rax
    movl L_SEMA_ANNO_COUNT(%rip), %eax
    pushq %rax
    popq %rcx
    popq %rax
    cmpq %rcx, %rax
    setb %al
    movzbq %al, %rax
    pushq %rax
    popq %rax
    testq %rax, %rax
    jz L_loop_end_75
    leaq L_SEMA_ANNO_NODE(%rip), %rax
    pushq %rax
    movl -16(%rbp), %eax
    pushq %rax
    popq %rcx
    popq %rax
    movl (%rax,%rcx,4), %eax
    pushq %rax
    movl -8(%rbp), %eax
    pushq %rax
    popq %rcx
    popq %rax
    cmpq %rcx, %rax
    sete %al
    movzbq %al, %rax
    pushq %rax
    popq %rax
    testq %rax, %rax
    jz L_if_end_77
    movl -16(%rbp), %eax
    pushq %rax
    movabsq $0x1, %rax
    pushq %rax
    popq %rcx
    popq %rax
    addq %rcx, %rax
    movl %eax, %eax
    pushq %rax
    popq %rax
    movq %rbp, %rsp
    popq %rbp
    retq
    movq $0, %rax
    pushq %rax
    popq %rax
L_if_end_77:
    movl -16(%rbp), %eax
    pushq %rax
    movabsq $0x1, %rax
    pushq %rax
    popq %rcx
    popq %rax
    addq %rcx, %rax
    movl %eax, %eax
    pushq %rax
    popq %rax
    movq %rax, -16(%rbp)
    movq $0, %rax
    pushq %rax
    popq %rax
    jmp L_loop_top_74
L_loop_end_75:
    movabsq $0x0, %rax
    pushq %rax
    popq %rax
    movq %rbp, %rsp
    popq %rbp
    retq
    movq $0, %rax
    pushq %rax
    movq $0, %rax
    movq %rbp, %rsp
    popq %rbp
    retq
    .seh_endproc
    .section .iii.ring3,"n"
    .asciz "s_anno_get_or_create"
    .text
    .seh_proc L_s_anno_get_or_create
L_s_anno_get_or_create:
    pushq %rbp
    .seh_pushreg %rbp
    movq %rsp, %rbp
    .seh_setframe %rbp, 0
    subq $1024, %rsp
    .seh_stackalloc 1024
    .seh_endprologue
    movq %rcx, -8(%rbp)
    movl -8(%rbp), %eax
    pushq %rax
    popq %rcx
    subq $32, %rsp
    callq L_s_anno_find
    addq $32, %rsp
    movl %eax, %eax
    pushq %rax
    popq %rax
    movq %rax, -16(%rbp)
    movl -16(%rbp), %eax
    pushq %rax
    movabsq $0x0, %rax
    pushq %rax
    popq %rcx
    popq %rax
    cmpq %rcx, %rax
    setne %al
    movzbq %al, %rax
    pushq %rax
    popq %rax
    testq %rax, %rax
    jz L_if_end_79
    movl -16(%rbp), %eax
    pushq %rax
    movabsq $0x1, %rax
    pushq %rax
    popq %rcx
    popq %rax
    subq %rcx, %rax
    movl %eax, %eax
    pushq %rax
    popq %rax
    movq %rbp, %rsp
    popq %rbp
    retq
    movq $0, %rax
    pushq %rax
    popq %rax
L_if_end_79:
    movl L_SEMA_ANNO_COUNT(%rip), %eax
    pushq %rax
    movl L_SEMA_ANNO_CAP(%rip), %eax
    pushq %rax
    popq %rcx
    popq %rax
    cmpq %rcx, %rax
    setae %al
    movzbq %al, %rax
    pushq %rax
    popq %rax
    testq %rax, %rax
    jz L_if_end_81
    movabsq $0xffffffff, %rax
    pushq %rax
    popq %rax
    movq %rbp, %rsp
    popq %rbp
    retq
    movq $0, %rax
    pushq %rax
    popq %rax
L_if_end_81:
    movl L_SEMA_ANNO_COUNT(%rip), %eax
    pushq %rax
    popq %rax
    movq %rax, -24(%rbp)
    leaq L_SEMA_ANNO_NODE(%rip), %rax
    pushq %rax
    movl -24(%rbp), %eax
    pushq %rax
    movl -8(%rbp), %eax
    pushq %rax
    popq %rdx
    popq %rcx
    popq %rax
    movl %edx, (%rax,%rcx,4)
    leaq L_SEMA_ANNO_HEXAD(%rip), %rax
    pushq %rax
    movl -24(%rbp), %eax
    pushq %rax
    movl L_SEMA_HEXAD_UNSET(%rip), %eax
    pushq %rax
    popq %rdx
    popq %rcx
    popq %rax
    movl %edx, (%rax,%rcx,4)
    leaq L_SEMA_ANNO_RING(%rip), %rax
    pushq %rax
    movl -24(%rbp), %eax
    pushq %rax
    movabsq $0x0, %rax
    pushq %rax
    popq %rdx
    popq %rcx
    popq %rax
    movl %edx, (%rax,%rcx,4)
    leaq L_SEMA_ANNO_TIER(%rip), %rax
    pushq %rax
    movl -24(%rbp), %eax
    pushq %rax
    movabsq $0x0, %rax
    pushq %rax
    popq %rdx
    popq %rcx
    popq %rax
    movl %edx, (%rax,%rcx,4)
    leaq L_SEMA_ANNO_EPOCH_LO(%rip), %rax
    pushq %rax
    movl -24(%rbp), %eax
    pushq %rax
    movabsq $0x0, %rax
    pushq %rax
    popq %rdx
    popq %rcx
    popq %rax
    movl %edx, (%rax,%rcx,4)
    leaq L_SEMA_ANNO_EPOCH_HI(%rip), %rax
    pushq %rax
    movl -24(%rbp), %eax
    pushq %rax
    movabsq $0x0, %rax
    pushq %rax
    popq %rdx
    popq %rcx
    popq %rax
    movl %edx, (%rax,%rcx,4)
    leaq L_SEMA_ANNO_ABI(%rip), %rax
    pushq %rax
    movl -24(%rbp), %eax
    pushq %rax
    movabsq $0x0, %rax
    pushq %rax
    popq %rdx
    popq %rcx
    popq %rax
    movl %edx, (%rax,%rcx,4)
    movl -24(%rbp), %eax
    pushq %rax
    movabsq $0x1, %rax
    pushq %rax
    popq %rcx
    popq %rax
    addq %rcx, %rax
    movl %eax, %eax
    pushq %rax
    popq %rax
    movl %eax, L_SEMA_ANNO_COUNT(%rip)
    movl -24(%rbp), %eax
    pushq %rax
    popq %rax
    movq %rbp, %rsp
    popq %rbp
    retq
    movq $0, %rax
    pushq %rax
    movq $0, %rax
    movq %rbp, %rsp
    popq %rbp
    retq
    .seh_endproc
    .section .iii.ring3,"n"
    .asciz "s_struct_find"
    .text
    .seh_proc L_s_struct_find
L_s_struct_find:
    pushq %rbp
    .seh_pushreg %rbp
    movq %rsp, %rbp
    .seh_setframe %rbp, 0
    subq $1024, %rsp
    .seh_stackalloc 1024
    .seh_endprologue
    movq %rcx, -8(%rbp)
    movabsq $0x0, %rax
    pushq %rax
    popq %rax
    movq %rax, -16(%rbp)
L_loop_top_82:
    movl -16(%rbp), %eax
    pushq %rax
    movl L_SEMA_STRUCT_COUNT(%rip), %eax
    pushq %rax
    popq %rcx
    popq %rax
    cmpq %rcx, %rax
    setb %al
    movzbq %al, %rax
    pushq %rax
    popq %rax
    testq %rax, %rax
    jz L_loop_end_83
    leaq L_SEMA_STRUCT_NODE(%rip), %rax
    pushq %rax
    movl -16(%rbp), %eax
    pushq %rax
    popq %rcx
    popq %rax
    movl (%rax,%rcx,4), %eax
    pushq %rax
    movl -8(%rbp), %eax
    pushq %rax
    popq %rcx
    popq %rax
    cmpq %rcx, %rax
    sete %al
    movzbq %al, %rax
    pushq %rax
    popq %rax
    testq %rax, %rax
    jz L_if_end_85
    movl -16(%rbp), %eax
    pushq %rax
    movabsq $0x1, %rax
    pushq %rax
    popq %rcx
    popq %rax
    addq %rcx, %rax
    movl %eax, %eax
    pushq %rax
    popq %rax
    movq %rbp, %rsp
    popq %rbp
    retq
    movq $0, %rax
    pushq %rax
    popq %rax
L_if_end_85:
    movl -16(%rbp), %eax
    pushq %rax
    movabsq $0x1, %rax
    pushq %rax
    popq %rcx
    popq %rax
    addq %rcx, %rax
    movl %eax, %eax
    pushq %rax
    popq %rax
    movq %rax, -16(%rbp)
    movq $0, %rax
    pushq %rax
    popq %rax
    jmp L_loop_top_82
L_loop_end_83:
    movabsq $0x0, %rax
    pushq %rax
    popq %rax
    movq %rbp, %rsp
    popq %rbp
    retq
    movq $0, %rax
    pushq %rax
    movq $0, %rax
    movq %rbp, %rsp
    popq %rbp
    retq
    .seh_endproc
    .section .iii.ring3,"n"
    .asciz "s_struct_find_by_name_cstr"
    .text
    .seh_proc L_s_struct_find_by_name_cstr
L_s_struct_find_by_name_cstr:
    pushq %rbp
    .seh_pushreg %rbp
    movq %rsp, %rbp
    .seh_setframe %rbp, 0
    subq $1024, %rsp
    .seh_stackalloc 1024
    .seh_endprologue
    movq %rcx, -8(%rbp)
    movabsq $0x0, %rax
    pushq %rax
    popq %rax
    movq %rax, -16(%rbp)
L_loop_top_86:
    movl -16(%rbp), %eax
    pushq %rax
    movl L_SEMA_STRUCT_COUNT(%rip), %eax
    pushq %rax
    popq %rcx
    popq %rax
    cmpq %rcx, %rax
    setb %al
    movzbq %al, %rax
    pushq %rax
    popq %rax
    testq %rax, %rax
    jz L_loop_end_87
    leaq L_SEMA_STRUCT_NAME_OFF(%rip), %rax
    pushq %rax
    movl -16(%rbp), %eax
    pushq %rax
    popq %rcx
    popq %rax
    movl (%rax,%rcx,4), %eax
    pushq %rax
    popq %rax
    movq %rax, -24(%rbp)
    leaq L_SEMA_STRUCT_NAME_LEN(%rip), %rax
    pushq %rax
    movl -16(%rbp), %eax
    pushq %rax
    popq %rcx
    popq %rax
    movl (%rax,%rcx,4), %eax
    pushq %rax
    popq %rax
    movq %rax, -32(%rbp)
    movq -8(%rbp), %rax
    pushq %rax
    movl -32(%rbp), %eax
    pushq %rax
    movl -24(%rbp), %eax
    pushq %rax
    popq %rcx
    popq %rdx
    popq %r8
    subq $32, %rsp
    callq L_s_arena_eq_cstr
    addq $32, %rsp
    movl %eax, %eax
    pushq %rax
    movabsq $0x1, %rax
    pushq %rax
    popq %rcx
    popq %rax
    cmpq %rcx, %rax
    sete %al
    movzbq %al, %rax
    pushq %rax
    popq %rax
    testq %rax, %rax
    jz L_if_end_89
    leaq L_SEMA_STRUCT_NODE(%rip), %rax
    pushq %rax
    movl -16(%rbp), %eax
    pushq %rax
    popq %rcx
    popq %rax
    movl (%rax,%rcx,4), %eax
    pushq %rax
    popq %rax
    movq %rbp, %rsp
    popq %rbp
    retq
    movq $0, %rax
    pushq %rax
    popq %rax
L_if_end_89:
    movl -16(%rbp), %eax
    pushq %rax
    movabsq $0x1, %rax
    pushq %rax
    popq %rcx
    popq %rax
    addq %rcx, %rax
    movl %eax, %eax
    pushq %rax
    popq %rax
    movq %rax, -16(%rbp)
    movq $0, %rax
    pushq %rax
    popq %rax
    jmp L_loop_top_86
L_loop_end_87:
    movabsq $0x0, %rax
    pushq %rax
    popq %rax
    movq %rbp, %rsp
    popq %rbp
    retq
    movq $0, %rax
    pushq %rax
    movq $0, %rax
    movq %rbp, %rsp
    popq %rbp
    retq
    .seh_endproc
    .section .iii.ring3,"n"
    .asciz "s_struct_alloc"
    .text
    .seh_proc L_s_struct_alloc
L_s_struct_alloc:
    pushq %rbp
    .seh_pushreg %rbp
    movq %rsp, %rbp
    .seh_setframe %rbp, 0
    subq $1024, %rsp
    .seh_stackalloc 1024
    .seh_endprologue
    movq %rcx, -8(%rbp)
    movq %rdx, -16(%rbp)
    movq %r8, -24(%rbp)
    movl L_SEMA_STRUCT_COUNT(%rip), %eax
    pushq %rax
    movl L_SEMA_STRUCT_CAP(%rip), %eax
    pushq %rax
    popq %rcx
    popq %rax
    cmpq %rcx, %rax
    setae %al
    movzbq %al, %rax
    pushq %rax
    popq %rax
    testq %rax, %rax
    jz L_if_end_91
    movabsq $0xffffffff, %rax
    pushq %rax
    popq %rax
    movq %rbp, %rsp
    popq %rbp
    retq
    movq $0, %rax
    pushq %rax
    popq %rax
L_if_end_91:
    movl L_SEMA_STRUCT_COUNT(%rip), %eax
    pushq %rax
    popq %rax
    movq %rax, -32(%rbp)
    leaq L_SEMA_STRUCT_NODE(%rip), %rax
    pushq %rax
    movl -32(%rbp), %eax
    pushq %rax
    movl -8(%rbp), %eax
    pushq %rax
    popq %rdx
    popq %rcx
    popq %rax
    movl %edx, (%rax,%rcx,4)
    leaq L_SEMA_STRUCT_NAME_OFF(%rip), %rax
    pushq %rax
    movl -32(%rbp), %eax
    pushq %rax
    movl -16(%rbp), %eax
    pushq %rax
    popq %rdx
    popq %rcx
    popq %rax
    movl %edx, (%rax,%rcx,4)
    leaq L_SEMA_STRUCT_NAME_LEN(%rip), %rax
    pushq %rax
    movl -32(%rbp), %eax
    pushq %rax
    movl -24(%rbp), %eax
    pushq %rax
    popq %rdx
    popq %rcx
    popq %rax
    movl %edx, (%rax,%rcx,4)
    leaq L_SEMA_STRUCT_FIELD_COUNT(%rip), %rax
    pushq %rax
    movl -32(%rbp), %eax
    pushq %rax
    movabsq $0x0, %rax
    pushq %rax
    popq %rdx
    popq %rcx
    popq %rax
    movl %edx, (%rax,%rcx,4)
    movl -32(%rbp), %eax
    pushq %rax
    movabsq $0x1, %rax
    pushq %rax
    popq %rcx
    popq %rax
    addq %rcx, %rax
    movl %eax, %eax
    pushq %rax
    popq %rax
    movl %eax, L_SEMA_STRUCT_COUNT(%rip)
    movl -32(%rbp), %eax
    pushq %rax
    popq %rax
    movq %rbp, %rsp
    popq %rbp
    retq
    movq $0, %rax
    pushq %rax
    movq $0, %rax
    movq %rbp, %rsp
    popq %rbp
    retq
    .seh_endproc
    .section .iii.ring3,"n"
    .asciz "s_struct_add_field"
    .text
    .seh_proc L_s_struct_add_field
L_s_struct_add_field:
    pushq %rbp
    .seh_pushreg %rbp
    movq %rsp, %rbp
    .seh_setframe %rbp, 0
    subq $1024, %rsp
    .seh_stackalloc 1024
    .seh_endprologue
    movq %rcx, -8(%rbp)
    movq %rdx, -16(%rbp)
    movq %r8, -24(%rbp)
    leaq L_SEMA_STRUCT_FIELD_COUNT(%rip), %rax
    pushq %rax
    movl -8(%rbp), %eax
    pushq %rax
    popq %rcx
    popq %rax
    movl (%rax,%rcx,4), %eax
    pushq %rax
    popq %rax
    movq %rax, -32(%rbp)
    movl -32(%rbp), %eax
    pushq %rax
    movl L_SEMA_STRUCT_FIELD_CAP(%rip), %eax
    pushq %rax
    popq %rcx
    popq %rax
    cmpq %rcx, %rax
    setae %al
    movzbq %al, %rax
    pushq %rax
    popq %rax
    testq %rax, %rax
    jz L_if_end_93
    movabsq $0x0, %rax
    pushq %rax
    popq %rax
    movq %rbp, %rsp
    popq %rbp
    retq
    movq $0, %rax
    pushq %rax
    popq %rax
L_if_end_93:
    movl -8(%rbp), %eax
    pushq %rax
    movl L_SEMA_STRUCT_FIELD_CAP(%rip), %eax
    pushq %rax
    popq %rcx
    popq %rax
    imulq %rcx, %rax
    movl %eax, %eax
    pushq %rax
    movl -32(%rbp), %eax
    pushq %rax
    popq %rcx
    popq %rax
    addq %rcx, %rax
    movl %eax, %eax
    pushq %rax
    popq %rax
    movq %rax, -40(%rbp)
    leaq L_SEMA_STRUCT_FIELD_NAME_OFF(%rip), %rax
    pushq %rax
    movl -40(%rbp), %eax
    pushq %rax
    movl -16(%rbp), %eax
    pushq %rax
    popq %rdx
    popq %rcx
    popq %rax
    movl %edx, (%rax,%rcx,4)
    leaq L_SEMA_STRUCT_FIELD_NAME_LEN(%rip), %rax
    pushq %rax
    movl -40(%rbp), %eax
    pushq %rax
    movl -24(%rbp), %eax
    pushq %rax
    popq %rdx
    popq %rcx
    popq %rax
    movl %edx, (%rax,%rcx,4)
    leaq L_SEMA_STRUCT_FIELD_COUNT(%rip), %rax
    pushq %rax
    movl -8(%rbp), %eax
    pushq %rax
    movl -32(%rbp), %eax
    pushq %rax
    movabsq $0x1, %rax
    pushq %rax
    popq %rcx
    popq %rax
    addq %rcx, %rax
    movl %eax, %eax
    pushq %rax
    popq %rdx
    popq %rcx
    popq %rax
    movl %edx, (%rax,%rcx,4)
    movabsq $0x1, %rax
    pushq %rax
    popq %rax
    movq %rbp, %rsp
    popq %rbp
    retq
    movq $0, %rax
    pushq %rax
    movq $0, %rax
    movq %rbp, %rsp
    popq %rbp
    retq
    .seh_endproc
    .section .iii.ring3,"n"
    .asciz "s_struct_field_slot_cstr"
    .text
    .seh_proc L_s_struct_field_slot_cstr
L_s_struct_field_slot_cstr:
    pushq %rbp
    .seh_pushreg %rbp
    movq %rsp, %rbp
    .seh_setframe %rbp, 0
    subq $1024, %rsp
    .seh_stackalloc 1024
    .seh_endprologue
    movq %rcx, -8(%rbp)
    movq %rdx, -16(%rbp)
    leaq L_SEMA_STRUCT_FIELD_COUNT(%rip), %rax
    pushq %rax
    movl -8(%rbp), %eax
    pushq %rax
    popq %rcx
    popq %rax
    movl (%rax,%rcx,4), %eax
    pushq %rax
    popq %rax
    movq %rax, -24(%rbp)
    movabsq $0x0, %rax
    pushq %rax
    popq %rax
    movq %rax, -32(%rbp)
L_loop_top_94:
    movl -32(%rbp), %eax
    pushq %rax
    movl -24(%rbp), %eax
    pushq %rax
    popq %rcx
    popq %rax
    cmpq %rcx, %rax
    setb %al
    movzbq %al, %rax
    pushq %rax
    popq %rax
    testq %rax, %rax
    jz L_loop_end_95
    movl -8(%rbp), %eax
    pushq %rax
    movl L_SEMA_STRUCT_FIELD_CAP(%rip), %eax
    pushq %rax
    popq %rcx
    popq %rax
    imulq %rcx, %rax
    movl %eax, %eax
    pushq %rax
    movl -32(%rbp), %eax
    pushq %rax
    popq %rcx
    popq %rax
    addq %rcx, %rax
    movl %eax, %eax
    pushq %rax
    popq %rax
    movq %rax, -40(%rbp)
    leaq L_SEMA_STRUCT_FIELD_NAME_OFF(%rip), %rax
    pushq %rax
    movl -40(%rbp), %eax
    pushq %rax
    popq %rcx
    popq %rax
    movl (%rax,%rcx,4), %eax
    pushq %rax
    popq %rax
    movq %rax, -48(%rbp)
    leaq L_SEMA_STRUCT_FIELD_NAME_LEN(%rip), %rax
    pushq %rax
    movl -40(%rbp), %eax
    pushq %rax
    popq %rcx
    popq %rax
    movl (%rax,%rcx,4), %eax
    pushq %rax
    popq %rax
    movq %rax, -56(%rbp)
    movq -16(%rbp), %rax
    pushq %rax
    movl -56(%rbp), %eax
    pushq %rax
    movl -48(%rbp), %eax
    pushq %rax
    popq %rcx
    popq %rdx
    popq %r8
    subq $32, %rsp
    callq L_s_arena_eq_cstr
    addq $32, %rsp
    movl %eax, %eax
    pushq %rax
    movabsq $0x1, %rax
    pushq %rax
    popq %rcx
    popq %rax
    cmpq %rcx, %rax
    sete %al
    movzbq %al, %rax
    pushq %rax
    popq %rax
    testq %rax, %rax
    jz L_if_end_97
    movl -32(%rbp), %eax
    pushq %rax
    popq %rax
    movslq %eax, %rax
    pushq %rax
    popq %rax
    movq %rbp, %rsp
    popq %rbp
    retq
    movq $0, %rax
    pushq %rax
    popq %rax
L_if_end_97:
    movl -32(%rbp), %eax
    pushq %rax
    movabsq $0x1, %rax
    pushq %rax
    popq %rcx
    popq %rax
    addq %rcx, %rax
    movl %eax, %eax
    pushq %rax
    popq %rax
    movq %rax, -32(%rbp)
    movq $0, %rax
    pushq %rax
    popq %rax
    jmp L_loop_top_94
L_loop_end_95:
    movabsq $0x1, %rax
    pushq %rax
    popq %rax
    negq %rax
    pushq %rax
    popq %rax
    movq %rbp, %rsp
    popq %rbp
    retq
    movq $0, %rax
    pushq %rax
    movq $0, %rax
    movq %rbp, %rsp
    popq %rbp
    retq
    .seh_endproc
    .section .iii.ring3,"n"
    .asciz "s_local_push"
    .text
    .seh_proc L_s_local_push
L_s_local_push:
    pushq %rbp
    .seh_pushreg %rbp
    movq %rsp, %rbp
    .seh_setframe %rbp, 0
    subq $1024, %rsp
    .seh_stackalloc 1024
    .seh_endprologue
    movq %rcx, -8(%rbp)
    movq %rdx, -16(%rbp)
    movq %r8, -24(%rbp)
    movl L_SEMA_LOCAL_COUNT(%rip), %eax
    pushq %rax
    movl L_SEMA_LOCAL_CAP(%rip), %eax
    pushq %rax
    popq %rcx
    popq %rax
    cmpq %rcx, %rax
    setae %al
    movzbq %al, %rax
    pushq %rax
    popq %rax
    testq %rax, %rax
    jz L_if_end_99
    movabsq $0x0, %rax
    pushq %rax
    popq %rax
    movq %rbp, %rsp
    popq %rbp
    retq
    movq $0, %rax
    pushq %rax
    popq %rax
L_if_end_99:
    movl L_SEMA_LOCAL_COUNT(%rip), %eax
    pushq %rax
    popq %rax
    movq %rax, -32(%rbp)
    leaq L_SEMA_LOCAL_NAME_OFF(%rip), %rax
    pushq %rax
    movl -32(%rbp), %eax
    pushq %rax
    movl -8(%rbp), %eax
    pushq %rax
    popq %rdx
    popq %rcx
    popq %rax
    movl %edx, (%rax,%rcx,4)
    leaq L_SEMA_LOCAL_NAME_LEN(%rip), %rax
    pushq %rax
    movl -32(%rbp), %eax
    pushq %rax
    movl -16(%rbp), %eax
    pushq %rax
    popq %rdx
    popq %rcx
    popq %rax
    movl %edx, (%rax,%rcx,4)
    leaq L_SEMA_LOCAL_BINDER(%rip), %rax
    pushq %rax
    movl -32(%rbp), %eax
    pushq %rax
    movl -24(%rbp), %eax
    pushq %rax
    popq %rdx
    popq %rcx
    popq %rax
    movl %edx, (%rax,%rcx,4)
    leaq L_SEMA_LOCAL_DEF(%rip), %rax
    pushq %rax
    movl -32(%rbp), %eax
    pushq %rax
    movl -24(%rbp), %eax
    pushq %rax
    popq %rdx
    popq %rcx
    popq %rax
    movl %edx, (%rax,%rcx,4)
    movl -32(%rbp), %eax
    pushq %rax
    movabsq $0x1, %rax
    pushq %rax
    popq %rcx
    popq %rax
    addq %rcx, %rax
    movl %eax, %eax
    pushq %rax
    popq %rax
    movl %eax, L_SEMA_LOCAL_COUNT(%rip)
    movl L_SEMA_NEXT_BINDER(%rip), %eax
    pushq %rax
    movabsq $0x1, %rax
    pushq %rax
    popq %rcx
    popq %rax
    addq %rcx, %rax
    movl %eax, %eax
    pushq %rax
    popq %rax
    movl %eax, L_SEMA_NEXT_BINDER(%rip)
    movl -24(%rbp), %eax
    pushq %rax
    popq %rax
    movq %rbp, %rsp
    popq %rbp
    retq
    movq $0, %rax
    pushq %rax
    movq $0, %rax
    movq %rbp, %rsp
    popq %rbp
    retq
    .seh_endproc
    .section .iii.ring3,"n"
    .asciz "s_local_lookup_src"
    .text
    .seh_proc L_s_local_lookup_src
L_s_local_lookup_src:
    pushq %rbp
    .seh_pushreg %rbp
    movq %rsp, %rbp
    .seh_setframe %rbp, 0
    subq $1024, %rsp
    .seh_stackalloc 1024
    .seh_endprologue
    movq %rcx, -8(%rbp)
    movq %rdx, -16(%rbp)
    movl L_SEMA_LOCAL_COUNT(%rip), %eax
    pushq %rax
    movabsq $0x0, %rax
    pushq %rax
    popq %rcx
    popq %rax
    cmpq %rcx, %rax
    sete %al
    movzbq %al, %rax
    pushq %rax
    popq %rax
    testq %rax, %rax
    jz L_if_end_101
    movabsq $0x0, %rax
    pushq %rax
    popq %rax
    movq %rbp, %rsp
    popq %rbp
    retq
    movq $0, %rax
    pushq %rax
    popq %rax
L_if_end_101:
    movq L_SEMA_AST(%rip), %rax
    pushq %rax
    popq %rcx
    subq $32, %rsp
    callq iii_ast_source_buf
    addq $32, %rsp
    pushq %rax
    popq %rax
    movq %rax, -24(%rbp)
    movl L_SEMA_LOCAL_COUNT(%rip), %eax
    pushq %rax
    popq %rax
    movq %rax, -32(%rbp)
L_loop_top_102:
    movl -32(%rbp), %eax
    pushq %rax
    movabsq $0x0, %rax
    pushq %rax
    popq %rcx
    popq %rax
    cmpq %rcx, %rax
    seta %al
    movzbq %al, %rax
    pushq %rax
    popq %rax
    testq %rax, %rax
    jz L_loop_end_103
    movl -32(%rbp), %eax
    pushq %rax
    movabsq $0x1, %rax
    pushq %rax
    popq %rcx
    popq %rax
    subq %rcx, %rax
    movl %eax, %eax
    pushq %rax
    popq %rax
    movq %rax, -32(%rbp)
    leaq L_SEMA_LOCAL_NAME_OFF(%rip), %rax
    pushq %rax
    movl -32(%rbp), %eax
    pushq %rax
    popq %rcx
    popq %rax
    movl (%rax,%rcx,4), %eax
    pushq %rax
    popq %rax
    movq %rax, -40(%rbp)
    leaq L_SEMA_LOCAL_NAME_LEN(%rip), %rax
    pushq %rax
    movl -32(%rbp), %eax
    pushq %rax
    popq %rcx
    popq %rax
    movl (%rax,%rcx,4), %eax
    pushq %rax
    popq %rax
    movq %rax, -48(%rbp)
    movl -48(%rbp), %eax
    pushq %rax
    movl -16(%rbp), %eax
    pushq %rax
    popq %rcx
    popq %rax
    cmpq %rcx, %rax
    sete %al
    movzbq %al, %rax
    pushq %rax
    popq %rax
    testq %rax, %rax
    jz L_if_end_105
    movabsq $0x0, %rax
    pushq %rax
    popq %rax
    movq %rax, -56(%rbp)
    movabsq $0x1, %rax
    pushq %rax
    popq %rax
    movq %rax, -64(%rbp)
L_loop_top_106:
    movl -56(%rbp), %eax
    pushq %rax
    movl -48(%rbp), %eax
    pushq %rax
    popq %rcx
    popq %rax
    cmpq %rcx, %rax
    setb %al
    movzbq %al, %rax
    pushq %rax
    popq %rax
    testq %rax, %rax
    jz L_loop_end_107
    movq -24(%rbp), %rax
    pushq %rax
    movl -40(%rbp), %eax
    pushq %rax
    movl -56(%rbp), %eax
    pushq %rax
    popq %rcx
    popq %rax
    addq %rcx, %rax
    movl %eax, %eax
    pushq %rax
    popq %rax
    pushq %rax
    popq %rcx
    popq %rax
    addq %rcx, %rax
    pushq %rax
    popq %rcx
    subq $32, %rsp
    callq L_s_load_u8
    addq $32, %rsp
    movl %eax, %eax
    pushq %rax
    popq %rax
    movq %rax, -72(%rbp)
    movq -24(%rbp), %rax
    pushq %rax
    movl -8(%rbp), %eax
    pushq %rax
    movl -56(%rbp), %eax
    pushq %rax
    popq %rcx
    popq %rax
    addq %rcx, %rax
    movl %eax, %eax
    pushq %rax
    popq %rax
    pushq %rax
    popq %rcx
    popq %rax
    addq %rcx, %rax
    pushq %rax
    popq %rcx
    subq $32, %rsp
    callq L_s_load_u8
    addq $32, %rsp
    movl %eax, %eax
    pushq %rax
    popq %rax
    movq %rax, -80(%rbp)
    movl -72(%rbp), %eax
    pushq %rax
    movl -80(%rbp), %eax
    pushq %rax
    popq %rcx
    popq %rax
    cmpq %rcx, %rax
    setne %al
    movzbq %al, %rax
    pushq %rax
    popq %rax
    testq %rax, %rax
    jz L_if_end_109
    movabsq $0x0, %rax
    pushq %rax
    popq %rax
    movq %rax, -64(%rbp)
    movl -48(%rbp), %eax
    pushq %rax
    popq %rax
    movq %rax, -56(%rbp)
    movq $0, %rax
    pushq %rax
    popq %rax
L_if_end_109:
    movl -56(%rbp), %eax
    pushq %rax
    movabsq $0x1, %rax
    pushq %rax
    popq %rcx
    popq %rax
    addq %rcx, %rax
    movl %eax, %eax
    pushq %rax
    popq %rax
    movq %rax, -56(%rbp)
    movq $0, %rax
    pushq %rax
    popq %rax
    jmp L_loop_top_106
L_loop_end_107:
    movl -64(%rbp), %eax
    pushq %rax
    movabsq $0x1, %rax
    pushq %rax
    popq %rcx
    popq %rax
    cmpq %rcx, %rax
    sete %al
    movzbq %al, %rax
    pushq %rax
    popq %rax
    testq %rax, %rax
    jz L_if_end_111
    leaq L_SEMA_LOCAL_BINDER(%rip), %rax
    pushq %rax
    movl -32(%rbp), %eax
    pushq %rax
    popq %rcx
    popq %rax
    movl (%rax,%rcx,4), %eax
    pushq %rax
    popq %rax
    movq %rbp, %rsp
    popq %rbp
    retq
    movq $0, %rax
    pushq %rax
    popq %rax
L_if_end_111:
    movq $0, %rax
    pushq %rax
    popq %rax
L_if_end_105:
    movq $0, %rax
    pushq %rax
    popq %rax
    jmp L_loop_top_102
L_loop_end_103:
    movabsq $0x0, %rax
    pushq %rax
    popq %rax
    movq %rbp, %rsp
    popq %rbp
    retq
    movq $0, %rax
    pushq %rax
    movq $0, %rax
    movq %rbp, %rsp
    popq %rbp
    retq
    .seh_endproc
    .section .iii.ring3,"n"
    .asciz "s_local_mark"
    .text
    .seh_proc L_s_local_mark
L_s_local_mark:
    pushq %rbp
    .seh_pushreg %rbp
    movq %rsp, %rbp
    .seh_setframe %rbp, 0
    subq $1024, %rsp
    .seh_stackalloc 1024
    .seh_endprologue
    movl L_SEMA_LOCAL_COUNT(%rip), %eax
    pushq %rax
    popq %rax
    movq %rbp, %rsp
    popq %rbp
    retq
    movq $0, %rax
    pushq %rax
    movq $0, %rax
    movq %rbp, %rsp
    popq %rbp
    retq
    .seh_endproc
    .section .iii.ring3,"n"
    .asciz "s_local_truncate"
    .text
    .seh_proc L_s_local_truncate
L_s_local_truncate:
    pushq %rbp
    .seh_pushreg %rbp
    movq %rsp, %rbp
    .seh_setframe %rbp, 0
    subq $1024, %rsp
    .seh_stackalloc 1024
    .seh_endprologue
    movq %rcx, -8(%rbp)
    movl -8(%rbp), %eax
    pushq %rax
    popq %rax
    movl %eax, L_SEMA_LOCAL_COUNT(%rip)
    movabsq $0x0, %rax
    pushq %rax
    popq %rax
    movq %rbp, %rsp
    popq %rbp
    retq
    movq $0, %rax
    pushq %rax
    movq $0, %rax
    movq %rbp, %rsp
    popq %rbp
    retq
    .seh_endproc
    .section .iii.ring3,"n"
    .asciz "s_node_line"
    .text
    .seh_proc L_s_node_line
L_s_node_line:
    pushq %rbp
    .seh_pushreg %rbp
    movq %rsp, %rbp
    .seh_setframe %rbp, 0
    subq $1024, %rsp
    .seh_stackalloc 1024
    .seh_endprologue
    movq %rcx, -8(%rbp)
    movl -8(%rbp), %eax
    pushq %rax
    movq L_SEMA_AST(%rip), %rax
    pushq %rax
    popq %rcx
    popq %rdx
    subq $32, %rsp
    callq iii_ast_pos_line
    addq $32, %rsp
    movl %eax, %eax
    pushq %rax
    popq %rax
    movq %rbp, %rsp
    popq %rbp
    retq
    movq $0, %rax
    pushq %rax
    movq $0, %rax
    movq %rbp, %rsp
    popq %rbp
    retq
    .seh_endproc
    .section .iii.ring3,"n"
    .asciz "s_node_col"
    .text
    .seh_proc L_s_node_col
L_s_node_col:
    pushq %rbp
    .seh_pushreg %rbp
    movq %rsp, %rbp
    .seh_setframe %rbp, 0
    subq $1024, %rsp
    .seh_stackalloc 1024
    .seh_endprologue
    movq %rcx, -8(%rbp)
    movl -8(%rbp), %eax
    pushq %rax
    movq L_SEMA_AST(%rip), %rax
    pushq %rax
    popq %rcx
    popq %rdx
    subq $32, %rsp
    callq iii_ast_pos_col
    addq $32, %rsp
    movl %eax, %eax
    pushq %rax
    popq %rax
    movq %rbp, %rsp
    popq %rbp
    retq
    movq $0, %rax
    pushq %rax
    movq $0, %rax
    movq %rbp, %rsp
    popq %rbp
    retq
    .seh_endproc
    .section .iii.ring3,"n"
    .asciz "s_error_name_addr"
    .text
    .seh_proc L_s_error_name_addr
L_s_error_name_addr:
    pushq %rbp
    .seh_pushreg %rbp
    movq %rsp, %rbp
    .seh_setframe %rbp, 0
    subq $1024, %rsp
    .seh_stackalloc 1024
    .seh_endprologue
    movq %rcx, -8(%rbp)
    movabsq $0xe, %rax
    pushq %rax
    popq %rax
    movq %rax, -16(%rbp)
    movslq -8(%rbp), %rax
    pushq %rax
    movabsq $0x0, %rax
    pushq %rax
    popq %rcx
    popq %rax
    cmpq %rcx, %rax
    sete %al
    movzbq %al, %rax
    pushq %rax
    popq %rax
    testq %rax, %rax
    jz L_if_end_113
    movabsq $0x0, %rax
    pushq %rax
    popq %rax
    movq %rax, -16(%rbp)
    movq $0, %rax
    pushq %rax
    popq %rax
L_if_end_113:
    movslq -8(%rbp), %rax
    pushq %rax
    movslq L_SEMA_E_DECL_DUP(%rip), %rax
    pushq %rax
    popq %rcx
    popq %rax
    cmpq %rcx, %rax
    sete %al
    movzbq %al, %rax
    pushq %rax
    popq %rax
    testq %rax, %rax
    jz L_if_end_115
    movabsq $0x1, %rax
    pushq %rax
    popq %rax
    movq %rax, -16(%rbp)
    movq $0, %rax
    pushq %rax
    popq %rax
L_if_end_115:
    movslq -8(%rbp), %rax
    pushq %rax
    movslq L_SEMA_E_IDENT_UNRESOLVED(%rip), %rax
    pushq %rax
    popq %rcx
    popq %rax
    cmpq %rcx, %rax
    sete %al
    movzbq %al, %rax
    pushq %rax
    popq %rax
    testq %rax, %rax
    jz L_if_end_117
    movabsq $0x2, %rax
    pushq %rax
    popq %rax
    movq %rax, -16(%rbp)
    movq $0, %rax
    pushq %rax
    popq %rax
L_if_end_117:
    movslq -8(%rbp), %rax
    pushq %rax
    movslq L_SEMA_E_HEXAD_MISSING(%rip), %rax
    pushq %rax
    popq %rcx
    popq %rax
    cmpq %rcx, %rax
    sete %al
    movzbq %al, %rax
    pushq %rax
    popq %rax
    testq %rax, %rax
    jz L_if_end_119
    movabsq $0x3, %rax
    pushq %rax
    popq %rax
    movq %rax, -16(%rbp)
    movq $0, %rax
    pushq %rax
    popq %rax
L_if_end_119:
    movslq -8(%rbp), %rax
    pushq %rax
    movslq L_SEMA_E_HEXAD_UNREP(%rip), %rax
    pushq %rax
    popq %rcx
    popq %rax
    cmpq %rcx, %rax
    sete %al
    movzbq %al, %rax
    pushq %rax
    popq %rax
    testq %rax, %rax
    jz L_if_end_121
    movabsq $0x4, %rax
    pushq %rax
    popq %rax
    movq %rax, -16(%rbp)
    movq $0, %rax
    pushq %rax
    popq %rax
L_if_end_121:
    movslq -8(%rbp), %rax
    pushq %rax
    movslq L_SEMA_E_RING_MALFORMED(%rip), %rax
    pushq %rax
    popq %rcx
    popq %rax
    cmpq %rcx, %rax
    sete %al
    movzbq %al, %rax
    pushq %rax
    popq %rax
    testq %rax, %rax
    jz L_if_end_123
    movabsq $0x5, %rax
    pushq %rax
    popq %rax
    movq %rax, -16(%rbp)
    movq $0, %rax
    pushq %rax
    popq %rax
L_if_end_123:
    movslq -8(%rbp), %rax
    pushq %rax
    movslq L_SEMA_E_RING_MISSING(%rip), %rax
    pushq %rax
    popq %rcx
    popq %rax
    cmpq %rcx, %rax
    sete %al
    movzbq %al, %rax
    pushq %rax
    popq %rax
    testq %rax, %rax
    jz L_if_end_125
    movabsq $0x6, %rax
    pushq %rax
    popq %rax
    movq %rax, -16(%rbp)
    movq $0, %rax
    pushq %rax
    popq %rax
L_if_end_125:
    movslq -8(%rbp), %rax
    pushq %rax
    movslq L_SEMA_E_IRPD_RAW(%rip), %rax
    pushq %rax
    popq %rcx
    popq %rax
    cmpq %rcx, %rax
    sete %al
    movzbq %al, %rax
    pushq %rax
    popq %rax
    testq %rax, %rax
    jz L_if_end_127
    movabsq $0x7, %rax
    pushq %rax
    popq %rax
    movq %rax, -16(%rbp)
    movq $0, %rax
    pushq %rax
    popq %rax
L_if_end_127:
    movslq -8(%rbp), %rax
    pushq %rax
    movslq L_SEMA_E_METAL_RING(%rip), %rax
    pushq %rax
    popq %rcx
    popq %rax
    cmpq %rcx, %rax
    sete %al
    movzbq %al, %rax
    pushq %rax
    popq %rax
    testq %rax, %rax
    jz L_if_end_129
    movabsq $0x8, %rax
    pushq %rax
    popq %rax
    movq %rax, -16(%rbp)
    movq $0, %rax
    pushq %rax
    popq %rax
L_if_end_129:
    movslq -8(%rbp), %rax
    pushq %rax
    movslq L_SEMA_E_EXTERN_ABI(%rip), %rax
    pushq %rax
    popq %rcx
    popq %rax
    cmpq %rcx, %rax
    sete %al
    movzbq %al, %rax
    pushq %rax
    popq %rax
    testq %rax, %rax
    jz L_if_end_131
    movabsq $0x9, %rax
    pushq %rax
    popq %rax
    movq %rax, -16(%rbp)
    movq $0, %rax
    pushq %rax
    popq %rax
L_if_end_131:
    movslq -8(%rbp), %rax
    pushq %rax
    movslq L_SEMA_E_SEAL_COLLISION(%rip), %rax
    pushq %rax
    popq %rcx
    popq %rax
    cmpq %rcx, %rax
    sete %al
    movzbq %al, %rax
    pushq %rax
    popq %rax
    testq %rax, %rax
    jz L_if_end_133
    movabsq $0xa, %rax
    pushq %rax
    popq %rax
    movq %rax, -16(%rbp)
    movq $0, %rax
    pushq %rax
    popq %rax
L_if_end_133:
    movslq -8(%rbp), %rax
    pushq %rax
    movslq L_SEMA_E_ERROR_NODE(%rip), %rax
    pushq %rax
    popq %rcx
    popq %rax
    cmpq %rcx, %rax
    sete %al
    movzbq %al, %rax
    pushq %rax
    popq %rax
    testq %rax, %rax
    jz L_if_end_135
    movabsq $0xb, %rax
    pushq %rax
    popq %rax
    movq %rax, -16(%rbp)
    movq $0, %rax
    pushq %rax
    popq %rax
L_if_end_135:
    movslq -8(%rbp), %rax
    pushq %rax
    movslq L_SEMA_E_PFS_BRICK(%rip), %rax
    pushq %rax
    popq %rcx
    popq %rax
    cmpq %rcx, %rax
    sete %al
    movzbq %al, %rax
    pushq %rax
    popq %rax
    testq %rax, %rax
    jz L_if_end_137
    movabsq $0xc, %rax
    pushq %rax
    popq %rax
    movq %rax, -16(%rbp)
    movq $0, %rax
    pushq %rax
    popq %rax
L_if_end_137:
    movslq -8(%rbp), %rax
    pushq %rax
    movslq L_SEMA_E_OOM(%rip), %rax
    pushq %rax
    popq %rcx
    popq %rax
    cmpq %rcx, %rax
    sete %al
    movzbq %al, %rax
    pushq %rax
    popq %rax
    testq %rax, %rax
    jz L_if_end_139
    movabsq $0xd, %rax
    pushq %rax
    popq %rax
    movq %rax, -16(%rbp)
    movq $0, %rax
    pushq %rax
    popq %rax
L_if_end_139:
    leaq L_SEMA_ENAME_BUF(%rip), %rax
    pushq %rax
    popq %rax
    pushq %rax
    leaq L_SEMA_ENAME_OFF(%rip), %rax
    pushq %rax
    movl -16(%rbp), %eax
    pushq %rax
    popq %rcx
    popq %rax
    movl (%rax,%rcx,4), %eax
    pushq %rax
    popq %rax
    pushq %rax
    popq %rcx
    popq %rax
    addq %rcx, %rax
    pushq %rax
    popq %rax
    movq %rbp, %rsp
    popq %rbp
    retq
    movq $0, %rax
    pushq %rax
    movq $0, %rax
    movq %rbp, %rsp
    popq %rbp
    retq
    .seh_endproc
    .section .iii.ring3,"n"
    .asciz "s_emit_error"
    .text
    .seh_proc L_s_emit_error
L_s_emit_error:
    pushq %rbp
    .seh_pushreg %rbp
    movq %rsp, %rbp
    .seh_setframe %rbp, 0
    subq $1024, %rsp
    .seh_stackalloc 1024
    .seh_endprologue
    movq %rcx, -8(%rbp)
    movq %rdx, -16(%rbp)
    movq %r8, -24(%rbp)
    movl L_SEMA_ERR_COUNT(%rip), %eax
    pushq %rax
    movl L_SEMA_ERR_CAP(%rip), %eax
    pushq %rax
    popq %rcx
    popq %rax
    cmpq %rcx, %rax
    setae %al
    movzbq %al, %rax
    pushq %rax
    popq %rax
    testq %rax, %rax
    jz L_if_end_141
    movabsq $0x0, %rax
    pushq %rax
    popq %rax
    movq %rbp, %rsp
    popq %rbp
    retq
    movq $0, %rax
    pushq %rax
    popq %rax
L_if_end_141:
    movl L_SEMA_ERR_COUNT(%rip), %eax
    pushq %rax
    popq %rax
    movq %rax, -32(%rbp)
    leaq L_SEMA_ERR_CODE(%rip), %rax
    pushq %rax
    movl -32(%rbp), %eax
    pushq %rax
    movslq -8(%rbp), %rax
    pushq %rax
    popq %rdx
    popq %rcx
    popq %rax
    movl %edx, (%rax,%rcx,4)
    leaq L_SEMA_ERR_LINE(%rip), %rax
    pushq %rax
    movl -32(%rbp), %eax
    pushq %rax
    movl -16(%rbp), %eax
    pushq %rax
    popq %rcx
    subq $32, %rsp
    callq L_s_node_line
    addq $32, %rsp
    movl %eax, %eax
    pushq %rax
    popq %rdx
    popq %rcx
    popq %rax
    movl %edx, (%rax,%rcx,4)
    leaq L_SEMA_ERR_COL(%rip), %rax
    pushq %rax
    movl -32(%rbp), %eax
    pushq %rax
    movl -16(%rbp), %eax
    pushq %rax
    popq %rcx
    subq $32, %rsp
    callq L_s_node_col
    addq $32, %rsp
    movl %eax, %eax
    pushq %rax
    popq %rdx
    popq %rcx
    popq %rax
    movl %edx, (%rax,%rcx,4)
    leaq L_SEMA_ERR_HEXAD(%rip), %rax
    pushq %rax
    movl -32(%rbp), %eax
    pushq %rax
    movl -24(%rbp), %eax
    pushq %rax
    movabsq $0xffff, %rax
    pushq %rax
    popq %rcx
    popq %rax
    andq %rcx, %rax
    pushq %rax
    popq %rdx
    popq %rcx
    popq %rax
    movl %edx, (%rax,%rcx,4)
    leaq L_SEMA_ERR_NODE(%rip), %rax
    pushq %rax
    movl -32(%rbp), %eax
    pushq %rax
    movl -16(%rbp), %eax
    pushq %rax
    popq %rdx
    popq %rcx
    popq %rax
    movl %edx, (%rax,%rcx,4)
    leaq L_SEMA_ERR_MSG_PTR(%rip), %rax
    pushq %rax
    movl -32(%rbp), %eax
    pushq %rax
    movabsq $0x0, %rax
    pushq %rax
    popq %rdx
    popq %rcx
    popq %rax
    movq %rdx, (%rax,%rcx,8)
    movl -32(%rbp), %eax
    pushq %rax
    movabsq $0x1, %rax
    pushq %rax
    popq %rcx
    popq %rax
    addq %rcx, %rax
    movl %eax, %eax
    pushq %rax
    popq %rax
    movl %eax, L_SEMA_ERR_COUNT(%rip)
    movabsq $0x0, %rax
    pushq %rax
    popq %rax
    movq %rbp, %rsp
    popq %rbp
    retq
    movq $0, %rax
    pushq %rax
    movq $0, %rax
    movq %rbp, %rsp
    popq %rbp
    retq
    .seh_endproc
    .section .iii.ring3,"n"
    .asciz "s_irpd_step"
    .text
    .seh_proc L_s_irpd_step
L_s_irpd_step:
    pushq %rbp
    .seh_pushreg %rbp
    movq %rsp, %rbp
    .seh_setframe %rbp, 0
    subq $1024, %rsp
    .seh_stackalloc 1024
    .seh_endprologue
    movq %rcx, -8(%rbp)
    movq %rdx, -16(%rbp)
    movl -16(%rbp), %eax
    pushq %rax
    movabsq $0x0, %rax
    pushq %rax
    popq %rcx
    popq %rax
    cmpq %rcx, %rax
    sete %al
    movzbq %al, %rax
    pushq %rax
    popq %rax
    testq %rax, %rax
    jz L_if_end_143
    movl -8(%rbp), %eax
    pushq %rax
    popq %rax
    movq %rbp, %rsp
    popq %rbp
    retq
    movq $0, %rax
    pushq %rax
    popq %rax
L_if_end_143:
    movl -16(%rbp), %eax
    pushq %rax
    leaq L_SEMA_IRPD_BUF(%rip), %rax
    pushq %rax
    popq %rax
    pushq %rax
    movl -8(%rbp), %eax
    pushq %rax
    popq %rax
    pushq %rax
    popq %rcx
    popq %rax
    addq %rcx, %rax
    pushq %rax
    popq %rcx
    popq %rdx
    subq $32, %rsp
    callq L_s_store_u8
    addq $32, %rsp
    movl %eax, %eax
    pushq %rax
    popq %rax
    movl -8(%rbp), %eax
    pushq %rax
    movabsq $0x1, %rax
    pushq %rax
    popq %rcx
    popq %rax
    addq %rcx, %rax
    movl %eax, %eax
    pushq %rax
    popq %rax
    movq %rbp, %rsp
    popq %rbp
    retq
    movq $0, %rax
    pushq %rax
    movq $0, %rax
    movq %rbp, %rsp
    popq %rbp
    retq
    .seh_endproc
    .section .iii.ring3,"n"
    .asciz "s_irpd_write"
    .text
    .seh_proc L_s_irpd_write
L_s_irpd_write:
    pushq %rbp
    .seh_pushreg %rbp
    movq %rsp, %rbp
    .seh_setframe %rbp, 0
    subq $1024, %rsp
    .seh_stackalloc 1024
    .seh_endprologue
    movq %rcx, -8(%rbp)
    movq %rdx, -16(%rbp)
    movq %r8, -24(%rbp)
    movq %r9, -32(%rbp)
    movq 48(%rbp), %rax
    movq %rax, -40(%rbp)
    movq 56(%rbp), %rax
    movq %rax, -48(%rbp)
    movq 64(%rbp), %rax
    movq %rax, -56(%rbp)
    movq 72(%rbp), %rax
    movq %rax, -64(%rbp)
    movq 80(%rbp), %rax
    movq %rax, -72(%rbp)
    movq 88(%rbp), %rax
    movq %rax, -80(%rbp)
    movq 96(%rbp), %rax
    movq %rax, -88(%rbp)
    movq 104(%rbp), %rax
    movq %rax, -96(%rbp)
    movq 112(%rbp), %rax
    movq %rax, -104(%rbp)
    movq 120(%rbp), %rax
    movq %rax, -112(%rbp)
    movq 128(%rbp), %rax
    movq %rax, -120(%rbp)
    movq 136(%rbp), %rax
    movq %rax, -128(%rbp)
    movq 144(%rbp), %rax
    movq %rax, -136(%rbp)
    movl -8(%rbp), %eax
    pushq %rax
    popq %rax
    shlq $4, %rax
    movl %eax, %eax
    pushq %rax
    popq %rax
    movq %rax, -144(%rbp)
    movl -144(%rbp), %eax
    pushq %rax
    popq %rax
    movq %rax, -152(%rbp)
    leaq L_SEMA_IRPD_OFF(%rip), %rax
    pushq %rax
    movl -8(%rbp), %eax
    pushq %rax
    movl -144(%rbp), %eax
    pushq %rax
    popq %rdx
    popq %rcx
    popq %rax
    movl %edx, (%rax,%rcx,4)
    movl -16(%rbp), %eax
    pushq %rax
    movl -152(%rbp), %eax
    pushq %rax
    popq %rcx
    popq %rdx
    subq $32, %rsp
    callq L_s_irpd_step
    addq $32, %rsp
    movl %eax, %eax
    pushq %rax
    popq %rax
    movq %rax, -152(%rbp)
    movl -24(%rbp), %eax
    pushq %rax
    movl -152(%rbp), %eax
    pushq %rax
    popq %rcx
    popq %rdx
    subq $32, %rsp
    callq L_s_irpd_step
    addq $32, %rsp
    movl %eax, %eax
    pushq %rax
    popq %rax
    movq %rax, -152(%rbp)
    movl -32(%rbp), %eax
    pushq %rax
    movl -152(%rbp), %eax
    pushq %rax
    popq %rcx
    popq %rdx
    subq $32, %rsp
    callq L_s_irpd_step
    addq $32, %rsp
    movl %eax, %eax
    pushq %rax
    popq %rax
    movq %rax, -152(%rbp)
    movl -40(%rbp), %eax
    pushq %rax
    movl -152(%rbp), %eax
    pushq %rax
    popq %rcx
    popq %rdx
    subq $32, %rsp
    callq L_s_irpd_step
    addq $32, %rsp
    movl %eax, %eax
    pushq %rax
    popq %rax
    movq %rax, -152(%rbp)
    movl -48(%rbp), %eax
    pushq %rax
    movl -152(%rbp), %eax
    pushq %rax
    popq %rcx
    popq %rdx
    subq $32, %rsp
    callq L_s_irpd_step
    addq $32, %rsp
    movl %eax, %eax
    pushq %rax
    popq %rax
    movq %rax, -152(%rbp)
    movl -56(%rbp), %eax
    pushq %rax
    movl -152(%rbp), %eax
    pushq %rax
    popq %rcx
    popq %rdx
    subq $32, %rsp
    callq L_s_irpd_step
    addq $32, %rsp
    movl %eax, %eax
    pushq %rax
    popq %rax
    movq %rax, -152(%rbp)
    movl -64(%rbp), %eax
    pushq %rax
    movl -152(%rbp), %eax
    pushq %rax
    popq %rcx
    popq %rdx
    subq $32, %rsp
    callq L_s_irpd_step
    addq $32, %rsp
    movl %eax, %eax
    pushq %rax
    popq %rax
    movq %rax, -152(%rbp)
    movl -72(%rbp), %eax
    pushq %rax
    movl -152(%rbp), %eax
    pushq %rax
    popq %rcx
    popq %rdx
    subq $32, %rsp
    callq L_s_irpd_step
    addq $32, %rsp
    movl %eax, %eax
    pushq %rax
    popq %rax
    movq %rax, -152(%rbp)
    movl -80(%rbp), %eax
    pushq %rax
    movl -152(%rbp), %eax
    pushq %rax
    popq %rcx
    popq %rdx
    subq $32, %rsp
    callq L_s_irpd_step
    addq $32, %rsp
    movl %eax, %eax
    pushq %rax
    popq %rax
    movq %rax, -152(%rbp)
    movl -88(%rbp), %eax
    pushq %rax
    movl -152(%rbp), %eax
    pushq %rax
    popq %rcx
    popq %rdx
    subq $32, %rsp
    callq L_s_irpd_step
    addq $32, %rsp
    movl %eax, %eax
    pushq %rax
    popq %rax
    movq %rax, -152(%rbp)
    movl -96(%rbp), %eax
    pushq %rax
    movl -152(%rbp), %eax
    pushq %rax
    popq %rcx
    popq %rdx
    subq $32, %rsp
    callq L_s_irpd_step
    addq $32, %rsp
    movl %eax, %eax
    pushq %rax
    popq %rax
    movq %rax, -152(%rbp)
    movl -104(%rbp), %eax
    pushq %rax
    movl -152(%rbp), %eax
    pushq %rax
    popq %rcx
    popq %rdx
    subq $32, %rsp
    callq L_s_irpd_step
    addq $32, %rsp
    movl %eax, %eax
    pushq %rax
    popq %rax
    movq %rax, -152(%rbp)
    movl -112(%rbp), %eax
    pushq %rax
    movl -152(%rbp), %eax
    pushq %rax
    popq %rcx
    popq %rdx
    subq $32, %rsp
    callq L_s_irpd_step
    addq $32, %rsp
    movl %eax, %eax
    pushq %rax
    popq %rax
    movq %rax, -152(%rbp)
    movl -120(%rbp), %eax
    pushq %rax
    movl -152(%rbp), %eax
    pushq %rax
    popq %rcx
    popq %rdx
    subq $32, %rsp
    callq L_s_irpd_step
    addq $32, %rsp
    movl %eax, %eax
    pushq %rax
    popq %rax
    movq %rax, -152(%rbp)
    movl -128(%rbp), %eax
    pushq %rax
    movl -152(%rbp), %eax
    pushq %rax
    popq %rcx
    popq %rdx
    subq $32, %rsp
    callq L_s_irpd_step
    addq $32, %rsp
    movl %eax, %eax
    pushq %rax
    popq %rax
    movq %rax, -152(%rbp)
    movl -136(%rbp), %eax
    pushq %rax
    movl -152(%rbp), %eax
    pushq %rax
    popq %rcx
    popq %rdx
    subq $32, %rsp
    callq L_s_irpd_step
    addq $32, %rsp
    movl %eax, %eax
    pushq %rax
    popq %rax
    movq %rax, -152(%rbp)
    leaq L_SEMA_IRPD_LEN(%rip), %rax
    pushq %rax
    movl -8(%rbp), %eax
    pushq %rax
    movl -152(%rbp), %eax
    pushq %rax
    movl -144(%rbp), %eax
    pushq %rax
    popq %rcx
    popq %rax
    subq %rcx, %rax
    movl %eax, %eax
    pushq %rax
    popq %rdx
    popq %rcx
    popq %rax
    movl %edx, (%rax,%rcx,4)
    movabsq $0x0, %rax
    pushq %rax
    popq %rax
    movq %rbp, %rsp
    popq %rbp
    retq
    movq $0, %rax
    pushq %rax
    movq $0, %rax
    movq %rbp, %rsp
    popq %rbp
    retq
    .seh_endproc
    .section .iii.ring3,"n"
    .asciz "s_pfs_step"
    .text
    .seh_proc L_s_pfs_step
L_s_pfs_step:
    pushq %rbp
    .seh_pushreg %rbp
    movq %rsp, %rbp
    .seh_setframe %rbp, 0
    subq $1024, %rsp
    .seh_stackalloc 1024
    .seh_endprologue
    movq %rcx, -8(%rbp)
    movq %rdx, -16(%rbp)
    movl -16(%rbp), %eax
    pushq %rax
    movabsq $0x0, %rax
    pushq %rax
    popq %rcx
    popq %rax
    cmpq %rcx, %rax
    sete %al
    movzbq %al, %rax
    pushq %rax
    popq %rax
    testq %rax, %rax
    jz L_if_end_145
    movl -8(%rbp), %eax
    pushq %rax
    popq %rax
    movq %rbp, %rsp
    popq %rbp
    retq
    movq $0, %rax
    pushq %rax
    popq %rax
L_if_end_145:
    movl -16(%rbp), %eax
    pushq %rax
    leaq L_SEMA_PFS_BUF(%rip), %rax
    pushq %rax
    popq %rax
    pushq %rax
    movl -8(%rbp), %eax
    pushq %rax
    popq %rax
    pushq %rax
    popq %rcx
    popq %rax
    addq %rcx, %rax
    pushq %rax
    popq %rcx
    popq %rdx
    subq $32, %rsp
    callq L_s_store_u8
    addq $32, %rsp
    movl %eax, %eax
    pushq %rax
    popq %rax
    movl -8(%rbp), %eax
    pushq %rax
    movabsq $0x1, %rax
    pushq %rax
    popq %rcx
    popq %rax
    addq %rcx, %rax
    movl %eax, %eax
    pushq %rax
    popq %rax
    movq %rbp, %rsp
    popq %rbp
    retq
    movq $0, %rax
    pushq %rax
    movq $0, %rax
    movq %rbp, %rsp
    popq %rbp
    retq
    .seh_endproc
    .section .iii.ring3,"n"
    .asciz "s_pfs_write"
    .text
    .seh_proc L_s_pfs_write
L_s_pfs_write:
    pushq %rbp
    .seh_pushreg %rbp
    movq %rsp, %rbp
    .seh_setframe %rbp, 0
    subq $1024, %rsp
    .seh_stackalloc 1024
    .seh_endprologue
    movq %rcx, -8(%rbp)
    movq %rdx, -16(%rbp)
    movq %r8, -24(%rbp)
    movq %r9, -32(%rbp)
    movq 48(%rbp), %rax
    movq %rax, -40(%rbp)
    movq 56(%rbp), %rax
    movq %rax, -48(%rbp)
    movq 64(%rbp), %rax
    movq %rax, -56(%rbp)
    movq 72(%rbp), %rax
    movq %rax, -64(%rbp)
    movq 80(%rbp), %rax
    movq %rax, -72(%rbp)
    movq 88(%rbp), %rax
    movq %rax, -80(%rbp)
    movq 96(%rbp), %rax
    movq %rax, -88(%rbp)
    movq 104(%rbp), %rax
    movq %rax, -96(%rbp)
    movq 112(%rbp), %rax
    movq %rax, -104(%rbp)
    movq 120(%rbp), %rax
    movq %rax, -112(%rbp)
    movq 128(%rbp), %rax
    movq %rax, -120(%rbp)
    movq 136(%rbp), %rax
    movq %rax, -128(%rbp)
    movq 144(%rbp), %rax
    movq %rax, -136(%rbp)
    movl -8(%rbp), %eax
    pushq %rax
    popq %rax
    shlq $4, %rax
    movl %eax, %eax
    pushq %rax
    popq %rax
    movq %rax, -144(%rbp)
    movl -144(%rbp), %eax
    pushq %rax
    popq %rax
    movq %rax, -152(%rbp)
    leaq L_SEMA_PFS_OFF(%rip), %rax
    pushq %rax
    movl -8(%rbp), %eax
    pushq %rax
    movl -144(%rbp), %eax
    pushq %rax
    popq %rdx
    popq %rcx
    popq %rax
    movl %edx, (%rax,%rcx,4)
    movl -16(%rbp), %eax
    pushq %rax
    movl -152(%rbp), %eax
    pushq %rax
    popq %rcx
    popq %rdx
    subq $32, %rsp
    callq L_s_pfs_step
    addq $32, %rsp
    movl %eax, %eax
    pushq %rax
    popq %rax
    movq %rax, -152(%rbp)
    movl -24(%rbp), %eax
    pushq %rax
    movl -152(%rbp), %eax
    pushq %rax
    popq %rcx
    popq %rdx
    subq $32, %rsp
    callq L_s_pfs_step
    addq $32, %rsp
    movl %eax, %eax
    pushq %rax
    popq %rax
    movq %rax, -152(%rbp)
    movl -32(%rbp), %eax
    pushq %rax
    movl -152(%rbp), %eax
    pushq %rax
    popq %rcx
    popq %rdx
    subq $32, %rsp
    callq L_s_pfs_step
    addq $32, %rsp
    movl %eax, %eax
    pushq %rax
    popq %rax
    movq %rax, -152(%rbp)
    movl -40(%rbp), %eax
    pushq %rax
    movl -152(%rbp), %eax
    pushq %rax
    popq %rcx
    popq %rdx
    subq $32, %rsp
    callq L_s_pfs_step
    addq $32, %rsp
    movl %eax, %eax
    pushq %rax
    popq %rax
    movq %rax, -152(%rbp)
    movl -48(%rbp), %eax
    pushq %rax
    movl -152(%rbp), %eax
    pushq %rax
    popq %rcx
    popq %rdx
    subq $32, %rsp
    callq L_s_pfs_step
    addq $32, %rsp
    movl %eax, %eax
    pushq %rax
    popq %rax
    movq %rax, -152(%rbp)
    movl -56(%rbp), %eax
    pushq %rax
    movl -152(%rbp), %eax
    pushq %rax
    popq %rcx
    popq %rdx
    subq $32, %rsp
    callq L_s_pfs_step
    addq $32, %rsp
    movl %eax, %eax
    pushq %rax
    popq %rax
    movq %rax, -152(%rbp)
    movl -64(%rbp), %eax
    pushq %rax
    movl -152(%rbp), %eax
    pushq %rax
    popq %rcx
    popq %rdx
    subq $32, %rsp
    callq L_s_pfs_step
    addq $32, %rsp
    movl %eax, %eax
    pushq %rax
    popq %rax
    movq %rax, -152(%rbp)
    movl -72(%rbp), %eax
    pushq %rax
    movl -152(%rbp), %eax
    pushq %rax
    popq %rcx
    popq %rdx
    subq $32, %rsp
    callq L_s_pfs_step
    addq $32, %rsp
    movl %eax, %eax
    pushq %rax
    popq %rax
    movq %rax, -152(%rbp)
    movl -80(%rbp), %eax
    pushq %rax
    movl -152(%rbp), %eax
    pushq %rax
    popq %rcx
    popq %rdx
    subq $32, %rsp
    callq L_s_pfs_step
    addq $32, %rsp
    movl %eax, %eax
    pushq %rax
    popq %rax
    movq %rax, -152(%rbp)
    movl -88(%rbp), %eax
    pushq %rax
    movl -152(%rbp), %eax
    pushq %rax
    popq %rcx
    popq %rdx
    subq $32, %rsp
    callq L_s_pfs_step
    addq $32, %rsp
    movl %eax, %eax
    pushq %rax
    popq %rax
    movq %rax, -152(%rbp)
    movl -96(%rbp), %eax
    pushq %rax
    movl -152(%rbp), %eax
    pushq %rax
    popq %rcx
    popq %rdx
    subq $32, %rsp
    callq L_s_pfs_step
    addq $32, %rsp
    movl %eax, %eax
    pushq %rax
    popq %rax
    movq %rax, -152(%rbp)
    movl -104(%rbp), %eax
    pushq %rax
    movl -152(%rbp), %eax
    pushq %rax
    popq %rcx
    popq %rdx
    subq $32, %rsp
    callq L_s_pfs_step
    addq $32, %rsp
    movl %eax, %eax
    pushq %rax
    popq %rax
    movq %rax, -152(%rbp)
    movl -112(%rbp), %eax
    pushq %rax
    movl -152(%rbp), %eax
    pushq %rax
    popq %rcx
    popq %rdx
    subq $32, %rsp
    callq L_s_pfs_step
    addq $32, %rsp
    movl %eax, %eax
    pushq %rax
    popq %rax
    movq %rax, -152(%rbp)
    movl -120(%rbp), %eax
    pushq %rax
    movl -152(%rbp), %eax
    pushq %rax
    popq %rcx
    popq %rdx
    subq $32, %rsp
    callq L_s_pfs_step
    addq $32, %rsp
    movl %eax, %eax
    pushq %rax
    popq %rax
    movq %rax, -152(%rbp)
    movl -128(%rbp), %eax
    pushq %rax
    movl -152(%rbp), %eax
    pushq %rax
    popq %rcx
    popq %rdx
    subq $32, %rsp
    callq L_s_pfs_step
    addq $32, %rsp
    movl %eax, %eax
    pushq %rax
    popq %rax
    movq %rax, -152(%rbp)
    movl -136(%rbp), %eax
    pushq %rax
    movl -152(%rbp), %eax
    pushq %rax
    popq %rcx
    popq %rdx
    subq $32, %rsp
    callq L_s_pfs_step
    addq $32, %rsp
    movl %eax, %eax
    pushq %rax
    popq %rax
    movq %rax, -152(%rbp)
    leaq L_SEMA_PFS_LEN(%rip), %rax
    pushq %rax
    movl -8(%rbp), %eax
    pushq %rax
    movl -152(%rbp), %eax
    pushq %rax
    movl -144(%rbp), %eax
    pushq %rax
    popq %rcx
    popq %rax
    subq %rcx, %rax
    movl %eax, %eax
    pushq %rax
    popq %rdx
    popq %rcx
    popq %rax
    movl %edx, (%rax,%rcx,4)
    movabsq $0x0, %rax
    pushq %rax
    popq %rax
    movq %rbp, %rsp
    popq %rbp
    retq
    movq $0, %rax
    pushq %rax
    movq $0, %rax
    movq %rbp, %rsp
    popq %rbp
    retq
    .seh_endproc
    .section .iii.ring3,"n"
    .asciz "s_rawop_step"
    .text
    .seh_proc L_s_rawop_step
L_s_rawop_step:
    pushq %rbp
    .seh_pushreg %rbp
    movq %rsp, %rbp
    .seh_setframe %rbp, 0
    subq $1024, %rsp
    .seh_stackalloc 1024
    .seh_endprologue
    movq %rcx, -8(%rbp)
    movq %rdx, -16(%rbp)
    movl -16(%rbp), %eax
    pushq %rax
    movabsq $0x0, %rax
    pushq %rax
    popq %rcx
    popq %rax
    cmpq %rcx, %rax
    sete %al
    movzbq %al, %rax
    pushq %rax
    popq %rax
    testq %rax, %rax
    jz L_if_end_147
    movl -8(%rbp), %eax
    pushq %rax
    popq %rax
    movq %rbp, %rsp
    popq %rbp
    retq
    movq $0, %rax
    pushq %rax
    popq %rax
L_if_end_147:
    movl -16(%rbp), %eax
    pushq %rax
    leaq L_SEMA_RAWOP_BUF(%rip), %rax
    pushq %rax
    popq %rax
    pushq %rax
    movl -8(%rbp), %eax
    pushq %rax
    popq %rax
    pushq %rax
    popq %rcx
    popq %rax
    addq %rcx, %rax
    pushq %rax
    popq %rcx
    popq %rdx
    subq $32, %rsp
    callq L_s_store_u8
    addq $32, %rsp
    movl %eax, %eax
    pushq %rax
    popq %rax
    movl -8(%rbp), %eax
    pushq %rax
    movabsq $0x1, %rax
    pushq %rax
    popq %rcx
    popq %rax
    addq %rcx, %rax
    movl %eax, %eax
    pushq %rax
    popq %rax
    movq %rbp, %rsp
    popq %rbp
    retq
    movq $0, %rax
    pushq %rax
    movq $0, %rax
    movq %rbp, %rsp
    popq %rbp
    retq
    .seh_endproc
    .section .iii.ring3,"n"
    .asciz "s_rawop_write"
    .text
    .seh_proc L_s_rawop_write
L_s_rawop_write:
    pushq %rbp
    .seh_pushreg %rbp
    movq %rsp, %rbp
    .seh_setframe %rbp, 0
    subq $1024, %rsp
    .seh_stackalloc 1024
    .seh_endprologue
    movq %rcx, -8(%rbp)
    movq %rdx, -16(%rbp)
    movq %r8, -24(%rbp)
    movq %r9, -32(%rbp)
    movq 48(%rbp), %rax
    movq %rax, -40(%rbp)
    movq 56(%rbp), %rax
    movq %rax, -48(%rbp)
    movq 64(%rbp), %rax
    movq %rax, -56(%rbp)
    movq 72(%rbp), %rax
    movq %rax, -64(%rbp)
    movq 80(%rbp), %rax
    movq %rax, -72(%rbp)
    movq 88(%rbp), %rax
    movq %rax, -80(%rbp)
    movq 96(%rbp), %rax
    movq %rax, -88(%rbp)
    movq 104(%rbp), %rax
    movq %rax, -96(%rbp)
    movq 112(%rbp), %rax
    movq %rax, -104(%rbp)
    movq 120(%rbp), %rax
    movq %rax, -112(%rbp)
    movq 128(%rbp), %rax
    movq %rax, -120(%rbp)
    movq 136(%rbp), %rax
    movq %rax, -128(%rbp)
    movq 144(%rbp), %rax
    movq %rax, -136(%rbp)
    movl -8(%rbp), %eax
    pushq %rax
    popq %rax
    shlq $4, %rax
    movl %eax, %eax
    pushq %rax
    popq %rax
    movq %rax, -144(%rbp)
    movl -144(%rbp), %eax
    pushq %rax
    popq %rax
    movq %rax, -152(%rbp)
    leaq L_SEMA_RAWOP_OFF(%rip), %rax
    pushq %rax
    movl -8(%rbp), %eax
    pushq %rax
    movl -144(%rbp), %eax
    pushq %rax
    popq %rdx
    popq %rcx
    popq %rax
    movl %edx, (%rax,%rcx,4)
    movl -16(%rbp), %eax
    pushq %rax
    movl -152(%rbp), %eax
    pushq %rax
    popq %rcx
    popq %rdx
    subq $32, %rsp
    callq L_s_rawop_step
    addq $32, %rsp
    movl %eax, %eax
    pushq %rax
    popq %rax
    movq %rax, -152(%rbp)
    movl -24(%rbp), %eax
    pushq %rax
    movl -152(%rbp), %eax
    pushq %rax
    popq %rcx
    popq %rdx
    subq $32, %rsp
    callq L_s_rawop_step
    addq $32, %rsp
    movl %eax, %eax
    pushq %rax
    popq %rax
    movq %rax, -152(%rbp)
    movl -32(%rbp), %eax
    pushq %rax
    movl -152(%rbp), %eax
    pushq %rax
    popq %rcx
    popq %rdx
    subq $32, %rsp
    callq L_s_rawop_step
    addq $32, %rsp
    movl %eax, %eax
    pushq %rax
    popq %rax
    movq %rax, -152(%rbp)
    movl -40(%rbp), %eax
    pushq %rax
    movl -152(%rbp), %eax
    pushq %rax
    popq %rcx
    popq %rdx
    subq $32, %rsp
    callq L_s_rawop_step
    addq $32, %rsp
    movl %eax, %eax
    pushq %rax
    popq %rax
    movq %rax, -152(%rbp)
    movl -48(%rbp), %eax
    pushq %rax
    movl -152(%rbp), %eax
    pushq %rax
    popq %rcx
    popq %rdx
    subq $32, %rsp
    callq L_s_rawop_step
    addq $32, %rsp
    movl %eax, %eax
    pushq %rax
    popq %rax
    movq %rax, -152(%rbp)
    movl -56(%rbp), %eax
    pushq %rax
    movl -152(%rbp), %eax
    pushq %rax
    popq %rcx
    popq %rdx
    subq $32, %rsp
    callq L_s_rawop_step
    addq $32, %rsp
    movl %eax, %eax
    pushq %rax
    popq %rax
    movq %rax, -152(%rbp)
    movl -64(%rbp), %eax
    pushq %rax
    movl -152(%rbp), %eax
    pushq %rax
    popq %rcx
    popq %rdx
    subq $32, %rsp
    callq L_s_rawop_step
    addq $32, %rsp
    movl %eax, %eax
    pushq %rax
    popq %rax
    movq %rax, -152(%rbp)
    movl -72(%rbp), %eax
    pushq %rax
    movl -152(%rbp), %eax
    pushq %rax
    popq %rcx
    popq %rdx
    subq $32, %rsp
    callq L_s_rawop_step
    addq $32, %rsp
    movl %eax, %eax
    pushq %rax
    popq %rax
    movq %rax, -152(%rbp)
    movl -80(%rbp), %eax
    pushq %rax
    movl -152(%rbp), %eax
    pushq %rax
    popq %rcx
    popq %rdx
    subq $32, %rsp
    callq L_s_rawop_step
    addq $32, %rsp
    movl %eax, %eax
    pushq %rax
    popq %rax
    movq %rax, -152(%rbp)
    movl -88(%rbp), %eax
    pushq %rax
    movl -152(%rbp), %eax
    pushq %rax
    popq %rcx
    popq %rdx
    subq $32, %rsp
    callq L_s_rawop_step
    addq $32, %rsp
    movl %eax, %eax
    pushq %rax
    popq %rax
    movq %rax, -152(%rbp)
    movl -96(%rbp), %eax
    pushq %rax
    movl -152(%rbp), %eax
    pushq %rax
    popq %rcx
    popq %rdx
    subq $32, %rsp
    callq L_s_rawop_step
    addq $32, %rsp
    movl %eax, %eax
    pushq %rax
    popq %rax
    movq %rax, -152(%rbp)
    movl -104(%rbp), %eax
    pushq %rax
    movl -152(%rbp), %eax
    pushq %rax
    popq %rcx
    popq %rdx
    subq $32, %rsp
    callq L_s_rawop_step
    addq $32, %rsp
    movl %eax, %eax
    pushq %rax
    popq %rax
    movq %rax, -152(%rbp)
    movl -112(%rbp), %eax
    pushq %rax
    movl -152(%rbp), %eax
    pushq %rax
    popq %rcx
    popq %rdx
    subq $32, %rsp
    callq L_s_rawop_step
    addq $32, %rsp
    movl %eax, %eax
    pushq %rax
    popq %rax
    movq %rax, -152(%rbp)
    movl -120(%rbp), %eax
    pushq %rax
    movl -152(%rbp), %eax
    pushq %rax
    popq %rcx
    popq %rdx
    subq $32, %rsp
    callq L_s_rawop_step
    addq $32, %rsp
    movl %eax, %eax
    pushq %rax
    popq %rax
    movq %rax, -152(%rbp)
    movl -128(%rbp), %eax
    pushq %rax
    movl -152(%rbp), %eax
    pushq %rax
    popq %rcx
    popq %rdx
    subq $32, %rsp
    callq L_s_rawop_step
    addq $32, %rsp
    movl %eax, %eax
    pushq %rax
    popq %rax
    movq %rax, -152(%rbp)
    movl -136(%rbp), %eax
    pushq %rax
    movl -152(%rbp), %eax
    pushq %rax
    popq %rcx
    popq %rdx
    subq $32, %rsp
    callq L_s_rawop_step
    addq $32, %rsp
    movl %eax, %eax
    pushq %rax
    popq %rax
    movq %rax, -152(%rbp)
    leaq L_SEMA_RAWOP_LEN(%rip), %rax
    pushq %rax
    movl -8(%rbp), %eax
    pushq %rax
    movl -152(%rbp), %eax
    pushq %rax
    movl -144(%rbp), %eax
    pushq %rax
    popq %rcx
    popq %rax
    subq %rcx, %rax
    movl %eax, %eax
    pushq %rax
    popq %rdx
    popq %rcx
    popq %rax
    movl %edx, (%rax,%rcx,4)
    movabsq $0x0, %rax
    pushq %rax
    popq %rax
    movq %rbp, %rsp
    popq %rbp
    retq
    movq $0, %rax
    pushq %rax
    movq $0, %rax
    movq %rbp, %rsp
    popq %rbp
    retq
    .seh_endproc
    .section .iii.ring3,"n"
    .asciz "s_builtin_step"
    .text
    .seh_proc L_s_builtin_step
L_s_builtin_step:
    pushq %rbp
    .seh_pushreg %rbp
    movq %rsp, %rbp
    .seh_setframe %rbp, 0
    subq $1024, %rsp
    .seh_stackalloc 1024
    .seh_endprologue
    movq %rcx, -8(%rbp)
    movq %rdx, -16(%rbp)
    movl -16(%rbp), %eax
    pushq %rax
    movabsq $0x0, %rax
    pushq %rax
    popq %rcx
    popq %rax
    cmpq %rcx, %rax
    sete %al
    movzbq %al, %rax
    pushq %rax
    popq %rax
    testq %rax, %rax
    jz L_if_end_149
    movl -8(%rbp), %eax
    pushq %rax
    popq %rax
    movq %rbp, %rsp
    popq %rbp
    retq
    movq $0, %rax
    pushq %rax
    popq %rax
L_if_end_149:
    movl -16(%rbp), %eax
    pushq %rax
    leaq L_SEMA_BUILTIN_BUF(%rip), %rax
    pushq %rax
    popq %rax
    pushq %rax
    movl -8(%rbp), %eax
    pushq %rax
    popq %rax
    pushq %rax
    popq %rcx
    popq %rax
    addq %rcx, %rax
    pushq %rax
    popq %rcx
    popq %rdx
    subq $32, %rsp
    callq L_s_store_u8
    addq $32, %rsp
    movl %eax, %eax
    pushq %rax
    popq %rax
    movl -8(%rbp), %eax
    pushq %rax
    movabsq $0x1, %rax
    pushq %rax
    popq %rcx
    popq %rax
    addq %rcx, %rax
    movl %eax, %eax
    pushq %rax
    popq %rax
    movq %rbp, %rsp
    popq %rbp
    retq
    movq $0, %rax
    pushq %rax
    movq $0, %rax
    movq %rbp, %rsp
    popq %rbp
    retq
    .seh_endproc
    .section .iii.ring3,"n"
    .asciz "s_builtin_write"
    .text
    .seh_proc L_s_builtin_write
L_s_builtin_write:
    pushq %rbp
    .seh_pushreg %rbp
    movq %rsp, %rbp
    .seh_setframe %rbp, 0
    subq $1024, %rsp
    .seh_stackalloc 1024
    .seh_endprologue
    movq %rcx, -8(%rbp)
    movq %rdx, -16(%rbp)
    movq %r8, -24(%rbp)
    movq %r9, -32(%rbp)
    movq 48(%rbp), %rax
    movq %rax, -40(%rbp)
    movq 56(%rbp), %rax
    movq %rax, -48(%rbp)
    movq 64(%rbp), %rax
    movq %rax, -56(%rbp)
    movq 72(%rbp), %rax
    movq %rax, -64(%rbp)
    movq 80(%rbp), %rax
    movq %rax, -72(%rbp)
    movq 88(%rbp), %rax
    movq %rax, -80(%rbp)
    movq 96(%rbp), %rax
    movq %rax, -88(%rbp)
    movq 104(%rbp), %rax
    movq %rax, -96(%rbp)
    movq 112(%rbp), %rax
    movq %rax, -104(%rbp)
    movq 120(%rbp), %rax
    movq %rax, -112(%rbp)
    movq 128(%rbp), %rax
    movq %rax, -120(%rbp)
    movq 136(%rbp), %rax
    movq %rax, -128(%rbp)
    movq 144(%rbp), %rax
    movq %rax, -136(%rbp)
    movl -8(%rbp), %eax
    pushq %rax
    popq %rax
    shlq $4, %rax
    movl %eax, %eax
    pushq %rax
    popq %rax
    movq %rax, -144(%rbp)
    movl -144(%rbp), %eax
    pushq %rax
    popq %rax
    movq %rax, -152(%rbp)
    leaq L_SEMA_BUILTIN_OFF(%rip), %rax
    pushq %rax
    movl -8(%rbp), %eax
    pushq %rax
    movl -144(%rbp), %eax
    pushq %rax
    popq %rdx
    popq %rcx
    popq %rax
    movl %edx, (%rax,%rcx,4)
    movl -16(%rbp), %eax
    pushq %rax
    movl -152(%rbp), %eax
    pushq %rax
    popq %rcx
    popq %rdx
    subq $32, %rsp
    callq L_s_builtin_step
    addq $32, %rsp
    movl %eax, %eax
    pushq %rax
    popq %rax
    movq %rax, -152(%rbp)
    movl -24(%rbp), %eax
    pushq %rax
    movl -152(%rbp), %eax
    pushq %rax
    popq %rcx
    popq %rdx
    subq $32, %rsp
    callq L_s_builtin_step
    addq $32, %rsp
    movl %eax, %eax
    pushq %rax
    popq %rax
    movq %rax, -152(%rbp)
    movl -32(%rbp), %eax
    pushq %rax
    movl -152(%rbp), %eax
    pushq %rax
    popq %rcx
    popq %rdx
    subq $32, %rsp
    callq L_s_builtin_step
    addq $32, %rsp
    movl %eax, %eax
    pushq %rax
    popq %rax
    movq %rax, -152(%rbp)
    movl -40(%rbp), %eax
    pushq %rax
    movl -152(%rbp), %eax
    pushq %rax
    popq %rcx
    popq %rdx
    subq $32, %rsp
    callq L_s_builtin_step
    addq $32, %rsp
    movl %eax, %eax
    pushq %rax
    popq %rax
    movq %rax, -152(%rbp)
    movl -48(%rbp), %eax
    pushq %rax
    movl -152(%rbp), %eax
    pushq %rax
    popq %rcx
    popq %rdx
    subq $32, %rsp
    callq L_s_builtin_step
    addq $32, %rsp
    movl %eax, %eax
    pushq %rax
    popq %rax
    movq %rax, -152(%rbp)
    movl -56(%rbp), %eax
    pushq %rax
    movl -152(%rbp), %eax
    pushq %rax
    popq %rcx
    popq %rdx
    subq $32, %rsp
    callq L_s_builtin_step
    addq $32, %rsp
    movl %eax, %eax
    pushq %rax
    popq %rax
    movq %rax, -152(%rbp)
    movl -64(%rbp), %eax
    pushq %rax
    movl -152(%rbp), %eax
    pushq %rax
    popq %rcx
    popq %rdx
    subq $32, %rsp
    callq L_s_builtin_step
    addq $32, %rsp
    movl %eax, %eax
    pushq %rax
    popq %rax
    movq %rax, -152(%rbp)
    movl -72(%rbp), %eax
    pushq %rax
    movl -152(%rbp), %eax
    pushq %rax
    popq %rcx
    popq %rdx
    subq $32, %rsp
    callq L_s_builtin_step
    addq $32, %rsp
    movl %eax, %eax
    pushq %rax
    popq %rax
    movq %rax, -152(%rbp)
    movl -80(%rbp), %eax
    pushq %rax
    movl -152(%rbp), %eax
    pushq %rax
    popq %rcx
    popq %rdx
    subq $32, %rsp
    callq L_s_builtin_step
    addq $32, %rsp
    movl %eax, %eax
    pushq %rax
    popq %rax
    movq %rax, -152(%rbp)
    movl -88(%rbp), %eax
    pushq %rax
    movl -152(%rbp), %eax
    pushq %rax
    popq %rcx
    popq %rdx
    subq $32, %rsp
    callq L_s_builtin_step
    addq $32, %rsp
    movl %eax, %eax
    pushq %rax
    popq %rax
    movq %rax, -152(%rbp)
    movl -96(%rbp), %eax
    pushq %rax
    movl -152(%rbp), %eax
    pushq %rax
    popq %rcx
    popq %rdx
    subq $32, %rsp
    callq L_s_builtin_step
    addq $32, %rsp
    movl %eax, %eax
    pushq %rax
    popq %rax
    movq %rax, -152(%rbp)
    movl -104(%rbp), %eax
    pushq %rax
    movl -152(%rbp), %eax
    pushq %rax
    popq %rcx
    popq %rdx
    subq $32, %rsp
    callq L_s_builtin_step
    addq $32, %rsp
    movl %eax, %eax
    pushq %rax
    popq %rax
    movq %rax, -152(%rbp)
    movl -112(%rbp), %eax
    pushq %rax
    movl -152(%rbp), %eax
    pushq %rax
    popq %rcx
    popq %rdx
    subq $32, %rsp
    callq L_s_builtin_step
    addq $32, %rsp
    movl %eax, %eax
    pushq %rax
    popq %rax
    movq %rax, -152(%rbp)
    movl -120(%rbp), %eax
    pushq %rax
    movl -152(%rbp), %eax
    pushq %rax
    popq %rcx
    popq %rdx
    subq $32, %rsp
    callq L_s_builtin_step
    addq $32, %rsp
    movl %eax, %eax
    pushq %rax
    popq %rax
    movq %rax, -152(%rbp)
    movl -128(%rbp), %eax
    pushq %rax
    movl -152(%rbp), %eax
    pushq %rax
    popq %rcx
    popq %rdx
    subq $32, %rsp
    callq L_s_builtin_step
    addq $32, %rsp
    movl %eax, %eax
    pushq %rax
    popq %rax
    movq %rax, -152(%rbp)
    movl -136(%rbp), %eax
    pushq %rax
    movl -152(%rbp), %eax
    pushq %rax
    popq %rcx
    popq %rdx
    subq $32, %rsp
    callq L_s_builtin_step
    addq $32, %rsp
    movl %eax, %eax
    pushq %rax
    popq %rax
    movq %rax, -152(%rbp)
    leaq L_SEMA_BUILTIN_LEN(%rip), %rax
    pushq %rax
    movl -8(%rbp), %eax
    pushq %rax
    movl -152(%rbp), %eax
    pushq %rax
    movl -144(%rbp), %eax
    pushq %rax
    popq %rcx
    popq %rax
    subq %rcx, %rax
    movl %eax, %eax
    pushq %rax
    popq %rdx
    popq %rcx
    popq %rax
    movl %edx, (%rax,%rcx,4)
    movabsq $0x0, %rax
    pushq %rax
    popq %rax
    movq %rbp, %rsp
    popq %rbp
    retq
    movq $0, %rax
    pushq %rax
    movq $0, %rax
    movq %rbp, %rsp
    popq %rbp
    retq
    .seh_endproc
    .section .iii.ring3,"n"
    .asciz "s_init_irpd_table"
    .text
    .seh_proc L_s_init_irpd_table
L_s_init_irpd_table:
    pushq %rbp
    .seh_pushreg %rbp
    movq %rsp, %rbp
    .seh_setframe %rbp, 0
    subq $1024, %rsp
    .seh_stackalloc 1024
    .seh_endprologue
    movzbq L_SEMA_IRPD_INIT(%rip), %rax
    pushq %rax
    movabsq $0x1, %rax
    pushq %rax
    popq %rcx
    popq %rax
    cmpq %rcx, %rax
    sete %al
    movzbq %al, %rax
    pushq %rax
    popq %rax
    testq %rax, %rax
    jz L_if_end_151
    movabsq $0x0, %rax
    pushq %rax
    popq %rax
    movq %rbp, %rsp
    popq %rbp
    retq
    movq $0, %rax
    pushq %rax
    popq %rax
L_if_end_151:
    subq $8, %rsp
    movabsq $0x0, %rax
    pushq %rax
    movabsq $0x0, %rax
    pushq %rax
    movabsq $0x0, %rax
    pushq %rax
    movabsq $0x0, %rax
    pushq %rax
    movabsq $0x0, %rax
    pushq %rax
    movabsq $0x0, %rax
    pushq %rax
    movabsq $0x0, %rax
    pushq %rax
    movabsq $0x65, %rax
    pushq %rax
    movabsq $0x74, %rax
    pushq %rax
    movabsq $0x69, %rax
    pushq %rax
    movabsq $0x72, %rax
    pushq %rax
    movabsq $0x77, %rax
    pushq %rax
    movabsq $0x5f, %rax
    pushq %rax
    movabsq $0x72, %rax
    pushq %rax
    movabsq $0x73, %rax
    pushq %rax
    movabsq $0x6d, %rax
    pushq %rax
    movabsq $0x0, %rax
    pushq %rax
    popq %rcx
    popq %rdx
    popq %r8
    popq %r9
    subq $32, %rsp
    callq L_s_irpd_write
    addq $32, %rsp
    addq $8, %rsp
    addq $104, %rsp
    movl %eax, %eax
    pushq %rax
    popq %rax
    subq $8, %rsp
    movabsq $0x0, %rax
    pushq %rax
    movabsq $0x0, %rax
    pushq %rax
    movabsq $0x0, %rax
    pushq %rax
    movabsq $0x0, %rax
    pushq %rax
    movabsq $0x0, %rax
    pushq %rax
    movabsq $0x0, %rax
    pushq %rax
    movabsq $0x0, %rax
    pushq %rax
    movabsq $0x0, %rax
    pushq %rax
    movabsq $0x65, %rax
    pushq %rax
    movabsq $0x74, %rax
    pushq %rax
    movabsq $0x69, %rax
    pushq %rax
    movabsq $0x72, %rax
    pushq %rax
    movabsq $0x77, %rax
    pushq %rax
    movabsq $0x5f, %rax
    pushq %rax
    movabsq $0x72, %rax
    pushq %rax
    movabsq $0x63, %rax
    pushq %rax
    movabsq $0x1, %rax
    pushq %rax
    popq %rcx
    popq %rdx
    popq %r8
    popq %r9
    subq $32, %rsp
    callq L_s_irpd_write
    addq $32, %rsp
    addq $8, %rsp
    addq $104, %rsp
    movl %eax, %eax
    pushq %rax
    popq %rax
    subq $8, %rsp
    movabsq $0x0, %rax
    pushq %rax
    movabsq $0x0, %rax
    pushq %rax
    movabsq $0x0, %rax
    pushq %rax
    movabsq $0x0, %rax
    pushq %rax
    movabsq $0x0, %rax
    pushq %rax
    movabsq $0x0, %rax
    pushq %rax
    movabsq $0x0, %rax
    pushq %rax
    movabsq $0x65, %rax
    pushq %rax
    movabsq $0x74, %rax
    pushq %rax
    movabsq $0x69, %rax
    pushq %rax
    movabsq $0x72, %rax
    pushq %rax
    movabsq $0x77, %rax
    pushq %rax
    movabsq $0x5f, %rax
    pushq %rax
    movabsq $0x74, %rax
    pushq %rax
    movabsq $0x70, %rax
    pushq %rax
    movabsq $0x6e, %rax
    pushq %rax
    movabsq $0x2, %rax
    pushq %rax
    popq %rcx
    popq %rdx
    popq %r8
    popq %r9
    subq $32, %rsp
    callq L_s_irpd_write
    addq $32, %rsp
    addq $8, %rsp
    addq $104, %rsp
    movl %eax, %eax
    pushq %rax
    popq %rax
    subq $8, %rsp
    movabsq $0x0, %rax
    pushq %rax
    movabsq $0x0, %rax
    pushq %rax
    movabsq $0x0, %rax
    pushq %rax
    movabsq $0x0, %rax
    pushq %rax
    movabsq $0x0, %rax
    pushq %rax
    movabsq $0x0, %rax
    pushq %rax
    movabsq $0x64, %rax
    pushq %rax
    movabsq $0x6c, %rax
    pushq %rax
    movabsq $0x65, %rax
    pushq %rax
    movabsq $0x69, %rax
    pushq %rax
    movabsq $0x66, %rax
    pushq %rax
    movabsq $0x5f, %rax
    pushq %rax
    movabsq $0x62, %rax
    pushq %rax
    movabsq $0x63, %rax
    pushq %rax
    movabsq $0x6d, %rax
    pushq %rax
    movabsq $0x76, %rax
    pushq %rax
    movabsq $0x3, %rax
    pushq %rax
    popq %rcx
    popq %rdx
    popq %r8
    popq %r9
    subq $32, %rsp
    callq L_s_irpd_write
    addq $32, %rsp
    addq $8, %rsp
    addq $104, %rsp
    movl %eax, %eax
    pushq %rax
    popq %rax
    subq $8, %rsp
    movabsq $0x0, %rax
    pushq %rax
    movabsq $0x0, %rax
    pushq %rax
    movabsq $0x0, %rax
    pushq %rax
    movabsq $0x0, %rax
    pushq %rax
    movabsq $0x0, %rax
    pushq %rax
    movabsq $0x0, %rax
    pushq %rax
    movabsq $0x0, %rax
    pushq %rax
    movabsq $0x65, %rax
    pushq %rax
    movabsq $0x74, %rax
    pushq %rax
    movabsq $0x64, %rax
    pushq %rax
    movabsq $0x5f, %rax
    pushq %rax
    movabsq $0x75, %rax
    pushq %rax
    movabsq $0x6d, %rax
    pushq %rax
    movabsq $0x6d, %rax
    pushq %rax
    movabsq $0x6f, %rax
    pushq %rax
    movabsq $0x69, %rax
    pushq %rax
    movabsq $0x4, %rax
    pushq %rax
    popq %rcx
    popq %rdx
    popq %r8
    popq %r9
    subq $32, %rsp
    callq L_s_irpd_write
    addq $32, %rsp
    addq $8, %rsp
    addq $104, %rsp
    movl %eax, %eax
    pushq %rax
    popq %rax
    subq $8, %rsp
    movabsq $0x0, %rax
    pushq %rax
    movabsq $0x0, %rax
    pushq %rax
    movabsq $0x0, %rax
    pushq %rax
    movabsq $0x0, %rax
    pushq %rax
    movabsq $0x0, %rax
    pushq %rax
    movabsq $0x0, %rax
    pushq %rax
    movabsq $0x0, %rax
    pushq %rax
    movabsq $0x0, %rax
    pushq %rax
    movabsq $0x6c, %rax
    pushq %rax
    movabsq $0x62, %rax
    pushq %rax
    movabsq $0x74, %rax
    pushq %rax
    movabsq $0x5f, %rax
    pushq %rax
    movabsq $0x63, %rax
    pushq %rax
    movabsq $0x69, %rax
    pushq %rax
    movabsq $0x76, %rax
    pushq %rax
    movabsq $0x61, %rax
    pushq %rax
    movabsq $0x5, %rax
    pushq %rax
    popq %rcx
    popq %rdx
    popq %r8
    popq %r9
    subq $32, %rsp
    callq L_s_irpd_write
    addq $32, %rsp
    addq $8, %rsp
    addq $104, %rsp
    movl %eax, %eax
    pushq %rax
    popq %rax
    subq $8, %rsp
    movabsq $0x0, %rax
    pushq %rax
    movabsq $0x0, %rax
    pushq %rax
    movabsq $0x0, %rax
    pushq %rax
    movabsq $0x0, %rax
    pushq %rax
    movabsq $0x0, %rax
    pushq %rax
    movabsq $0x0, %rax
    pushq %rax
    movabsq $0x0, %rax
    pushq %rax
    movabsq $0x74, %rax
    pushq %rax
    movabsq $0x69, %rax
    pushq %rax
    movabsq $0x62, %rax
    pushq %rax
    movabsq $0x5f, %rax
    pushq %rax
    movabsq $0x6d, %rax
    pushq %rax
    movabsq $0x70, %rax
    pushq %rax
    movabsq $0x72, %rax
    pushq %rax
    movabsq $0x73, %rax
    pushq %rax
    movabsq $0x6d, %rax
    pushq %rax
    movabsq $0x6, %rax
    pushq %rax
    popq %rcx
    popq %rdx
    popq %r8
    popq %r9
    subq $32, %rsp
    callq L_s_irpd_write
    addq $32, %rsp
    addq $8, %rsp
    addq $104, %rsp
    movl %eax, %eax
    pushq %rax
    popq %rax
    subq $8, %rsp
    movabsq $0x0, %rax
    pushq %rax
    movabsq $0x0, %rax
    pushq %rax
    movabsq $0x0, %rax
    pushq %rax
    movabsq $0x0, %rax
    pushq %rax
    movabsq $0x0, %rax
    pushq %rax
    movabsq $0x0, %rax
    pushq %rax
    movabsq $0x0, %rax
    pushq %rax
    movabsq $0x0, %rax
    pushq %rax
    movabsq $0x74, %rax
    pushq %rax
    movabsq $0x69, %rax
    pushq %rax
    movabsq $0x62, %rax
    pushq %rax
    movabsq $0x5f, %rax
    pushq %rax
    movabsq $0x6d, %rax
    pushq %rax
    movabsq $0x70, %rax
    pushq %rax
    movabsq $0x6f, %rax
    pushq %rax
    movabsq $0x69, %rax
    pushq %rax
    movabsq $0x7, %rax
    pushq %rax
    popq %rcx
    popq %rdx
    popq %r8
    popq %r9
    subq $32, %rsp
    callq L_s_irpd_write
    addq $32, %rsp
    addq $8, %rsp
    addq $104, %rsp
    movl %eax, %eax
    pushq %rax
    popq %rax
    subq $8, %rsp
    movabsq $0x0, %rax
    pushq %rax
    movabsq $0x0, %rax
    pushq %rax
    movabsq $0x0, %rax
    pushq %rax
    movabsq $0x0, %rax
    pushq %rax
    movabsq $0x0, %rax
    pushq %rax
    movabsq $0x0, %rax
    pushq %rax
    movabsq $0x65, %rax
    pushq %rax
    movabsq $0x74, %rax
    pushq %rax
    movabsq $0x69, %rax
    pushq %rax
    movabsq $0x72, %rax
    pushq %rax
    movabsq $0x77, %rax
    pushq %rax
    movabsq $0x5f, %rax
    pushq %rax
    movabsq $0x75, %rax
    pushq %rax
    movabsq $0x72, %rax
    pushq %rax
    movabsq $0x6b, %rax
    pushq %rax
    movabsq $0x70, %rax
    pushq %rax
    movabsq $0x8, %rax
    pushq %rax
    popq %rcx
    popq %rdx
    popq %r8
    popq %r9
    subq $32, %rsp
    callq L_s_irpd_write
    addq $32, %rsp
    addq $8, %rsp
    addq $104, %rsp
    movl %eax, %eax
    pushq %rax
    popq %rax
    subq $8, %rsp
    movabsq $0x0, %rax
    pushq %rax
    movabsq $0x0, %rax
    pushq %rax
    movabsq $0x0, %rax
    pushq %rax
    movabsq $0x0, %rax
    pushq %rax
    movabsq $0x0, %rax
    pushq %rax
    movabsq $0x0, %rax
    pushq %rax
    movabsq $0x65, %rax
    pushq %rax
    movabsq $0x74, %rax
    pushq %rax
    movabsq $0x69, %rax
    pushq %rax
    movabsq $0x72, %rax
    pushq %rax
    movabsq $0x77, %rax
    pushq %rax
    movabsq $0x5f, %rax
    pushq %rax
    movabsq $0x30, %rax
    pushq %rax
    movabsq $0x72, %rax
    pushq %rax
    movabsq $0x63, %rax
    pushq %rax
    movabsq $0x78, %rax
    pushq %rax
    movabsq $0x9, %rax
    pushq %rax
    popq %rcx
    popq %rdx
    popq %r8
    popq %r9
    subq $32, %rsp
    callq L_s_irpd_write
    addq $32, %rsp
    addq $8, %rsp
    addq $104, %rsp
    movl %eax, %eax
    pushq %rax
    popq %rax
    subq $8, %rsp
    movabsq $0x0, %rax
    pushq %rax
    movabsq $0x0, %rax
    pushq %rax
    movabsq $0x0, %rax
    pushq %rax
    movabsq $0x0, %rax
    pushq %rax
    movabsq $0x0, %rax
    pushq %rax
    movabsq $0x65, %rax
    pushq %rax
    movabsq $0x72, %rax
    pushq %rax
    movabsq $0x69, %rax
    pushq %rax
    movabsq $0x75, %rax
    pushq %rax
    movabsq $0x71, %rax
    pushq %rax
    movabsq $0x63, %rax
    pushq %rax
    movabsq $0x61, %rax
    pushq %rax
    movabsq $0x5f, %rax
    pushq %rax
    movabsq $0x70, %rax
    pushq %rax
    movabsq $0x61, %rax
    pushq %rax
    movabsq $0x63, %rax
    pushq %rax
    movabsq $0xa, %rax
    pushq %rax
    popq %rcx
    popq %rdx
    popq %r8
    popq %r9
    subq $32, %rsp
    callq L_s_irpd_write
    addq $32, %rsp
    addq $8, %rsp
    addq $104, %rsp
    movl %eax, %eax
    pushq %rax
    popq %rax
    subq $8, %rsp
    movabsq $0x0, %rax
    pushq %rax
    movabsq $0x0, %rax
    pushq %rax
    movabsq $0x0, %rax
    pushq %rax
    movabsq $0x0, %rax
    pushq %rax
    movabsq $0x0, %rax
    pushq %rax
    movabsq $0x65, %rax
    pushq %rax
    movabsq $0x73, %rax
    pushq %rax
    movabsq $0x61, %rax
    pushq %rax
    movabsq $0x65, %rax
    pushq %rax
    movabsq $0x6c, %rax
    pushq %rax
    movabsq $0x65, %rax
    pushq %rax
    movabsq $0x72, %rax
    pushq %rax
    movabsq $0x5f, %rax
    pushq %rax
    movabsq $0x70, %rax
    pushq %rax
    movabsq $0x61, %rax
    pushq %rax
    movabsq $0x63, %rax
    pushq %rax
    movabsq $0xb, %rax
    pushq %rax
    popq %rcx
    popq %rdx
    popq %r8
    popq %r9
    subq $32, %rsp
    callq L_s_irpd_write
    addq $32, %rsp
    addq $8, %rsp
    addq $104, %rsp
    movl %eax, %eax
    pushq %rax
    popq %rax
    subq $8, %rsp
    movabsq $0x0, %rax
    pushq %rax
    movabsq $0x0, %rax
    pushq %rax
    movabsq $0x0, %rax
    pushq %rax
    movabsq $0x0, %rax
    pushq %rax
    movabsq $0x0, %rax
    pushq %rax
    movabsq $0x0, %rax
    pushq %rax
    movabsq $0x63, %rax
    pushq %rax
    movabsq $0x6f, %rax
    pushq %rax
    movabsq $0x6c, %rax
    pushq %rax
    movabsq $0x6c, %rax
    pushq %rax
    movabsq $0x61, %rax
    pushq %rax
    movabsq $0x5f, %rax
    pushq %rax
    movabsq $0x65, %rax
    pushq %rax
    movabsq $0x67, %rax
    pushq %rax
    movabsq $0x61, %rax
    pushq %rax
    movabsq $0x70, %rax
    pushq %rax
    movabsq $0xc, %rax
    pushq %rax
    popq %rcx
    popq %rdx
    popq %r8
    popq %r9
    subq $32, %rsp
    callq L_s_irpd_write
    addq $32, %rsp
    addq $8, %rsp
    addq $104, %rsp
    movl %eax, %eax
    pushq %rax
    popq %rax
    subq $8, %rsp
    movabsq $0x0, %rax
    pushq %rax
    movabsq $0x0, %rax
    pushq %rax
    movabsq $0x0, %rax
    pushq %rax
    movabsq $0x0, %rax
    pushq %rax
    movabsq $0x0, %rax
    pushq %rax
    movabsq $0x0, %rax
    pushq %rax
    movabsq $0x0, %rax
    pushq %rax
    movabsq $0x65, %rax
    pushq %rax
    movabsq $0x65, %rax
    pushq %rax
    movabsq $0x72, %rax
    pushq %rax
    movabsq $0x66, %rax
    pushq %rax
    movabsq $0x5f, %rax
    pushq %rax
    movabsq $0x65, %rax
    pushq %rax
    movabsq $0x67, %rax
    pushq %rax
    movabsq $0x61, %rax
    pushq %rax
    movabsq $0x70, %rax
    pushq %rax
    movabsq $0xd, %rax
    pushq %rax
    popq %rcx
    popq %rdx
    popq %r8
    popq %r9
    subq $32, %rsp
    callq L_s_irpd_write
    addq $32, %rsp
    addq $8, %rsp
    addq $104, %rsp
    movl %eax, %eax
    pushq %rax
    popq %rax
    subq $8, %rsp
    movabsq $0x0, %rax
    pushq %rax
    movabsq $0x0, %rax
    pushq %rax
    movabsq $0x0, %rax
    pushq %rax
    movabsq $0x0, %rax
    pushq %rax
    movabsq $0x0, %rax
    pushq %rax
    movabsq $0x0, %rax
    pushq %rax
    movabsq $0x0, %rax
    pushq %rax
    movabsq $0x0, %rax
    pushq %rax
    movabsq $0x0, %rax
    pushq %rax
    movabsq $0x6d, %rax
    pushq %rax
    movabsq $0x72, %rax
    pushq %rax
    movabsq $0x61, %rax
    pushq %rax
    movabsq $0x5f, %rax
    pushq %rax
    movabsq $0x63, %rax
    pushq %rax
    movabsq $0x70, %rax
    pushq %rax
    movabsq $0x64, %rax
    pushq %rax
    movabsq $0xe, %rax
    pushq %rax
    popq %rcx
    popq %rdx
    popq %r8
    popq %r9
    subq $32, %rsp
    callq L_s_irpd_write
    addq $32, %rsp
    addq $8, %rsp
    addq $104, %rsp
    movl %eax, %eax
    pushq %rax
    popq %rax
    subq $8, %rsp
    movabsq $0x0, %rax
    pushq %rax
    movabsq $0x0, %rax
    pushq %rax
    movabsq $0x0, %rax
    pushq %rax
    movabsq $0x0, %rax
    pushq %rax
    movabsq $0x0, %rax
    pushq %rax
    movabsq $0x0, %rax
    pushq %rax
    movabsq $0x6c, %rax
    pushq %rax
    movabsq $0x65, %rax
    pushq %rax
    movabsq $0x63, %rax
    pushq %rax
    movabsq $0x6e, %rax
    pushq %rax
    movabsq $0x61, %rax
    pushq %rax
    movabsq $0x63, %rax
    pushq %rax
    movabsq $0x5f, %rax
    pushq %rax
    movabsq $0x63, %rax
    pushq %rax
    movabsq $0x70, %rax
    pushq %rax
    movabsq $0x64, %rax
    pushq %rax
    movabsq $0xf, %rax
    pushq %rax
    popq %rcx
    popq %rdx
    popq %r8
    popq %r9
    subq $32, %rsp
    callq L_s_irpd_write
    addq $32, %rsp
    addq $8, %rsp
    addq $104, %rsp
    movl %eax, %eax
    pushq %rax
    popq %rax
    subq $8, %rsp
    movabsq $0x0, %rax
    pushq %rax
    movabsq $0x0, %rax
    pushq %rax
    movabsq $0x0, %rax
    pushq %rax
    movabsq $0x0, %rax
    pushq %rax
    movabsq $0x0, %rax
    pushq %rax
    movabsq $0x6c, %rax
    pushq %rax
    movabsq $0x6c, %rax
    pushq %rax
    movabsq $0x61, %rax
    pushq %rax
    movabsq $0x74, %rax
    pushq %rax
    movabsq $0x73, %rax
    pushq %rax
    movabsq $0x6e, %rax
    pushq %rax
    movabsq $0x69, %rax
    pushq %rax
    movabsq $0x5f, %rax
    pushq %rax
    movabsq $0x69, %rax
    pushq %rax
    movabsq $0x6d, %rax
    pushq %rax
    movabsq $0x6e, %rax
    pushq %rax
    movabsq $0x10, %rax
    pushq %rax
    popq %rcx
    popq %rdx
    popq %r8
    popq %r9
    subq $32, %rsp
    callq L_s_irpd_write
    addq $32, %rsp
    addq $8, %rsp
    addq $104, %rsp
    movl %eax, %eax
    pushq %rax
    popq %rax
    subq $8, %rsp
    movabsq $0x0, %rax
    pushq %rax
    movabsq $0x0, %rax
    pushq %rax
    movabsq $0x0, %rax
    pushq %rax
    movabsq $0x0, %rax
    pushq %rax
    movabsq $0x0, %rax
    pushq %rax
    movabsq $0x0, %rax
    pushq %rax
    movabsq $0x0, %rax
    pushq %rax
    movabsq $0x0, %rax
    pushq %rax
    movabsq $0x64, %rax
    pushq %rax
    movabsq $0x61, %rax
    pushq %rax
    movabsq $0x65, %rax
    pushq %rax
    movabsq $0x72, %rax
    pushq %rax
    movabsq $0x5f, %rax
    pushq %rax
    movabsq $0x72, %rax
    pushq %rax
    movabsq $0x73, %rax
    pushq %rax
    movabsq $0x6d, %rax
    pushq %rax
    movabsq $0x11, %rax
    pushq %rax
    popq %rcx
    popq %rdx
    popq %r8
    popq %r9
    subq $32, %rsp
    callq L_s_irpd_write
    addq $32, %rsp
    addq $8, %rsp
    addq $104, %rsp
    movl %eax, %eax
    pushq %rax
    popq %rax
    subq $8, %rsp
    movabsq $0x0, %rax
    pushq %rax
    movabsq $0x0, %rax
    pushq %rax
    movabsq $0x0, %rax
    pushq %rax
    movabsq $0x0, %rax
    pushq %rax
    movabsq $0x0, %rax
    pushq %rax
    movabsq $0x0, %rax
    pushq %rax
    movabsq $0x0, %rax
    pushq %rax
    movabsq $0x0, %rax
    pushq %rax
    movabsq $0x0, %rax
    pushq %rax
    movabsq $0x64, %rax
    pushq %rax
    movabsq $0x61, %rax
    pushq %rax
    movabsq $0x65, %rax
    pushq %rax
    movabsq $0x72, %rax
    pushq %rax
    movabsq $0x5f, %rax
    pushq %rax
    movabsq $0x72, %rax
    pushq %rax
    movabsq $0x63, %rax
    pushq %rax
    movabsq $0x12, %rax
    pushq %rax
    popq %rcx
    popq %rdx
    popq %r8
    popq %r9
    subq $32, %rsp
    callq L_s_irpd_write
    addq $32, %rsp
    addq $8, %rsp
    addq $104, %rsp
    movl %eax, %eax
    pushq %rax
    popq %rax
    subq $8, %rsp
    movabsq $0x0, %rax
    pushq %rax
    movabsq $0x0, %rax
    pushq %rax
    movabsq $0x0, %rax
    pushq %rax
    movabsq $0x0, %rax
    pushq %rax
    movabsq $0x0, %rax
    pushq %rax
    movabsq $0x0, %rax
    pushq %rax
    movabsq $0x0, %rax
    pushq %rax
    movabsq $0x0, %rax
    pushq %rax
    movabsq $0x64, %rax
    pushq %rax
    movabsq $0x61, %rax
    pushq %rax
    movabsq $0x65, %rax
    pushq %rax
    movabsq $0x72, %rax
    pushq %rax
    movabsq $0x5f, %rax
    pushq %rax
    movabsq $0x74, %rax
    pushq %rax
    movabsq $0x70, %rax
    pushq %rax
    movabsq $0x6e, %rax
    pushq %rax
    movabsq $0x13, %rax
    pushq %rax
    popq %rcx
    popq %rdx
    popq %r8
    popq %r9
    subq $32, %rsp
    callq L_s_irpd_write
    addq $32, %rsp
    addq $8, %rsp
    addq $104, %rsp
    movl %eax, %eax
    pushq %rax
    popq %rax
    movabsq $0x14, %rax
    pushq %rax
    popq %rax
    movl %eax, L_SEMA_IRPD_COUNT(%rip)
    movabsq $0x1, %rax
    pushq %rax
    popq %rax
    movb %al, L_SEMA_IRPD_INIT(%rip)
    movabsq $0x0, %rax
    pushq %rax
    popq %rax
    movq %rbp, %rsp
    popq %rbp
    retq
    movq $0, %rax
    pushq %rax
    movq $0, %rax
    movq %rbp, %rsp
    popq %rbp
    retq
    .seh_endproc
    .section .iii.ring3,"n"
    .asciz "s_init_pfs_table"
    .text
    .seh_proc L_s_init_pfs_table
L_s_init_pfs_table:
    pushq %rbp
    .seh_pushreg %rbp
    movq %rsp, %rbp
    .seh_setframe %rbp, 0
    subq $1024, %rsp
    .seh_stackalloc 1024
    .seh_endprologue
    subq $8, %rsp
    movabsq $0x0, %rax
    pushq %rax
    movabsq $0x0, %rax
    pushq %rax
    movabsq $0x65, %rax
    pushq %rax
    movabsq $0x74, %rax
    pushq %rax
    movabsq $0x61, %rax
    pushq %rax
    movabsq $0x64, %rax
    pushq %rax
    movabsq $0x70, %rax
    pushq %rax
    movabsq $0x75, %rax
    pushq %rax
    movabsq $0x5f, %rax
    pushq %rax
    movabsq $0x65, %rax
    pushq %rax
    movabsq $0x6c, %rax
    pushq %rax
    movabsq $0x75, %rax
    pushq %rax
    movabsq $0x73, %rax
    pushq %rax
    movabsq $0x70, %rax
    pushq %rax
    movabsq $0x61, %rax
    pushq %rax
    movabsq $0x63, %rax
    pushq %rax
    movabsq $0x0, %rax
    pushq %rax
    popq %rcx
    popq %rdx
    popq %r8
    popq %r9
    subq $32, %rsp
    callq L_s_pfs_write
    addq $32, %rsp
    addq $8, %rsp
    addq $104, %rsp
    movl %eax, %eax
    pushq %rax
    popq %rax
    subq $8, %rsp
    movabsq $0x0, %rax
    pushq %rax
    movabsq $0x0, %rax
    pushq %rax
    movabsq $0x64, %rax
    pushq %rax
    movabsq $0x61, %rax
    pushq %rax
    movabsq $0x6f, %rax
    pushq %rax
    movabsq $0x6c, %rax
    pushq %rax
    movabsq $0x5f, %rax
    pushq %rax
    movabsq $0x65, %rax
    pushq %rax
    movabsq $0x64, %rax
    pushq %rax
    movabsq $0x6f, %rax
    pushq %rax
    movabsq $0x63, %rax
    pushq %rax
    movabsq $0x6f, %rax
    pushq %rax
    movabsq $0x72, %rax
    pushq %rax
    movabsq $0x63, %rax
    pushq %rax
    movabsq $0x69, %rax
    pushq %rax
    movabsq $0x6d, %rax
    pushq %rax
    movabsq $0x1, %rax
    pushq %rax
    popq %rcx
    popq %rdx
    popq %r8
    popq %r9
    subq $32, %rsp
    callq L_s_pfs_write
    addq $32, %rsp
    addq $8, %rsp
    addq $104, %rsp
    movl %eax, %eax
    pushq %rax
    popq %rax
    subq $8, %rsp
    movabsq $0x0, %rax
    pushq %rax
    movabsq $0x0, %rax
    pushq %rax
    movabsq $0x0, %rax
    pushq %rax
    movabsq $0x74, %rax
    pushq %rax
    movabsq $0x65, %rax
    pushq %rax
    movabsq $0x73, %rax
    pushq %rax
    movabsq $0x5f, %rax
    pushq %rax
    movabsq $0x72, %rax
    pushq %rax
    movabsq $0x65, %rax
    pushq %rax
    movabsq $0x64, %rax
    pushq %rax
    movabsq $0x72, %rax
    pushq %rax
    movabsq $0x6f, %rax
    pushq %rax
    movabsq $0x74, %rax
    pushq %rax
    movabsq $0x6f, %rax
    pushq %rax
    movabsq $0x6f, %rax
    pushq %rax
    movabsq $0x62, %rax
    pushq %rax
    movabsq $0x2, %rax
    pushq %rax
    popq %rcx
    popq %rdx
    popq %r8
    popq %r9
    subq $32, %rsp
    callq L_s_pfs_write
    addq $32, %rsp
    addq $8, %rsp
    addq $104, %rsp
    movl %eax, %eax
    pushq %rax
    popq %rax
    subq $8, %rsp
    movabsq $0x65, %rax
    pushq %rax
    movabsq $0x74, %rax
    pushq %rax
    movabsq $0x69, %rax
    pushq %rax
    movabsq $0x72, %rax
    pushq %rax
    movabsq $0x77, %rax
    pushq %rax
    movabsq $0x5f, %rax
    pushq %rax
    movabsq $0x6d, %rax
    pushq %rax
    movabsq $0x61, %rax
    pushq %rax
    movabsq $0x72, %rax
    pushq %rax
    movabsq $0x76, %rax
    pushq %rax
    movabsq $0x6e, %rax
    pushq %rax
    movabsq $0x5f, %rax
    pushq %rax
    movabsq $0x6c, %rax
    pushq %rax
    movabsq $0x61, %rax
    pushq %rax
    movabsq $0x65, %rax
    pushq %rax
    movabsq $0x72, %rax
    pushq %rax
    movabsq $0x3, %rax
    pushq %rax
    popq %rcx
    popq %rdx
    popq %r8
    popq %r9
    subq $32, %rsp
    callq L_s_pfs_write
    addq $32, %rsp
    addq $8, %rsp
    addq $104, %rsp
    movl %eax, %eax
    pushq %rax
    popq %rax
    subq $8, %rsp
    movabsq $0x0, %rax
    pushq %rax
    movabsq $0x0, %rax
    pushq %rax
    movabsq $0x78, %rax
    pushq %rax
    movabsq $0x6f, %rax
    pushq %rax
    movabsq $0x62, %rax
    pushq %rax
    movabsq $0x6c, %rax
    pushq %rax
    movabsq $0x69, %rax
    pushq %rax
    movabsq $0x61, %rax
    pushq %rax
    movabsq $0x6d, %rax
    pushq %rax
    movabsq $0x5f, %rax
    pushq %rax
    movabsq $0x70, %rax
    pushq %rax
    movabsq $0x73, %rax
    pushq %rax
    movabsq $0x70, %rax
    pushq %rax
    movabsq $0x5f, %rax
    pushq %rax
    movabsq $0x65, %rax
    pushq %rax
    movabsq $0x6d, %rax
    pushq %rax
    movabsq $0x4, %rax
    pushq %rax
    popq %rcx
    popq %rdx
    popq %r8
    popq %r9
    subq $32, %rsp
    callq L_s_pfs_write
    addq $32, %rsp
    addq $8, %rsp
    addq $104, %rsp
    movl %eax, %eax
    pushq %rax
    popq %rax
    subq $8, %rsp
    movabsq $0x0, %rax
    pushq %rax
    movabsq $0x0, %rax
    pushq %rax
    movabsq $0x0, %rax
    pushq %rax
    movabsq $0x0, %rax
    pushq %rax
    movabsq $0x0, %rax
    pushq %rax
    movabsq $0x65, %rax
    pushq %rax
    movabsq $0x74, %rax
    pushq %rax
    movabsq $0x69, %rax
    pushq %rax
    movabsq $0x72, %rax
    pushq %rax
    movabsq $0x77, %rax
    pushq %rax
    movabsq $0x5f, %rax
    pushq %rax
    movabsq $0x6d, %rax
    pushq %rax
    movabsq $0x61, %rax
    pushq %rax
    movabsq $0x72, %rax
    pushq %rax
    movabsq $0x6d, %rax
    pushq %rax
    movabsq $0x73, %rax
    pushq %rax
    movabsq $0x5, %rax
    pushq %rax
    popq %rcx
    popq %rdx
    popq %r8
    popq %r9
    subq $32, %rsp
    callq L_s_pfs_write
    addq $32, %rsp
    addq $8, %rsp
    addq $104, %rsp
    movl %eax, %eax
    pushq %rax
    popq %rax
    movabsq $0x6, %rax
    pushq %rax
    popq %rax
    movl %eax, L_SEMA_PFS_COUNT(%rip)
    movabsq $0x0, %rax
    pushq %rax
    popq %rax
    movq %rbp, %rsp
    popq %rbp
    retq
    movq $0, %rax
    pushq %rax
    movq $0, %rax
    movq %rbp, %rsp
    popq %rbp
    retq
    .seh_endproc
    .section .iii.ring3,"n"
    .asciz "s_init_rawop_table"
    .text
    .seh_proc L_s_init_rawop_table
L_s_init_rawop_table:
    pushq %rbp
    .seh_pushreg %rbp
    movq %rsp, %rbp
    .seh_setframe %rbp, 0
    subq $1024, %rsp
    .seh_stackalloc 1024
    .seh_endprologue
    subq $8, %rsp
    movabsq $0x0, %rax
    pushq %rax
    movabsq $0x0, %rax
    pushq %rax
    movabsq $0x0, %rax
    pushq %rax
    movabsq $0x0, %rax
    pushq %rax
    movabsq $0x0, %rax
    pushq %rax
    movabsq $0x0, %rax
    pushq %rax
    movabsq $0x0, %rax
    pushq %rax
    movabsq $0x0, %rax
    pushq %rax
    movabsq $0x0, %rax
    pushq %rax
    movabsq $0x0, %rax
    pushq %rax
    movabsq $0x0, %rax
    pushq %rax
    movabsq $0x72, %rax
    pushq %rax
    movabsq $0x73, %rax
    pushq %rax
    movabsq $0x6d, %rax
    pushq %rax
    movabsq $0x72, %rax
    pushq %rax
    movabsq $0x77, %rax
    pushq %rax
    movabsq $0x0, %rax
    pushq %rax
    popq %rcx
    popq %rdx
    popq %r8
    popq %r9
    subq $32, %rsp
    callq L_s_rawop_write
    addq $32, %rsp
    addq $8, %rsp
    addq $104, %rsp
    movl %eax, %eax
    pushq %rax
    popq %rax
    subq $8, %rsp
    movabsq $0x0, %rax
    pushq %rax
    movabsq $0x0, %rax
    pushq %rax
    movabsq $0x0, %rax
    pushq %rax
    movabsq $0x0, %rax
    pushq %rax
    movabsq $0x0, %rax
    pushq %rax
    movabsq $0x0, %rax
    pushq %rax
    movabsq $0x0, %rax
    pushq %rax
    movabsq $0x0, %rax
    pushq %rax
    movabsq $0x0, %rax
    pushq %rax
    movabsq $0x73, %rax
    pushq %rax
    movabsq $0x6e, %rax
    pushq %rax
    movabsq $0x72, %rax
    pushq %rax
    movabsq $0x73, %rax
    pushq %rax
    movabsq $0x6d, %rax
    pushq %rax
    movabsq $0x72, %rax
    pushq %rax
    movabsq $0x77, %rax
    pushq %rax
    movabsq $0x1, %rax
    pushq %rax
    popq %rcx
    popq %rdx
    popq %r8
    popq %r9
    subq $32, %rsp
    callq L_s_rawop_write
    addq $32, %rsp
    addq $8, %rsp
    addq $104, %rsp
    movl %eax, %eax
    pushq %rax
    popq %rax
    subq $8, %rsp
    movabsq $0x0, %rax
    pushq %rax
    movabsq $0x0, %rax
    pushq %rax
    movabsq $0x0, %rax
    pushq %rax
    movabsq $0x0, %rax
    pushq %rax
    movabsq $0x0, %rax
    pushq %rax
    movabsq $0x0, %rax
    pushq %rax
    movabsq $0x0, %rax
    pushq %rax
    movabsq $0x74, %rax
    pushq %rax
    movabsq $0x73, %rax
    pushq %rax
    movabsq $0x69, %rax
    pushq %rax
    movabsq $0x6c, %rax
    pushq %rax
    movabsq $0x72, %rax
    pushq %rax
    movabsq $0x73, %rax
    pushq %rax
    movabsq $0x6d, %rax
    pushq %rax
    movabsq $0x72, %rax
    pushq %rax
    movabsq $0x77, %rax
    pushq %rax
    movabsq $0x2, %rax
    pushq %rax
    popq %rcx
    popq %rdx
    popq %r8
    popq %r9
    subq $32, %rsp
    callq L_s_rawop_write
    addq $32, %rsp
    addq $8, %rsp
    addq $104, %rsp
    movl %eax, %eax
    pushq %rax
    popq %rax
    subq $8, %rsp
    movabsq $0x0, %rax
    pushq %rax
    movabsq $0x0, %rax
    pushq %rax
    movabsq $0x0, %rax
    pushq %rax
    movabsq $0x0, %rax
    pushq %rax
    movabsq $0x0, %rax
    pushq %rax
    movabsq $0x0, %rax
    pushq %rax
    movabsq $0x0, %rax
    pushq %rax
    movabsq $0x0, %rax
    pushq %rax
    movabsq $0x0, %rax
    pushq %rax
    movabsq $0x0, %rax
    pushq %rax
    movabsq $0x72, %rax
    pushq %rax
    movabsq $0x63, %rax
    pushq %rax
    movabsq $0x20, %rax
    pushq %rax
    movabsq $0x76, %rax
    pushq %rax
    movabsq $0x6f, %rax
    pushq %rax
    movabsq $0x6d, %rax
    pushq %rax
    movabsq $0x3, %rax
    pushq %rax
    popq %rcx
    popq %rdx
    popq %r8
    popq %r9
    subq $32, %rsp
    callq L_s_rawop_write
    addq $32, %rsp
    addq $8, %rsp
    addq $104, %rsp
    movl %eax, %eax
    pushq %rax
    popq %rax
    subq $8, %rsp
    movabsq $0x0, %rax
    pushq %rax
    movabsq $0x0, %rax
    pushq %rax
    movabsq $0x0, %rax
    pushq %rax
    movabsq $0x0, %rax
    pushq %rax
    movabsq $0x0, %rax
    pushq %rax
    movabsq $0x0, %rax
    pushq %rax
    movabsq $0x0, %rax
    pushq %rax
    movabsq $0x0, %rax
    pushq %rax
    movabsq $0x0, %rax
    pushq %rax
    movabsq $0x0, %rax
    pushq %rax
    movabsq $0x75, %rax
    pushq %rax
    movabsq $0x72, %rax
    pushq %rax
    movabsq $0x6b, %rax
    pushq %rax
    movabsq $0x70, %rax
    pushq %rax
    movabsq $0x72, %rax
    pushq %rax
    movabsq $0x77, %rax
    pushq %rax
    movabsq $0x4, %rax
    pushq %rax
    popq %rcx
    popq %rdx
    popq %r8
    popq %r9
    subq $32, %rsp
    callq L_s_rawop_write
    addq $32, %rsp
    addq $8, %rsp
    addq $104, %rsp
    movl %eax, %eax
    pushq %rax
    popq %rax
    subq $8, %rsp
    movabsq $0x0, %rax
    pushq %rax
    movabsq $0x0, %rax
    pushq %rax
    movabsq $0x0, %rax
    pushq %rax
    movabsq $0x0, %rax
    pushq %rax
    movabsq $0x0, %rax
    pushq %rax
    movabsq $0x0, %rax
    pushq %rax
    movabsq $0x0, %rax
    pushq %rax
    movabsq $0x0, %rax
    pushq %rax
    movabsq $0x0, %rax
    pushq %rax
    movabsq $0x61, %rax
    pushq %rax
    movabsq $0x67, %rax
    pushq %rax
    movabsq $0x70, %rax
    pushq %rax
    movabsq $0x6c, %rax
    pushq %rax
    movabsq $0x76, %rax
    pushq %rax
    movabsq $0x6e, %rax
    pushq %rax
    movabsq $0x69, %rax
    pushq %rax
    movabsq $0x5, %rax
    pushq %rax
    popq %rcx
    popq %rdx
    popq %r8
    popq %r9
    subq $32, %rsp
    callq L_s_rawop_write
    addq $32, %rsp
    addq $8, %rsp
    addq $104, %rsp
    movl %eax, %eax
    pushq %rax
    popq %rax
    subq $8, %rsp
    movabsq $0x0, %rax
    pushq %rax
    movabsq $0x0, %rax
    pushq %rax
    movabsq $0x0, %rax
    pushq %rax
    movabsq $0x0, %rax
    pushq %rax
    movabsq $0x0, %rax
    pushq %rax
    movabsq $0x0, %rax
    pushq %rax
    movabsq $0x0, %rax
    pushq %rax
    movabsq $0x0, %rax
    pushq %rax
    movabsq $0x0, %rax
    pushq %rax
    movabsq $0x64, %rax
    pushq %rax
    movabsq $0x69, %rax
    pushq %rax
    movabsq $0x63, %rax
    pushq %rax
    movabsq $0x70, %rax
    pushq %rax
    movabsq $0x76, %rax
    pushq %rax
    movabsq $0x6e, %rax
    pushq %rax
    movabsq $0x69, %rax
    pushq %rax
    movabsq $0x6, %rax
    pushq %rax
    popq %rcx
    popq %rdx
    popq %r8
    popq %r9
    subq $32, %rsp
    callq L_s_rawop_write
    addq $32, %rsp
    addq $8, %rsp
    addq $104, %rsp
    movl %eax, %eax
    pushq %rax
    popq %rax
    subq $8, %rsp
    movabsq $0x0, %rax
    pushq %rax
    movabsq $0x0, %rax
    pushq %rax
    movabsq $0x0, %rax
    pushq %rax
    movabsq $0x0, %rax
    pushq %rax
    movabsq $0x0, %rax
    pushq %rax
    movabsq $0x0, %rax
    pushq %rax
    movabsq $0x0, %rax
    pushq %rax
    movabsq $0x0, %rax
    pushq %rax
    movabsq $0x0, %rax
    pushq %rax
    movabsq $0x0, %rax
    pushq %rax
    movabsq $0x0, %rax
    pushq %rax
    movabsq $0x6e, %rax
    pushq %rax
    movabsq $0x75, %rax
    pushq %rax
    movabsq $0x72, %rax
    pushq %rax
    movabsq $0x6d, %rax
    pushq %rax
    movabsq $0x76, %rax
    pushq %rax
    movabsq $0x7, %rax
    pushq %rax
    popq %rcx
    popq %rdx
    popq %r8
    popq %r9
    subq $32, %rsp
    callq L_s_rawop_write
    addq $32, %rsp
    addq $8, %rsp
    addq $104, %rsp
    movl %eax, %eax
    pushq %rax
    popq %rax
    subq $8, %rsp
    movabsq $0x0, %rax
    pushq %rax
    movabsq $0x0, %rax
    pushq %rax
    movabsq $0x0, %rax
    pushq %rax
    movabsq $0x0, %rax
    pushq %rax
    movabsq $0x0, %rax
    pushq %rax
    movabsq $0x0, %rax
    pushq %rax
    movabsq $0x0, %rax
    pushq %rax
    movabsq $0x0, %rax
    pushq %rax
    movabsq $0x0, %rax
    pushq %rax
    movabsq $0x0, %rax
    pushq %rax
    movabsq $0x64, %rax
    pushq %rax
    movabsq $0x61, %rax
    pushq %rax
    movabsq $0x6f, %rax
    pushq %rax
    movabsq $0x6c, %rax
    pushq %rax
    movabsq $0x6d, %rax
    pushq %rax
    movabsq $0x76, %rax
    pushq %rax
    movabsq $0x8, %rax
    pushq %rax
    popq %rcx
    popq %rdx
    popq %r8
    popq %r9
    subq $32, %rsp
    callq L_s_rawop_write
    addq $32, %rsp
    addq $8, %rsp
    addq $104, %rsp
    movl %eax, %eax
    pushq %rax
    popq %rax
    subq $8, %rsp
    movabsq $0x0, %rax
    pushq %rax
    movabsq $0x0, %rax
    pushq %rax
    movabsq $0x0, %rax
    pushq %rax
    movabsq $0x0, %rax
    pushq %rax
    movabsq $0x0, %rax
    pushq %rax
    movabsq $0x0, %rax
    pushq %rax
    movabsq $0x0, %rax
    pushq %rax
    movabsq $0x0, %rax
    pushq %rax
    movabsq $0x0, %rax
    pushq %rax
    movabsq $0x0, %rax
    pushq %rax
    movabsq $0x65, %rax
    pushq %rax
    movabsq $0x76, %rax
    pushq %rax
    movabsq $0x61, %rax
    pushq %rax
    movabsq $0x73, %rax
    pushq %rax
    movabsq $0x6d, %rax
    pushq %rax
    movabsq $0x76, %rax
    pushq %rax
    movabsq $0x9, %rax
    pushq %rax
    popq %rcx
    popq %rdx
    popq %r8
    popq %r9
    subq $32, %rsp
    callq L_s_rawop_write
    addq $32, %rsp
    addq $8, %rsp
    addq $104, %rsp
    movl %eax, %eax
    pushq %rax
    popq %rax
    subq $8, %rsp
    movabsq $0x0, %rax
    pushq %rax
    movabsq $0x0, %rax
    pushq %rax
    movabsq $0x0, %rax
    pushq %rax
    movabsq $0x0, %rax
    pushq %rax
    movabsq $0x0, %rax
    pushq %rax
    movabsq $0x0, %rax
    pushq %rax
    movabsq $0x0, %rax
    pushq %rax
    movabsq $0x0, %rax
    pushq %rax
    movabsq $0x0, %rax
    pushq %rax
    movabsq $0x0, %rax
    pushq %rax
    movabsq $0x0, %rax
    pushq %rax
    movabsq $0x0, %rax
    pushq %rax
    movabsq $0x69, %rax
    pushq %rax
    movabsq $0x67, %rax
    pushq %rax
    movabsq $0x6c, %rax
    pushq %rax
    movabsq $0x63, %rax
    pushq %rax
    movabsq $0xa, %rax
    pushq %rax
    popq %rcx
    popq %rdx
    popq %r8
    popq %r9
    subq $32, %rsp
    callq L_s_rawop_write
    addq $32, %rsp
    addq $8, %rsp
    addq $104, %rsp
    movl %eax, %eax
    pushq %rax
    popq %rax
    subq $8, %rsp
    movabsq $0x0, %rax
    pushq %rax
    movabsq $0x0, %rax
    pushq %rax
    movabsq $0x0, %rax
    pushq %rax
    movabsq $0x0, %rax
    pushq %rax
    movabsq $0x0, %rax
    pushq %rax
    movabsq $0x0, %rax
    pushq %rax
    movabsq $0x0, %rax
    pushq %rax
    movabsq $0x0, %rax
    pushq %rax
    movabsq $0x0, %rax
    pushq %rax
    movabsq $0x0, %rax
    pushq %rax
    movabsq $0x0, %rax
    pushq %rax
    movabsq $0x0, %rax
    pushq %rax
    movabsq $0x69, %rax
    pushq %rax
    movabsq $0x67, %rax
    pushq %rax
    movabsq $0x74, %rax
    pushq %rax
    movabsq $0x73, %rax
    pushq %rax
    movabsq $0xb, %rax
    pushq %rax
    popq %rcx
    popq %rdx
    popq %r8
    popq %r9
    subq $32, %rsp
    callq L_s_rawop_write
    addq $32, %rsp
    addq $8, %rsp
    addq $104, %rsp
    movl %eax, %eax
    pushq %rax
    popq %rax
    subq $8, %rsp
    movabsq $0x0, %rax
    pushq %rax
    movabsq $0x0, %rax
    pushq %rax
    movabsq $0x0, %rax
    pushq %rax
    movabsq $0x0, %rax
    pushq %rax
    movabsq $0x0, %rax
    pushq %rax
    movabsq $0x0, %rax
    pushq %rax
    movabsq $0x0, %rax
    pushq %rax
    movabsq $0x0, %rax
    pushq %rax
    movabsq $0x0, %rax
    pushq %rax
    movabsq $0x0, %rax
    pushq %rax
    movabsq $0x76, %rax
    pushq %rax
    movabsq $0x62, %rax
    pushq %rax
    movabsq $0x74, %rax
    pushq %rax
    movabsq $0x65, %rax
    pushq %rax
    movabsq $0x73, %rax
    pushq %rax
    movabsq $0x78, %rax
    pushq %rax
    movabsq $0xc, %rax
    pushq %rax
    popq %rcx
    popq %rdx
    popq %r8
    popq %r9
    subq $32, %rsp
    callq L_s_rawop_write
    addq $32, %rsp
    addq $8, %rsp
    addq $104, %rsp
    movl %eax, %eax
    pushq %rax
    popq %rax
    movabsq $0xd, %rax
    pushq %rax
    popq %rax
    movl %eax, L_SEMA_RAWOP_COUNT(%rip)
    movabsq $0x0, %rax
    pushq %rax
    popq %rax
    movq %rbp, %rsp
    popq %rbp
    retq
    movq $0, %rax
    pushq %rax
    movq $0, %rax
    movq %rbp, %rsp
    popq %rbp
    retq
    .seh_endproc
    .section .iii.ring3,"n"
    .asciz "s_init_builtin_table_lower"
    .text
    .seh_proc L_s_init_builtin_table_lower
L_s_init_builtin_table_lower:
    pushq %rbp
    .seh_pushreg %rbp
    movq %rsp, %rbp
    .seh_setframe %rbp, 0
    subq $1024, %rsp
    .seh_stackalloc 1024
    .seh_endprologue
    subq $8, %rsp
    movabsq $0x0, %rax
    pushq %rax
    movabsq $0x0, %rax
    pushq %rax
    movabsq $0x0, %rax
    pushq %rax
    movabsq $0x0, %rax
    pushq %rax
    movabsq $0x0, %rax
    pushq %rax
    movabsq $0x0, %rax
    pushq %rax
    movabsq $0x0, %rax
    pushq %rax
    movabsq $0x0, %rax
    pushq %rax
    movabsq $0x0, %rax
    pushq %rax
    movabsq $0x0, %rax
    pushq %rax
    movabsq $0x0, %rax
    pushq %rax
    movabsq $0x0, %rax
    pushq %rax
    movabsq $0x64, %rax
    pushq %rax
    movabsq $0x70, %rax
    pushq %rax
    movabsq $0x72, %rax
    pushq %rax
    movabsq $0x69, %rax
    pushq %rax
    movabsq $0x0, %rax
    pushq %rax
    popq %rcx
    popq %rdx
    popq %r8
    popq %r9
    subq $32, %rsp
    callq L_s_builtin_write
    addq $32, %rsp
    addq $8, %rsp
    addq $104, %rsp
    movl %eax, %eax
    pushq %rax
    popq %rax
    subq $8, %rsp
    movabsq $0x0, %rax
    pushq %rax
    movabsq $0x0, %rax
    pushq %rax
    movabsq $0x0, %rax
    pushq %rax
    movabsq $0x0, %rax
    pushq %rax
    movabsq $0x0, %rax
    pushq %rax
    movabsq $0x0, %rax
    pushq %rax
    movabsq $0x0, %rax
    pushq %rax
    movabsq $0x0, %rax
    pushq %rax
    movabsq $0x0, %rax
    pushq %rax
    movabsq $0x6d, %rax
    pushq %rax
    movabsq $0x75, %rax
    pushq %rax
    movabsq $0x74, %rax
    pushq %rax
    movabsq $0x63, %rax
    pushq %rax
    movabsq $0x6e, %rax
    pushq %rax
    movabsq $0x61, %rax
    pushq %rax
    movabsq $0x73, %rax
    pushq %rax
    movabsq $0x1, %rax
    pushq %rax
    popq %rcx
    popq %rdx
    popq %r8
    popq %r9
    subq $32, %rsp
    callq L_s_builtin_write
    addq $32, %rsp
    addq $8, %rsp
    addq $104, %rsp
    movl %eax, %eax
    pushq %rax
    popq %rax
    subq $8, %rsp
    movabsq $0x0, %rax
    pushq %rax
    movabsq $0x0, %rax
    pushq %rax
    movabsq $0x0, %rax
    pushq %rax
    movabsq $0x0, %rax
    pushq %rax
    movabsq $0x0, %rax
    pushq %rax
    movabsq $0x0, %rax
    pushq %rax
    movabsq $0x0, %rax
    pushq %rax
    movabsq $0x0, %rax
    pushq %rax
    movabsq $0x0, %rax
    pushq %rax
    movabsq $0x0, %rax
    pushq %rax
    movabsq $0x0, %rax
    pushq %rax
    movabsq $0x65, %rax
    pushq %rax
    movabsq $0x73, %rax
    pushq %rax
    movabsq $0x61, %rax
    pushq %rax
    movabsq $0x68, %rax
    pushq %rax
    movabsq $0x70, %rax
    pushq %rax
    movabsq $0x2, %rax
    pushq %rax
    popq %rcx
    popq %rdx
    popq %r8
    popq %r9
    subq $32, %rsp
    callq L_s_builtin_write
    addq $32, %rsp
    addq $8, %rsp
    addq $104, %rsp
    movl %eax, %eax
    pushq %rax
    popq %rax
    subq $8, %rsp
    movabsq $0x0, %rax
    pushq %rax
    movabsq $0x0, %rax
    pushq %rax
    movabsq $0x0, %rax
    pushq %rax
    movabsq $0x0, %rax
    pushq %rax
    movabsq $0x0, %rax
    pushq %rax
    movabsq $0x0, %rax
    pushq %rax
    movabsq $0x0, %rax
    pushq %rax
    movabsq $0x72, %rax
    pushq %rax
    movabsq $0x73, %rax
    pushq %rax
    movabsq $0x6d, %rax
    pushq %rax
    movabsq $0x5f, %rax
    pushq %rax
    movabsq $0x63, %rax
    pushq %rax
    movabsq $0x69, %rax
    pushq %rax
    movabsq $0x67, %rax
    pushq %rax
    movabsq $0x61, %rax
    pushq %rax
    movabsq $0x6d, %rax
    pushq %rax
    movabsq $0x3, %rax
    pushq %rax
    popq %rcx
    popq %rdx
    popq %r8
    popq %r9
    subq $32, %rsp
    callq L_s_builtin_write
    addq $32, %rsp
    addq $8, %rsp
    addq $104, %rsp
    movl %eax, %eax
    pushq %rax
    popq %rax
    subq $8, %rsp
    movabsq $0x0, %rax
    pushq %rax
    movabsq $0x0, %rax
    pushq %rax
    movabsq $0x0, %rax
    pushq %rax
    movabsq $0x0, %rax
    pushq %rax
    movabsq $0x0, %rax
    pushq %rax
    movabsq $0x0, %rax
    pushq %rax
    movabsq $0x0, %rax
    pushq %rax
    movabsq $0x0, %rax
    pushq %rax
    movabsq $0x0, %rax
    pushq %rax
    movabsq $0x0, %rax
    pushq %rax
    movabsq $0x0, %rax
    pushq %rax
    movabsq $0x6c, %rax
    pushq %rax
    movabsq $0x74, %rax
    pushq %rax
    movabsq $0x63, %rax
    pushq %rax
    movabsq $0x6f, %rax
    pushq %rax
    movabsq $0x69, %rax
    pushq %rax
    movabsq $0x4, %rax
    pushq %rax
    popq %rcx
    popq %rdx
    popq %r8
    popq %r9
    subq $32, %rsp
    callq L_s_builtin_write
    addq $32, %rsp
    addq $8, %rsp
    addq $104, %rsp
    movl %eax, %eax
    pushq %rax
    popq %rax
    subq $8, %rsp
    movabsq $0x0, %rax
    pushq %rax
    movabsq $0x0, %rax
    pushq %rax
    movabsq $0x0, %rax
    pushq %rax
    movabsq $0x0, %rax
    pushq %rax
    movabsq $0x0, %rax
    pushq %rax
    movabsq $0x0, %rax
    pushq %rax
    movabsq $0x0, %rax
    pushq %rax
    movabsq $0x0, %rax
    pushq %rax
    movabsq $0x0, %rax
    pushq %rax
    movabsq $0x0, %rax
    pushq %rax
    movabsq $0x0, %rax
    pushq %rax
    movabsq $0x6e, %rax
    pushq %rax
    movabsq $0x75, %rax
    pushq %rax
    movabsq $0x72, %rax
    pushq %rax
    movabsq $0x6d, %rax
    pushq %rax
    movabsq $0x76, %rax
    pushq %rax
    movabsq $0x5, %rax
    pushq %rax
    popq %rcx
    popq %rdx
    popq %r8
    popq %r9
    subq $32, %rsp
    callq L_s_builtin_write
    addq $32, %rsp
    addq $8, %rsp
    addq $104, %rsp
    movl %eax, %eax
    pushq %rax
    popq %rax
    subq $8, %rsp
    movabsq $0x0, %rax
    pushq %rax
    movabsq $0x0, %rax
    pushq %rax
    movabsq $0x0, %rax
    pushq %rax
    movabsq $0x0, %rax
    pushq %rax
    movabsq $0x0, %rax
    pushq %rax
    movabsq $0x0, %rax
    pushq %rax
    movabsq $0x0, %rax
    pushq %rax
    movabsq $0x0, %rax
    pushq %rax
    movabsq $0x0, %rax
    pushq %rax
    movabsq $0x79, %rax
    pushq %rax
    movabsq $0x74, %rax
    pushq %rax
    movabsq $0x69, %rax
    pushq %rax
    movabsq $0x6e, %rax
    pushq %rax
    movabsq $0x69, %rax
    pushq %rax
    movabsq $0x72, %rax
    pushq %rax
    movabsq $0x74, %rax
    pushq %rax
    movabsq $0x6, %rax
    pushq %rax
    popq %rcx
    popq %rdx
    popq %r8
    popq %r9
    subq $32, %rsp
    callq L_s_builtin_write
    addq $32, %rsp
    addq $8, %rsp
    addq $104, %rsp
    movl %eax, %eax
    pushq %rax
    popq %rax
    subq $8, %rsp
    movabsq $0x0, %rax
    pushq %rax
    movabsq $0x0, %rax
    pushq %rax
    movabsq $0x0, %rax
    pushq %rax
    movabsq $0x0, %rax
    pushq %rax
    movabsq $0x0, %rax
    pushq %rax
    movabsq $0x0, %rax
    pushq %rax
    movabsq $0x0, %rax
    pushq %rax
    movabsq $0x0, %rax
    pushq %rax
    movabsq $0x74, %rax
    pushq %rax
    movabsq $0x73, %rax
    pushq %rax
    movabsq $0x79, %rax
    pushq %rax
    movabsq $0x6c, %rax
    pushq %rax
    movabsq $0x61, %rax
    pushq %rax
    movabsq $0x74, %rax
    pushq %rax
    movabsq $0x61, %rax
    pushq %rax
    movabsq $0x63, %rax
    pushq %rax
    movabsq $0x7, %rax
    pushq %rax
    popq %rcx
    popq %rdx
    popq %r8
    popq %r9
    subq $32, %rsp
    callq L_s_builtin_write
    addq $32, %rsp
    addq $8, %rsp
    addq $104, %rsp
    movl %eax, %eax
    pushq %rax
    popq %rax
    subq $8, %rsp
    movabsq $0x0, %rax
    pushq %rax
    movabsq $0x0, %rax
    pushq %rax
    movabsq $0x0, %rax
    pushq %rax
    movabsq $0x0, %rax
    pushq %rax
    movabsq $0x0, %rax
    pushq %rax
    movabsq $0x0, %rax
    pushq %rax
    movabsq $0x0, %rax
    pushq %rax
    movabsq $0x65, %rax
    pushq %rax
    movabsq $0x76, %rax
    pushq %rax
    movabsq $0x69, %rax
    pushq %rax
    movabsq $0x74, %rax
    pushq %rax
    movabsq $0x61, %rax
    pushq %rax
    movabsq $0x72, %rax
    pushq %rax
    movabsq $0x72, %rax
    pushq %rax
    movabsq $0x61, %rax
    pushq %rax
    movabsq $0x6e, %rax
    pushq %rax
    movabsq $0x8, %rax
    pushq %rax
    popq %rcx
    popq %rdx
    popq %r8
    popq %r9
    subq $32, %rsp
    callq L_s_builtin_write
    addq $32, %rsp
    addq $8, %rsp
    addq $104, %rsp
    movl %eax, %eax
    pushq %rax
    popq %rax
    subq $8, %rsp
    movabsq $0x0, %rax
    pushq %rax
    movabsq $0x0, %rax
    pushq %rax
    movabsq $0x0, %rax
    pushq %rax
    movabsq $0x0, %rax
    pushq %rax
    movabsq $0x0, %rax
    pushq %rax
    movabsq $0x0, %rax
    pushq %rax
    movabsq $0x0, %rax
    pushq %rax
    movabsq $0x0, %rax
    pushq %rax
    movabsq $0x0, %rax
    pushq %rax
    movabsq $0x0, %rax
    pushq %rax
    movabsq $0x0, %rax
    pushq %rax
    movabsq $0x64, %rax
    pushq %rax
    movabsq $0x6e, %rax
    pushq %rax
    movabsq $0x65, %rax
    pushq %rax
    movabsq $0x6d, %rax
    pushq %rax
    movabsq $0x61, %rax
    pushq %rax
    movabsq $0x9, %rax
    pushq %rax
    popq %rcx
    popq %rdx
    popq %r8
    popq %r9
    subq $32, %rsp
    callq L_s_builtin_write
    addq $32, %rsp
    addq $8, %rsp
    addq $104, %rsp
    movl %eax, %eax
    pushq %rax
    popq %rax
    subq $8, %rsp
    movabsq $0x0, %rax
    pushq %rax
    movabsq $0x0, %rax
    pushq %rax
    movabsq $0x0, %rax
    pushq %rax
    movabsq $0x0, %rax
    pushq %rax
    movabsq $0x0, %rax
    pushq %rax
    movabsq $0x0, %rax
    pushq %rax
    movabsq $0x0, %rax
    pushq %rax
    movabsq $0x0, %rax
    pushq %rax
    movabsq $0x0, %rax
    pushq %rax
    movabsq $0x0, %rax
    pushq %rax
    movabsq $0x0, %rax
    pushq %rax
    movabsq $0x0, %rax
    pushq %rax
    movabsq $0x65, %rax
    pushq %rax
    movabsq $0x75, %rax
    pushq %rax
    movabsq $0x72, %rax
    pushq %rax
    movabsq $0x74, %rax
    pushq %rax
    movabsq $0xa, %rax
    pushq %rax
    popq %rcx
    popq %rdx
    popq %r8
    popq %r9
    subq $32, %rsp
    callq L_s_builtin_write
    addq $32, %rsp
    addq $8, %rsp
    addq $104, %rsp
    movl %eax, %eax
    pushq %rax
    popq %rax
    subq $8, %rsp
    movabsq $0x0, %rax
    pushq %rax
    movabsq $0x0, %rax
    pushq %rax
    movabsq $0x0, %rax
    pushq %rax
    movabsq $0x0, %rax
    pushq %rax
    movabsq $0x0, %rax
    pushq %rax
    movabsq $0x0, %rax
    pushq %rax
    movabsq $0x0, %rax
    pushq %rax
    movabsq $0x0, %rax
    pushq %rax
    movabsq $0x0, %rax
    pushq %rax
    movabsq $0x0, %rax
    pushq %rax
    movabsq $0x0, %rax
    pushq %rax
    movabsq $0x65, %rax
    pushq %rax
    movabsq $0x73, %rax
    pushq %rax
    movabsq $0x6c, %rax
    pushq %rax
    movabsq $0x61, %rax
    pushq %rax
    movabsq $0x66, %rax
    pushq %rax
    movabsq $0xb, %rax
    pushq %rax
    popq %rcx
    popq %rdx
    popq %r8
    popq %r9
    subq $32, %rsp
    callq L_s_builtin_write
    addq $32, %rsp
    addq $8, %rsp
    addq $104, %rsp
    movl %eax, %eax
    pushq %rax
    popq %rax
    subq $8, %rsp
    movabsq $0x0, %rax
    pushq %rax
    movabsq $0x0, %rax
    pushq %rax
    movabsq $0x0, %rax
    pushq %rax
    movabsq $0x0, %rax
    pushq %rax
    movabsq $0x0, %rax
    pushq %rax
    movabsq $0x0, %rax
    pushq %rax
    movabsq $0x0, %rax
    pushq %rax
    movabsq $0x0, %rax
    pushq %rax
    movabsq $0x0, %rax
    pushq %rax
    movabsq $0x74, %rax
    pushq %rax
    movabsq $0x6e, %rax
    pushq %rax
    movabsq $0x65, %rax
    pushq %rax
    movabsq $0x72, %rax
    pushq %rax
    movabsq $0x72, %rax
    pushq %rax
    movabsq $0x75, %rax
    pushq %rax
    movabsq $0x63, %rax
    pushq %rax
    movabsq $0xc, %rax
    pushq %rax
    popq %rcx
    popq %rdx
    popq %r8
    popq %r9
    subq $32, %rsp
    callq L_s_builtin_write
    addq $32, %rsp
    addq $8, %rsp
    addq $104, %rsp
    movl %eax, %eax
    pushq %rax
    popq %rax
    movabsq $0x0, %rax
    pushq %rax
    popq %rax
    movq %rbp, %rsp
    popq %rbp
    retq
    movq $0, %rax
    pushq %rax
    movq $0, %rax
    movq %rbp, %rsp
    popq %rbp
    retq
    .seh_endproc
    .section .iii.ring3,"n"
    .asciz "s_init_builtin_table_types"
    .text
    .seh_proc L_s_init_builtin_table_types
L_s_init_builtin_table_types:
    pushq %rbp
    .seh_pushreg %rbp
    movq %rsp, %rbp
    .seh_setframe %rbp, 0
    subq $1024, %rsp
    .seh_stackalloc 1024
    .seh_endprologue
    subq $8, %rsp
    movabsq $0x0, %rax
    pushq %rax
    movabsq $0x0, %rax
    pushq %rax
    movabsq $0x0, %rax
    pushq %rax
    movabsq $0x0, %rax
    pushq %rax
    movabsq $0x0, %rax
    pushq %rax
    movabsq $0x0, %rax
    pushq %rax
    movabsq $0x0, %rax
    pushq %rax
    movabsq $0x0, %rax
    pushq %rax
    movabsq $0x0, %rax
    pushq %rax
    movabsq $0x0, %rax
    pushq %rax
    movabsq $0x0, %rax
    pushq %rax
    movabsq $0x0, %rax
    pushq %rax
    movabsq $0x0, %rax
    pushq %rax
    movabsq $0x0, %rax
    pushq %rax
    movabsq $0x38, %rax
    pushq %rax
    movabsq $0x75, %rax
    pushq %rax
    movabsq $0xd, %rax
    pushq %rax
    popq %rcx
    popq %rdx
    popq %r8
    popq %r9
    subq $32, %rsp
    callq L_s_builtin_write
    addq $32, %rsp
    addq $8, %rsp
    addq $104, %rsp
    movl %eax, %eax
    pushq %rax
    popq %rax
    subq $8, %rsp
    movabsq $0x0, %rax
    pushq %rax
    movabsq $0x0, %rax
    pushq %rax
    movabsq $0x0, %rax
    pushq %rax
    movabsq $0x0, %rax
    pushq %rax
    movabsq $0x0, %rax
    pushq %rax
    movabsq $0x0, %rax
    pushq %rax
    movabsq $0x0, %rax
    pushq %rax
    movabsq $0x0, %rax
    pushq %rax
    movabsq $0x0, %rax
    pushq %rax
    movabsq $0x0, %rax
    pushq %rax
    movabsq $0x0, %rax
    pushq %rax
    movabsq $0x0, %rax
    pushq %rax
    movabsq $0x0, %rax
    pushq %rax
    movabsq $0x36, %rax
    pushq %rax
    movabsq $0x31, %rax
    pushq %rax
    movabsq $0x75, %rax
    pushq %rax
    movabsq $0xe, %rax
    pushq %rax
    popq %rcx
    popq %rdx
    popq %r8
    popq %r9
    subq $32, %rsp
    callq L_s_builtin_write
    addq $32, %rsp
    addq $8, %rsp
    addq $104, %rsp
    movl %eax, %eax
    pushq %rax
    popq %rax
    subq $8, %rsp
    movabsq $0x0, %rax
    pushq %rax
    movabsq $0x0, %rax
    pushq %rax
    movabsq $0x0, %rax
    pushq %rax
    movabsq $0x0, %rax
    pushq %rax
    movabsq $0x0, %rax
    pushq %rax
    movabsq $0x0, %rax
    pushq %rax
    movabsq $0x0, %rax
    pushq %rax
    movabsq $0x0, %rax
    pushq %rax
    movabsq $0x0, %rax
    pushq %rax
    movabsq $0x0, %rax
    pushq %rax
    movabsq $0x0, %rax
    pushq %rax
    movabsq $0x0, %rax
    pushq %rax
    movabsq $0x0, %rax
    pushq %rax
    movabsq $0x32, %rax
    pushq %rax
    movabsq $0x33, %rax
    pushq %rax
    movabsq $0x75, %rax
    pushq %rax
    movabsq $0xf, %rax
    pushq %rax
    popq %rcx
    popq %rdx
    popq %r8
    popq %r9
    subq $32, %rsp
    callq L_s_builtin_write
    addq $32, %rsp
    addq $8, %rsp
    addq $104, %rsp
    movl %eax, %eax
    pushq %rax
    popq %rax
    subq $8, %rsp
    movabsq $0x0, %rax
    pushq %rax
    movabsq $0x0, %rax
    pushq %rax
    movabsq $0x0, %rax
    pushq %rax
    movabsq $0x0, %rax
    pushq %rax
    movabsq $0x0, %rax
    pushq %rax
    movabsq $0x0, %rax
    pushq %rax
    movabsq $0x0, %rax
    pushq %rax
    movabsq $0x0, %rax
    pushq %rax
    movabsq $0x0, %rax
    pushq %rax
    movabsq $0x0, %rax
    pushq %rax
    movabsq $0x0, %rax
    pushq %rax
    movabsq $0x0, %rax
    pushq %rax
    movabsq $0x0, %rax
    pushq %rax
    movabsq $0x34, %rax
    pushq %rax
    movabsq $0x36, %rax
    pushq %rax
    movabsq $0x75, %rax
    pushq %rax
    movabsq $0x10, %rax
    pushq %rax
    popq %rcx
    popq %rdx
    popq %r8
    popq %r9
    subq $32, %rsp
    callq L_s_builtin_write
    addq $32, %rsp
    addq $8, %rsp
    addq $104, %rsp
    movl %eax, %eax
    pushq %rax
    popq %rax
    subq $8, %rsp
    movabsq $0x0, %rax
    pushq %rax
    movabsq $0x0, %rax
    pushq %rax
    movabsq $0x0, %rax
    pushq %rax
    movabsq $0x0, %rax
    pushq %rax
    movabsq $0x0, %rax
    pushq %rax
    movabsq $0x0, %rax
    pushq %rax
    movabsq $0x0, %rax
    pushq %rax
    movabsq $0x0, %rax
    pushq %rax
    movabsq $0x0, %rax
    pushq %rax
    movabsq $0x0, %rax
    pushq %rax
    movabsq $0x0, %rax
    pushq %rax
    movabsq $0x0, %rax
    pushq %rax
    movabsq $0x0, %rax
    pushq %rax
    movabsq $0x0, %rax
    pushq %rax
    movabsq $0x38, %rax
    pushq %rax
    movabsq $0x69, %rax
    pushq %rax
    movabsq $0x11, %rax
    pushq %rax
    popq %rcx
    popq %rdx
    popq %r8
    popq %r9
    subq $32, %rsp
    callq L_s_builtin_write
    addq $32, %rsp
    addq $8, %rsp
    addq $104, %rsp
    movl %eax, %eax
    pushq %rax
    popq %rax
    subq $8, %rsp
    movabsq $0x0, %rax
    pushq %rax
    movabsq $0x0, %rax
    pushq %rax
    movabsq $0x0, %rax
    pushq %rax
    movabsq $0x0, %rax
    pushq %rax
    movabsq $0x0, %rax
    pushq %rax
    movabsq $0x0, %rax
    pushq %rax
    movabsq $0x0, %rax
    pushq %rax
    movabsq $0x0, %rax
    pushq %rax
    movabsq $0x0, %rax
    pushq %rax
    movabsq $0x0, %rax
    pushq %rax
    movabsq $0x0, %rax
    pushq %rax
    movabsq $0x0, %rax
    pushq %rax
    movabsq $0x0, %rax
    pushq %rax
    movabsq $0x36, %rax
    pushq %rax
    movabsq $0x31, %rax
    pushq %rax
    movabsq $0x69, %rax
    pushq %rax
    movabsq $0x12, %rax
    pushq %rax
    popq %rcx
    popq %rdx
    popq %r8
    popq %r9
    subq $32, %rsp
    callq L_s_builtin_write
    addq $32, %rsp
    addq $8, %rsp
    addq $104, %rsp
    movl %eax, %eax
    pushq %rax
    popq %rax
    subq $8, %rsp
    movabsq $0x0, %rax
    pushq %rax
    movabsq $0x0, %rax
    pushq %rax
    movabsq $0x0, %rax
    pushq %rax
    movabsq $0x0, %rax
    pushq %rax
    movabsq $0x0, %rax
    pushq %rax
    movabsq $0x0, %rax
    pushq %rax
    movabsq $0x0, %rax
    pushq %rax
    movabsq $0x0, %rax
    pushq %rax
    movabsq $0x0, %rax
    pushq %rax
    movabsq $0x0, %rax
    pushq %rax
    movabsq $0x0, %rax
    pushq %rax
    movabsq $0x0, %rax
    pushq %rax
    movabsq $0x0, %rax
    pushq %rax
    movabsq $0x32, %rax
    pushq %rax
    movabsq $0x33, %rax
    pushq %rax
    movabsq $0x69, %rax
    pushq %rax
    movabsq $0x13, %rax
    pushq %rax
    popq %rcx
    popq %rdx
    popq %r8
    popq %r9
    subq $32, %rsp
    callq L_s_builtin_write
    addq $32, %rsp
    addq $8, %rsp
    addq $104, %rsp
    movl %eax, %eax
    pushq %rax
    popq %rax
    subq $8, %rsp
    movabsq $0x0, %rax
    pushq %rax
    movabsq $0x0, %rax
    pushq %rax
    movabsq $0x0, %rax
    pushq %rax
    movabsq $0x0, %rax
    pushq %rax
    movabsq $0x0, %rax
    pushq %rax
    movabsq $0x0, %rax
    pushq %rax
    movabsq $0x0, %rax
    pushq %rax
    movabsq $0x0, %rax
    pushq %rax
    movabsq $0x0, %rax
    pushq %rax
    movabsq $0x0, %rax
    pushq %rax
    movabsq $0x0, %rax
    pushq %rax
    movabsq $0x0, %rax
    pushq %rax
    movabsq $0x0, %rax
    pushq %rax
    movabsq $0x34, %rax
    pushq %rax
    movabsq $0x36, %rax
    pushq %rax
    movabsq $0x69, %rax
    pushq %rax
    movabsq $0x14, %rax
    pushq %rax
    popq %rcx
    popq %rdx
    popq %r8
    popq %r9
    subq $32, %rsp
    callq L_s_builtin_write
    addq $32, %rsp
    addq $8, %rsp
    addq $104, %rsp
    movl %eax, %eax
    pushq %rax
    popq %rax
    subq $8, %rsp
    movabsq $0x0, %rax
    pushq %rax
    movabsq $0x0, %rax
    pushq %rax
    movabsq $0x0, %rax
    pushq %rax
    movabsq $0x0, %rax
    pushq %rax
    movabsq $0x0, %rax
    pushq %rax
    movabsq $0x0, %rax
    pushq %rax
    movabsq $0x0, %rax
    pushq %rax
    movabsq $0x0, %rax
    pushq %rax
    movabsq $0x0, %rax
    pushq %rax
    movabsq $0x0, %rax
    pushq %rax
    movabsq $0x0, %rax
    pushq %rax
    movabsq $0x0, %rax
    pushq %rax
    movabsq $0x6c, %rax
    pushq %rax
    movabsq $0x6f, %rax
    pushq %rax
    movabsq $0x6f, %rax
    pushq %rax
    movabsq $0x62, %rax
    pushq %rax
    movabsq $0x15, %rax
    pushq %rax
    popq %rcx
    popq %rdx
    popq %r8
    popq %r9
    subq $32, %rsp
    callq L_s_builtin_write
    addq $32, %rsp
    addq $8, %rsp
    addq $104, %rsp
    movl %eax, %eax
    pushq %rax
    popq %rax
    subq $8, %rsp
    movabsq $0x0, %rax
    pushq %rax
    movabsq $0x0, %rax
    pushq %rax
    movabsq $0x0, %rax
    pushq %rax
    movabsq $0x0, %rax
    pushq %rax
    movabsq $0x0, %rax
    pushq %rax
    movabsq $0x0, %rax
    pushq %rax
    movabsq $0x0, %rax
    pushq %rax
    movabsq $0x0, %rax
    pushq %rax
    movabsq $0x0, %rax
    pushq %rax
    movabsq $0x0, %rax
    pushq %rax
    movabsq $0x0, %rax
    pushq %rax
    movabsq $0x0, %rax
    pushq %rax
    movabsq $0x0, %rax
    pushq %rax
    movabsq $0x34, %rax
    pushq %rax
    movabsq $0x31, %rax
    pushq %rax
    movabsq $0x71, %rax
    pushq %rax
    movabsq $0x16, %rax
    pushq %rax
    popq %rcx
    popq %rdx
    popq %r8
    popq %r9
    subq $32, %rsp
    callq L_s_builtin_write
    addq $32, %rsp
    addq $8, %rsp
    addq $104, %rsp
    movl %eax, %eax
    pushq %rax
    popq %rax
    subq $8, %rsp
    movabsq $0x0, %rax
    pushq %rax
    movabsq $0x0, %rax
    pushq %rax
    movabsq $0x0, %rax
    pushq %rax
    movabsq $0x0, %rax
    pushq %rax
    movabsq $0x0, %rax
    pushq %rax
    movabsq $0x0, %rax
    pushq %rax
    movabsq $0x0, %rax
    pushq %rax
    movabsq $0x0, %rax
    pushq %rax
    movabsq $0x0, %rax
    pushq %rax
    movabsq $0x73, %rax
    pushq %rax
    movabsq $0x73, %rax
    pushq %rax
    movabsq $0x65, %rax
    pushq %rax
    movabsq $0x6e, %rax
    pushq %rax
    movabsq $0x74, %rax
    pushq %rax
    movabsq $0x69, %rax
    pushq %rax
    movabsq $0x57, %rax
    pushq %rax
    movabsq $0x17, %rax
    pushq %rax
    popq %rcx
    popq %rdx
    popq %r8
    popq %r9
    subq $32, %rsp
    callq L_s_builtin_write
    addq $32, %rsp
    addq $8, %rsp
    addq $104, %rsp
    movl %eax, %eax
    pushq %rax
    popq %rax
    subq $8, %rsp
    movabsq $0x0, %rax
    pushq %rax
    movabsq $0x0, %rax
    pushq %rax
    movabsq $0x0, %rax
    pushq %rax
    movabsq $0x0, %rax
    pushq %rax
    movabsq $0x0, %rax
    pushq %rax
    movabsq $0x0, %rax
    pushq %rax
    movabsq $0x0, %rax
    pushq %rax
    movabsq $0x0, %rax
    pushq %rax
    movabsq $0x0, %rax
    pushq %rax
    movabsq $0x0, %rax
    pushq %rax
    movabsq $0x0, %rax
    pushq %rax
    movabsq $0x64, %rax
    pushq %rax
    movabsq $0x61, %rax
    pushq %rax
    movabsq $0x78, %rax
    pushq %rax
    movabsq $0x65, %rax
    pushq %rax
    movabsq $0x48, %rax
    pushq %rax
    movabsq $0x18, %rax
    pushq %rax
    popq %rcx
    popq %rdx
    popq %r8
    popq %r9
    subq $32, %rsp
    callq L_s_builtin_write
    addq $32, %rsp
    addq $8, %rsp
    addq $104, %rsp
    movl %eax, %eax
    pushq %rax
    popq %rax
    subq $8, %rsp
    movabsq $0x0, %rax
    pushq %rax
    movabsq $0x0, %rax
    pushq %rax
    movabsq $0x0, %rax
    pushq %rax
    movabsq $0x0, %rax
    pushq %rax
    movabsq $0x0, %rax
    pushq %rax
    movabsq $0x0, %rax
    pushq %rax
    movabsq $0x0, %rax
    pushq %rax
    movabsq $0x0, %rax
    pushq %rax
    movabsq $0x0, %rax
    pushq %rax
    movabsq $0x0, %rax
    pushq %rax
    movabsq $0x0, %rax
    pushq %rax
    movabsq $0x65, %rax
    pushq %rax
    movabsq $0x73, %rax
    pushq %rax
    movabsq $0x61, %rax
    pushq %rax
    movabsq $0x68, %rax
    pushq %rax
    movabsq $0x50, %rax
    pushq %rax
    movabsq $0x19, %rax
    pushq %rax
    popq %rcx
    popq %rdx
    popq %r8
    popq %r9
    subq $32, %rsp
    callq L_s_builtin_write
    addq $32, %rsp
    addq $8, %rsp
    addq $104, %rsp
    movl %eax, %eax
    pushq %rax
    popq %rax
    subq $8, %rsp
    movabsq $0x0, %rax
    pushq %rax
    movabsq $0x0, %rax
    pushq %rax
    movabsq $0x0, %rax
    pushq %rax
    movabsq $0x0, %rax
    pushq %rax
    movabsq $0x0, %rax
    pushq %rax
    movabsq $0x0, %rax
    pushq %rax
    movabsq $0x0, %rax
    pushq %rax
    movabsq $0x0, %rax
    pushq %rax
    movabsq $0x0, %rax
    pushq %rax
    movabsq $0x0, %rax
    pushq %rax
    movabsq $0x0, %rax
    pushq %rax
    movabsq $0x68, %rax
    pushq %rax
    movabsq $0x70, %rax
    pushq %rax
    movabsq $0x79, %rax
    pushq %rax
    movabsq $0x6c, %rax
    pushq %rax
    movabsq $0x47, %rax
    pushq %rax
    movabsq $0x1a, %rax
    pushq %rax
    popq %rcx
    popq %rdx
    popq %r8
    popq %r9
    subq $32, %rsp
    callq L_s_builtin_write
    addq $32, %rsp
    addq $8, %rsp
    addq $104, %rsp
    movl %eax, %eax
    pushq %rax
    popq %rax
    subq $8, %rsp
    movabsq $0x0, %rax
    pushq %rax
    movabsq $0x0, %rax
    pushq %rax
    movabsq $0x0, %rax
    pushq %rax
    movabsq $0x0, %rax
    pushq %rax
    movabsq $0x0, %rax
    pushq %rax
    movabsq $0x0, %rax
    pushq %rax
    movabsq $0x0, %rax
    pushq %rax
    movabsq $0x0, %rax
    pushq %rax
    movabsq $0x0, %rax
    pushq %rax
    movabsq $0x0, %rax
    pushq %rax
    movabsq $0x0, %rax
    pushq %rax
    movabsq $0x68, %rax
    pushq %rax
    movabsq $0x73, %rax
    pushq %rax
    movabsq $0x61, %rax
    pushq %rax
    movabsq $0x68, %rax
    pushq %rax
    movabsq $0x6d, %rax
    pushq %rax
    movabsq $0x1b, %rax
    pushq %rax
    popq %rcx
    popq %rdx
    popq %r8
    popq %r9
    subq $32, %rsp
    callq L_s_builtin_write
    addq $32, %rsp
    addq $8, %rsp
    addq $104, %rsp
    movl %eax, %eax
    pushq %rax
    popq %rax
    subq $8, %rsp
    movabsq $0x0, %rax
    pushq %rax
    movabsq $0x0, %rax
    pushq %rax
    movabsq $0x0, %rax
    pushq %rax
    movabsq $0x0, %rax
    pushq %rax
    movabsq $0x0, %rax
    pushq %rax
    movabsq $0x0, %rax
    pushq %rax
    movabsq $0x0, %rax
    pushq %rax
    movabsq $0x0, %rax
    pushq %rax
    movabsq $0x0, %rax
    pushq %rax
    movabsq $0x0, %rax
    pushq %rax
    movabsq $0x0, %rax
    pushq %rax
    movabsq $0x65, %rax
    pushq %rax
    movabsq $0x67, %rax
    pushq %rax
    movabsq $0x6e, %rax
    pushq %rax
    movabsq $0x61, %rax
    pushq %rax
    movabsq $0x52, %rax
    pushq %rax
    movabsq $0x1c, %rax
    pushq %rax
    popq %rcx
    popq %rdx
    popq %r8
    popq %r9
    subq $32, %rsp
    callq L_s_builtin_write
    addq $32, %rsp
    addq $8, %rsp
    addq $104, %rsp
    movl %eax, %eax
    pushq %rax
    popq %rax
    movabsq $0x1d, %rax
    pushq %rax
    popq %rax
    movl %eax, L_SEMA_BUILTIN_COUNT(%rip)
    movabsq $0x0, %rax
    pushq %rax
    popq %rax
    movq %rbp, %rsp
    popq %rbp
    retq
    movq $0, %rax
    pushq %rax
    movq $0, %rax
    movq %rbp, %rsp
    popq %rbp
    retq
    .seh_endproc
    .section .iii.ring3,"n"
    .asciz "s_init_all_tables"
    .text
    .seh_proc L_s_init_all_tables
L_s_init_all_tables:
    pushq %rbp
    .seh_pushreg %rbp
    movq %rsp, %rbp
    .seh_setframe %rbp, 0
    subq $1024, %rsp
    .seh_stackalloc 1024
    .seh_endprologue
    movzbq L_SEMA_INIT(%rip), %rax
    pushq %rax
    movabsq $0x1, %rax
    pushq %rax
    popq %rcx
    popq %rax
    cmpq %rcx, %rax
    sete %al
    movzbq %al, %rax
    pushq %rax
    popq %rax
    testq %rax, %rax
    jz L_if_end_153
    movabsq $0x0, %rax
    pushq %rax
    popq %rax
    movq %rbp, %rsp
    popq %rbp
    retq
    movq $0, %rax
    pushq %rax
    popq %rax
L_if_end_153:
    subq $32, %rsp
    callq L_s_init_ename_table
    addq $32, %rsp
    movl %eax, %eax
    pushq %rax
    popq %rax
    subq $32, %rsp
    callq L_s_init_irpd_table
    addq $32, %rsp
    movl %eax, %eax
    pushq %rax
    popq %rax
    subq $32, %rsp
    callq L_s_init_pfs_table
    addq $32, %rsp
    movl %eax, %eax
    pushq %rax
    popq %rax
    subq $32, %rsp
    callq L_s_init_rawop_table
    addq $32, %rsp
    movl %eax, %eax
    pushq %rax
    popq %rax
    subq $32, %rsp
    callq L_s_init_builtin_table_lower
    addq $32, %rsp
    movl %eax, %eax
    pushq %rax
    popq %rax
    subq $32, %rsp
    callq L_s_init_builtin_table_types
    addq $32, %rsp
    movl %eax, %eax
    pushq %rax
    popq %rax
    movabsq $0x1, %rax
    pushq %rax
    popq %rax
    movb %al, L_SEMA_INIT(%rip)
    movabsq $0x0, %rax
    pushq %rax
    popq %rax
    movq %rbp, %rsp
    popq %rbp
    retq
    movq $0, %rax
    pushq %rax
    movq $0, %rax
    movq %rbp, %rsp
    popq %rbp
    retq
    .seh_endproc
    .section .iii.ring3,"n"
    .asciz "s_src_eq_irpd"
    .text
    .seh_proc L_s_src_eq_irpd
L_s_src_eq_irpd:
    pushq %rbp
    .seh_pushreg %rbp
    movq %rsp, %rbp
    .seh_setframe %rbp, 0
    subq $1024, %rsp
    .seh_stackalloc 1024
    .seh_endprologue
    movq %rcx, -8(%rbp)
    movq %rdx, -16(%rbp)
    movq %r8, -24(%rbp)
    movl -16(%rbp), %eax
    pushq %rax
    leaq L_SEMA_IRPD_LEN(%rip), %rax
    pushq %rax
    movl -24(%rbp), %eax
    pushq %rax
    popq %rcx
    popq %rax
    movl (%rax,%rcx,4), %eax
    pushq %rax
    popq %rcx
    popq %rax
    cmpq %rcx, %rax
    setne %al
    movzbq %al, %rax
    pushq %rax
    popq %rax
    testq %rax, %rax
    jz L_if_end_155
    movabsq $0x0, %rax
    pushq %rax
    popq %rax
    movq %rbp, %rsp
    popq %rbp
    retq
    movq $0, %rax
    pushq %rax
    popq %rax
L_if_end_155:
    movq L_SEMA_AST(%rip), %rax
    pushq %rax
    popq %rcx
    subq $32, %rsp
    callq iii_ast_source_buf
    addq $32, %rsp
    pushq %rax
    popq %rax
    movq %rax, -32(%rbp)
    leaq L_SEMA_IRPD_BUF(%rip), %rax
    pushq %rax
    popq %rax
    pushq %rax
    leaq L_SEMA_IRPD_OFF(%rip), %rax
    pushq %rax
    movl -24(%rbp), %eax
    pushq %rax
    popq %rcx
    popq %rax
    movl (%rax,%rcx,4), %eax
    pushq %rax
    popq %rax
    pushq %rax
    popq %rcx
    popq %rax
    addq %rcx, %rax
    pushq %rax
    popq %rax
    movq %rax, -40(%rbp)
    movabsq $0x0, %rax
    pushq %rax
    popq %rax
    movq %rax, -48(%rbp)
    movabsq $0x1, %rax
    pushq %rax
    popq %rax
    movq %rax, -56(%rbp)
L_loop_top_156:
    movl -48(%rbp), %eax
    pushq %rax
    movl -16(%rbp), %eax
    pushq %rax
    popq %rcx
    popq %rax
    cmpq %rcx, %rax
    setb %al
    movzbq %al, %rax
    pushq %rax
    popq %rax
    testq %rax, %rax
    jz L_loop_end_157
    movq -32(%rbp), %rax
    pushq %rax
    movl -8(%rbp), %eax
    pushq %rax
    movl -48(%rbp), %eax
    pushq %rax
    popq %rcx
    popq %rax
    addq %rcx, %rax
    movl %eax, %eax
    pushq %rax
    popq %rax
    pushq %rax
    popq %rcx
    popq %rax
    addq %rcx, %rax
    pushq %rax
    popq %rcx
    subq $32, %rsp
    callq L_s_load_u8
    addq $32, %rsp
    movl %eax, %eax
    pushq %rax
    popq %rax
    movq %rax, -64(%rbp)
    movq -40(%rbp), %rax
    pushq %rax
    movl -48(%rbp), %eax
    pushq %rax
    popq %rax
    pushq %rax
    popq %rcx
    popq %rax
    addq %rcx, %rax
    pushq %rax
    popq %rcx
    subq $32, %rsp
    callq L_s_load_u8
    addq $32, %rsp
    movl %eax, %eax
    pushq %rax
    popq %rax
    movq %rax, -72(%rbp)
    movl -64(%rbp), %eax
    pushq %rax
    movl -72(%rbp), %eax
    pushq %rax
    popq %rcx
    popq %rax
    cmpq %rcx, %rax
    setne %al
    movzbq %al, %rax
    pushq %rax
    popq %rax
    testq %rax, %rax
    jz L_if_end_159
    movabsq $0x0, %rax
    pushq %rax
    popq %rax
    movq %rax, -56(%rbp)
    movl -16(%rbp), %eax
    pushq %rax
    popq %rax
    movq %rax, -48(%rbp)
    movq $0, %rax
    pushq %rax
    popq %rax
L_if_end_159:
    movl -48(%rbp), %eax
    pushq %rax
    movabsq $0x1, %rax
    pushq %rax
    popq %rcx
    popq %rax
    addq %rcx, %rax
    movl %eax, %eax
    pushq %rax
    popq %rax
    movq %rax, -48(%rbp)
    movq $0, %rax
    pushq %rax
    popq %rax
    jmp L_loop_top_156
L_loop_end_157:
    movl -56(%rbp), %eax
    pushq %rax
    popq %rax
    movq %rbp, %rsp
    popq %rbp
    retq
    movq $0, %rax
    pushq %rax
    movq $0, %rax
    movq %rbp, %rsp
    popq %rbp
    retq
    .seh_endproc
    .section .iii.ring3,"n"
    .asciz "s_is_irpd_method_src"
    .text
    .seh_proc L_s_is_irpd_method_src
L_s_is_irpd_method_src:
    pushq %rbp
    .seh_pushreg %rbp
    movq %rsp, %rbp
    .seh_setframe %rbp, 0
    subq $1024, %rsp
    .seh_stackalloc 1024
    .seh_endprologue
    movq %rcx, -8(%rbp)
    movq %rdx, -16(%rbp)
    movabsq $0x0, %rax
    pushq %rax
    popq %rax
    movq %rax, -24(%rbp)
L_loop_top_160:
    movl -24(%rbp), %eax
    pushq %rax
    movl L_SEMA_IRPD_COUNT(%rip), %eax
    pushq %rax
    popq %rcx
    popq %rax
    cmpq %rcx, %rax
    setb %al
    movzbq %al, %rax
    pushq %rax
    popq %rax
    testq %rax, %rax
    jz L_loop_end_161
    movl -24(%rbp), %eax
    pushq %rax
    movl -16(%rbp), %eax
    pushq %rax
    movl -8(%rbp), %eax
    pushq %rax
    popq %rcx
    popq %rdx
    popq %r8
    subq $32, %rsp
    callq L_s_src_eq_irpd
    addq $32, %rsp
    movl %eax, %eax
    pushq %rax
    movabsq $0x1, %rax
    pushq %rax
    popq %rcx
    popq %rax
    cmpq %rcx, %rax
    sete %al
    movzbq %al, %rax
    pushq %rax
    popq %rax
    testq %rax, %rax
    jz L_if_end_163
    movabsq $0x1, %rax
    pushq %rax
    popq %rax
    movq %rbp, %rsp
    popq %rbp
    retq
    movq $0, %rax
    pushq %rax
    popq %rax
L_if_end_163:
    movl -24(%rbp), %eax
    pushq %rax
    movabsq $0x1, %rax
    pushq %rax
    popq %rcx
    popq %rax
    addq %rcx, %rax
    movl %eax, %eax
    pushq %rax
    popq %rax
    movq %rax, -24(%rbp)
    movq $0, %rax
    pushq %rax
    popq %rax
    jmp L_loop_top_160
L_loop_end_161:
    movabsq $0x0, %rax
    pushq %rax
    popq %rax
    movq %rbp, %rsp
    popq %rbp
    retq
    movq $0, %rax
    pushq %rax
    movq $0, %rax
    movq %rbp, %rsp
    popq %rbp
    retq
    .seh_endproc
    .section .iii.ring3,"n"
    .asciz "s_src_eq_pfs_lower"
    .text
    .seh_proc L_s_src_eq_pfs_lower
L_s_src_eq_pfs_lower:
    pushq %rbp
    .seh_pushreg %rbp
    movq %rsp, %rbp
    .seh_setframe %rbp, 0
    subq $1024, %rsp
    .seh_stackalloc 1024
    .seh_endprologue
    movq %rcx, -8(%rbp)
    movq %rdx, -16(%rbp)
    movq %r8, -24(%rbp)
    movl -16(%rbp), %eax
    pushq %rax
    leaq L_SEMA_PFS_LEN(%rip), %rax
    pushq %rax
    movl -24(%rbp), %eax
    pushq %rax
    popq %rcx
    popq %rax
    movl (%rax,%rcx,4), %eax
    pushq %rax
    popq %rcx
    popq %rax
    cmpq %rcx, %rax
    setne %al
    movzbq %al, %rax
    pushq %rax
    popq %rax
    testq %rax, %rax
    jz L_if_end_165
    movabsq $0x0, %rax
    pushq %rax
    popq %rax
    movq %rbp, %rsp
    popq %rbp
    retq
    movq $0, %rax
    pushq %rax
    popq %rax
L_if_end_165:
    movq L_SEMA_AST(%rip), %rax
    pushq %rax
    popq %rcx
    subq $32, %rsp
    callq iii_ast_source_buf
    addq $32, %rsp
    pushq %rax
    popq %rax
    movq %rax, -32(%rbp)
    leaq L_SEMA_PFS_BUF(%rip), %rax
    pushq %rax
    popq %rax
    pushq %rax
    leaq L_SEMA_PFS_OFF(%rip), %rax
    pushq %rax
    movl -24(%rbp), %eax
    pushq %rax
    popq %rcx
    popq %rax
    movl (%rax,%rcx,4), %eax
    pushq %rax
    popq %rax
    pushq %rax
    popq %rcx
    popq %rax
    addq %rcx, %rax
    pushq %rax
    popq %rax
    movq %rax, -40(%rbp)
    movabsq $0x0, %rax
    pushq %rax
    popq %rax
    movq %rax, -48(%rbp)
    movabsq $0x1, %rax
    pushq %rax
    popq %rax
    movq %rax, -56(%rbp)
L_loop_top_166:
    movl -48(%rbp), %eax
    pushq %rax
    movl -16(%rbp), %eax
    pushq %rax
    popq %rcx
    popq %rax
    cmpq %rcx, %rax
    setb %al
    movzbq %al, %rax
    pushq %rax
    popq %rax
    testq %rax, %rax
    jz L_loop_end_167
    movq -32(%rbp), %rax
    pushq %rax
    movl -8(%rbp), %eax
    pushq %rax
    movl -48(%rbp), %eax
    pushq %rax
    popq %rcx
    popq %rax
    addq %rcx, %rax
    movl %eax, %eax
    pushq %rax
    popq %rax
    pushq %rax
    popq %rcx
    popq %rax
    addq %rcx, %rax
    pushq %rax
    popq %rcx
    subq $32, %rsp
    callq L_s_load_u8
    addq $32, %rsp
    movl %eax, %eax
    pushq %rax
    popq %rax
    movq %rax, -64(%rbp)
    movl -64(%rbp), %eax
    pushq %rax
    popq %rcx
    subq $32, %rsp
    callq L_s_to_lower
    addq $32, %rsp
    movl %eax, %eax
    pushq %rax
    popq %rax
    movq %rax, -72(%rbp)
    movq -40(%rbp), %rax
    pushq %rax
    movl -48(%rbp), %eax
    pushq %rax
    popq %rax
    pushq %rax
    popq %rcx
    popq %rax
    addq %rcx, %rax
    pushq %rax
    popq %rcx
    subq $32, %rsp
    callq L_s_load_u8
    addq $32, %rsp
    movl %eax, %eax
    pushq %rax
    popq %rax
    movq %rax, -80(%rbp)
    movl -72(%rbp), %eax
    pushq %rax
    movl -80(%rbp), %eax
    pushq %rax
    popq %rcx
    popq %rax
    cmpq %rcx, %rax
    setne %al
    movzbq %al, %rax
    pushq %rax
    popq %rax
    testq %rax, %rax
    jz L_if_end_169
    movabsq $0x0, %rax
    pushq %rax
    popq %rax
    movq %rax, -56(%rbp)
    movl -16(%rbp), %eax
    pushq %rax
    popq %rax
    movq %rax, -48(%rbp)
    movq $0, %rax
    pushq %rax
    popq %rax
L_if_end_169:
    movl -48(%rbp), %eax
    pushq %rax
    movabsq $0x1, %rax
    pushq %rax
    popq %rcx
    popq %rax
    addq %rcx, %rax
    movl %eax, %eax
    pushq %rax
    popq %rax
    movq %rax, -48(%rbp)
    movq $0, %rax
    pushq %rax
    popq %rax
    jmp L_loop_top_166
L_loop_end_167:
    movl -56(%rbp), %eax
    pushq %rax
    popq %rax
    movq %rbp, %rsp
    popq %rbp
    retq
    movq $0, %rax
    pushq %rax
    movq $0, %rax
    movq %rbp, %rsp
    popq %rbp
    retq
    .seh_endproc
    .section .iii.ring3,"n"
    .asciz "s_is_pfs_brick_src_lower"
    .text
    .seh_proc L_s_is_pfs_brick_src_lower
L_s_is_pfs_brick_src_lower:
    pushq %rbp
    .seh_pushreg %rbp
    movq %rsp, %rbp
    .seh_setframe %rbp, 0
    subq $1024, %rsp
    .seh_stackalloc 1024
    .seh_endprologue
    movq %rcx, -8(%rbp)
    movq %rdx, -16(%rbp)
    movabsq $0x0, %rax
    pushq %rax
    popq %rax
    movq %rax, -24(%rbp)
L_loop_top_170:
    movl -24(%rbp), %eax
    pushq %rax
    movl L_SEMA_PFS_COUNT(%rip), %eax
    pushq %rax
    popq %rcx
    popq %rax
    cmpq %rcx, %rax
    setb %al
    movzbq %al, %rax
    pushq %rax
    popq %rax
    testq %rax, %rax
    jz L_loop_end_171
    movl -24(%rbp), %eax
    pushq %rax
    movl -16(%rbp), %eax
    pushq %rax
    movl -8(%rbp), %eax
    pushq %rax
    popq %rcx
    popq %rdx
    popq %r8
    subq $32, %rsp
    callq L_s_src_eq_pfs_lower
    addq $32, %rsp
    movl %eax, %eax
    pushq %rax
    movabsq $0x1, %rax
    pushq %rax
    popq %rcx
    popq %rax
    cmpq %rcx, %rax
    sete %al
    movzbq %al, %rax
    pushq %rax
    popq %rax
    testq %rax, %rax
    jz L_if_end_173
    movabsq $0x1, %rax
    pushq %rax
    popq %rax
    movq %rbp, %rsp
    popq %rbp
    retq
    movq $0, %rax
    pushq %rax
    popq %rax
L_if_end_173:
    movl -24(%rbp), %eax
    pushq %rax
    movabsq $0x1, %rax
    pushq %rax
    popq %rcx
    popq %rax
    addq %rcx, %rax
    movl %eax, %eax
    pushq %rax
    popq %rax
    movq %rax, -24(%rbp)
    movq $0, %rax
    pushq %rax
    popq %rax
    jmp L_loop_top_170
L_loop_end_171:
    movabsq $0x0, %rax
    pushq %rax
    popq %rax
    movq %rbp, %rsp
    popq %rbp
    retq
    movq $0, %rax
    pushq %rax
    movq $0, %rax
    movq %rbp, %rsp
    popq %rbp
    retq
    .seh_endproc
    .section .iii.ring3,"n"
    .asciz "s_src_eq_builtin"
    .text
    .seh_proc L_s_src_eq_builtin
L_s_src_eq_builtin:
    pushq %rbp
    .seh_pushreg %rbp
    movq %rsp, %rbp
    .seh_setframe %rbp, 0
    subq $1024, %rsp
    .seh_stackalloc 1024
    .seh_endprologue
    movq %rcx, -8(%rbp)
    movq %rdx, -16(%rbp)
    movq %r8, -24(%rbp)
    movl -16(%rbp), %eax
    pushq %rax
    leaq L_SEMA_BUILTIN_LEN(%rip), %rax
    pushq %rax
    movl -24(%rbp), %eax
    pushq %rax
    popq %rcx
    popq %rax
    movl (%rax,%rcx,4), %eax
    pushq %rax
    popq %rcx
    popq %rax
    cmpq %rcx, %rax
    setne %al
    movzbq %al, %rax
    pushq %rax
    popq %rax
    testq %rax, %rax
    jz L_if_end_175
    movabsq $0x0, %rax
    pushq %rax
    popq %rax
    movq %rbp, %rsp
    popq %rbp
    retq
    movq $0, %rax
    pushq %rax
    popq %rax
L_if_end_175:
    movq L_SEMA_AST(%rip), %rax
    pushq %rax
    popq %rcx
    subq $32, %rsp
    callq iii_ast_source_buf
    addq $32, %rsp
    pushq %rax
    popq %rax
    movq %rax, -32(%rbp)
    leaq L_SEMA_BUILTIN_BUF(%rip), %rax
    pushq %rax
    popq %rax
    pushq %rax
    leaq L_SEMA_BUILTIN_OFF(%rip), %rax
    pushq %rax
    movl -24(%rbp), %eax
    pushq %rax
    popq %rcx
    popq %rax
    movl (%rax,%rcx,4), %eax
    pushq %rax
    popq %rax
    pushq %rax
    popq %rcx
    popq %rax
    addq %rcx, %rax
    pushq %rax
    popq %rax
    movq %rax, -40(%rbp)
    movabsq $0x0, %rax
    pushq %rax
    popq %rax
    movq %rax, -48(%rbp)
    movabsq $0x1, %rax
    pushq %rax
    popq %rax
    movq %rax, -56(%rbp)
L_loop_top_176:
    movl -48(%rbp), %eax
    pushq %rax
    movl -16(%rbp), %eax
    pushq %rax
    popq %rcx
    popq %rax
    cmpq %rcx, %rax
    setb %al
    movzbq %al, %rax
    pushq %rax
    popq %rax
    testq %rax, %rax
    jz L_loop_end_177
    movq -32(%rbp), %rax
    pushq %rax
    movl -8(%rbp), %eax
    pushq %rax
    movl -48(%rbp), %eax
    pushq %rax
    popq %rcx
    popq %rax
    addq %rcx, %rax
    movl %eax, %eax
    pushq %rax
    popq %rax
    pushq %rax
    popq %rcx
    popq %rax
    addq %rcx, %rax
    pushq %rax
    popq %rcx
    subq $32, %rsp
    callq L_s_load_u8
    addq $32, %rsp
    movl %eax, %eax
    pushq %rax
    popq %rax
    movq %rax, -64(%rbp)
    movq -40(%rbp), %rax
    pushq %rax
    movl -48(%rbp), %eax
    pushq %rax
    popq %rax
    pushq %rax
    popq %rcx
    popq %rax
    addq %rcx, %rax
    pushq %rax
    popq %rcx
    subq $32, %rsp
    callq L_s_load_u8
    addq $32, %rsp
    movl %eax, %eax
    pushq %rax
    popq %rax
    movq %rax, -72(%rbp)
    movl -64(%rbp), %eax
    pushq %rax
    movl -72(%rbp), %eax
    pushq %rax
    popq %rcx
    popq %rax
    cmpq %rcx, %rax
    setne %al
    movzbq %al, %rax
    pushq %rax
    popq %rax
    testq %rax, %rax
    jz L_if_end_179
    movabsq $0x0, %rax
    pushq %rax
    popq %rax
    movq %rax, -56(%rbp)
    movl -16(%rbp), %eax
    pushq %rax
    popq %rax
    movq %rax, -48(%rbp)
    movq $0, %rax
    pushq %rax
    popq %rax
L_if_end_179:
    movl -48(%rbp), %eax
    pushq %rax
    movabsq $0x1, %rax
    pushq %rax
    popq %rcx
    popq %rax
    addq %rcx, %rax
    movl %eax, %eax
    pushq %rax
    popq %rax
    movq %rax, -48(%rbp)
    movq $0, %rax
    pushq %rax
    popq %rax
    jmp L_loop_top_176
L_loop_end_177:
    movl -56(%rbp), %eax
    pushq %rax
    popq %rax
    movq %rbp, %rsp
    popq %rbp
    retq
    movq $0, %rax
    pushq %rax
    movq $0, %rax
    movq %rbp, %rsp
    popq %rbp
    retq
    .seh_endproc
    .section .iii.ring3,"n"
    .asciz "s_is_builtin_ident_src"
    .text
    .seh_proc L_s_is_builtin_ident_src
L_s_is_builtin_ident_src:
    pushq %rbp
    .seh_pushreg %rbp
    movq %rsp, %rbp
    .seh_setframe %rbp, 0
    subq $1024, %rsp
    .seh_stackalloc 1024
    .seh_endprologue
    movq %rcx, -8(%rbp)
    movq %rdx, -16(%rbp)
    movabsq $0x0, %rax
    pushq %rax
    popq %rax
    movq %rax, -24(%rbp)
L_loop_top_180:
    movl -24(%rbp), %eax
    pushq %rax
    movl L_SEMA_BUILTIN_COUNT(%rip), %eax
    pushq %rax
    popq %rcx
    popq %rax
    cmpq %rcx, %rax
    setb %al
    movzbq %al, %rax
    pushq %rax
    popq %rax
    testq %rax, %rax
    jz L_loop_end_181
    movl -24(%rbp), %eax
    pushq %rax
    movl -16(%rbp), %eax
    pushq %rax
    movl -8(%rbp), %eax
    pushq %rax
    popq %rcx
    popq %rdx
    popq %r8
    subq $32, %rsp
    callq L_s_src_eq_builtin
    addq $32, %rsp
    movl %eax, %eax
    pushq %rax
    movabsq $0x1, %rax
    pushq %rax
    popq %rcx
    popq %rax
    cmpq %rcx, %rax
    sete %al
    movzbq %al, %rax
    pushq %rax
    popq %rax
    testq %rax, %rax
    jz L_if_end_183
    movabsq $0x1, %rax
    pushq %rax
    popq %rax
    movq %rbp, %rsp
    popq %rbp
    retq
    movq $0, %rax
    pushq %rax
    popq %rax
L_if_end_183:
    movl -24(%rbp), %eax
    pushq %rax
    movabsq $0x1, %rax
    pushq %rax
    popq %rcx
    popq %rax
    addq %rcx, %rax
    movl %eax, %eax
    pushq %rax
    popq %rax
    movq %rax, -24(%rbp)
    movq $0, %rax
    pushq %rax
    popq %rax
    jmp L_loop_top_180
L_loop_end_181:
    movabsq $0x0, %rax
    pushq %rax
    popq %rax
    movq %rbp, %rsp
    popq %rbp
    retq
    movq $0, %rax
    pushq %rax
    movq $0, %rax
    movq %rbp, %rsp
    popq %rbp
    retq
    .seh_endproc
    .section .iii.ring3,"n"
    .asciz "s_lower_into_scratch"
    .text
    .seh_proc L_s_lower_into_scratch
L_s_lower_into_scratch:
    pushq %rbp
    .seh_pushreg %rbp
    movq %rsp, %rbp
    .seh_setframe %rbp, 0
    subq $1024, %rsp
    .seh_stackalloc 1024
    .seh_endprologue
    movq %rcx, -8(%rbp)
    movq %rdx, -16(%rbp)
    movq L_SEMA_AST(%rip), %rax
    pushq %rax
    popq %rcx
    subq $32, %rsp
    callq iii_ast_source_buf
    addq $32, %rsp
    pushq %rax
    popq %rax
    movq %rax, -24(%rbp)
    movl -16(%rbp), %eax
    pushq %rax
    popq %rax
    movq %rax, -32(%rbp)
    movl -32(%rbp), %eax
    pushq %rax
    movabsq $0xfff, %rax
    pushq %rax
    popq %rcx
    popq %rax
    cmpq %rcx, %rax
    seta %al
    movzbq %al, %rax
    pushq %rax
    popq %rax
    testq %rax, %rax
    jz L_if_end_185
    movabsq $0xfff, %rax
    pushq %rax
    popq %rax
    movq %rax, -32(%rbp)
    movq $0, %rax
    pushq %rax
    popq %rax
L_if_end_185:
    movabsq $0x0, %rax
    pushq %rax
    popq %rax
    movq %rax, -40(%rbp)
L_loop_top_186:
    movl -40(%rbp), %eax
    pushq %rax
    movl -32(%rbp), %eax
    pushq %rax
    popq %rcx
    popq %rax
    cmpq %rcx, %rax
    setb %al
    movzbq %al, %rax
    pushq %rax
    popq %rax
    testq %rax, %rax
    jz L_loop_end_187
    movq -24(%rbp), %rax
    pushq %rax
    movl -8(%rbp), %eax
    pushq %rax
    movl -40(%rbp), %eax
    pushq %rax
    popq %rcx
    popq %rax
    addq %rcx, %rax
    movl %eax, %eax
    pushq %rax
    popq %rax
    pushq %rax
    popq %rcx
    popq %rax
    addq %rcx, %rax
    pushq %rax
    popq %rcx
    subq $32, %rsp
    callq L_s_load_u8
    addq $32, %rsp
    movl %eax, %eax
    pushq %rax
    popq %rax
    movq %rax, -48(%rbp)
    movl -48(%rbp), %eax
    pushq %rax
    popq %rcx
    subq $32, %rsp
    callq L_s_to_lower
    addq $32, %rsp
    movl %eax, %eax
    pushq %rax
    popq %rax
    movq %rax, -56(%rbp)
    movl -56(%rbp), %eax
    pushq %rax
    leaq L_SEMA_LOWER_BUF(%rip), %rax
    pushq %rax
    popq %rax
    pushq %rax
    movl -40(%rbp), %eax
    pushq %rax
    popq %rax
    pushq %rax
    popq %rcx
    popq %rax
    addq %rcx, %rax
    pushq %rax
    popq %rcx
    popq %rdx
    subq $32, %rsp
    callq L_s_store_u8
    addq $32, %rsp
    movl %eax, %eax
    pushq %rax
    popq %rax
    movl -40(%rbp), %eax
    pushq %rax
    movabsq $0x1, %rax
    pushq %rax
    popq %rcx
    popq %rax
    addq %rcx, %rax
    movl %eax, %eax
    pushq %rax
    popq %rax
    movq %rax, -40(%rbp)
    movq $0, %rax
    pushq %rax
    popq %rax
    jmp L_loop_top_186
L_loop_end_187:
    movabsq $0x0, %rax
    pushq %rax
    leaq L_SEMA_LOWER_BUF(%rip), %rax
    pushq %rax
    popq %rax
    pushq %rax
    movl -32(%rbp), %eax
    pushq %rax
    popq %rax
    pushq %rax
    popq %rcx
    popq %rax
    addq %rcx, %rax
    pushq %rax
    popq %rcx
    popq %rdx
    subq $32, %rsp
    callq L_s_store_u8
    addq $32, %rsp
    movl %eax, %eax
    pushq %rax
    popq %rax
    movl -32(%rbp), %eax
    pushq %rax
    popq %rax
    movl %eax, L_SEMA_LOWER_LEN(%rip)
    movabsq $0x0, %rax
    pushq %rax
    popq %rax
    movq %rbp, %rsp
    popq %rbp
    retq
    movq $0, %rax
    pushq %rax
    movq $0, %rax
    movq %rbp, %rsp
    popq %rbp
    retq
    .seh_endproc
    .section .iii.ring3,"n"
    .asciz "s_lower_contains_pat"
    .text
    .seh_proc L_s_lower_contains_pat
L_s_lower_contains_pat:
    pushq %rbp
    .seh_pushreg %rbp
    movq %rsp, %rbp
    .seh_setframe %rbp, 0
    subq $1024, %rsp
    .seh_stackalloc 1024
    .seh_endprologue
    movq %rcx, -8(%rbp)
    movq %rdx, -16(%rbp)
    movl -16(%rbp), %eax
    pushq %rax
    movabsq $0x0, %rax
    pushq %rax
    popq %rcx
    popq %rax
    cmpq %rcx, %rax
    sete %al
    movzbq %al, %rax
    pushq %rax
    popq %rax
    testq %rax, %rax
    jz L_if_end_189
    movabsq $0x1, %rax
    pushq %rax
    popq %rax
    movq %rbp, %rsp
    popq %rbp
    retq
    movq $0, %rax
    pushq %rax
    popq %rax
L_if_end_189:
    movl -16(%rbp), %eax
    pushq %rax
    movl L_SEMA_LOWER_LEN(%rip), %eax
    pushq %rax
    popq %rcx
    popq %rax
    cmpq %rcx, %rax
    seta %al
    movzbq %al, %rax
    pushq %rax
    popq %rax
    testq %rax, %rax
    jz L_if_end_191
    movabsq $0x0, %rax
    pushq %rax
    popq %rax
    movq %rbp, %rsp
    popq %rbp
    retq
    movq $0, %rax
    pushq %rax
    popq %rax
L_if_end_191:
    movl L_SEMA_LOWER_LEN(%rip), %eax
    pushq %rax
    movl -16(%rbp), %eax
    pushq %rax
    popq %rcx
    popq %rax
    subq %rcx, %rax
    movl %eax, %eax
    pushq %rax
    movabsq $0x1, %rax
    pushq %rax
    popq %rcx
    popq %rax
    addq %rcx, %rax
    movl %eax, %eax
    pushq %rax
    popq %rax
    movq %rax, -24(%rbp)
    movabsq $0x0, %rax
    pushq %rax
    popq %rax
    movq %rax, -32(%rbp)
    movabsq $0x0, %rax
    pushq %rax
    popq %rax
    movq %rax, -40(%rbp)
L_loop_top_192:
    movl -32(%rbp), %eax
    pushq %rax
    movl -24(%rbp), %eax
    pushq %rax
    popq %rcx
    popq %rax
    cmpq %rcx, %rax
    setb %al
    movzbq %al, %rax
    pushq %rax
    popq %rax
    testq %rax, %rax
    jz L_loop_end_193
    movabsq $0x0, %rax
    pushq %rax
    popq %rax
    movq %rax, -48(%rbp)
    movabsq $0x1, %rax
    pushq %rax
    popq %rax
    movq %rax, -56(%rbp)
L_loop_top_194:
    movl -48(%rbp), %eax
    pushq %rax
    movl -16(%rbp), %eax
    pushq %rax
    popq %rcx
    popq %rax
    cmpq %rcx, %rax
    setb %al
    movzbq %al, %rax
    pushq %rax
    popq %rax
    testq %rax, %rax
    jz L_loop_end_195
    leaq L_SEMA_LOWER_BUF(%rip), %rax
    pushq %rax
    popq %rax
    pushq %rax
    movl -32(%rbp), %eax
    pushq %rax
    movl -48(%rbp), %eax
    pushq %rax
    popq %rcx
    popq %rax
    addq %rcx, %rax
    movl %eax, %eax
    pushq %rax
    popq %rax
    pushq %rax
    popq %rcx
    popq %rax
    addq %rcx, %rax
    pushq %rax
    popq %rcx
    subq $32, %rsp
    callq L_s_load_u8
    addq $32, %rsp
    movl %eax, %eax
    pushq %rax
    popq %rax
    movq %rax, -64(%rbp)
    movq -8(%rbp), %rax
    pushq %rax
    movl -48(%rbp), %eax
    pushq %rax
    popq %rax
    pushq %rax
    popq %rcx
    popq %rax
    addq %rcx, %rax
    pushq %rax
    popq %rcx
    subq $32, %rsp
    callq L_s_load_u8
    addq $32, %rsp
    movl %eax, %eax
    pushq %rax
    popq %rax
    movq %rax, -72(%rbp)
    movl -64(%rbp), %eax
    pushq %rax
    movl -72(%rbp), %eax
    pushq %rax
    popq %rcx
    popq %rax
    cmpq %rcx, %rax
    setne %al
    movzbq %al, %rax
    pushq %rax
