# III Stage-0 Ring-3 codegen output
# Microsoft x64 ABI; gas syntax (AT&T); PE/COFF target
    .att_syntax
    .file 1 "<iii-source>"
    .section .rodata
L_str_0:
    .ascii "identifier.iiiidentifier.iiiidentifier.iiicad.iiicad.iiicad.iiiwitness_hook.iiiwitness_hook.iiicapability.iiicapability.iiicapability.iiicapability.iiicapability.iiicapability.iiiwitness_hook.iii\0"
L_str_1:
    .ascii "identifier.iiiidentifier.iiicad.iiicad.iiicad.iiiwitness_hook.iiiwitness_hook.iiicapability.iiicapability.iiicapability.iiicapability.iiicapability.iiicapability.iiiwitness_hook.iii\0"
L_str_2:
    .ascii "identifier.iiicad.iiicad.iiicad.iiiwitness_hook.iiiwitness_hook.iiicapability.iiicapability.iiicapability.iiicapability.iiicapability.iiicapability.iiiwitness_hook.iii\0"
L_str_3:
    .ascii "cad.iiicad.iiicad.iiiwitness_hook.iiiwitness_hook.iiicapability.iiicapability.iiicapability.iiicapability.iiicapability.iiicapability.iiiwitness_hook.iii\0"
L_str_4:
    .ascii "cad.iiicad.iiiwitness_hook.iiiwitness_hook.iiicapability.iiicapability.iiicapability.iiicapability.iiicapability.iiicapability.iiiwitness_hook.iii\0"
L_str_5:
    .ascii "cad.iiiwitness_hook.iiiwitness_hook.iiicapability.iiicapability.iiicapability.iiicapability.iiicapability.iiicapability.iiiwitness_hook.iii\0"
L_str_6:
    .ascii "witness_hook.iiiwitness_hook.iiicapability.iiicapability.iiicapability.iiicapability.iiicapability.iiicapability.iiiwitness_hook.iii\0"
L_str_7:
    .ascii "witness_hook.iiicapability.iiicapability.iiicapability.iiicapability.iiicapability.iiicapability.iiiwitness_hook.iii\0"
L_str_8:
    .ascii "capability.iiicapability.iiicapability.iiicapability.iiicapability.iiicapability.iiiwitness_hook.iii\0"
L_str_9:
    .ascii "capability.iiicapability.iiicapability.iiicapability.iiicapability.iiiwitness_hook.iii\0"
L_str_10:
    .ascii "capability.iiicapability.iiicapability.iiicapability.iiiwitness_hook.iii\0"
L_str_11:
    .ascii "capability.iiicapability.iiicapability.iiiwitness_hook.iii\0"
L_str_12:
    .ascii "capability.iiicapability.iiiwitness_hook.iii\0"
L_str_13:
    .ascii "capability.iiiwitness_hook.iii\0"
L_str_14:
    .ascii "witness_hook.iii\0"
    .section .rodata
L_CFORGE_OK:
    .quad 0x0
L_CFORGE_E_BAD:
    .quad 0xffffffffffffffff
L_CFORGE_E_FULL:
    .quad 0xfffffffffffffffe
L_CFORGE_E_DENIED:
    .quad 0xfffffffffffffffd
L_CFORGE_SENT:
    .quad 0xffffffff
L_CFORGE_MAX_FORGED:
    .quad 0x800
L_CFORGE_MAX_ANTE:
    .quad 0x4
L_CFORGE_KIND_COMPOSE:
    .quad 0x0
L_CFORGE_KIND_RESTRICT:
    .quad 0x1
L_CFORGE_KIND_SPLIT:
    .quad 0x2
L_CFORGE_PILLAR:
    .quad 0x2
L_CFORGE_PHASE:
    .quad 0x6
L_CFORGE_REVTAG_FORGE:
    .quad 0x0
L_CFORGE_REVTAG_DEFORGE:
    .quad 0x1
L_CFORGE_NO_EXPIRY:
    .quad 0x0
    .section .bss
    .global L_CFORGE_LIVE
L_CFORGE_LIVE:
    .zero 16384
    .global L_CFORGE_KIND
L_CFORGE_KIND:
    .zero 16384
    .global L_CFORGE_CAPID
L_CFORGE_CAPID:
    .zero 16384
    .global L_CFORGE_SUBJECT
L_CFORGE_SUBJECT:
    .zero 524288
    .global L_CFORGE_OP
L_CFORGE_OP:
    .zero 524288
    .global L_CFORGE_RESOURCE
L_CFORGE_RESOURCE:
    .zero 524288
    .global L_CFORGE_FRAG
L_CFORGE_FRAG:
    .zero 16384
    .global L_CFORGE_ANTE_CNT
L_CFORGE_ANTE_CNT:
    .zero 16384
    .global L_CFORGE_ANTE
L_CFORGE_ANTE:
    .zero 65536
    .global L_CFORGE_ANTE_CAP
L_CFORGE_ANTE_CAP:
    .zero 65536
    .section .data
    .global L_CFORGE_USED
L_CFORGE_USED:
    .quad 0x0
    .section .bss
    .global L_CFORGE_PRODUCER
L_CFORGE_PRODUCER:
    .zero 256
    .global L_CFORGE_OPID_FORGE
L_CFORGE_OPID_FORGE:
    .zero 256
    .global L_CFORGE_OPID_DEFORGE
L_CFORGE_OPID_DEFORGE:
    .zero 256
    .section .data
    .global L_CFORGE_INITED
L_CFORGE_INITED:
    .quad 0x0
    .section .bss
    .global L_CFORGE_REVOKED_SET
L_CFORGE_REVOKED_SET:
    .zero 16384
    .global L_CFORGE_INC
L_CFORGE_INC:
    .zero 256
    .global L_CFORGE_OUTC
L_CFORGE_OUTC:
    .zero 256
    .global L_CFORGE_FID
L_CFORGE_FID:
    .zero 256
    .global L_CFORGE_PBUF
L_CFORGE_PBUF:
    .zero 64
    .global L_CFORGE_ANTE_IDBUF
L_CFORGE_ANTE_IDBUF:
    .zero 1024
    .global L_CFORGE_TAG_CS
L_CFORGE_TAG_CS:
    .zero 128
    .global L_CFORGE_TAG_CO
L_CFORGE_TAG_CO:
    .zero 88
    .global L_CFORGE_TAG_CR
L_CFORGE_TAG_CR:
    .zero 136
    .global L_CFORGE_TAG_RS
L_CFORGE_TAG_RS:
    .zero 136
    .global L_CFORGE_TAG_RO
L_CFORGE_TAG_RO:
    .zero 96
    .global L_CFORGE_TAG_RR
L_CFORGE_TAG_RR:
    .zero 144
    .global L_CFORGE_TAG_SS
L_CFORGE_TAG_SS:
    .zero 112
    .global L_CFORGE_TAG_SO
L_CFORGE_TAG_SO:
    .zero 72
    .global L_CFORGE_TAG_SR
L_CFORGE_TAG_SR:
    .zero 120
    .global L_CFORGE_STR_PROD
L_CFORGE_STR_PROD:
    .zero 136
    .global L_CFORGE_STR_FRG
L_CFORGE_STR_FRG:
    .zero 192
    .global L_CFORGE_STR_DFG
L_CFORGE_STR_DFG:
    .zero 208
    .global L_CFORGE_NEWSUBJ
L_CFORGE_NEWSUBJ:
    .zero 256
    .global L_CFORGE_NEWOP
L_CFORGE_NEWOP:
    .zero 256
    .global L_CFORGE_NEWRES
L_CFORGE_NEWRES:
    .zero 256
    .global L_CFORGE_ID8A
L_CFORGE_ID8A:
    .zero 64
    .global L_CFORGE_ID8B
L_CFORGE_ID8B:
    .zero 64
    .section .rodata
L_CAP_RIGHT_FS_READ_L:
    .quad 0x2
L_CAP_RIGHT_FS_WRITE_L:
    .quad 0x4
L_CAP_RIGHT_NET_DIAL_L:
    .quad 0x20
    .section .bss
    .global L_CFORGE_T_SUBRES
L_CFORGE_T_SUBRES:
    .zero 256
    .global L_CFORGE_T_OUTCAP
L_CFORGE_T_OUTCAP:
    .zero 8
    .global L_CFORGE_T_OUTCP2
L_CFORGE_T_OUTCP2:
    .zero 8
    .section .iii.ring3,"n"
    .asciz "cf_subj_ptr"
    .text
    .global L_cf_subj_ptr
    .seh_proc L_cf_subj_ptr
L_cf_subj_ptr:
    pushq %rbp
    .seh_pushreg %rbp
    movq %rsp, %rbp
    .seh_setframe %rbp, 0
    subq $1024, %rsp
    .seh_stackalloc 1024
    .seh_endprologue
    movq %rcx, -8(%rbp)
    leaq L_CFORGE_SUBJECT(%rip), %rax
    pushq %rax
    popq %rax
    pushq %rax
    movl -8(%rbp), %eax
    pushq %rax
    popq %rax
    pushq %rax
    movabsq $0xffffffff, %rax
    pushq %rax
    popq %rcx
    popq %rax
    andq %rcx, %rax
    pushq %rax
    movabsq $0x20, %rax
    pushq %rax
    popq %rcx
    popq %rax
    imulq %rcx, %rax
    pushq %rax
    popq %rcx
    popq %rax
    addq %rcx, %rax
    pushq %rax
    popq %rax
    pushq %rax
    popq %rax
    movq %rbp, %rsp
    popq %rbp
    retq
    movq $0, %rax
    pushq %rax
    movq $0, %rax
    movq %rbp, %rsp
    popq %rbp
    retq
    .seh_endproc
    .section .iii.ring3,"n"
    .asciz "cf_op_ptr"
    .text
    .global L_cf_op_ptr
    .seh_proc L_cf_op_ptr
L_cf_op_ptr:
    pushq %rbp
    .seh_pushreg %rbp
    movq %rsp, %rbp
    .seh_setframe %rbp, 0
    subq $1024, %rsp
    .seh_stackalloc 1024
    .seh_endprologue
    movq %rcx, -8(%rbp)
    leaq L_CFORGE_OP(%rip), %rax
    pushq %rax
    popq %rax
    pushq %rax
    movl -8(%rbp), %eax
    pushq %rax
    popq %rax
    pushq %rax
    movabsq $0xffffffff, %rax
    pushq %rax
    popq %rcx
    popq %rax
    andq %rcx, %rax
    pushq %rax
    movabsq $0x20, %rax
    pushq %rax
    popq %rcx
    popq %rax
    imulq %rcx, %rax
    pushq %rax
    popq %rcx
    popq %rax
    addq %rcx, %rax
    pushq %rax
    popq %rax
    pushq %rax
    popq %rax
    movq %rbp, %rsp
    popq %rbp
    retq
    movq $0, %rax
    pushq %rax
    movq $0, %rax
    movq %rbp, %rsp
    popq %rbp
    retq
    .seh_endproc
    .section .iii.ring3,"n"
    .asciz "cf_res_ptr"
    .text
    .global L_cf_res_ptr
    .seh_proc L_cf_res_ptr
L_cf_res_ptr:
    pushq %rbp
    .seh_pushreg %rbp
    movq %rsp, %rbp
    .seh_setframe %rbp, 0
    subq $1024, %rsp
    .seh_stackalloc 1024
    .seh_endprologue
    movq %rcx, -8(%rbp)
    leaq L_CFORGE_RESOURCE(%rip), %rax
    pushq %rax
    popq %rax
    pushq %rax
    movl -8(%rbp), %eax
    pushq %rax
    popq %rax
    pushq %rax
    movabsq $0xffffffff, %rax
    pushq %rax
    popq %rcx
    popq %rax
    andq %rcx, %rax
    pushq %rax
    movabsq $0x20, %rax
    pushq %rax
    popq %rcx
    popq %rax
    imulq %rcx, %rax
    pushq %rax
    popq %rcx
    popq %rax
    addq %rcx, %rax
    pushq %rax
    popq %rax
    pushq %rax
    popq %rax
    movq %rbp, %rsp
    popq %rbp
    retq
    movq $0, %rax
    pushq %rax
    movq $0, %rax
    movq %rbp, %rsp
    popq %rbp
    retq
    .seh_endproc
    .section .iii.ring3,"n"
    .asciz "cf_fill_tags"
    .text
    .global L_cf_fill_tags
    .seh_proc L_cf_fill_tags
L_cf_fill_tags:
    pushq %rbp
    .seh_pushreg %rbp
    movq %rsp, %rbp
    .seh_setframe %rbp, 0
    subq $1024, %rsp
    .seh_stackalloc 1024
    .seh_endprologue
    leaq L_CFORGE_TAG_CS(%rip), %rax
    pushq %rax
    movabsq $0x0, %rax
    pushq %rax
    movabsq $0x63, %rax
    pushq %rax
    popq %rdx
    popq %rcx
    popq %rax
    movb %dl, (%rax,%rcx,1)
    leaq L_CFORGE_TAG_CS(%rip), %rax
    pushq %rax
    movabsq $0x1, %rax
    pushq %rax
    movabsq $0x6f, %rax
    pushq %rax
    popq %rdx
    popq %rcx
    popq %rax
    movb %dl, (%rax,%rcx,1)
    leaq L_CFORGE_TAG_CS(%rip), %rax
    pushq %rax
    movabsq $0x2, %rax
    pushq %rax
    movabsq $0x6d, %rax
    pushq %rax
    popq %rdx
    popq %rcx
    popq %rax
    movb %dl, (%rax,%rcx,1)
    leaq L_CFORGE_TAG_CS(%rip), %rax
    pushq %rax
    movabsq $0x3, %rax
    pushq %rax
    movabsq $0x70, %rax
    pushq %rax
    popq %rdx
    popq %rcx
    popq %rax
    movb %dl, (%rax,%rcx,1)
    leaq L_CFORGE_TAG_CS(%rip), %rax
    pushq %rax
    movabsq $0x4, %rax
    pushq %rax
    movabsq $0x6f, %rax
    pushq %rax
    popq %rdx
    popq %rcx
    popq %rax
    movb %dl, (%rax,%rcx,1)
    leaq L_CFORGE_TAG_CS(%rip), %rax
    pushq %rax
    movabsq $0x5, %rax
    pushq %rax
    movabsq $0x73, %rax
    pushq %rax
    popq %rdx
    popq %rcx
    popq %rax
    movb %dl, (%rax,%rcx,1)
    leaq L_CFORGE_TAG_CS(%rip), %rax
    pushq %rax
    movabsq $0x6, %rax
    pushq %rax
    movabsq $0x65, %rax
    pushq %rax
    popq %rdx
    popq %rcx
    popq %rax
    movb %dl, (%rax,%rcx,1)
    leaq L_CFORGE_TAG_CS(%rip), %rax
    pushq %rax
    movabsq $0x7, %rax
    pushq %rax
    movabsq $0x3a, %rax
    pushq %rax
    popq %rdx
    popq %rcx
    popq %rax
    movb %dl, (%rax,%rcx,1)
    leaq L_CFORGE_TAG_CS(%rip), %rax
    pushq %rax
    movabsq $0x8, %rax
    pushq %rax
    movabsq $0x3a, %rax
    pushq %rax
    popq %rdx
    popq %rcx
    popq %rax
    movb %dl, (%rax,%rcx,1)
    leaq L_CFORGE_TAG_CS(%rip), %rax
    pushq %rax
    movabsq $0x9, %rax
    pushq %rax
    movabsq $0x73, %rax
    pushq %rax
    popq %rdx
    popq %rcx
    popq %rax
    movb %dl, (%rax,%rcx,1)
    leaq L_CFORGE_TAG_CS(%rip), %rax
    pushq %rax
    movabsq $0xa, %rax
    pushq %rax
    movabsq $0x75, %rax
    pushq %rax
    popq %rdx
    popq %rcx
    popq %rax
    movb %dl, (%rax,%rcx,1)
    leaq L_CFORGE_TAG_CS(%rip), %rax
    pushq %rax
    movabsq $0xb, %rax
    pushq %rax
    movabsq $0x62, %rax
    pushq %rax
    popq %rdx
    popq %rcx
    popq %rax
    movb %dl, (%rax,%rcx,1)
    leaq L_CFORGE_TAG_CS(%rip), %rax
    pushq %rax
    movabsq $0xc, %rax
    pushq %rax
    movabsq $0x6a, %rax
    pushq %rax
    popq %rdx
    popq %rcx
    popq %rax
    movb %dl, (%rax,%rcx,1)
    leaq L_CFORGE_TAG_CS(%rip), %rax
    pushq %rax
    movabsq $0xd, %rax
    pushq %rax
    movabsq $0x65, %rax
    pushq %rax
    popq %rdx
    popq %rcx
    popq %rax
    movb %dl, (%rax,%rcx,1)
    leaq L_CFORGE_TAG_CS(%rip), %rax
    pushq %rax
    movabsq $0xe, %rax
    pushq %rax
    movabsq $0x63, %rax
    pushq %rax
    popq %rdx
    popq %rcx
    popq %rax
    movb %dl, (%rax,%rcx,1)
    leaq L_CFORGE_TAG_CS(%rip), %rax
    pushq %rax
    movabsq $0xf, %rax
    pushq %rax
    movabsq $0x74, %rax
    pushq %rax
    popq %rdx
    popq %rcx
    popq %rax
    movb %dl, (%rax,%rcx,1)
    leaq L_CFORGE_TAG_CO(%rip), %rax
    pushq %rax
    movabsq $0x0, %rax
    pushq %rax
    movabsq $0x63, %rax
    pushq %rax
    popq %rdx
    popq %rcx
    popq %rax
    movb %dl, (%rax,%rcx,1)
    leaq L_CFORGE_TAG_CO(%rip), %rax
    pushq %rax
    movabsq $0x1, %rax
    pushq %rax
    movabsq $0x6f, %rax
    pushq %rax
    popq %rdx
    popq %rcx
    popq %rax
    movb %dl, (%rax,%rcx,1)
    leaq L_CFORGE_TAG_CO(%rip), %rax
    pushq %rax
    movabsq $0x2, %rax
    pushq %rax
    movabsq $0x6d, %rax
    pushq %rax
    popq %rdx
    popq %rcx
    popq %rax
    movb %dl, (%rax,%rcx,1)
    leaq L_CFORGE_TAG_CO(%rip), %rax
    pushq %rax
    movabsq $0x3, %rax
    pushq %rax
    movabsq $0x70, %rax
    pushq %rax
    popq %rdx
    popq %rcx
    popq %rax
    movb %dl, (%rax,%rcx,1)
    leaq L_CFORGE_TAG_CO(%rip), %rax
    pushq %rax
    movabsq $0x4, %rax
    pushq %rax
    movabsq $0x6f, %rax
    pushq %rax
    popq %rdx
    popq %rcx
    popq %rax
    movb %dl, (%rax,%rcx,1)
    leaq L_CFORGE_TAG_CO(%rip), %rax
    pushq %rax
    movabsq $0x5, %rax
    pushq %rax
    movabsq $0x73, %rax
    pushq %rax
    popq %rdx
    popq %rcx
    popq %rax
    movb %dl, (%rax,%rcx,1)
    leaq L_CFORGE_TAG_CO(%rip), %rax
    pushq %rax
    movabsq $0x6, %rax
    pushq %rax
    movabsq $0x65, %rax
    pushq %rax
    popq %rdx
    popq %rcx
    popq %rax
    movb %dl, (%rax,%rcx,1)
    leaq L_CFORGE_TAG_CO(%rip), %rax
    pushq %rax
    movabsq $0x7, %rax
    pushq %rax
    movabsq $0x3a, %rax
    pushq %rax
    popq %rdx
    popq %rcx
    popq %rax
    movb %dl, (%rax,%rcx,1)
    leaq L_CFORGE_TAG_CO(%rip), %rax
    pushq %rax
    movabsq $0x8, %rax
    pushq %rax
    movabsq $0x3a, %rax
    pushq %rax
    popq %rdx
    popq %rcx
    popq %rax
    movb %dl, (%rax,%rcx,1)
    leaq L_CFORGE_TAG_CO(%rip), %rax
    pushq %rax
    movabsq $0x9, %rax
    pushq %rax
    movabsq $0x6f, %rax
    pushq %rax
    popq %rdx
    popq %rcx
    popq %rax
    movb %dl, (%rax,%rcx,1)
    leaq L_CFORGE_TAG_CO(%rip), %rax
    pushq %rax
    movabsq $0xa, %rax
    pushq %rax
    movabsq $0x70, %rax
    pushq %rax
    popq %rdx
    popq %rcx
    popq %rax
    movb %dl, (%rax,%rcx,1)
    leaq L_CFORGE_TAG_CR(%rip), %rax
    pushq %rax
    movabsq $0x0, %rax
    pushq %rax
    movabsq $0x63, %rax
    pushq %rax
    popq %rdx
    popq %rcx
    popq %rax
    movb %dl, (%rax,%rcx,1)
    leaq L_CFORGE_TAG_CR(%rip), %rax
    pushq %rax
    movabsq $0x1, %rax
    pushq %rax
    movabsq $0x6f, %rax
    pushq %rax
    popq %rdx
    popq %rcx
    popq %rax
    movb %dl, (%rax,%rcx,1)
    leaq L_CFORGE_TAG_CR(%rip), %rax
    pushq %rax
    movabsq $0x2, %rax
    pushq %rax
    movabsq $0x6d, %rax
    pushq %rax
    popq %rdx
    popq %rcx
    popq %rax
    movb %dl, (%rax,%rcx,1)
    leaq L_CFORGE_TAG_CR(%rip), %rax
    pushq %rax
    movabsq $0x3, %rax
    pushq %rax
    movabsq $0x70, %rax
    pushq %rax
    popq %rdx
    popq %rcx
    popq %rax
    movb %dl, (%rax,%rcx,1)
    leaq L_CFORGE_TAG_CR(%rip), %rax
    pushq %rax
    movabsq $0x4, %rax
    pushq %rax
    movabsq $0x6f, %rax
    pushq %rax
    popq %rdx
    popq %rcx
    popq %rax
    movb %dl, (%rax,%rcx,1)
    leaq L_CFORGE_TAG_CR(%rip), %rax
    pushq %rax
    movabsq $0x5, %rax
    pushq %rax
    movabsq $0x73, %rax
    pushq %rax
    popq %rdx
    popq %rcx
    popq %rax
    movb %dl, (%rax,%rcx,1)
    leaq L_CFORGE_TAG_CR(%rip), %rax
    pushq %rax
    movabsq $0x6, %rax
    pushq %rax
    movabsq $0x65, %rax
    pushq %rax
    popq %rdx
    popq %rcx
    popq %rax
    movb %dl, (%rax,%rcx,1)
    leaq L_CFORGE_TAG_CR(%rip), %rax
    pushq %rax
    movabsq $0x7, %rax
    pushq %rax
    movabsq $0x3a, %rax
    pushq %rax
    popq %rdx
    popq %rcx
    popq %rax
    movb %dl, (%rax,%rcx,1)
    leaq L_CFORGE_TAG_CR(%rip), %rax
    pushq %rax
    movabsq $0x8, %rax
    pushq %rax
    movabsq $0x3a, %rax
    pushq %rax
    popq %rdx
    popq %rcx
    popq %rax
    movb %dl, (%rax,%rcx,1)
    leaq L_CFORGE_TAG_CR(%rip), %rax
    pushq %rax
    movabsq $0x9, %rax
    pushq %rax
    movabsq $0x72, %rax
    pushq %rax
    popq %rdx
    popq %rcx
    popq %rax
    movb %dl, (%rax,%rcx,1)
    leaq L_CFORGE_TAG_CR(%rip), %rax
    pushq %rax
    movabsq $0xa, %rax
    pushq %rax
    movabsq $0x65, %rax
    pushq %rax
    popq %rdx
    popq %rcx
    popq %rax
    movb %dl, (%rax,%rcx,1)
    leaq L_CFORGE_TAG_CR(%rip), %rax
    pushq %rax
    movabsq $0xb, %rax
    pushq %rax
    movabsq $0x73, %rax
    pushq %rax
    popq %rdx
    popq %rcx
    popq %rax
    movb %dl, (%rax,%rcx,1)
    leaq L_CFORGE_TAG_CR(%rip), %rax
    pushq %rax
    movabsq $0xc, %rax
    pushq %rax
    movabsq $0x6f, %rax
    pushq %rax
    popq %rdx
    popq %rcx
    popq %rax
    movb %dl, (%rax,%rcx,1)
    leaq L_CFORGE_TAG_CR(%rip), %rax
    pushq %rax
    movabsq $0xd, %rax
    pushq %rax
    movabsq $0x75, %rax
    pushq %rax
    popq %rdx
    popq %rcx
    popq %rax
    movb %dl, (%rax,%rcx,1)
    leaq L_CFORGE_TAG_CR(%rip), %rax
    pushq %rax
    movabsq $0xe, %rax
    pushq %rax
    movabsq $0x72, %rax
    pushq %rax
    popq %rdx
    popq %rcx
    popq %rax
    movb %dl, (%rax,%rcx,1)
    leaq L_CFORGE_TAG_CR(%rip), %rax
    pushq %rax
    movabsq $0xf, %rax
    pushq %rax
    movabsq $0x63, %rax
    pushq %rax
    popq %rdx
    popq %rcx
    popq %rax
    movb %dl, (%rax,%rcx,1)
    leaq L_CFORGE_TAG_CR(%rip), %rax
    pushq %rax
    movabsq $0x10, %rax
    pushq %rax
    movabsq $0x65, %rax
    pushq %rax
    popq %rdx
    popq %rcx
    popq %rax
    movb %dl, (%rax,%rcx,1)
    leaq L_CFORGE_TAG_RS(%rip), %rax
    pushq %rax
    movabsq $0x0, %rax
    pushq %rax
    movabsq $0x72, %rax
    pushq %rax
    popq %rdx
    popq %rcx
    popq %rax
    movb %dl, (%rax,%rcx,1)
    leaq L_CFORGE_TAG_RS(%rip), %rax
    pushq %rax
    movabsq $0x1, %rax
    pushq %rax
    movabsq $0x65, %rax
    pushq %rax
    popq %rdx
    popq %rcx
    popq %rax
    movb %dl, (%rax,%rcx,1)
    leaq L_CFORGE_TAG_RS(%rip), %rax
    pushq %rax
    movabsq $0x2, %rax
    pushq %rax
    movabsq $0x73, %rax
    pushq %rax
    popq %rdx
    popq %rcx
    popq %rax
    movb %dl, (%rax,%rcx,1)
    leaq L_CFORGE_TAG_RS(%rip), %rax
    pushq %rax
    movabsq $0x3, %rax
    pushq %rax
    movabsq $0x74, %rax
    pushq %rax
    popq %rdx
    popq %rcx
    popq %rax
    movb %dl, (%rax,%rcx,1)
    leaq L_CFORGE_TAG_RS(%rip), %rax
    pushq %rax
    movabsq $0x4, %rax
    pushq %rax
    movabsq $0x72, %rax
    pushq %rax
    popq %rdx
    popq %rcx
    popq %rax
    movb %dl, (%rax,%rcx,1)
    leaq L_CFORGE_TAG_RS(%rip), %rax
    pushq %rax
    movabsq $0x5, %rax
    pushq %rax
    movabsq $0x69, %rax
    pushq %rax
    popq %rdx
    popq %rcx
    popq %rax
    movb %dl, (%rax,%rcx,1)
    leaq L_CFORGE_TAG_RS(%rip), %rax
    pushq %rax
    movabsq $0x6, %rax
    pushq %rax
    movabsq $0x63, %rax
    pushq %rax
    popq %rdx
    popq %rcx
    popq %rax
    movb %dl, (%rax,%rcx,1)
    leaq L_CFORGE_TAG_RS(%rip), %rax
    pushq %rax
    movabsq $0x7, %rax
    pushq %rax
    movabsq $0x74, %rax
    pushq %rax
    popq %rdx
    popq %rcx
    popq %rax
    movb %dl, (%rax,%rcx,1)
    leaq L_CFORGE_TAG_RS(%rip), %rax
    pushq %rax
    movabsq $0x8, %rax
    pushq %rax
    movabsq $0x3a, %rax
    pushq %rax
    popq %rdx
    popq %rcx
    popq %rax
    movb %dl, (%rax,%rcx,1)
    leaq L_CFORGE_TAG_RS(%rip), %rax
    pushq %rax
    movabsq $0x9, %rax
    pushq %rax
    movabsq $0x3a, %rax
    pushq %rax
    popq %rdx
    popq %rcx
    popq %rax
    movb %dl, (%rax,%rcx,1)
    leaq L_CFORGE_TAG_RS(%rip), %rax
    pushq %rax
    movabsq $0xa, %rax
    pushq %rax
    movabsq $0x73, %rax
    pushq %rax
    popq %rdx
    popq %rcx
    popq %rax
    movb %dl, (%rax,%rcx,1)
    leaq L_CFORGE_TAG_RS(%rip), %rax
    pushq %rax
    movabsq $0xb, %rax
    pushq %rax
    movabsq $0x75, %rax
    pushq %rax
    popq %rdx
    popq %rcx
    popq %rax
    movb %dl, (%rax,%rcx,1)
    leaq L_CFORGE_TAG_RS(%rip), %rax
    pushq %rax
    movabsq $0xc, %rax
    pushq %rax
    movabsq $0x62, %rax
    pushq %rax
    popq %rdx
    popq %rcx
    popq %rax
    movb %dl, (%rax,%rcx,1)
    leaq L_CFORGE_TAG_RS(%rip), %rax
    pushq %rax
    movabsq $0xd, %rax
    pushq %rax
    movabsq $0x6a, %rax
    pushq %rax
    popq %rdx
    popq %rcx
    popq %rax
    movb %dl, (%rax,%rcx,1)
    leaq L_CFORGE_TAG_RS(%rip), %rax
    pushq %rax
    movabsq $0xe, %rax
    pushq %rax
    movabsq $0x65, %rax
    pushq %rax
    popq %rdx
    popq %rcx
    popq %rax
    movb %dl, (%rax,%rcx,1)
    leaq L_CFORGE_TAG_RS(%rip), %rax
    pushq %rax
    movabsq $0xf, %rax
    pushq %rax
    movabsq $0x63, %rax
    pushq %rax
    popq %rdx
    popq %rcx
    popq %rax
    movb %dl, (%rax,%rcx,1)
    leaq L_CFORGE_TAG_RS(%rip), %rax
    pushq %rax
    movabsq $0x10, %rax
    pushq %rax
    movabsq $0x74, %rax
    pushq %rax
    popq %rdx
    popq %rcx
    popq %rax
    movb %dl, (%rax,%rcx,1)
    leaq L_CFORGE_TAG_RO(%rip), %rax
    pushq %rax
    movabsq $0x0, %rax
    pushq %rax
    movabsq $0x72, %rax
    pushq %rax
    popq %rdx
    popq %rcx
    popq %rax
    movb %dl, (%rax,%rcx,1)
    leaq L_CFORGE_TAG_RO(%rip), %rax
    pushq %rax
    movabsq $0x1, %rax
    pushq %rax
    movabsq $0x65, %rax
    pushq %rax
    popq %rdx
    popq %rcx
    popq %rax
    movb %dl, (%rax,%rcx,1)
    leaq L_CFORGE_TAG_RO(%rip), %rax
    pushq %rax
    movabsq $0x2, %rax
    pushq %rax
    movabsq $0x73, %rax
    pushq %rax
    popq %rdx
    popq %rcx
    popq %rax
    movb %dl, (%rax,%rcx,1)
    leaq L_CFORGE_TAG_RO(%rip), %rax
    pushq %rax
    movabsq $0x3, %rax
    pushq %rax
    movabsq $0x74, %rax
    pushq %rax
    popq %rdx
    popq %rcx
    popq %rax
    movb %dl, (%rax,%rcx,1)
    leaq L_CFORGE_TAG_RO(%rip), %rax
    pushq %rax
    movabsq $0x4, %rax
    pushq %rax
    movabsq $0x72, %rax
    pushq %rax
    popq %rdx
    popq %rcx
    popq %rax
    movb %dl, (%rax,%rcx,1)
    leaq L_CFORGE_TAG_RO(%rip), %rax
    pushq %rax
    movabsq $0x5, %rax
    pushq %rax
    movabsq $0x69, %rax
    pushq %rax
    popq %rdx
    popq %rcx
    popq %rax
    movb %dl, (%rax,%rcx,1)
    leaq L_CFORGE_TAG_RO(%rip), %rax
    pushq %rax
    movabsq $0x6, %rax
    pushq %rax
    movabsq $0x63, %rax
    pushq %rax
    popq %rdx
    popq %rcx
    popq %rax
    movb %dl, (%rax,%rcx,1)
    leaq L_CFORGE_TAG_RO(%rip), %rax
    pushq %rax
    movabsq $0x7, %rax
    pushq %rax
    movabsq $0x74, %rax
    pushq %rax
    popq %rdx
    popq %rcx
    popq %rax
    movb %dl, (%rax,%rcx,1)
    leaq L_CFORGE_TAG_RO(%rip), %rax
    pushq %rax
    movabsq $0x8, %rax
    pushq %rax
    movabsq $0x3a, %rax
    pushq %rax
    popq %rdx
    popq %rcx
    popq %rax
    movb %dl, (%rax,%rcx,1)
    leaq L_CFORGE_TAG_RO(%rip), %rax
    pushq %rax
    movabsq $0x9, %rax
    pushq %rax
    movabsq $0x3a, %rax
    pushq %rax
    popq %rdx
    popq %rcx
    popq %rax
    movb %dl, (%rax,%rcx,1)
    leaq L_CFORGE_TAG_RO(%rip), %rax
    pushq %rax
    movabsq $0xa, %rax
    pushq %rax
    movabsq $0x6f, %rax
    pushq %rax
    popq %rdx
    popq %rcx
    popq %rax
    movb %dl, (%rax,%rcx,1)
    leaq L_CFORGE_TAG_RO(%rip), %rax
    pushq %rax
    movabsq $0xb, %rax
    pushq %rax
    movabsq $0x70, %rax
    pushq %rax
    popq %rdx
    popq %rcx
    popq %rax
    movb %dl, (%rax,%rcx,1)
    leaq L_CFORGE_TAG_RR(%rip), %rax
    pushq %rax
    movabsq $0x0, %rax
    pushq %rax
    movabsq $0x72, %rax
    pushq %rax
    popq %rdx
    popq %rcx
    popq %rax
    movb %dl, (%rax,%rcx,1)
    leaq L_CFORGE_TAG_RR(%rip), %rax
    pushq %rax
    movabsq $0x1, %rax
    pushq %rax
    movabsq $0x65, %rax
    pushq %rax
    popq %rdx
    popq %rcx
    popq %rax
    movb %dl, (%rax,%rcx,1)
    leaq L_CFORGE_TAG_RR(%rip), %rax
    pushq %rax
    movabsq $0x2, %rax
    pushq %rax
    movabsq $0x73, %rax
    pushq %rax
    popq %rdx
    popq %rcx
    popq %rax
    movb %dl, (%rax,%rcx,1)
    leaq L_CFORGE_TAG_RR(%rip), %rax
    pushq %rax
    movabsq $0x3, %rax
    pushq %rax
    movabsq $0x74, %rax
    pushq %rax
    popq %rdx
    popq %rcx
    popq %rax
    movb %dl, (%rax,%rcx,1)
    leaq L_CFORGE_TAG_RR(%rip), %rax
    pushq %rax
    movabsq $0x4, %rax
    pushq %rax
    movabsq $0x72, %rax
    pushq %rax
    popq %rdx
    popq %rcx
    popq %rax
    movb %dl, (%rax,%rcx,1)
    leaq L_CFORGE_TAG_RR(%rip), %rax
    pushq %rax
    movabsq $0x5, %rax
    pushq %rax
    movabsq $0x69, %rax
    pushq %rax
    popq %rdx
    popq %rcx
    popq %rax
    movb %dl, (%rax,%rcx,1)
    leaq L_CFORGE_TAG_RR(%rip), %rax
    pushq %rax
    movabsq $0x6, %rax
    pushq %rax
    movabsq $0x63, %rax
    pushq %rax
    popq %rdx
    popq %rcx
    popq %rax
    movb %dl, (%rax,%rcx,1)
    leaq L_CFORGE_TAG_RR(%rip), %rax
    pushq %rax
    movabsq $0x7, %rax
    pushq %rax
    movabsq $0x74, %rax
    pushq %rax
    popq %rdx
    popq %rcx
    popq %rax
    movb %dl, (%rax,%rcx,1)
    leaq L_CFORGE_TAG_RR(%rip), %rax
    pushq %rax
    movabsq $0x8, %rax
    pushq %rax
    movabsq $0x3a, %rax
    pushq %rax
    popq %rdx
    popq %rcx
    popq %rax
    movb %dl, (%rax,%rcx,1)
    leaq L_CFORGE_TAG_RR(%rip), %rax
    pushq %rax
    movabsq $0x9, %rax
    pushq %rax
    movabsq $0x3a, %rax
    pushq %rax
    popq %rdx
    popq %rcx
    popq %rax
    movb %dl, (%rax,%rcx,1)
    leaq L_CFORGE_TAG_RR(%rip), %rax
    pushq %rax
    movabsq $0xa, %rax
    pushq %rax
    movabsq $0x72, %rax
    pushq %rax
    popq %rdx
    popq %rcx
    popq %rax
    movb %dl, (%rax,%rcx,1)
    leaq L_CFORGE_TAG_RR(%rip), %rax
    pushq %rax
    movabsq $0xb, %rax
    pushq %rax
    movabsq $0x65, %rax
    pushq %rax
    popq %rdx
    popq %rcx
    popq %rax
    movb %dl, (%rax,%rcx,1)
    leaq L_CFORGE_TAG_RR(%rip), %rax
    pushq %rax
    movabsq $0xc, %rax
    pushq %rax
    movabsq $0x73, %rax
    pushq %rax
    popq %rdx
    popq %rcx
    popq %rax
    movb %dl, (%rax,%rcx,1)
    leaq L_CFORGE_TAG_RR(%rip), %rax
    pushq %rax
    movabsq $0xd, %rax
    pushq %rax
    movabsq $0x6f, %rax
    pushq %rax
    popq %rdx
    popq %rcx
    popq %rax
    movb %dl, (%rax,%rcx,1)
    leaq L_CFORGE_TAG_RR(%rip), %rax
    pushq %rax
    movabsq $0xe, %rax
    pushq %rax
    movabsq $0x75, %rax
    pushq %rax
    popq %rdx
    popq %rcx
    popq %rax
    movb %dl, (%rax,%rcx,1)
    leaq L_CFORGE_TAG_RR(%rip), %rax
    pushq %rax
    movabsq $0xf, %rax
    pushq %rax
    movabsq $0x72, %rax
    pushq %rax
    popq %rdx
    popq %rcx
    popq %rax
    movb %dl, (%rax,%rcx,1)
    leaq L_CFORGE_TAG_RR(%rip), %rax
    pushq %rax
    movabsq $0x10, %rax
    pushq %rax
    movabsq $0x63, %rax
    pushq %rax
    popq %rdx
    popq %rcx
    popq %rax
    movb %dl, (%rax,%rcx,1)
    leaq L_CFORGE_TAG_RR(%rip), %rax
    pushq %rax
    movabsq $0x11, %rax
    pushq %rax
    movabsq $0x65, %rax
    pushq %rax
    popq %rdx
    popq %rcx
    popq %rax
    movb %dl, (%rax,%rcx,1)
    leaq L_CFORGE_TAG_SS(%rip), %rax
    pushq %rax
    movabsq $0x0, %rax
    pushq %rax
    movabsq $0x73, %rax
    pushq %rax
    popq %rdx
    popq %rcx
    popq %rax
    movb %dl, (%rax,%rcx,1)
    leaq L_CFORGE_TAG_SS(%rip), %rax
    pushq %rax
    movabsq $0x1, %rax
    pushq %rax
    movabsq $0x70, %rax
    pushq %rax
    popq %rdx
    popq %rcx
    popq %rax
    movb %dl, (%rax,%rcx,1)
    leaq L_CFORGE_TAG_SS(%rip), %rax
    pushq %rax
    movabsq $0x2, %rax
    pushq %rax
    movabsq $0x6c, %rax
    pushq %rax
    popq %rdx
    popq %rcx
    popq %rax
    movb %dl, (%rax,%rcx,1)
    leaq L_CFORGE_TAG_SS(%rip), %rax
    pushq %rax
    movabsq $0x3, %rax
    pushq %rax
    movabsq $0x69, %rax
    pushq %rax
    popq %rdx
    popq %rcx
    popq %rax
    movb %dl, (%rax,%rcx,1)
    leaq L_CFORGE_TAG_SS(%rip), %rax
    pushq %rax
    movabsq $0x4, %rax
    pushq %rax
    movabsq $0x74, %rax
    pushq %rax
    popq %rdx
    popq %rcx
    popq %rax
    movb %dl, (%rax,%rcx,1)
    leaq L_CFORGE_TAG_SS(%rip), %rax
    pushq %rax
    movabsq $0x5, %rax
    pushq %rax
    movabsq $0x3a, %rax
    pushq %rax
    popq %rdx
    popq %rcx
    popq %rax
    movb %dl, (%rax,%rcx,1)
    leaq L_CFORGE_TAG_SS(%rip), %rax
    pushq %rax
    movabsq $0x6, %rax
    pushq %rax
    movabsq $0x3a, %rax
    pushq %rax
    popq %rdx
    popq %rcx
    popq %rax
    movb %dl, (%rax,%rcx,1)
    leaq L_CFORGE_TAG_SS(%rip), %rax
    pushq %rax
    movabsq $0x7, %rax
    pushq %rax
    movabsq $0x73, %rax
    pushq %rax
    popq %rdx
    popq %rcx
    popq %rax
    movb %dl, (%rax,%rcx,1)
    leaq L_CFORGE_TAG_SS(%rip), %rax
    pushq %rax
    movabsq $0x8, %rax
    pushq %rax
    movabsq $0x75, %rax
    pushq %rax
    popq %rdx
    popq %rcx
    popq %rax
    movb %dl, (%rax,%rcx,1)
    leaq L_CFORGE_TAG_SS(%rip), %rax
    pushq %rax
    movabsq $0x9, %rax
    pushq %rax
    movabsq $0x62, %rax
    pushq %rax
    popq %rdx
    popq %rcx
    popq %rax
    movb %dl, (%rax,%rcx,1)
    leaq L_CFORGE_TAG_SS(%rip), %rax
    pushq %rax
    movabsq $0xa, %rax
    pushq %rax
    movabsq $0x6a, %rax
    pushq %rax
    popq %rdx
    popq %rcx
    popq %rax
    movb %dl, (%rax,%rcx,1)
    leaq L_CFORGE_TAG_SS(%rip), %rax
    pushq %rax
    movabsq $0xb, %rax
    pushq %rax
    movabsq $0x65, %rax
    pushq %rax
    popq %rdx
    popq %rcx
    popq %rax
    movb %dl, (%rax,%rcx,1)
    leaq L_CFORGE_TAG_SS(%rip), %rax
    pushq %rax
    movabsq $0xc, %rax
    pushq %rax
    movabsq $0x63, %rax
    pushq %rax
    popq %rdx
    popq %rcx
    popq %rax
    movb %dl, (%rax,%rcx,1)
    leaq L_CFORGE_TAG_SS(%rip), %rax
    pushq %rax
    movabsq $0xd, %rax
    pushq %rax
    movabsq $0x74, %rax
    pushq %rax
    popq %rdx
    popq %rcx
    popq %rax
    movb %dl, (%rax,%rcx,1)
    leaq L_CFORGE_TAG_SO(%rip), %rax
    pushq %rax
    movabsq $0x0, %rax
    pushq %rax
    movabsq $0x73, %rax
    pushq %rax
    popq %rdx
    popq %rcx
    popq %rax
    movb %dl, (%rax,%rcx,1)
    leaq L_CFORGE_TAG_SO(%rip), %rax
    pushq %rax
    movabsq $0x1, %rax
    pushq %rax
    movabsq $0x70, %rax
    pushq %rax
    popq %rdx
    popq %rcx
    popq %rax
    movb %dl, (%rax,%rcx,1)
    leaq L_CFORGE_TAG_SO(%rip), %rax
    pushq %rax
    movabsq $0x2, %rax
    pushq %rax
    movabsq $0x6c, %rax
    pushq %rax
    popq %rdx
    popq %rcx
    popq %rax
    movb %dl, (%rax,%rcx,1)
    leaq L_CFORGE_TAG_SO(%rip), %rax
    pushq %rax
    movabsq $0x3, %rax
    pushq %rax
    movabsq $0x69, %rax
    pushq %rax
    popq %rdx
    popq %rcx
    popq %rax
    movb %dl, (%rax,%rcx,1)
    leaq L_CFORGE_TAG_SO(%rip), %rax
    pushq %rax
    movabsq $0x4, %rax
    pushq %rax
    movabsq $0x74, %rax
    pushq %rax
    popq %rdx
    popq %rcx
    popq %rax
    movb %dl, (%rax,%rcx,1)
    leaq L_CFORGE_TAG_SO(%rip), %rax
    pushq %rax
    movabsq $0x5, %rax
    pushq %rax
    movabsq $0x3a, %rax
    pushq %rax
    popq %rdx
    popq %rcx
    popq %rax
    movb %dl, (%rax,%rcx,1)
    leaq L_CFORGE_TAG_SO(%rip), %rax
    pushq %rax
    movabsq $0x6, %rax
    pushq %rax
    movabsq $0x3a, %rax
    pushq %rax
    popq %rdx
    popq %rcx
    popq %rax
    movb %dl, (%rax,%rcx,1)
    leaq L_CFORGE_TAG_SO(%rip), %rax
    pushq %rax
    movabsq $0x7, %rax
    pushq %rax
    movabsq $0x6f, %rax
    pushq %rax
    popq %rdx
    popq %rcx
    popq %rax
    movb %dl, (%rax,%rcx,1)
    leaq L_CFORGE_TAG_SO(%rip), %rax
    pushq %rax
    movabsq $0x8, %rax
    pushq %rax
    movabsq $0x70, %rax
    pushq %rax
    popq %rdx
    popq %rcx
    popq %rax
    movb %dl, (%rax,%rcx,1)
    leaq L_CFORGE_TAG_SR(%rip), %rax
    pushq %rax
    movabsq $0x0, %rax
    pushq %rax
    movabsq $0x73, %rax
    pushq %rax
    popq %rdx
    popq %rcx
    popq %rax
    movb %dl, (%rax,%rcx,1)
    leaq L_CFORGE_TAG_SR(%rip), %rax
    pushq %rax
    movabsq $0x1, %rax
    pushq %rax
    movabsq $0x70, %rax
    pushq %rax
    popq %rdx
    popq %rcx
    popq %rax
    movb %dl, (%rax,%rcx,1)
    leaq L_CFORGE_TAG_SR(%rip), %rax
    pushq %rax
    movabsq $0x2, %rax
    pushq %rax
    movabsq $0x6c, %rax
    pushq %rax
    popq %rdx
    popq %rcx
    popq %rax
    movb %dl, (%rax,%rcx,1)
    leaq L_CFORGE_TAG_SR(%rip), %rax
    pushq %rax
    movabsq $0x3, %rax
    pushq %rax
    movabsq $0x69, %rax
    pushq %rax
    popq %rdx
    popq %rcx
    popq %rax
    movb %dl, (%rax,%rcx,1)
    leaq L_CFORGE_TAG_SR(%rip), %rax
    pushq %rax
    movabsq $0x4, %rax
    pushq %rax
    movabsq $0x74, %rax
    pushq %rax
    popq %rdx
    popq %rcx
    popq %rax
    movb %dl, (%rax,%rcx,1)
    leaq L_CFORGE_TAG_SR(%rip), %rax
    pushq %rax
    movabsq $0x5, %rax
    pushq %rax
    movabsq $0x3a, %rax
    pushq %rax
    popq %rdx
    popq %rcx
    popq %rax
    movb %dl, (%rax,%rcx,1)
    leaq L_CFORGE_TAG_SR(%rip), %rax
    pushq %rax
    movabsq $0x6, %rax
    pushq %rax
    movabsq $0x3a, %rax
    pushq %rax
    popq %rdx
    popq %rcx
    popq %rax
    movb %dl, (%rax,%rcx,1)
    leaq L_CFORGE_TAG_SR(%rip), %rax
    pushq %rax
    movabsq $0x7, %rax
    pushq %rax
    movabsq $0x72, %rax
    pushq %rax
    popq %rdx
    popq %rcx
    popq %rax
    movb %dl, (%rax,%rcx,1)
    leaq L_CFORGE_TAG_SR(%rip), %rax
    pushq %rax
    movabsq $0x8, %rax
    pushq %rax
    movabsq $0x65, %rax
    pushq %rax
    popq %rdx
    popq %rcx
    popq %rax
    movb %dl, (%rax,%rcx,1)
    leaq L_CFORGE_TAG_SR(%rip), %rax
    pushq %rax
    movabsq $0x9, %rax
    pushq %rax
    movabsq $0x73, %rax
    pushq %rax
    popq %rdx
    popq %rcx
    popq %rax
    movb %dl, (%rax,%rcx,1)
    leaq L_CFORGE_TAG_SR(%rip), %rax
    pushq %rax
    movabsq $0xa, %rax
    pushq %rax
    movabsq $0x6f, %rax
    pushq %rax
    popq %rdx
    popq %rcx
    popq %rax
    movb %dl, (%rax,%rcx,1)
    leaq L_CFORGE_TAG_SR(%rip), %rax
    pushq %rax
    movabsq $0xb, %rax
    pushq %rax
    movabsq $0x75, %rax
    pushq %rax
    popq %rdx
    popq %rcx
    popq %rax
    movb %dl, (%rax,%rcx,1)
    leaq L_CFORGE_TAG_SR(%rip), %rax
    pushq %rax
    movabsq $0xc, %rax
    pushq %rax
    movabsq $0x72, %rax
    pushq %rax
    popq %rdx
    popq %rcx
    popq %rax
    movb %dl, (%rax,%rcx,1)
    leaq L_CFORGE_TAG_SR(%rip), %rax
    pushq %rax
    movabsq $0xd, %rax
    pushq %rax
    movabsq $0x63, %rax
    pushq %rax
    popq %rdx
    popq %rcx
    popq %rax
    movb %dl, (%rax,%rcx,1)
    leaq L_CFORGE_TAG_SR(%rip), %rax
    pushq %rax
    movabsq $0xe, %rax
    pushq %rax
    movabsq $0x65, %rax
    pushq %rax
    popq %rdx
    popq %rcx
    popq %rax
    movb %dl, (%rax,%rcx,1)
    movslq L_CFORGE_OK(%rip), %rax
    pushq %rax
    popq %rax
    movq %rbp, %rsp
    popq %rbp
    retq
    movq $0, %rax
    pushq %rax
    movq $0, %rax
    movq %rbp, %rsp
    popq %rbp
    retq
    .seh_endproc
    .section .iii.ring3,"n"
    .asciz "cf_fill_strings"
    .text
    .global L_cf_fill_strings
    .seh_proc L_cf_fill_strings
L_cf_fill_strings:
    pushq %rbp
    .seh_pushreg %rbp
    movq %rsp, %rbp
    .seh_setframe %rbp, 0
    subq $1024, %rsp
    .seh_stackalloc 1024
    .seh_endprologue
    leaq L_CFORGE_STR_PROD(%rip), %rax
    pushq %rax
    movabsq $0x0, %rax
    pushq %rax
    movabsq $0x61, %rax
    pushq %rax
    popq %rdx
    popq %rcx
    popq %rax
    movb %dl, (%rax,%rcx,1)
    leaq L_CFORGE_STR_PROD(%rip), %rax
    pushq %rax
    movabsq $0x1, %rax
    pushq %rax
    movabsq $0x65, %rax
    pushq %rax
    popq %rdx
    popq %rcx
    popq %rax
    movb %dl, (%rax,%rcx,1)
    leaq L_CFORGE_STR_PROD(%rip), %rax
    pushq %rax
    movabsq $0x2, %rax
    pushq %rax
    movabsq $0x74, %rax
    pushq %rax
    popq %rdx
    popq %rcx
    popq %rax
    movb %dl, (%rax,%rcx,1)
    leaq L_CFORGE_STR_PROD(%rip), %rax
    pushq %rax
    movabsq $0x3, %rax
    pushq %rax
    movabsq $0x68, %rax
    pushq %rax
    popq %rdx
    popq %rcx
    popq %rax
    movb %dl, (%rax,%rcx,1)
    leaq L_CFORGE_STR_PROD(%rip), %rax
    pushq %rax
    movabsq $0x4, %rax
    pushq %rax
    movabsq $0x65, %rax
    pushq %rax
    popq %rdx
    popq %rcx
    popq %rax
    movb %dl, (%rax,%rcx,1)
    leaq L_CFORGE_STR_PROD(%rip), %rax
    pushq %rax
    movabsq $0x5, %rax
    pushq %rax
    movabsq $0x72, %rax
    pushq %rax
    popq %rdx
    popq %rcx
    popq %rax
    movb %dl, (%rax,%rcx,1)
    leaq L_CFORGE_STR_PROD(%rip), %rax
    pushq %rax
    movabsq $0x6, %rax
    pushq %rax
    movabsq $0x3a, %rax
    pushq %rax
    popq %rdx
    popq %rcx
    popq %rax
    movb %dl, (%rax,%rcx,1)
    leaq L_CFORGE_STR_PROD(%rip), %rax
    pushq %rax
    movabsq $0x7, %rax
    pushq %rax
    movabsq $0x3a, %rax
    pushq %rax
    popq %rdx
    popq %rcx
    popq %rax
    movb %dl, (%rax,%rcx,1)
    leaq L_CFORGE_STR_PROD(%rip), %rax
    pushq %rax
    movabsq $0x8, %rax
    pushq %rax
    movabsq $0x63, %rax
    pushq %rax
    popq %rdx
    popq %rcx
    popq %rax
    movb %dl, (%rax,%rcx,1)
    leaq L_CFORGE_STR_PROD(%rip), %rax
    pushq %rax
    movabsq $0x9, %rax
    pushq %rax
    movabsq $0x61, %rax
    pushq %rax
    popq %rdx
    popq %rcx
    popq %rax
    movb %dl, (%rax,%rcx,1)
    leaq L_CFORGE_STR_PROD(%rip), %rax
    pushq %rax
    movabsq $0xa, %rax
    pushq %rax
    movabsq $0x70, %rax
    pushq %rax
    popq %rdx
    popq %rcx
    popq %rax
    movb %dl, (%rax,%rcx,1)
    leaq L_CFORGE_STR_PROD(%rip), %rax
    pushq %rax
    movabsq $0xb, %rax
    pushq %rax
    movabsq $0x5f, %rax
    pushq %rax
    popq %rdx
    popq %rcx
    popq %rax
    movb %dl, (%rax,%rcx,1)
    leaq L_CFORGE_STR_PROD(%rip), %rax
    pushq %rax
    movabsq $0xc, %rax
    pushq %rax
    movabsq $0x66, %rax
    pushq %rax
    popq %rdx
    popq %rcx
    popq %rax
    movb %dl, (%rax,%rcx,1)
    leaq L_CFORGE_STR_PROD(%rip), %rax
    pushq %rax
    movabsq $0xd, %rax
    pushq %rax
    movabsq $0x6f, %rax
    pushq %rax
    popq %rdx
    popq %rcx
    popq %rax
    movb %dl, (%rax,%rcx,1)
    leaq L_CFORGE_STR_PROD(%rip), %rax
    pushq %rax
    movabsq $0xe, %rax
    pushq %rax
    movabsq $0x72, %rax
    pushq %rax
    popq %rdx
    popq %rcx
    popq %rax
    movb %dl, (%rax,%rcx,1)
    leaq L_CFORGE_STR_PROD(%rip), %rax
    pushq %rax
    movabsq $0xf, %rax
    pushq %rax
    movabsq $0x67, %rax
    pushq %rax
    popq %rdx
    popq %rcx
    popq %rax
    movb %dl, (%rax,%rcx,1)
    leaq L_CFORGE_STR_PROD(%rip), %rax
    pushq %rax
    movabsq $0x10, %rax
    pushq %rax
    movabsq $0x65, %rax
    pushq %rax
    popq %rdx
    popq %rcx
    popq %rax
    movb %dl, (%rax,%rcx,1)
    leaq L_CFORGE_STR_FRG(%rip), %rax
    pushq %rax
    movabsq $0x0, %rax
    pushq %rax
    movabsq $0x61, %rax
    pushq %rax
    popq %rdx
    popq %rcx
    popq %rax
    movb %dl, (%rax,%rcx,1)
    leaq L_CFORGE_STR_FRG(%rip), %rax
    pushq %rax
    movabsq $0x1, %rax
    pushq %rax
    movabsq $0x65, %rax
    pushq %rax
    popq %rdx
    popq %rcx
    popq %rax
    movb %dl, (%rax,%rcx,1)
    leaq L_CFORGE_STR_FRG(%rip), %rax
    pushq %rax
    movabsq $0x2, %rax
    pushq %rax
    movabsq $0x74, %rax
    pushq %rax
    popq %rdx
    popq %rcx
    popq %rax
    movb %dl, (%rax,%rcx,1)
    leaq L_CFORGE_STR_FRG(%rip), %rax
    pushq %rax
    movabsq $0x3, %rax
    pushq %rax
    movabsq $0x68, %rax
    pushq %rax
    popq %rdx
    popq %rcx
    popq %rax
    movb %dl, (%rax,%rcx,1)
    leaq L_CFORGE_STR_FRG(%rip), %rax
    pushq %rax
    movabsq $0x4, %rax
    pushq %rax
    movabsq $0x65, %rax
    pushq %rax
    popq %rdx
    popq %rcx
    popq %rax
    movb %dl, (%rax,%rcx,1)
    leaq L_CFORGE_STR_FRG(%rip), %rax
    pushq %rax
    movabsq $0x5, %rax
    pushq %rax
    movabsq $0x72, %rax
    pushq %rax
    popq %rdx
    popq %rcx
    popq %rax
    movb %dl, (%rax,%rcx,1)
    leaq L_CFORGE_STR_FRG(%rip), %rax
    pushq %rax
    movabsq $0x6, %rax
    pushq %rax
    movabsq $0x3a, %rax
    pushq %rax
    popq %rdx
    popq %rcx
    popq %rax
    movb %dl, (%rax,%rcx,1)
    leaq L_CFORGE_STR_FRG(%rip), %rax
    pushq %rax
    movabsq $0x7, %rax
    pushq %rax
    movabsq $0x3a, %rax
    pushq %rax
    popq %rdx
    popq %rcx
    popq %rax
    movb %dl, (%rax,%rcx,1)
    leaq L_CFORGE_STR_FRG(%rip), %rax
    pushq %rax
    movabsq $0x8, %rax
    pushq %rax
    movabsq $0x63, %rax
    pushq %rax
    popq %rdx
    popq %rcx
    popq %rax
    movb %dl, (%rax,%rcx,1)
    leaq L_CFORGE_STR_FRG(%rip), %rax
    pushq %rax
    movabsq $0x9, %rax
    pushq %rax
    movabsq $0x61, %rax
    pushq %rax
    popq %rdx
    popq %rcx
    popq %rax
    movb %dl, (%rax,%rcx,1)
    leaq L_CFORGE_STR_FRG(%rip), %rax
    pushq %rax
    movabsq $0xa, %rax
    pushq %rax
    movabsq $0x70, %rax
    pushq %rax
    popq %rdx
    popq %rcx
    popq %rax
    movb %dl, (%rax,%rcx,1)
    leaq L_CFORGE_STR_FRG(%rip), %rax
    pushq %rax
    movabsq $0xb, %rax
    pushq %rax
    movabsq $0x5f, %rax
    pushq %rax
    popq %rdx
    popq %rcx
    popq %rax
    movb %dl, (%rax,%rcx,1)
    leaq L_CFORGE_STR_FRG(%rip), %rax
    pushq %rax
    movabsq $0xc, %rax
    pushq %rax
    movabsq $0x66, %rax
    pushq %rax
    popq %rdx
    popq %rcx
    popq %rax
    movb %dl, (%rax,%rcx,1)
    leaq L_CFORGE_STR_FRG(%rip), %rax
    pushq %rax
    movabsq $0xd, %rax
    pushq %rax
    movabsq $0x6f, %rax
    pushq %rax
    popq %rdx
    popq %rcx
    popq %rax
    movb %dl, (%rax,%rcx,1)
    leaq L_CFORGE_STR_FRG(%rip), %rax
    pushq %rax
    movabsq $0xe, %rax
    pushq %rax
    movabsq $0x72, %rax
    pushq %rax
    popq %rdx
    popq %rcx
    popq %rax
    movb %dl, (%rax,%rcx,1)
    leaq L_CFORGE_STR_FRG(%rip), %rax
    pushq %rax
    movabsq $0xf, %rax
    pushq %rax
    movabsq $0x67, %rax
    pushq %rax
    popq %rdx
    popq %rcx
    popq %rax
    movb %dl, (%rax,%rcx,1)
    leaq L_CFORGE_STR_FRG(%rip), %rax
    pushq %rax
    movabsq $0x10, %rax
    pushq %rax
    movabsq $0x65, %rax
    pushq %rax
    popq %rdx
    popq %rcx
    popq %rax
    movb %dl, (%rax,%rcx,1)
    leaq L_CFORGE_STR_FRG(%rip), %rax
    pushq %rax
    movabsq $0x11, %rax
    pushq %rax
    movabsq $0x3a, %rax
    pushq %rax
    popq %rdx
    popq %rcx
    popq %rax
    movb %dl, (%rax,%rcx,1)
    leaq L_CFORGE_STR_FRG(%rip), %rax
    pushq %rax
    movabsq $0x12, %rax
    pushq %rax
    movabsq $0x3a, %rax
    pushq %rax
    popq %rdx
    popq %rcx
    popq %rax
    movb %dl, (%rax,%rcx,1)
    leaq L_CFORGE_STR_FRG(%rip), %rax
    pushq %rax
    movabsq $0x13, %rax
    pushq %rax
    movabsq $0x66, %rax
    pushq %rax
    popq %rdx
    popq %rcx
    popq %rax
    movb %dl, (%rax,%rcx,1)
    leaq L_CFORGE_STR_FRG(%rip), %rax
    pushq %rax
    movabsq $0x14, %rax
    pushq %rax
    movabsq $0x6f, %rax
    pushq %rax
    popq %rdx
    popq %rcx
    popq %rax
    movb %dl, (%rax,%rcx,1)
    leaq L_CFORGE_STR_FRG(%rip), %rax
    pushq %rax
    movabsq $0x15, %rax
    pushq %rax
    movabsq $0x72, %rax
    pushq %rax
    popq %rdx
    popq %rcx
    popq %rax
    movb %dl, (%rax,%rcx,1)
    leaq L_CFORGE_STR_FRG(%rip), %rax
    pushq %rax
    movabsq $0x16, %rax
    pushq %rax
    movabsq $0x67, %rax
    pushq %rax
    popq %rdx
    popq %rcx
    popq %rax
    movb %dl, (%rax,%rcx,1)
    leaq L_CFORGE_STR_FRG(%rip), %rax
    pushq %rax
    movabsq $0x17, %rax
    pushq %rax
    movabsq $0x65, %rax
    pushq %rax
    popq %rdx
    popq %rcx
    popq %rax
    movb %dl, (%rax,%rcx,1)
    leaq L_CFORGE_STR_DFG(%rip), %rax
    pushq %rax
    movabsq $0x0, %rax
    pushq %rax
    movabsq $0x61, %rax
    pushq %rax
    popq %rdx
    popq %rcx
    popq %rax
    movb %dl, (%rax,%rcx,1)
    leaq L_CFORGE_STR_DFG(%rip), %rax
    pushq %rax
    movabsq $0x1, %rax
    pushq %rax
    movabsq $0x65, %rax
    pushq %rax
    popq %rdx
    popq %rcx
    popq %rax
    movb %dl, (%rax,%rcx,1)
    leaq L_CFORGE_STR_DFG(%rip), %rax
    pushq %rax
    movabsq $0x2, %rax
    pushq %rax
    movabsq $0x74, %rax
    pushq %rax
    popq %rdx
    popq %rcx
    popq %rax
    movb %dl, (%rax,%rcx,1)
    leaq L_CFORGE_STR_DFG(%rip), %rax
    pushq %rax
    movabsq $0x3, %rax
    pushq %rax
    movabsq $0x68, %rax
    pushq %rax
    popq %rdx
    popq %rcx
    popq %rax
    movb %dl, (%rax,%rcx,1)
    leaq L_CFORGE_STR_DFG(%rip), %rax
    pushq %rax
    movabsq $0x4, %rax
    pushq %rax
    movabsq $0x65, %rax
    pushq %rax
    popq %rdx
    popq %rcx
    popq %rax
    movb %dl, (%rax,%rcx,1)
    leaq L_CFORGE_STR_DFG(%rip), %rax
    pushq %rax
    movabsq $0x5, %rax
    pushq %rax
    movabsq $0x72, %rax
    pushq %rax
    popq %rdx
    popq %rcx
    popq %rax
    movb %dl, (%rax,%rcx,1)
    leaq L_CFORGE_STR_DFG(%rip), %rax
    pushq %rax
    movabsq $0x6, %rax
    pushq %rax
    movabsq $0x3a, %rax
    pushq %rax
    popq %rdx
    popq %rcx
    popq %rax
    movb %dl, (%rax,%rcx,1)
    leaq L_CFORGE_STR_DFG(%rip), %rax
    pushq %rax
    movabsq $0x7, %rax
    pushq %rax
    movabsq $0x3a, %rax
    pushq %rax
    popq %rdx
    popq %rcx
    popq %rax
    movb %dl, (%rax,%rcx,1)
    leaq L_CFORGE_STR_DFG(%rip), %rax
    pushq %rax
    movabsq $0x8, %rax
    pushq %rax
    movabsq $0x63, %rax
    pushq %rax
    popq %rdx
    popq %rcx
    popq %rax
    movb %dl, (%rax,%rcx,1)
    leaq L_CFORGE_STR_DFG(%rip), %rax
    pushq %rax
    movabsq $0x9, %rax
    pushq %rax
    movabsq $0x61, %rax
    pushq %rax
    popq %rdx
    popq %rcx
    popq %rax
    movb %dl, (%rax,%rcx,1)
    leaq L_CFORGE_STR_DFG(%rip), %rax
    pushq %rax
    movabsq $0xa, %rax
    pushq %rax
    movabsq $0x70, %rax
    pushq %rax
    popq %rdx
    popq %rcx
    popq %rax
    movb %dl, (%rax,%rcx,1)
    leaq L_CFORGE_STR_DFG(%rip), %rax
    pushq %rax
    movabsq $0xb, %rax
    pushq %rax
    movabsq $0x5f, %rax
    pushq %rax
    popq %rdx
    popq %rcx
    popq %rax
    movb %dl, (%rax,%rcx,1)
    leaq L_CFORGE_STR_DFG(%rip), %rax
    pushq %rax
    movabsq $0xc, %rax
    pushq %rax
    movabsq $0x66, %rax
    pushq %rax
    popq %rdx
    popq %rcx
    popq %rax
    movb %dl, (%rax,%rcx,1)
    leaq L_CFORGE_STR_DFG(%rip), %rax
    pushq %rax
    movabsq $0xd, %rax
    pushq %rax
    movabsq $0x6f, %rax
    pushq %rax
    popq %rdx
    popq %rcx
    popq %rax
    movb %dl, (%rax,%rcx,1)
    leaq L_CFORGE_STR_DFG(%rip), %rax
    pushq %rax
    movabsq $0xe, %rax
    pushq %rax
    movabsq $0x72, %rax
    pushq %rax
    popq %rdx
    popq %rcx
    popq %rax
    movb %dl, (%rax,%rcx,1)
    leaq L_CFORGE_STR_DFG(%rip), %rax
    pushq %rax
    movabsq $0xf, %rax
    pushq %rax
    movabsq $0x67, %rax
    pushq %rax
    popq %rdx
    popq %rcx
    popq %rax
    movb %dl, (%rax,%rcx,1)
    leaq L_CFORGE_STR_DFG(%rip), %rax
    pushq %rax
    movabsq $0x10, %rax
    pushq %rax
    movabsq $0x65, %rax
    pushq %rax
    popq %rdx
    popq %rcx
    popq %rax
    movb %dl, (%rax,%rcx,1)
    leaq L_CFORGE_STR_DFG(%rip), %rax
    pushq %rax
    movabsq $0x11, %rax
    pushq %rax
    movabsq $0x3a, %rax
    pushq %rax
    popq %rdx
    popq %rcx
    popq %rax
    movb %dl, (%rax,%rcx,1)
    leaq L_CFORGE_STR_DFG(%rip), %rax
    pushq %rax
    movabsq $0x12, %rax
    pushq %rax
    movabsq $0x3a, %rax
    pushq %rax
    popq %rdx
    popq %rcx
    popq %rax
    movb %dl, (%rax,%rcx,1)
    leaq L_CFORGE_STR_DFG(%rip), %rax
    pushq %rax
    movabsq $0x13, %rax
    pushq %rax
    movabsq $0x64, %rax
    pushq %rax
    popq %rdx
    popq %rcx
    popq %rax
    movb %dl, (%rax,%rcx,1)
    leaq L_CFORGE_STR_DFG(%rip), %rax
    pushq %rax
    movabsq $0x14, %rax
    pushq %rax
    movabsq $0x65, %rax
    pushq %rax
    popq %rdx
    popq %rcx
    popq %rax
    movb %dl, (%rax,%rcx,1)
    leaq L_CFORGE_STR_DFG(%rip), %rax
    pushq %rax
    movabsq $0x15, %rax
    pushq %rax
    movabsq $0x66, %rax
    pushq %rax
    popq %rdx
    popq %rcx
    popq %rax
    movb %dl, (%rax,%rcx,1)
    leaq L_CFORGE_STR_DFG(%rip), %rax
    pushq %rax
    movabsq $0x16, %rax
    pushq %rax
    movabsq $0x6f, %rax
    pushq %rax
    popq %rdx
    popq %rcx
    popq %rax
    movb %dl, (%rax,%rcx,1)
    leaq L_CFORGE_STR_DFG(%rip), %rax
    pushq %rax
    movabsq $0x17, %rax
    pushq %rax
    movabsq $0x72, %rax
    pushq %rax
    popq %rdx
    popq %rcx
    popq %rax
    movb %dl, (%rax,%rcx,1)
    leaq L_CFORGE_STR_DFG(%rip), %rax
    pushq %rax
    movabsq $0x18, %rax
    pushq %rax
    movabsq $0x67, %rax
    pushq %rax
    popq %rdx
    popq %rcx
    popq %rax
    movb %dl, (%rax,%rcx,1)
    leaq L_CFORGE_STR_DFG(%rip), %rax
    pushq %rax
    movabsq $0x19, %rax
    pushq %rax
    movabsq $0x65, %rax
    pushq %rax
    popq %rdx
    popq %rcx
    popq %rax
    movb %dl, (%rax,%rcx,1)
    movslq L_CFORGE_OK(%rip), %rax
    pushq %rax
    popq %rax
    movq %rbp, %rsp
    popq %rbp
    retq
    movq $0, %rax
    pushq %rax
    movq $0, %rax
    movq %rbp, %rsp
    popq %rbp
    retq
    .seh_endproc
    .section .iii.ring3,"n"
    .asciz "cf_alloc"
    .text
    .global L_cf_alloc
    .seh_proc L_cf_alloc
L_cf_alloc:
    pushq %rbp
    .seh_pushreg %rbp
    movq %rsp, %rbp
    .seh_setframe %rbp, 0
    subq $1024, %rsp
    .seh_stackalloc 1024
    .seh_endprologue
    movabsq $0x0, %rax
    pushq %rax
    popq %rax
    movq %rax, -8(%rbp)
L_loop_top_0:
    movl -8(%rbp), %eax
    pushq %rax
    movl L_CFORGE_MAX_FORGED(%rip), %eax
    pushq %rax
    popq %rcx
    popq %rax
    cmpq %rcx, %rax
    setb %al
    movzbq %al, %rax
    pushq %rax
    popq %rax
    testq %rax, %rax
    jz L_loop_end_1
    leaq L_CFORGE_LIVE(%rip), %rax
    pushq %rax
    movl -8(%rbp), %eax
    pushq %rax
    popq %rcx
    popq %rax
    movzbq (%rax,%rcx,1), %rax
    pushq %rax
    movabsq $0x0, %rax
    pushq %rax
    popq %rcx
    popq %rax
    cmpq %rcx, %rax
    sete %al
    movzbq %al, %rax
    pushq %rax
    popq %rax
    testq %rax, %rax
    jz L_if_end_3
    movl -8(%rbp), %eax
    pushq %rax
    popq %rax
    movq %rbp, %rsp
    popq %rbp
    retq
    movq $0, %rax
    pushq %rax
    popq %rax
L_if_end_3:
    movl -8(%rbp), %eax
    pushq %rax
    movabsq $0x1, %rax
    pushq %rax
    popq %rcx
    popq %rax
    addq %rcx, %rax
    movl %eax, %eax
    pushq %rax
    popq %rax
    movq %rax, -8(%rbp)
    movq $0, %rax
    pushq %rax
    popq %rax
    jmp L_loop_top_0
L_loop_end_1:
    movl L_CFORGE_SENT(%rip), %eax
    pushq %rax
    popq %rax
    movq %rbp, %rsp
    popq %rbp
    retq
    movq $0, %rax
    pushq %rax
    movq $0, %rax
    movq %rbp, %rsp
    popq %rbp
    retq
    .seh_endproc
    .section .iii.ring3,"n"
    .asciz "cf_id8"
    .text
    .global L_cf_id8
    .seh_proc L_cf_id8
L_cf_id8:
    pushq %rbp
    .seh_pushreg %rbp
    movq %rsp, %rbp
    .seh_setframe %rbp, 0
    subq $1024, %rsp
    .seh_stackalloc 1024
    .seh_endprologue
    movq %rcx, -8(%rbp)
    movq %rdx, -16(%rbp)
    movq -8(%rbp), %rax
    pushq %rax
    popq %rax
    movq %rax, -24(%rbp)
    movabsq $0x0, %rax
    pushq %rax
    popq %rax
    movq %rax, -32(%rbp)
L_loop_top_4:
    movq -32(%rbp), %rax
    pushq %rax
    movabsq $0x8, %rax
    pushq %rax
    popq %rcx
    popq %rax
    cmpq %rcx, %rax
    setb %al
    movzbq %al, %rax
    pushq %rax
    popq %rax
    testq %rax, %rax
    jz L_loop_end_5
    movq -16(%rbp), %rax
    pushq %rax
    movq -32(%rbp), %rax
    pushq %rax
    movq -24(%rbp), %rax
    pushq %rax
    movq -32(%rbp), %rax
    pushq %rax
    movabsq $0x8, %rax
    pushq %rax
    popq %rcx
    popq %rax
    imulq %rcx, %rax
    pushq %rax
    popq %rcx
    popq %rax
    shrq %cl, %rax
    pushq %rax
    movabsq $0xff, %rax
    pushq %rax
    popq %rcx
    popq %rax
    andq %rcx, %rax
    pushq %rax
    popq %rax
    movzbq %al, %rax
    pushq %rax
    popq %rdx
    popq %rcx
    popq %rax
    movb %dl, (%rax,%rcx,1)
    movq -32(%rbp), %rax
    pushq %rax
    movabsq $0x1, %rax
    pushq %rax
    popq %rcx
    popq %rax
    addq %rcx, %rax
    pushq %rax
    popq %rax
    movq %rax, -32(%rbp)
    movq $0, %rax
    pushq %rax
    popq %rax
    jmp L_loop_top_4
L_loop_end_5:
    movslq L_CFORGE_OK(%rip), %rax
    pushq %rax
    popq %rax
    movq %rbp, %rsp
    popq %rbp
    retq
    movq $0, %rax
    pushq %rax
    movq $0, %rax
    movq %rbp, %rsp
    popq %rbp
    retq
    .seh_endproc
    .section .iii.ring3,"n"
    .asciz "cf_compose_hash"
    .text
    .global L_cf_compose_hash
    .seh_proc L_cf_compose_hash
L_cf_compose_hash:
    pushq %rbp
    .seh_pushreg %rbp
    movq %rsp, %rbp
    .seh_setframe %rbp, 0
    subq $1024, %rsp
    .seh_stackalloc 1024
    .seh_endprologue
    movq %rcx, -8(%rbp)
    movq %rdx, -16(%rbp)
    movq %r8, -24(%rbp)
    movq %r9, -32(%rbp)
    movq 48(%rbp), %rax
    movq %rax, -40(%rbp)
    movabsq $0x1, %rax
    pushq %rax
    popq %rcx
    subq $32, %rsp
    callq cad_begin
    addq $32, %rsp
    movslq %eax, %rax
    pushq %rax
    popq %rax
    movq -16(%rbp), %rax
    pushq %rax
    movq -8(%rbp), %rax
    pushq %rax
    popq %rax
    pushq %rax
    popq %rcx
    popq %rdx
    subq $32, %rsp
    callq cad_payload
    addq $32, %rsp
    movslq %eax, %rax
    pushq %rax
    popq %rax
    movabsq $0x20, %rax
    pushq %rax
    movq -24(%rbp), %rax
    pushq %rax
    popq %rax
    pushq %rax
    popq %rcx
    popq %rdx
    subq $32, %rsp
    callq cad_payload
    addq $32, %rsp
    movslq %eax, %rax
    pushq %rax
    popq %rax
    movabsq $0x20, %rax
    pushq %rax
    movq -32(%rbp), %rax
    pushq %rax
    popq %rax
    pushq %rax
    popq %rcx
    popq %rdx
    subq $32, %rsp
    callq cad_payload
    addq $32, %rsp
    movslq %eax, %rax
    pushq %rax
    popq %rax
    movq -40(%rbp), %rax
    pushq %rax
    popq %rax
    pushq %rax
    popq %rcx
    subq $32, %rsp
    callq cad_final
    addq $32, %rsp
    movslq %eax, %rax
    pushq %rax
    popq %rax
    movslq L_CFORGE_OK(%rip), %rax
    pushq %rax
    popq %rax
    movq %rbp, %rsp
    popq %rbp
    retq
    movq $0, %rax
    pushq %rax
    movq $0, %rax
    movq %rbp, %rsp
    popq %rbp
    retq
    .seh_endproc
    .section .iii.ring3,"n"
    .asciz "cf_hash1"
    .text
    .global L_cf_hash1
    .seh_proc L_cf_hash1
L_cf_hash1:
    pushq %rbp
    .seh_pushreg %rbp
    movq %rsp, %rbp
    .seh_setframe %rbp, 0
    subq $1024, %rsp
    .seh_stackalloc 1024
    .seh_endprologue
    movq %rcx, -8(%rbp)
    movq %rdx, -16(%rbp)
    movq %r8, -24(%rbp)
    movq %r9, -32(%rbp)
    movabsq $0x1, %rax
    pushq %rax
    popq %rcx
    subq $32, %rsp
    callq cad_begin
    addq $32, %rsp
    movslq %eax, %rax
    pushq %rax
    popq %rax
    movq -16(%rbp), %rax
    pushq %rax
    movq -8(%rbp), %rax
    pushq %rax
    popq %rax
    pushq %rax
    popq %rcx
    popq %rdx
    subq $32, %rsp
    callq cad_payload
    addq $32, %rsp
    movslq %eax, %rax
    pushq %rax
    popq %rax
    movabsq $0x20, %rax
    pushq %rax
    movq -24(%rbp), %rax
    pushq %rax
    popq %rax
    pushq %rax
    popq %rcx
    popq %rdx
    subq $32, %rsp
    callq cad_payload
    addq $32, %rsp
    movslq %eax, %rax
    pushq %rax
    popq %rax
    movq -32(%rbp), %rax
    pushq %rax
    popq %rax
    pushq %rax
    popq %rcx
    subq $32, %rsp
    callq cad_final
    addq $32, %rsp
    movslq %eax, %rax
    pushq %rax
    popq %rax
    movslq L_CFORGE_OK(%rip), %rax
    pushq %rax
    popq %rax
    movq %rbp, %rsp
    popq %rbp
    retq
    movq $0, %rax
    pushq %rax
    movq $0, %rax
    movq %rbp, %rsp
    popq %rbp
    retq
    .seh_endproc
    .section .iii.ring3,"n"
    .asciz "cf_slot_commit"
    .text
    .global L_cf_slot_commit
    .seh_proc L_cf_slot_commit
L_cf_slot_commit:
    pushq %rbp
    .seh_pushreg %rbp
    movq %rsp, %rbp
    .seh_setframe %rbp, 0
    subq $1024, %rsp
    .seh_stackalloc 1024
    .seh_endprologue
    movq %rcx, -8(%rbp)
    movq %rdx, -16(%rbp)
    movl -8(%rbp), %eax
    pushq %rax
    popq %rcx
    subq $32, %rsp
    callq L_cf_subj_ptr
    addq $32, %rsp
    pushq %rax
    popq %rax
    movq %rax, -24(%rbp)
    movl -8(%rbp), %eax
    pushq %rax
    popq %rcx
    subq $32, %rsp
    callq L_cf_op_ptr
    addq $32, %rsp
    pushq %rax
    popq %rax
    movq %rax, -32(%rbp)
    movl -8(%rbp), %eax
    pushq %rax
    popq %rcx
    subq $32, %rsp
    callq L_cf_res_ptr
    addq $32, %rsp
    pushq %rax
    popq %rax
    movq %rax, -40(%rbp)
    movabsq $0x1, %rax
    pushq %rax
    popq %rcx
    subq $32, %rsp
    callq cad_begin
    addq $32, %rsp
    movslq %eax, %rax
    pushq %rax
    popq %rax
    movabsq $0x20, %rax
    pushq %rax
    movq -24(%rbp), %rax
    pushq %rax
    popq %rax
    pushq %rax
    popq %rcx
    popq %rdx
    subq $32, %rsp
    callq cad_payload
    addq $32, %rsp
    movslq %eax, %rax
    pushq %rax
    popq %rax
    movabsq $0x20, %rax
    pushq %rax
    movq -32(%rbp), %rax
    pushq %rax
    popq %rax
    pushq %rax
    popq %rcx
    popq %rdx
    subq $32, %rsp
    callq cad_payload
    addq $32, %rsp
    movslq %eax, %rax
    pushq %rax
    popq %rax
    movabsq $0x20, %rax
    pushq %rax
    movq -40(%rbp), %rax
    pushq %rax
    popq %rax
    pushq %rax
    popq %rcx
    popq %rdx
    subq $32, %rsp
    callq cad_payload
    addq $32, %rsp
    movslq %eax, %rax
    pushq %rax
    popq %rax
    movq -16(%rbp), %rax
    pushq %rax
    popq %rax
    pushq %rax
    popq %rcx
    subq $32, %rsp
    callq cad_final
    addq $32, %rsp
    movslq %eax, %rax
    pushq %rax
    popq %rax
    movslq L_CFORGE_OK(%rip), %rax
    pushq %rax
    popq %rax
    movq %rbp, %rsp
    popq %rbp
    retq
    movq $0, %rax
    pushq %rax
    movq $0, %rax
    movq %rbp, %rsp
    popq %rbp
    retq
    .seh_endproc
    .section .iii.ring3,"n"
    .asciz "cf_copy32"
    .text
    .global L_cf_copy32
    .seh_proc L_cf_copy32
L_cf_copy32:
    pushq %rbp
    .seh_pushreg %rbp
    movq %rsp, %rbp
    .seh_setframe %rbp, 0
    subq $1024, %rsp
    .seh_stackalloc 1024
    .seh_endprologue
    movq %rcx, -8(%rbp)
    movq %rdx, -16(%rbp)
    movabsq $0x0, %rax
    pushq %rax
    popq %rax
    movq %rax, -24(%rbp)
L_loop_top_6:
    movq -24(%rbp), %rax
    pushq %rax
    movabsq $0x20, %rax
    pushq %rax
    popq %rcx
    popq %rax
    cmpq %rcx, %rax
    setb %al
    movzbq %al, %rax
    pushq %rax
    popq %rax
    testq %rax, %rax
    jz L_loop_end_7
    movq -16(%rbp), %rax
    pushq %rax
    movq -24(%rbp), %rax
    pushq %rax
    movq -8(%rbp), %rax
    pushq %rax
    movq -24(%rbp), %rax
    pushq %rax
    popq %rcx
    popq %rax
    movzbq (%rax,%rcx,1), %rax
    pushq %rax
    popq %rdx
    popq %rcx
    popq %rax
    movb %dl, (%rax,%rcx,1)
    movq -24(%rbp), %rax
    pushq %rax
    movabsq $0x1, %rax
    pushq %rax
    popq %rcx
    popq %rax
    addq %rcx, %rax
    pushq %rax
    popq %rax
    movq %rax, -24(%rbp)
    movq $0, %rax
    pushq %rax
    popq %rax
    jmp L_loop_top_6
L_loop_end_7:
    movslq L_CFORGE_OK(%rip), %rax
    pushq %rax
    popq %rax
    movq %rbp, %rsp
    popq %rbp
    retq
    movq $0, %rax
    pushq %rax
    movq $0, %rax
    movq %rbp, %rsp
    popq %rbp
    retq
    .seh_endproc
    .section .iii.ring3,"n"
    .asciz "cf_store_triple"
    .text
    .global L_cf_store_triple
    .seh_proc L_cf_store_triple
L_cf_store_triple:
    pushq %rbp
    .seh_pushreg %rbp
    movq %rsp, %rbp
    .seh_setframe %rbp, 0
    subq $1024, %rsp
    .seh_stackalloc 1024
    .seh_endprologue
    movq %rcx, -8(%rbp)
    movl -8(%rbp), %eax
    pushq %rax
    popq %rcx
    subq $32, %rsp
    callq L_cf_subj_ptr
    addq $32, %rsp
    pushq %rax
    popq %rax
    movq %rax, -16(%rbp)
    movl -8(%rbp), %eax
    pushq %rax
    popq %rcx
    subq $32, %rsp
    callq L_cf_op_ptr
    addq $32, %rsp
    pushq %rax
    popq %rax
    movq %rax, -24(%rbp)
    movl -8(%rbp), %eax
    pushq %rax
    popq %rcx
    subq $32, %rsp
    callq L_cf_res_ptr
    addq $32, %rsp
    pushq %rax
    popq %rax
    movq %rax, -32(%rbp)
    movq -16(%rbp), %rax
    pushq %rax
    leaq L_CFORGE_NEWSUBJ(%rip), %rax
    pushq %rax
    popq %rax
    pushq %rax
    popq %rcx
    popq %rdx
    subq $32, %rsp
    callq L_cf_copy32
    addq $32, %rsp
    movslq %eax, %rax
    pushq %rax
    popq %rax
    movq -24(%rbp), %rax
    pushq %rax
    leaq L_CFORGE_NEWOP(%rip), %rax
    pushq %rax
    popq %rax
    pushq %rax
    popq %rcx
    popq %rdx
    subq $32, %rsp
    callq L_cf_copy32
    addq $32, %rsp
    movslq %eax, %rax
    pushq %rax
    popq %rax
    movq -32(%rbp), %rax
    pushq %rax
    leaq L_CFORGE_NEWRES(%rip), %rax
    pushq %rax
    popq %rax
    pushq %rax
    popq %rcx
    popq %rdx
    subq $32, %rsp
    callq L_cf_copy32
    addq $32, %rsp
    movslq %eax, %rax
    pushq %rax
    popq %rax
    movslq L_CFORGE_OK(%rip), %rax
    pushq %rax
    popq %rax
    movq %rbp, %rsp
    popq %rbp
    retq
    movq $0, %rax
    pushq %rax
    movq $0, %rax
    movq %rbp, %rsp
    popq %rbp
    retq
    .seh_endproc
    .section .iii.ring3,"n"
    .asciz "cf_slot_of_cap_raw"
    .text
    .global L_cf_slot_of_cap_raw
    .seh_proc L_cf_slot_of_cap_raw
L_cf_slot_of_cap_raw:
    pushq %rbp
    .seh_pushreg %rbp
    movq %rsp, %rbp
    .seh_setframe %rbp, 0
    subq $1024, %rsp
    .seh_stackalloc 1024
    .seh_endprologue
    movq %rcx, -8(%rbp)
    movq -8(%rbp), %rax
    pushq %rax
    popq %rax
    movq %rax, -16(%rbp)
    movabsq $0x0, %rax
    pushq %rax
    popq %rax
    movq %rax, -24(%rbp)
L_loop_top_8:
    movl -24(%rbp), %eax
    pushq %rax
    movl L_CFORGE_MAX_FORGED(%rip), %eax
    pushq %rax
    popq %rcx
    popq %rax
    cmpq %rcx, %rax
    setb %al
    movzbq %al, %rax
    pushq %rax
    popq %rax
    testq %rax, %rax
    jz L_loop_end_9
    leaq L_CFORGE_LIVE(%rip), %rax
    pushq %rax
    movl -24(%rbp), %eax
    pushq %rax
    popq %rcx
    popq %rax
    movzbq (%rax,%rcx,1), %rax
    pushq %rax
    movabsq $0x1, %rax
    pushq %rax
    popq %rcx
    popq %rax
    cmpq %rcx, %rax
    sete %al
    movzbq %al, %rax
    pushq %rax
    popq %rax
    testq %rax, %rax
    jz L_if_end_11
    leaq L_CFORGE_CAPID(%rip), %rax
    pushq %rax
    movl -24(%rbp), %eax
    pushq %rax
    popq %rcx
    popq %rax
    movq (%rax,%rcx,8), %rax
    pushq %rax
    movq -16(%rbp), %rax
    pushq %rax
    popq %rcx
    popq %rax
    cmpq %rcx, %rax
    sete %al
    movzbq %al, %rax
    pushq %rax
    popq %rax
    testq %rax, %rax
    jz L_if_end_13
    movl -24(%rbp), %eax
    pushq %rax
    popq %rax
    movq %rbp, %rsp
    popq %rbp
    retq
    movq $0, %rax
    pushq %rax
    popq %rax
L_if_end_13:
    movq $0, %rax
    pushq %rax
    popq %rax
L_if_end_11:
    movl -24(%rbp), %eax
    pushq %rax
    movabsq $0x1, %rax
    pushq %rax
    popq %rcx
    popq %rax
    addq %rcx, %rax
    movl %eax, %eax
    pushq %rax
    popq %rax
    movq %rax, -24(%rbp)
    movq $0, %rax
    pushq %rax
    popq %rax
    jmp L_loop_top_8
L_loop_end_9:
    movl L_CFORGE_SENT(%rip), %eax
    pushq %rax
    popq %rax
    movq %rbp, %rsp
    popq %rbp
    retq
    movq $0, %rax
    pushq %rax
    movq $0, %rax
    movq %rbp, %rsp
    popq %rbp
    retq
    .seh_endproc
    .section .iii.ring3,"n"
    .asciz "cf_publish_slot"
    .text
    .global L_cf_publish_slot
    .seh_proc L_cf_publish_slot
L_cf_publish_slot:
    pushq %rbp
    .seh_pushreg %rbp
    movq %rsp, %rbp
    .seh_setframe %rbp, 0
    subq $1024, %rsp
    .seh_stackalloc 1024
    .seh_endprologue
    movq %rcx, -8(%rbp)
    movq %rdx, -16(%rbp)
    movq %r8, -24(%rbp)
    leaq L_CFORGE_INC(%rip), %rax
    pushq %rax
    popq %rax
    pushq %rax
    popq %rcx
    subq $32, %rsp
    callq wh_chain_root
    addq $32, %rsp
    movslq %eax, %rax
    pushq %rax
    popq %rax
    leaq L_CFORGE_OUTC(%rip), %rax
    pushq %rax
    popq %rax
    pushq %rax
    movl -8(%rbp), %eax
    pushq %rax
    popq %rcx
    popq %rdx
    subq $32, %rsp
    callq L_cf_slot_commit
    addq $32, %rsp
    movslq %eax, %rax
    pushq %rax
    popq %rax
    leaq L_CFORGE_OPID_FORGE(%rip), %rax
    pushq %rax
    popq %rax
    pushq %rax
    popq %rax
    movq %rax, -32(%rbp)
    leaq L_CFORGE_FID(%rip), %rax
    pushq %rax
    popq %rax
    pushq %rax
    movabsq $0x20, %rax
    pushq %rax
    leaq L_CFORGE_OUTC(%rip), %rax
    pushq %rax
    popq %rax
    pushq %rax
    movl -24(%rbp), %eax
    pushq %rax
    leaq L_CFORGE_ANTE_IDBUF(%rip), %rax
    pushq %rax
    popq %rax
    pushq %rax
    movzwq L_CFORGE_PILLAR(%rip), %rax
    pushq %rax
    movzbq L_CFORGE_PHASE(%rip), %rax
    pushq %rax
    movzbq -16(%rbp), %rax
    pushq %rax
    leaq L_CFORGE_OUTC(%rip), %rax
    pushq %rax
    popq %rax
    pushq %rax
    leaq L_CFORGE_INC(%rip), %rax
    pushq %rax
    popq %rax
    pushq %rax
    movq -32(%rbp), %rax
    pushq %rax
    leaq L_CFORGE_PRODUCER(%rip), %rax
    pushq %rax
    popq %rax
    pushq %rax
    popq %rcx
    popq %rdx
    popq %r8
    popq %r9
    subq $32, %rsp
    callq wh_publish
    addq $32, %rsp
    addq $64, %rsp
    pushq %rax
    popq %rax
    movq %rax, -40(%rbp)
    movq -40(%rbp), %rax
    pushq %rax
    popq %rax
    movq %rbp, %rsp
    popq %rbp
    retq
    movq $0, %rax
    pushq %rax
    movq $0, %rax
    movq %rbp, %rsp
    popq %rbp
    retq
    .seh_endproc
    .section .iii.ring3,"n"
    .asciz "cf_clear_idbuf"
    .text
    .global L_cf_clear_idbuf
    .seh_proc L_cf_clear_idbuf
L_cf_clear_idbuf:
    pushq %rbp
    .seh_pushreg %rbp
    movq %rsp, %rbp
    .seh_setframe %rbp, 0
    subq $1024, %rsp
    .seh_stackalloc 1024
    .seh_endprologue
    movabsq $0x0, %rax
    pushq %rax
    popq %rax
    movq %rax, -8(%rbp)
L_loop_top_14:
    movq -8(%rbp), %rax
    pushq %rax
    movabsq $0x80, %rax
    pushq %rax
    popq %rcx
    popq %rax
    cmpq %rcx, %rax
    setb %al
    movzbq %al, %rax
    pushq %rax
    popq %rax
    testq %rax, %rax
    jz L_loop_end_15
    leaq L_CFORGE_ANTE_IDBUF(%rip), %rax
    pushq %rax
    movq -8(%rbp), %rax
    pushq %rax
    movabsq $0x0, %rax
    pushq %rax
    popq %rdx
    popq %rcx
    popq %rax
    movb %dl, (%rax,%rcx,1)
    movq -8(%rbp), %rax
    pushq %rax
    movabsq $0x1, %rax
    pushq %rax
    popq %rcx
    popq %rax
    addq %rcx, %rax
    pushq %rax
    popq %rax
    movq %rax, -8(%rbp)
    movq $0, %rax
    pushq %rax
    popq %rax
    jmp L_loop_top_14
L_loop_end_15:
    movslq L_CFORGE_OK(%rip), %rax
    pushq %rax
    popq %rax
    movq %rbp, %rsp
    popq %rbp
    retq
    movq $0, %rax
    pushq %rax
    movq $0, %rax
    movq %rbp, %rsp
    popq %rbp
    retq
    .seh_endproc
    .section .iii.ring3,"n"
    .asciz "cf_pack_ante"
    .text
    .global L_cf_pack_ante
    .seh_proc L_cf_pack_ante
L_cf_pack_ante:
    pushq %rbp
    .seh_pushreg %rbp
    movq %rsp, %rbp
    .seh_setframe %rbp, 0
    subq $1024, %rsp
    .seh_stackalloc 1024
    .seh_endprologue
    movq %rcx, -8(%rbp)
    movq %rdx, -16(%rbp)
    movl -8(%rbp), %eax
    pushq %rax
    popq %rax
    pushq %rax
    movabsq $0xffffffff, %rax
    pushq %rax
    popq %rcx
    popq %rax
    andq %rcx, %rax
    pushq %rax
    movabsq $0x20, %rax
    pushq %rax
    popq %rcx
    popq %rax
    imulq %rcx, %rax
    pushq %rax
    popq %rax
    movq %rax, -24(%rbp)
    movq -16(%rbp), %rax
    pushq %rax
    popq %rax
    movq %rax, -32(%rbp)
    movabsq $0x0, %rax
    pushq %rax
    popq %rax
    movq %rax, -40(%rbp)
L_loop_top_16:
    movq -40(%rbp), %rax
    pushq %rax
    movabsq $0x8, %rax
    pushq %rax
    popq %rcx
    popq %rax
    cmpq %rcx, %rax
    setb %al
    movzbq %al, %rax
    pushq %rax
    popq %rax
    testq %rax, %rax
    jz L_loop_end_17
    leaq L_CFORGE_ANTE_IDBUF(%rip), %rax
    pushq %rax
    movq -24(%rbp), %rax
    pushq %rax
    movq -40(%rbp), %rax
    pushq %rax
    popq %rcx
    popq %rax
    addq %rcx, %rax
    pushq %rax
    movq -32(%rbp), %rax
    pushq %rax
    movq -40(%rbp), %rax
    pushq %rax
    movabsq $0x8, %rax
    pushq %rax
    popq %rcx
    popq %rax
    imulq %rcx, %rax
    pushq %rax
    popq %rcx
    popq %rax
    shrq %cl, %rax
    pushq %rax
    movabsq $0xff, %rax
    pushq %rax
    popq %rcx
    popq %rax
    andq %rcx, %rax
    pushq %rax
    popq %rax
    movzbq %al, %rax
    pushq %rax
    popq %rdx
    popq %rcx
    popq %rax
    movb %dl, (%rax,%rcx,1)
    movq -40(%rbp), %rax
    pushq %rax
    movabsq $0x1, %rax
    pushq %rax
    popq %rcx
    popq %rax
    addq %rcx, %rax
    pushq %rax
    popq %rax
    movq %rax, -40(%rbp)
    movq $0, %rax
    pushq %rax
    popq %rax
    jmp L_loop_top_16
L_loop_end_17:
    movslq L_CFORGE_OK(%rip), %rax
    pushq %rax
    popq %rax
    movq %rbp, %rsp
    popq %rbp
    retq
    movq $0, %rax
    pushq %rax
    movq $0, %rax
    movq %rbp, %rsp
    popq %rbp
    retq
    .seh_endproc
    .section .iii.ring3,"n"
    .asciz "cf_init"
    .text
    .global cf_init
    .seh_proc cf_init
cf_init:
    pushq %rbp
    .seh_pushreg %rbp
    movq %rsp, %rbp
    .seh_setframe %rbp, 0
    subq $1024, %rsp
    .seh_stackalloc 1024
    .seh_endprologue
    movzbq L_CFORGE_INITED(%rip), %rax
    pushq %rax
    movabsq $0x1, %rax
    pushq %rax
    popq %rcx
    popq %rax
    cmpq %rcx, %rax
    sete %al
    movzbq %al, %rax
    pushq %rax
    popq %rax
    testq %rax, %rax
    jz L_if_end_19
    subq $32, %rsp
    callq L_cf_fill_tags
    addq $32, %rsp
    movslq %eax, %rax
    pushq %rax
    popq %rax
    subq $32, %rsp
    callq L_cf_fill_strings
    addq $32, %rsp
    movslq %eax, %rax
    pushq %rax
    popq %rax
    movslq L_CFORGE_OK(%rip), %rax
    pushq %rax
    popq %rax
    movq %rbp, %rsp
    popq %rbp
    retq
    movq $0, %rax
    pushq %rax
    popq %rax
L_if_end_19:
    movabsq $0x0, %rax
    pushq %rax
    popq %rax
    movq %rax, -8(%rbp)
L_loop_top_20:
    movl -8(%rbp), %eax
    pushq %rax
    movl L_CFORGE_MAX_FORGED(%rip), %eax
    pushq %rax
    popq %rcx
    popq %rax
    cmpq %rcx, %rax
    setb %al
    movzbq %al, %rax
    pushq %rax
    popq %rax
    testq %rax, %rax
    jz L_loop_end_21
    leaq L_CFORGE_LIVE(%rip), %rax
    pushq %rax
    movl -8(%rbp), %eax
    pushq %rax
    movabsq $0x0, %rax
    pushq %rax
    popq %rdx
    popq %rcx
    popq %rax
    movb %dl, (%rax,%rcx,1)
    leaq L_CFORGE_KIND(%rip), %rax
    pushq %rax
    movl -8(%rbp), %eax
    pushq %rax
    movabsq $0x0, %rax
    pushq %rax
    popq %rdx
    popq %rcx
    popq %rax
    movb %dl, (%rax,%rcx,1)
    leaq L_CFORGE_CAPID(%rip), %rax
    pushq %rax
    movl -8(%rbp), %eax
    pushq %rax
    movabsq $0x0, %rax
    pushq %rax
    popq %rdx
    popq %rcx
    popq %rax
    movq %rdx, (%rax,%rcx,8)
    leaq L_CFORGE_FRAG(%rip), %rax
    pushq %rax
    movl -8(%rbp), %eax
    pushq %rax
    movabsq $0x0, %rax
    pushq %rax
    popq %rdx
    popq %rcx
    popq %rax
    movq %rdx, (%rax,%rcx,8)
    leaq L_CFORGE_ANTE_CNT(%rip), %rax
    pushq %rax
    movl -8(%rbp), %eax
    pushq %rax
    movabsq $0x0, %rax
    pushq %rax
    popq %rdx
    popq %rcx
    popq %rax
    movl %edx, (%rax,%rcx,4)
    movl -8(%rbp), %eax
    pushq %rax
    movabsq $0x1, %rax
    pushq %rax
    popq %rcx
    popq %rax
    addq %rcx, %rax
    movl %eax, %eax
    pushq %rax
    popq %rax
    movq %rax, -8(%rbp)
    movq $0, %rax
    pushq %rax
    popq %rax
    jmp L_loop_top_20
L_loop_end_21:
    movabsq $0x0, %rax
    pushq %rax
    popq %rax
    movl %eax, L_CFORGE_USED(%rip)
    subq $32, %rsp
    callq L_cf_fill_tags
    addq $32, %rsp
    movslq %eax, %rax
    pushq %rax
    popq %rax
    subq $32, %rsp
    callq L_cf_fill_strings
    addq $32, %rsp
    movslq %eax, %rax
    pushq %rax
    popq %rax
    leaq L_CFORGE_PRODUCER(%rip), %rax
    pushq %rax
    popq %rax
    pushq %rax
    movabsq $0x11, %rax
    pushq %rax
    leaq L_CFORGE_STR_PROD(%rip), %rax
    pushq %rax
    popq %rax
    pushq %rax
    popq %rcx
    popq %rdx
    popq %r8
    subq $32, %rsp
    callq ident_from_bytes
    addq $32, %rsp
    movslq %eax, %rax
    pushq %rax
    popq %rax
    leaq L_CFORGE_OPID_FORGE(%rip), %rax
    pushq %rax
    popq %rax
    pushq %rax
    movabsq $0x18, %rax
    pushq %rax
    leaq L_CFORGE_STR_FRG(%rip), %rax
    pushq %rax
    popq %rax
    pushq %rax
    popq %rcx
    popq %rdx
    popq %r8
    subq $32, %rsp
    callq ident_from_bytes
    addq $32, %rsp
    movslq %eax, %rax
    pushq %rax
    popq %rax
    leaq L_CFORGE_OPID_DEFORGE(%rip), %rax
    pushq %rax
    popq %rax
    pushq %rax
    movabsq $0x1a, %rax
    pushq %rax
    leaq L_CFORGE_STR_DFG(%rip), %rax
    pushq %rax
    popq %rax
    pushq %rax
    popq %rcx
    popq %rdx
    popq %r8
    subq $32, %rsp
    callq ident_from_bytes
    addq $32, %rsp
    movslq %eax, %rax
    pushq %rax
    popq %rax
    movabsq $0x1, %rax
    pushq %rax
    popq %rax
    movb %al, L_CFORGE_INITED(%rip)
    movslq L_CFORGE_OK(%rip), %rax
    pushq %rax
    popq %rax
    movq %rbp, %rsp
    popq %rbp
    retq
    movq $0, %rax
    pushq %rax
    movq $0, %rax
    movq %rbp, %rsp
    popq %rbp
    retq
    .seh_endproc
    .section .iii.ring3,"n"
    .asciz "cf_forge_compose"
    .text
    .global cf_forge_compose
    .seh_proc cf_forge_compose
cf_forge_compose:
    pushq %rbp
    .seh_pushreg %rbp
    movq %rsp, %rbp
    .seh_setframe %rbp, 0
    subq $1024, %rsp
    .seh_stackalloc 1024
    .seh_endprologue
    movq %rcx, -8(%rbp)
    movq %rdx, -16(%rbp)
    movq %r8, -24(%rbp)
    movq %r9, -32(%rbp)
    movzbq L_CFORGE_INITED(%rip), %rax
    pushq %rax
    movabsq $0x0, %rax
    pushq %rax
    popq %rcx
    popq %rax
    cmpq %rcx, %rax
    sete %al
    movzbq %al, %rax
    pushq %rax
    popq %rax
    testq %rax, %rax
    jz L_if_end_23
    subq $32, %rsp
    callq cf_init
    addq $32, %rsp
    movslq %eax, %rax
    pushq %rax
    popq %rax
    movq $0, %rax
    pushq %rax
    popq %rax
L_if_end_23:
    movq -8(%rbp), %rax
    pushq %rax
    movabsq $0x0, %rax
    pushq %rax
    popq %rcx
    popq %rax
    cmpq %rcx, %rax
    sete %al
    movzbq %al, %rax
    pushq %rax
    popq %rax
    testq %rax, %rax
    jz L_if_end_25
    movq -32(%rbp), %rax
    pushq %rax
    movabsq $0x0, %rax
    pushq %rax
    movabsq $0x0, %rax
    pushq %rax
    popq %rdx
    popq %rcx
    popq %rax
    movq %rdx, (%rax,%rcx,8)
    movl L_CFORGE_SENT(%rip), %eax
    pushq %rax
    popq %rax
    movq %rbp, %rsp
    popq %rbp
    retq
    movq $0, %rax
    pushq %rax
    popq %rax
L_if_end_25:
    movq -16(%rbp), %rax
    pushq %rax
    movabsq $0x0, %rax
    pushq %rax
    popq %rcx
    popq %rax
    cmpq %rcx, %rax
    sete %al
    movzbq %al, %rax
    pushq %rax
    popq %rax
    testq %rax, %rax
    jz L_if_end_27
    movq -32(%rbp), %rax
    pushq %rax
    movabsq $0x0, %rax
    pushq %rax
    movabsq $0x0, %rax
    pushq %rax
    popq %rdx
    popq %rcx
    popq %rax
    movq %rdx, (%rax,%rcx,8)
    movl L_CFORGE_SENT(%rip), %eax
    pushq %rax
    popq %rax
    movq %rbp, %rsp
    popq %rbp
    retq
    movq $0, %rax
    pushq %rax
    popq %rax
L_if_end_27:
    movq -8(%rbp), %rax
    pushq %rax
    popq %rcx
    subq $32, %rsp
    callq cap_is_revoked
    addq $32, %rsp
    movzbq %al, %rax
    pushq %rax
    movabsq $0x1, %rax
    pushq %rax
    popq %rcx
    popq %rax
    cmpq %rcx, %rax
    sete %al
    movzbq %al, %rax
    pushq %rax
    popq %rax
    testq %rax, %rax
    jz L_if_end_29
    movq -32(%rbp), %rax
    pushq %rax
    movabsq $0x0, %rax
    pushq %rax
    movabsq $0x0, %rax
    pushq %rax
    popq %rdx
    popq %rcx
    popq %rax
    movq %rdx, (%rax,%rcx,8)
    movl L_CFORGE_SENT(%rip), %eax
    pushq %rax
    popq %rax
    movq %rbp, %rsp
    popq %rbp
    retq
    movq $0, %rax
    pushq %rax
    popq %rax
L_if_end_29:
    movq -16(%rbp), %rax
    pushq %rax
    popq %rcx
    subq $32, %rsp
    callq cap_is_revoked
    addq $32, %rsp
    movzbq %al, %rax
    pushq %rax
    movabsq $0x1, %rax
    pushq %rax
    popq %rcx
    popq %rax
    cmpq %rcx, %rax
    sete %al
    movzbq %al, %rax
    pushq %rax
    popq %rax
    testq %rax, %rax
    jz L_if_end_31
    movq -32(%rbp), %rax
    pushq %rax
    movabsq $0x0, %rax
    pushq %rax
    movabsq $0x0, %rax
    pushq %rax
    popq %rdx
    popq %rcx
    popq %rax
    movq %rdx, (%rax,%rcx,8)
    movl L_CFORGE_SENT(%rip), %eax
    pushq %rax
    popq %rax
    movq %rbp, %rsp
    popq %rbp
    retq
    movq $0, %rax
    pushq %rax
    popq %rax
L_if_end_31:
    subq $32, %rsp
    callq L_cf_alloc
    addq $32, %rsp
    movl %eax, %eax
    pushq %rax
    popq %rax
    movq %rax, -40(%rbp)
    movl -40(%rbp), %eax
    pushq %rax
    movl L_CFORGE_SENT(%rip), %eax
    pushq %rax
    popq %rcx
    popq %rax
    cmpq %rcx, %rax
    sete %al
    movzbq %al, %rax
    pushq %rax
    popq %rax
    testq %rax, %rax
    jz L_if_end_33
    movq -32(%rbp), %rax
    pushq %rax
    movabsq $0x0, %rax
    pushq %rax
    movabsq $0x0, %rax
    pushq %rax
    popq %rdx
    popq %rcx
    popq %rax
    movq %rdx, (%rax,%rcx,8)
    movl L_CFORGE_SENT(%rip), %eax
    pushq %rax
    popq %rax
    movq %rbp, %rsp
    popq %rbp
    retq
    movq $0, %rax
    pushq %rax
    popq %rax
L_if_end_33:
    leaq L_CFORGE_ID8A(%rip), %rax
    pushq %rax
    popq %rax
    pushq %rax
    movq -8(%rbp), %rax
    pushq %rax
    popq %rcx
    popq %rdx
    subq $32, %rsp
    callq L_cf_id8
    addq $32, %rsp
    movslq %eax, %rax
    pushq %rax
    popq %rax
    leaq L_CFORGE_ID8B(%rip), %rax
    pushq %rax
    popq %rax
    pushq %rax
    movq -16(%rbp), %rax
    pushq %rax
    popq %rcx
    popq %rdx
    subq $32, %rsp
    callq L_cf_id8
    addq $32, %rsp
    movslq %eax, %rax
    pushq %rax
    popq %rax
    subq $8, %rsp
    leaq L_CFORGE_NEWSUBJ(%rip), %rax
    pushq %rax
    popq %rax
    pushq %rax
    leaq L_CFORGE_ID8B(%rip), %rax
    pushq %rax
    popq %rax
    pushq %rax
    leaq L_CFORGE_ID8A(%rip), %rax
    pushq %rax
    popq %rax
    pushq %rax
    movabsq $0x10, %rax
    pushq %rax
    leaq L_CFORGE_TAG_CS(%rip), %rax
    pushq %rax
    popq %rax
    pushq %rax
    popq %rcx
    popq %rdx
    popq %r8
    popq %r9
    subq $32, %rsp
    callq L_cf_compose_hash
    addq $32, %rsp
    addq $8, %rsp
    addq $8, %rsp
    movslq %eax, %rax
    pushq %rax
    popq %rax
    subq $8, %rsp
    leaq L_CFORGE_NEWOP(%rip), %rax
    pushq %rax
    popq %rax
    pushq %rax
    leaq L_CFORGE_ID8B(%rip), %rax
    pushq %rax
    popq %rax
    pushq %rax
    leaq L_CFORGE_ID8A(%rip), %rax
    pushq %rax
    popq %rax
    pushq %rax
    movabsq $0xb, %rax
    pushq %rax
    leaq L_CFORGE_TAG_CO(%rip), %rax
    pushq %rax
    popq %rax
    pushq %rax
    popq %rcx
    popq %rdx
    popq %r8
    popq %r9
    subq $32, %rsp
    callq L_cf_compose_hash
    addq $32, %rsp
    addq $8, %rsp
    addq $8, %rsp
    movslq %eax, %rax
    pushq %rax
    popq %rax
    subq $8, %rsp
    leaq L_CFORGE_NEWRES(%rip), %rax
    pushq %rax
    popq %rax
    pushq %rax
    leaq L_CFORGE_ID8B(%rip), %rax
    pushq %rax
    popq %rax
    pushq %rax
    leaq L_CFORGE_ID8A(%rip), %rax
    pushq %rax
    popq %rax
    pushq %rax
    movabsq $0x11, %rax
    pushq %rax
    leaq L_CFORGE_TAG_CR(%rip), %rax
    pushq %rax
    popq %rax
    pushq %rax
    popq %rcx
    popq %rdx
    popq %r8
    popq %r9
    subq $32, %rsp
    callq L_cf_compose_hash
    addq $32, %rsp
    addq $8, %rsp
    addq $8, %rsp
    movslq %eax, %rax
    pushq %rax
    popq %rax
    movq -8(%rbp), %rax
    pushq %rax
    popq %rcx
    subq $32, %rsp
    callq cap_rights
    addq $32, %rsp
    pushq %rax
    subq $8, %rsp
    movq -16(%rbp), %rax
    pushq %rax
    popq %rcx
    subq $32, %rsp
    callq cap_rights
    addq $32, %rsp
    addq $8, %rsp
    pushq %rax
    popq %rcx
    popq %rax
    orq %rcx, %rax
    pushq %rax
    movq -24(%rbp), %rax
    pushq %rax
    popq %rcx
    popq %rax
    andq %rcx, %rax
    pushq %rax
    popq %rax
    movq %rax, -48(%rbp)
    movq L_CFORGE_NO_EXPIRY(%rip), %rax
    pushq %rax
    movq -48(%rbp), %rax
    pushq %rax
    movq -8(%rbp), %rax
    pushq %rax
    popq %rcx
    popq %rdx
    popq %r8
    subq $32, %rsp
    callq cap_attenuate
    addq $32, %rsp
    pushq %rax
    popq %rax
    movq %rax, -56(%rbp)
    movq -56(%rbp), %rax
    pushq %rax
    movabsq $0x0, %rax
    pushq %rax
    popq %rcx
    popq %rax
    cmpq %rcx, %rax
    sete %al
    movzbq %al, %rax
    pushq %rax
    popq %rax
    testq %rax, %rax
    jz L_if_end_35
    movq -32(%rbp), %rax
    pushq %rax
    movabsq $0x0, %rax
    pushq %rax
    movabsq $0x0, %rax
    pushq %rax
    popq %rdx
    popq %rcx
    popq %rax
    movq %rdx, (%rax,%rcx,8)
    movl L_CFORGE_SENT(%rip), %eax
    pushq %rax
    popq %rax
    movq %rbp, %rsp
    popq %rbp
    retq
    movq $0, %rax
    pushq %rax
    popq %rax
L_if_end_35:
    leaq L_CFORGE_KIND(%rip), %rax
    pushq %rax
    movl -40(%rbp), %eax
    pushq %rax
    movzbq L_CFORGE_KIND_COMPOSE(%rip), %rax
    pushq %rax
    popq %rdx
    popq %rcx
    popq %rax
    movb %dl, (%rax,%rcx,1)
    movl -40(%rbp), %eax
    pushq %rax
    popq %rcx
    subq $32, %rsp
    callq L_cf_store_triple
    addq $32, %rsp
    movslq %eax, %rax
    pushq %rax
    popq %rax
    leaq L_CFORGE_CAPID(%rip), %rax
    pushq %rax
    movl -40(%rbp), %eax
    pushq %rax
    movq -56(%rbp), %rax
    pushq %rax
    popq %rdx
    popq %rcx
    popq %rax
    movq %rdx, (%rax,%rcx,8)
    leaq L_CFORGE_ANTE_CNT(%rip), %rax
    pushq %rax
    movl -40(%rbp), %eax
    pushq %rax
    movabsq $0x2, %rax
    pushq %rax
    popq %rdx
    popq %rcx
    popq %rax
    movl %edx, (%rax,%rcx,4)
    movl -40(%rbp), %eax
    pushq %rax
    popq %rax
    pushq %rax
    movabsq $0xffffffff, %rax
    pushq %rax
    popq %rcx
    popq %rax
    andq %rcx, %rax
    pushq %rax
    movabsq $0x4, %rax
    pushq %rax
    popq %rcx
    popq %rax
    imulq %rcx, %rax
    pushq %rax
    popq %rax
    movq %rax, -64(%rbp)
    leaq L_CFORGE_ANTE_CAP(%rip), %rax
    pushq %rax
    movq -64(%rbp), %rax
    pushq %rax
    movabsq $0x0, %rax
    pushq %rax
    popq %rcx
    popq %rax
    addq %rcx, %rax
    pushq %rax
    movq -8(%rbp), %rax
    pushq %rax
    popq %rdx
    popq %rcx
    popq %rax
    movq %rdx, (%rax,%rcx,8)
    leaq L_CFORGE_ANTE_CAP(%rip), %rax
    pushq %rax
    movq -64(%rbp), %rax
    pushq %rax
    movabsq $0x1, %rax
    pushq %rax
    popq %rcx
    popq %rax
    addq %rcx, %rax
    pushq %rax
    movq -16(%rbp), %rax
    pushq %rax
    popq %rdx
    popq %rcx
    popq %rax
    movq %rdx, (%rax,%rcx,8)
    leaq L_CFORGE_ANTE(%rip), %rax
    pushq %rax
    movq -64(%rbp), %rax
    pushq %rax
    movabsq $0x0, %rax
    pushq %rax
    popq %rcx
    popq %rax
    addq %rcx, %rax
    pushq %rax
    movq -8(%rbp), %rax
    pushq %rax
    popq %rcx
    subq $32, %rsp
    callq L_cf_slot_of_cap_raw
    addq $32, %rsp
    movl %eax, %eax
    pushq %rax
    popq %rdx
    popq %rcx
    popq %rax
    movl %edx, (%rax,%rcx,4)
    leaq L_CFORGE_ANTE(%rip), %rax
    pushq %rax
    movq -64(%rbp), %rax
    pushq %rax
    movabsq $0x1, %rax
    pushq %rax
    popq %rcx
    popq %rax
    addq %rcx, %rax
    pushq %rax
    movq -16(%rbp), %rax
    pushq %rax
    popq %rcx
    subq $32, %rsp
    callq L_cf_slot_of_cap_raw
    addq $32, %rsp
    movl %eax, %eax
    pushq %rax
    popq %rdx
    popq %rcx
    popq %rax
    movl %edx, (%rax,%rcx,4)
    leaq L_CFORGE_LIVE(%rip), %rax
    pushq %rax
    movl -40(%rbp), %eax
    pushq %rax
    movabsq $0x1, %rax
    pushq %rax
    popq %rdx
    popq %rcx
    popq %rax
    movb %dl, (%rax,%rcx,1)
    movl L_CFORGE_USED(%rip), %eax
    pushq %rax
    movabsq $0x1, %rax
    pushq %rax
    popq %rcx
    popq %rax
    addq %rcx, %rax
    movl %eax, %eax
    pushq %rax
    popq %rax
    movl %eax, L_CFORGE_USED(%rip)
    subq $32, %rsp
    callq L_cf_clear_idbuf
    addq $32, %rsp
    movslq %eax, %rax
    pushq %rax
    popq %rax
    movq -8(%rbp), %rax
    pushq %rax
    movabsq $0x0, %rax
    pushq %rax
    popq %rcx
    popq %rdx
    subq $32, %rsp
    callq L_cf_pack_ante
    addq $32, %rsp
    movslq %eax, %rax
    pushq %rax
    popq %rax
    movq -16(%rbp), %rax
    pushq %rax
    movabsq $0x1, %rax
    pushq %rax
    popq %rcx
    popq %rdx
    subq $32, %rsp
    callq L_cf_pack_ante
    addq $32, %rsp
    movslq %eax, %rax
    pushq %rax
    popq %rax
    leaq L_CFORGE_FRAG(%rip), %rax
    pushq %rax
    movl -40(%rbp), %eax
    pushq %rax
    movabsq $0x2, %rax
    pushq %rax
    movzbq L_CFORGE_REVTAG_FORGE(%rip), %rax
    pushq %rax
    movl -40(%rbp), %eax
    pushq %rax
    popq %rcx
    popq %rdx
    popq %r8
    subq $32, %rsp
    callq L_cf_publish_slot
    addq $32, %rsp
    pushq %rax
    popq %rdx
    popq %rcx
    popq %rax
    movq %rdx, (%rax,%rcx,8)
    movq -32(%rbp), %rax
    pushq %rax
    movabsq $0x0, %rax
    pushq %rax
    movq -56(%rbp), %rax
    pushq %rax
    popq %rdx
    popq %rcx
    popq %rax
    movq %rdx, (%rax,%rcx,8)
    movl -40(%rbp), %eax
    pushq %rax
    popq %rax
    movq %rbp, %rsp
    popq %rbp
    retq
    movq $0, %rax
    pushq %rax
    movq $0, %rax
    movq %rbp, %rsp
    popq %rbp
    retq
    .seh_endproc
    .section .iii.ring3,"n"
    .asciz "cf_forge_restrict"
    .text
    .global cf_forge_restrict
    .seh_proc cf_forge_restrict
cf_forge_restrict:
    pushq %rbp
    .seh_pushreg %rbp
    movq %rsp, %rbp
    .seh_setframe %rbp, 0
    subq $1024, %rsp
    .seh_stackalloc 1024
    .seh_endprologue
    movq %rcx, -8(%rbp)
    movq %rdx, -16(%rbp)
    movq %r8, -24(%rbp)
    movq %r9, -32(%rbp)
    movzbq L_CFORGE_INITED(%rip), %rax
    pushq %rax
    movabsq $0x0, %rax
    pushq %rax
    popq %rcx
    popq %rax
    cmpq %rcx, %rax
    sete %al
    movzbq %al, %rax
    pushq %rax
    popq %rax
    testq %rax, %rax
    jz L_if_end_37
    subq $32, %rsp
    callq cf_init
    addq $32, %rsp
    movslq %eax, %rax
    pushq %rax
    popq %rax
    movq $0, %rax
    pushq %rax
    popq %rax
L_if_end_37:
    movq -8(%rbp), %rax
    pushq %rax
    movabsq $0x0, %rax
    pushq %rax
    popq %rcx
    popq %rax
    cmpq %rcx, %rax
    sete %al
    movzbq %al, %rax
    pushq %rax
    popq %rax
    testq %rax, %rax
    jz L_if_end_39
    movq -32(%rbp), %rax
    pushq %rax
    movabsq $0x0, %rax
    pushq %rax
    movabsq $0x0, %rax
    pushq %rax
    popq %rdx
    popq %rcx
    popq %rax
    movq %rdx, (%rax,%rcx,8)
    movl L_CFORGE_SENT(%rip), %eax
    pushq %rax
    popq %rax
    movq %rbp, %rsp
    popq %rbp
    retq
    movq $0, %rax
    pushq %rax
    popq %rax
L_if_end_39:
    movq -8(%rbp), %rax
    pushq %rax
    popq %rcx
    subq $32, %rsp
    callq cap_is_revoked
    addq $32, %rsp
    movzbq %al, %rax
    pushq %rax
    movabsq $0x1, %rax
    pushq %rax
    popq %rcx
    popq %rax
    cmpq %rcx, %rax
    sete %al
    movzbq %al, %rax
    pushq %rax
    popq %rax
    testq %rax, %rax
    jz L_if_end_41
    movq -32(%rbp), %rax
    pushq %rax
    movabsq $0x0, %rax
    pushq %rax
    movabsq $0x0, %rax
    pushq %rax
    popq %rdx
    popq %rcx
    popq %rax
    movq %rdx, (%rax,%rcx,8)
    movl L_CFORGE_SENT(%rip), %eax
    pushq %rax
    popq %rax
    movq %rbp, %rsp
    popq %rbp
    retq
    movq $0, %rax
    pushq %rax
    popq %rax
L_if_end_41:
    subq $32, %rsp
    callq L_cf_alloc
    addq $32, %rsp
    movl %eax, %eax
    pushq %rax
    popq %rax
    movq %rax, -40(%rbp)
    movl -40(%rbp), %eax
    pushq %rax
    movl L_CFORGE_SENT(%rip), %eax
    pushq %rax
    popq %rcx
    popq %rax
    cmpq %rcx, %rax
    sete %al
    movzbq %al, %rax
    pushq %rax
    popq %rax
    testq %rax, %rax
    jz L_if_end_43
    movq -32(%rbp), %rax
    pushq %rax
    movabsq $0x0, %rax
    pushq %rax
    movabsq $0x0, %rax
    pushq %rax
    popq %rdx
    popq %rcx
    popq %rax
    movq %rdx, (%rax,%rcx,8)
    movl L_CFORGE_SENT(%rip), %eax
    pushq %rax
    popq %rax
    movq %rbp, %rsp
    popq %rbp
    retq
    movq $0, %rax
    pushq %rax
    popq %rax
L_if_end_43:
    leaq L_CFORGE_ID8A(%rip), %rax
    pushq %rax
    popq %rax
    pushq %rax
    movq -8(%rbp), %rax
    pushq %rax
    popq %rcx
    popq %rdx
    subq $32, %rsp
    callq L_cf_id8
    addq $32, %rsp
    movslq %eax, %rax
    pushq %rax
    popq %rax
    leaq L_CFORGE_NEWSUBJ(%rip), %rax
    pushq %rax
    popq %rax
    pushq %rax
    leaq L_CFORGE_ID8A(%rip), %rax
    pushq %rax
    popq %rax
    pushq %rax
    movabsq $0x11, %rax
    pushq %rax
    leaq L_CFORGE_TAG_RS(%rip), %rax
    pushq %rax
    popq %rax
    pushq %rax
    popq %rcx
    popq %rdx
    popq %r8
    popq %r9
    subq $32, %rsp
    callq L_cf_hash1
    addq $32, %rsp
    movslq %eax, %rax
    pushq %rax
    popq %rax
    leaq L_CFORGE_NEWOP(%rip), %rax
    pushq %rax
    popq %rax
    pushq %rax
    leaq L_CFORGE_ID8A(%rip), %rax
    pushq %rax
    popq %rax
    pushq %rax
    movabsq $0xc, %rax
    pushq %rax
    leaq L_CFORGE_TAG_RO(%rip), %rax
    pushq %rax
    popq %rax
    pushq %rax
    popq %rcx
    popq %rdx
    popq %r8
    popq %r9
    subq $32, %rsp
    callq L_cf_hash1
    addq $32, %rsp
    movslq %eax, %rax
    pushq %rax
    popq %rax
    subq $8, %rsp
    leaq L_CFORGE_NEWRES(%rip), %rax
    pushq %rax
    popq %rax
    pushq %rax
    movq -16(%rbp), %rax
    pushq %rax
    leaq L_CFORGE_ID8A(%rip), %rax
    pushq %rax
    popq %rax
    pushq %rax
    movabsq $0x12, %rax
    pushq %rax
    leaq L_CFORGE_TAG_RR(%rip), %rax
    pushq %rax
    popq %rax
    pushq %rax
    popq %rcx
    popq %rdx
    popq %r8
    popq %r9
    subq $32, %rsp
    callq L_cf_compose_hash
    addq $32, %rsp
    addq $8, %rsp
    addq $8, %rsp
    movslq %eax, %rax
    pushq %rax
    popq %rax
    movq -8(%rbp), %rax
    pushq %rax
    popq %rcx
    subq $32, %rsp
    callq cap_rights
    addq $32, %rsp
    pushq %rax
    movq -24(%rbp), %rax
    pushq %rax
    popq %rcx
    popq %rax
    andq %rcx, %rax
    pushq %rax
    popq %rax
    movq %rax, -48(%rbp)
    movq L_CFORGE_NO_EXPIRY(%rip), %rax
    pushq %rax
    movq -48(%rbp), %rax
    pushq %rax
    movq -8(%rbp), %rax
    pushq %rax
    popq %rcx
    popq %rdx
    popq %r8
    subq $32, %rsp
    callq cap_attenuate
    addq $32, %rsp
    pushq %rax
    popq %rax
    movq %rax, -56(%rbp)
    movq -56(%rbp), %rax
    pushq %rax
    movabsq $0x0, %rax
    pushq %rax
    popq %rcx
    popq %rax
    cmpq %rcx, %rax
    sete %al
    movzbq %al, %rax
    pushq %rax
    popq %rax
    testq %rax, %rax
    jz L_if_end_45
    movq -32(%rbp), %rax
    pushq %rax
    movabsq $0x0, %rax
    pushq %rax
    movabsq $0x0, %rax
    pushq %rax
    popq %rdx
    popq %rcx
    popq %rax
    movq %rdx, (%rax,%rcx,8)
    movl L_CFORGE_SENT(%rip), %eax
    pushq %rax
    popq %rax
    movq %rbp, %rsp
    popq %rbp
    retq
    movq $0, %rax
    pushq %rax
    popq %rax
L_if_end_45:
    leaq L_CFORGE_KIND(%rip), %rax
    pushq %rax
    movl -40(%rbp), %eax
    pushq %rax
    movzbq L_CFORGE_KIND_RESTRICT(%rip), %rax
    pushq %rax
    popq %rdx
    popq %rcx
    popq %rax
    movb %dl, (%rax,%rcx,1)
    movl -40(%rbp), %eax
    pushq %rax
    popq %rcx
    subq $32, %rsp
    callq L_cf_store_triple
    addq $32, %rsp
    movslq %eax, %rax
    pushq %rax
    popq %rax
    leaq L_CFORGE_CAPID(%rip), %rax
    pushq %rax
    movl -40(%rbp), %eax
    pushq %rax
    movq -56(%rbp), %rax
    pushq %rax
    popq %rdx
    popq %rcx
    popq %rax
    movq %rdx, (%rax,%rcx,8)
    leaq L_CFORGE_ANTE_CNT(%rip), %rax
    pushq %rax
    movl -40(%rbp), %eax
    pushq %rax
    movabsq $0x1, %rax
    pushq %rax
    popq %rdx
    popq %rcx
    popq %rax
    movl %edx, (%rax,%rcx,4)
    movl -40(%rbp), %eax
    pushq %rax
    popq %rax
    pushq %rax
    movabsq $0xffffffff, %rax
    pushq %rax
    popq %rcx
    popq %rax
    andq %rcx, %rax
    pushq %rax
    movabsq $0x4, %rax
    pushq %rax
    popq %rcx
    popq %rax
    imulq %rcx, %rax
    pushq %rax
    popq %rax
    movq %rax, -64(%rbp)
    leaq L_CFORGE_ANTE_CAP(%rip), %rax
    pushq %rax
    movq -64(%rbp), %rax
    pushq %rax
    movabsq $0x0, %rax
    pushq %rax
    popq %rcx
    popq %rax
    addq %rcx, %rax
    pushq %rax
    movq -8(%rbp), %rax
    pushq %rax
    popq %rdx
    popq %rcx
    popq %rax
    movq %rdx, (%rax,%rcx,8)
    leaq L_CFORGE_ANTE(%rip), %rax
    pushq %rax
    movq -64(%rbp), %rax
    pushq %rax
    movabsq $0x0, %rax
    pushq %rax
    popq %rcx
    popq %rax
    addq %rcx, %rax
    pushq %rax
    movq -8(%rbp), %rax
    pushq %rax
    popq %rcx
    subq $32, %rsp
    callq L_cf_slot_of_cap_raw
    addq $32, %rsp
    movl %eax, %eax
    pushq %rax
    popq %rdx
    popq %rcx
    popq %rax
    movl %edx, (%rax,%rcx,4)
    leaq L_CFORGE_LIVE(%rip), %rax
    pushq %rax
    movl -40(%rbp), %eax
    pushq %rax
    movabsq $0x1, %rax
    pushq %rax
    popq %rdx
    popq %rcx
    popq %rax
    movb %dl, (%rax,%rcx,1)
    movl L_CFORGE_USED(%rip), %eax
    pushq %rax
    movabsq $0x1, %rax
    pushq %rax
    popq %rcx
    popq %rax
    addq %rcx, %rax
    movl %eax, %eax
    pushq %rax
    popq %rax
    movl %eax, L_CFORGE_USED(%rip)
    subq $32, %rsp
    callq L_cf_clear_idbuf
    addq $32, %rsp
    movslq %eax, %rax
    pushq %rax
    popq %rax
    movq -8(%rbp), %rax
    pushq %rax
    movabsq $0x0, %rax
    pushq %rax
    popq %rcx
    popq %rdx
    subq $32, %rsp
    callq L_cf_pack_ante
    addq $32, %rsp
    movslq %eax, %rax
    pushq %rax
    popq %rax
    leaq L_CFORGE_FRAG(%rip), %rax
    pushq %rax
    movl -40(%rbp), %eax
    pushq %rax
    movabsq $0x1, %rax
    pushq %rax
    movzbq L_CFORGE_REVTAG_FORGE(%rip), %rax
    pushq %rax
    movl -40(%rbp), %eax
    pushq %rax
    popq %rcx
    popq %rdx
    popq %r8
    subq $32, %rsp
    callq L_cf_publish_slot
    addq $32, %rsp
    pushq %rax
    popq %rdx
    popq %rcx
    popq %rax
    movq %rdx, (%rax,%rcx,8)
    movq -32(%rbp), %rax
    pushq %rax
    movabsq $0x0, %rax
    pushq %rax
    movq -56(%rbp), %rax
    pushq %rax
    popq %rdx
    popq %rcx
    popq %rax
    movq %rdx, (%rax,%rcx,8)
    movl -40(%rbp), %eax
    pushq %rax
    popq %rax
    movq %rbp, %rsp
    popq %rbp
    retq
    movq $0, %rax
    pushq %rax
    movq $0, %rax
    movq %rbp, %rsp
    popq %rbp
    retq
    .seh_endproc
    .section .iii.ring3,"n"
    .asciz "cf_forge_split"
    .text
    .global cf_forge_split
    .seh_proc cf_forge_split
cf_forge_split:
    pushq %rbp
    .seh_pushreg %rbp
    movq %rsp, %rbp
    .seh_setframe %rbp, 0
    subq $1024, %rsp
    .seh_stackalloc 1024
    .seh_endprologue
    movq %rcx, -8(%rbp)
    movq %rdx, -16(%rbp)
    movq %r8, -24(%rbp)
    movq %r9, -32(%rbp)
    movzbq L_CFORGE_INITED(%rip), %rax
    pushq %rax
    movabsq $0x0, %rax
    pushq %rax
    popq %rcx
    popq %rax
    cmpq %rcx, %rax
    sete %al
    movzbq %al, %rax
    pushq %rax
    popq %rax
    testq %rax, %rax
    jz L_if_end_47
    subq $32, %rsp
    callq cf_init
    addq $32, %rsp
    movslq %eax, %rax
    pushq %rax
    popq %rax
    movq $0, %rax
    pushq %rax
    popq %rax
L_if_end_47:
    movq -8(%rbp), %rax
    pushq %rax
    movabsq $0x0, %rax
    pushq %rax
    popq %rcx
    popq %rax
    cmpq %rcx, %rax
    sete %al
    movzbq %al, %rax
    pushq %rax
    popq %rax
    testq %rax, %rax
    jz L_if_end_49
    movq -32(%rbp), %rax
    pushq %rax
    movabsq $0x0, %rax
    pushq %rax
    movabsq $0x0, %rax
    pushq %rax
    popq %rdx
    popq %rcx
    popq %rax
    movq %rdx, (%rax,%rcx,8)
    movl L_CFORGE_SENT(%rip), %eax
    pushq %rax
    popq %rax
    movq %rbp, %rsp
    popq %rbp
    retq
    movq $0, %rax
    pushq %rax
    popq %rax
L_if_end_49:
    movq -8(%rbp), %rax
    pushq %rax
    popq %rcx
    subq $32, %rsp
    callq cap_is_revoked
    addq $32, %rsp
    movzbq %al, %rax
    pushq %rax
    movabsq $0x1, %rax
    pushq %rax
    popq %rcx
    popq %rax
    cmpq %rcx, %rax
    sete %al
    movzbq %al, %rax
    pushq %rax
    popq %rax
    testq %rax, %rax
    jz L_if_end_51
    movq -32(%rbp), %rax
    pushq %rax
    movabsq $0x0, %rax
    pushq %rax
    movabsq $0x0, %rax
    pushq %rax
    popq %rdx
    popq %rcx
    popq %rax
    movq %rdx, (%rax,%rcx,8)
    movl L_CFORGE_SENT(%rip), %eax
    pushq %rax
    popq %rax
    movq %rbp, %rsp
    popq %rbp
    retq
    movq $0, %rax
    pushq %rax
    popq %rax
L_if_end_51:
    subq $32, %rsp
    callq L_cf_alloc
    addq $32, %rsp
    movl %eax, %eax
    pushq %rax
    popq %rax
    movq %rax, -40(%rbp)
    movl -40(%rbp), %eax
    pushq %rax
    movl L_CFORGE_SENT(%rip), %eax
    pushq %rax
    popq %rcx
    popq %rax
    cmpq %rcx, %rax
    sete %al
    movzbq %al, %rax
    pushq %rax
    popq %rax
    testq %rax, %rax
    jz L_if_end_53
    movq -32(%rbp), %rax
    pushq %rax
    movabsq $0x0, %rax
    pushq %rax
    movabsq $0x0, %rax
    pushq %rax
    popq %rdx
    popq %rcx
    popq %rax
    movq %rdx, (%rax,%rcx,8)
    movl L_CFORGE_SENT(%rip), %eax
    pushq %rax
    popq %rax
    movq %rbp, %rsp
    popq %rbp
    retq
    movq $0, %rax
    pushq %rax
    popq %rax
L_if_end_53:
    leaq L_CFORGE_ID8A(%rip), %rax
    pushq %rax
    popq %rax
    pushq %rax
    movq -8(%rbp), %rax
    pushq %rax
    popq %rcx
    popq %rdx
    subq $32, %rsp
    callq L_cf_id8
    addq $32, %rsp
    movslq %eax, %rax
    pushq %rax
    popq %rax
    movl -16(%rbp), %eax
    pushq %rax
    popq %rax
    movq %rax, -48(%rbp)
    movl -24(%rbp), %eax
    pushq %rax
    popq %rax
    movq %rax, -56(%rbp)
    leaq L_CFORGE_PBUF(%rip), %rax
    pushq %rax
    movabsq $0x0, %rax
    pushq %rax
    movl -48(%rbp), %eax
    pushq %rax
    movabsq $0xff, %rax
    pushq %rax
    popq %rcx
    popq %rax
    andq %rcx, %rax
    pushq %rax
    popq %rax
    movzbq %al, %rax
    pushq %rax
    popq %rdx
    popq %rcx
    popq %rax
    movb %dl, (%rax,%rcx,1)
    leaq L_CFORGE_PBUF(%rip), %rax
    pushq %rax
    movabsq $0x1, %rax
    pushq %rax
    movl -48(%rbp), %eax
    pushq %rax
    movabsq $0x8, %rax
    pushq %rax
    popq %rcx
    popq %rax
    shrq %cl, %rax
    pushq %rax
    movabsq $0xff, %rax
    pushq %rax
    popq %rcx
    popq %rax
    andq %rcx, %rax
    pushq %rax
    popq %rax
    movzbq %al, %rax
    pushq %rax
    popq %rdx
    popq %rcx
    popq %rax
    movb %dl, (%rax,%rcx,1)
    leaq L_CFORGE_PBUF(%rip), %rax
    pushq %rax
    movabsq $0x2, %rax
    pushq %rax
    movl -48(%rbp), %eax
    pushq %rax
    movabsq $0x10, %rax
    pushq %rax
    popq %rcx
    popq %rax
    shrq %cl, %rax
    pushq %rax
    movabsq $0xff, %rax
    pushq %rax
    popq %rcx
    popq %rax
    andq %rcx, %rax
    pushq %rax
    popq %rax
    movzbq %al, %rax
    pushq %rax
    popq %rdx
    popq %rcx
    popq %rax
    movb %dl, (%rax,%rcx,1)
    leaq L_CFORGE_PBUF(%rip), %rax
    pushq %rax
    movabsq $0x3, %rax
    pushq %rax
    movl -48(%rbp), %eax
    pushq %rax
    movabsq $0x18, %rax
    pushq %rax
    popq %rcx
    popq %rax
    shrq %cl, %rax
    pushq %rax
    movabsq $0xff, %rax
    pushq %rax
    popq %rcx
    popq %rax
    andq %rcx, %rax
    pushq %rax
    popq %rax
    movzbq %al, %rax
    pushq %rax
    popq %rdx
    popq %rcx
    popq %rax
    movb %dl, (%rax,%rcx,1)
    leaq L_CFORGE_PBUF(%rip), %rax
    pushq %rax
    movabsq $0x4, %rax
    pushq %rax
    movl -56(%rbp), %eax
    pushq %rax
    movabsq $0xff, %rax
    pushq %rax
    popq %rcx
    popq %rax
    andq %rcx, %rax
    pushq %rax
    popq %rax
    movzbq %al, %rax
    pushq %rax
    popq %rdx
    popq %rcx
    popq %rax
    movb %dl, (%rax,%rcx,1)
    leaq L_CFORGE_PBUF(%rip), %rax
    pushq %rax
    movabsq $0x5, %rax
    pushq %rax
    movl -56(%rbp), %eax
    pushq %rax
    movabsq $0x8, %rax
    pushq %rax
    popq %rcx
    popq %rax
    shrq %cl, %rax
    pushq %rax
    movabsq $0xff, %rax
    pushq %rax
    popq %rcx
    popq %rax
    andq %rcx, %rax
    pushq %rax
    popq %rax
    movzbq %al, %rax
    pushq %rax
    popq %rdx
    popq %rcx
    popq %rax
    movb %dl, (%rax,%rcx,1)
    leaq L_CFORGE_PBUF(%rip), %rax
    pushq %rax
    movabsq $0x6, %rax
    pushq %rax
    movl -56(%rbp), %eax
    pushq %rax
    movabsq $0x10, %rax
    pushq %rax
    popq %rcx
    popq %rax
    shrq %cl, %rax
    pushq %rax
    movabsq $0xff, %rax
    pushq %rax
    popq %rcx
    popq %rax
    andq %rcx, %rax
    pushq %rax
    popq %rax
    movzbq %al, %rax
    pushq %rax
    popq %rdx
    popq %rcx
    popq %rax
    movb %dl, (%rax,%rcx,1)
    leaq L_CFORGE_PBUF(%rip), %rax
    pushq %rax
    movabsq $0x7, %rax
    pushq %rax
    movl -56(%rbp), %eax
    pushq %rax
    movabsq $0x18, %rax
    pushq %rax
    popq %rcx
    popq %rax
    shrq %cl, %rax
    pushq %rax
    movabsq $0xff, %rax
    pushq %rax
    popq %rcx
    popq %rax
    andq %rcx, %rax
    pushq %rax
    popq %rax
    movzbq %al, %rax
    pushq %rax
    popq %rdx
    popq %rcx
    popq %rax
    movb %dl, (%rax,%rcx,1)
    leaq L_CFORGE_NEWSUBJ(%rip), %rax
    pushq %rax
    popq %rax
    pushq %rax
    leaq L_CFORGE_ID8A(%rip), %rax
    pushq %rax
    popq %rax
    pushq %rax
    movabsq $0xe, %rax
    pushq %rax
    leaq L_CFORGE_TAG_SS(%rip), %rax
    pushq %rax
    popq %rax
    pushq %rax
    popq %rcx
    popq %rdx
    popq %r8
    popq %r9
    subq $32, %rsp
    callq L_cf_hash1
    addq $32, %rsp
    movslq %eax, %rax
    pushq %rax
    popq %rax
    leaq L_CFORGE_NEWOP(%rip), %rax
    pushq %rax
    popq %rax
    pushq %rax
    leaq L_CFORGE_ID8A(%rip), %rax
    pushq %rax
    popq %rax
    pushq %rax
    movabsq $0x9, %rax
    pushq %rax
    leaq L_CFORGE_TAG_SO(%rip), %rax
    pushq %rax
    popq %rax
    pushq %rax
    popq %rcx
    popq %rdx
    popq %r8
    popq %r9
    subq $32, %rsp
    callq L_cf_hash1
    addq $32, %rsp
    movslq %eax, %rax
    pushq %rax
    popq %rax
    subq $8, %rsp
    leaq L_CFORGE_NEWRES(%rip), %rax
    pushq %rax
    popq %rax
    pushq %rax
    leaq L_CFORGE_PBUF(%rip), %rax
    pushq %rax
    popq %rax
    pushq %rax
    leaq L_CFORGE_ID8A(%rip), %rax
    pushq %rax
    popq %rax
    pushq %rax
    movabsq $0xf, %rax
    pushq %rax
    leaq L_CFORGE_TAG_SR(%rip), %rax
    pushq %rax
    popq %rax
    pushq %rax
    popq %rcx
    popq %rdx
    popq %r8
    popq %r9
    subq $32, %rsp
    callq L_cf_compose_hash
    addq $32, %rsp
    addq $8, %rsp
    addq $8, %rsp
    movslq %eax, %rax
    pushq %rax
    popq %rax
    movq L_CFORGE_NO_EXPIRY(%rip), %rax
    pushq %rax
    subq $8, %rsp
    movq -8(%rbp), %rax
    pushq %rax
    popq %rcx
    subq $32, %rsp
    callq cap_rights
    addq $32, %rsp
    addq $8, %rsp
    pushq %rax
    movq -8(%rbp), %rax
    pushq %rax
    popq %rcx
    popq %rdx
    popq %r8
    subq $32, %rsp
    callq cap_attenuate
    addq $32, %rsp
    pushq %rax
    popq %rax
    movq %rax, -64(%rbp)
    movq -64(%rbp), %rax
    pushq %rax
    movabsq $0x0, %rax
    pushq %rax
    popq %rcx
    popq %rax
    cmpq %rcx, %rax
    sete %al
    movzbq %al, %rax
    pushq %rax
    popq %rax
    testq %rax, %rax
    jz L_if_end_55
    movq -32(%rbp), %rax
    pushq %rax
    movabsq $0x0, %rax
    pushq %rax
    movabsq $0x0, %rax
    pushq %rax
    popq %rdx
    popq %rcx
    popq %rax
    movq %rdx, (%rax,%rcx,8)
    movl L_CFORGE_SENT(%rip), %eax
    pushq %rax
    popq %rax
    movq %rbp, %rsp
    popq %rbp
    retq
    movq $0, %rax
    pushq %rax
    popq %rax
L_if_end_55:
    leaq L_CFORGE_KIND(%rip), %rax
    pushq %rax
    movl -40(%rbp), %eax
    pushq %rax
    movzbq L_CFORGE_KIND_SPLIT(%rip), %rax
    pushq %rax
    popq %rdx
    popq %rcx
    popq %rax
    movb %dl, (%rax,%rcx,1)
    movl -40(%rbp), %eax
    pushq %rax
    popq %rcx
    subq $32, %rsp
    callq L_cf_store_triple
    addq $32, %rsp
    movslq %eax, %rax
    pushq %rax
    popq %rax
    leaq L_CFORGE_CAPID(%rip), %rax
    pushq %rax
    movl -40(%rbp), %eax
    pushq %rax
    movq -64(%rbp), %rax
    pushq %rax
    popq %rdx
    popq %rcx
    popq %rax
    movq %rdx, (%rax,%rcx,8)
    leaq L_CFORGE_ANTE_CNT(%rip), %rax
    pushq %rax
    movl -40(%rbp), %eax
    pushq %rax
    movabsq $0x1, %rax
    pushq %rax
    popq %rdx
    popq %rcx
    popq %rax
    movl %edx, (%rax,%rcx,4)
    movl -40(%rbp), %eax
    pushq %rax
    popq %rax
    pushq %rax
    movabsq $0xffffffff, %rax
    pushq %rax
    popq %rcx
    popq %rax
    andq %rcx, %rax
    pushq %rax
    movabsq $0x4, %rax
    pushq %rax
    popq %rcx
    popq %rax
    imulq %rcx, %rax
    pushq %rax
    popq %rax
    movq %rax, -72(%rbp)
    leaq L_CFORGE_ANTE_CAP(%rip), %rax
    pushq %rax
    movq -72(%rbp), %rax
    pushq %rax
    movabsq $0x0, %rax
    pushq %rax
    popq %rcx
    popq %rax
    addq %rcx, %rax
    pushq %rax
    movq -8(%rbp), %rax
    pushq %rax
    popq %rdx
    popq %rcx
    popq %rax
    movq %rdx, (%rax,%rcx,8)
    leaq L_CFORGE_ANTE(%rip), %rax
    pushq %rax
    movq -72(%rbp), %rax
    pushq %rax
    movabsq $0x0, %rax
    pushq %rax
    popq %rcx
    popq %rax
    addq %rcx, %rax
    pushq %rax
    movq -8(%rbp), %rax
    pushq %rax
    popq %rcx
    subq $32, %rsp
    callq L_cf_slot_of_cap_raw
    addq $32, %rsp
    movl %eax, %eax
    pushq %rax
    popq %rdx
    popq %rcx
    popq %rax
    movl %edx, (%rax,%rcx,4)
    leaq L_CFORGE_LIVE(%rip), %rax
    pushq %rax
    movl -40(%rbp), %eax
    pushq %rax
    movabsq $0x1, %rax
    pushq %rax
    popq %rdx
    popq %rcx
    popq %rax
    movb %dl, (%rax,%rcx,1)
    movl L_CFORGE_USED(%rip), %eax
    pushq %rax
    movabsq $0x1, %rax
    pushq %rax
    popq %rcx
    popq %rax
    addq %rcx, %rax
    movl %eax, %eax
    pushq %rax
    popq %rax
    movl %eax, L_CFORGE_USED(%rip)
    subq $32, %rsp
    callq L_cf_clear_idbuf
    addq $32, %rsp
    movslq %eax, %rax
    pushq %rax
    popq %rax
    movq -8(%rbp), %rax
    pushq %rax
    movabsq $0x0, %rax
    pushq %rax
    popq %rcx
    popq %rdx
    subq $32, %rsp
    callq L_cf_pack_ante
    addq $32, %rsp
    movslq %eax, %rax
    pushq %rax
    popq %rax
    leaq L_CFORGE_FRAG(%rip), %rax
    pushq %rax
    movl -40(%rbp), %eax
    pushq %rax
    movabsq $0x1, %rax
    pushq %rax
    movzbq L_CFORGE_REVTAG_FORGE(%rip), %rax
    pushq %rax
    movl -40(%rbp), %eax
    pushq %rax
    popq %rcx
    popq %rdx
    popq %r8
    subq $32, %rsp
    callq L_cf_publish_slot
    addq $32, %rsp
    pushq %rax
    popq %rdx
    popq %rcx
    popq %rax
    movq %rdx, (%rax,%rcx,8)
    movq -32(%rbp), %rax
    pushq %rax
    movabsq $0x0, %rax
    pushq %rax
    movq -64(%rbp), %rax
    pushq %rax
    popq %rdx
    popq %rcx
    popq %rax
    movq %rdx, (%rax,%rcx,8)
    movl -40(%rbp), %eax
    pushq %rax
    popq %rax
    movq %rbp, %rsp
    popq %rbp
    retq
    movq $0, %rax
    pushq %rax
    movq $0, %rax
    movq %rbp, %rsp
    popq %rbp
    retq
    .seh_endproc
    .section .iii.ring3,"n"
    .asciz "cf_add_dependency"
    .text
    .global cf_add_dependency
    .seh_proc cf_add_dependency
cf_add_dependency:
    pushq %rbp
    .seh_pushreg %rbp
    movq %rsp, %rbp
    .seh_setframe %rbp, 0
    subq $1024, %rsp
    .seh_stackalloc 1024
    .seh_endprologue
    movq %rcx, -8(%rbp)
    movq %rdx, -16(%rbp)
    movl -8(%rbp), %eax
    pushq %rax
    movl L_CFORGE_MAX_FORGED(%rip), %eax
    pushq %rax
    popq %rcx
    popq %rax
    cmpq %rcx, %rax
    setae %al
    movzbq %al, %rax
    pushq %rax
    popq %rax
    testq %rax, %rax
    jz L_if_end_57
    movslq L_CFORGE_E_BAD(%rip), %rax
    pushq %rax
    popq %rax
    movq %rbp, %rsp
    popq %rbp
    retq
    movq $0, %rax
    pushq %rax
    popq %rax
L_if_end_57:
    movl -16(%rbp), %eax
    pushq %rax
    movl L_CFORGE_MAX_FORGED(%rip), %eax
    pushq %rax
    popq %rcx
    popq %rax
    cmpq %rcx, %rax
    setae %al
    movzbq %al, %rax
    pushq %rax
    popq %rax
    testq %rax, %rax
    jz L_if_end_59
    movslq L_CFORGE_E_BAD(%rip), %rax
    pushq %rax
    popq %rax
    movq %rbp, %rsp
    popq %rbp
    retq
    movq $0, %rax
    pushq %rax
    popq %rax
L_if_end_59:
    leaq L_CFORGE_LIVE(%rip), %rax
    pushq %rax
    movl -8(%rbp), %eax
    pushq %rax
    popq %rcx
    popq %rax
    movzbq (%rax,%rcx,1), %rax
    pushq %rax
    movabsq $0x0, %rax
    pushq %rax
    popq %rcx
    popq %rax
    cmpq %rcx, %rax
    sete %al
    movzbq %al, %rax
    pushq %rax
    popq %rax
    testq %rax, %rax
    jz L_if_end_61
    movslq L_CFORGE_E_BAD(%rip), %rax
    pushq %rax
    popq %rax
    movq %rbp, %rsp
    popq %rbp
    retq
    movq $0, %rax
    pushq %rax
    popq %rax
L_if_end_61:
    leaq L_CFORGE_LIVE(%rip), %rax
    pushq %rax
    movl -16(%rbp), %eax
    pushq %rax
    popq %rcx
    popq %rax
    movzbq (%rax,%rcx,1), %rax
    pushq %rax
    movabsq $0x0, %rax
    pushq %rax
    popq %rcx
    popq %rax
    cmpq %rcx, %rax
    sete %al
    movzbq %al, %rax
    pushq %rax
    popq %rax
    testq %rax, %rax
    jz L_if_end_63
    movslq L_CFORGE_E_BAD(%rip), %rax
    pushq %rax
    popq %rax
    movq %rbp, %rsp
    popq %rbp
    retq
    movq $0, %rax
    pushq %rax
    popq %rax
L_if_end_63:
    leaq L_CFORGE_ANTE_CNT(%rip), %rax
    pushq %rax
    movl -8(%rbp), %eax
    pushq %rax
    popq %rcx
    popq %rax
    movl (%rax,%rcx,4), %eax
    pushq %rax
    popq %rax
    movq %rax, -24(%rbp)
    movl -24(%rbp), %eax
    pushq %rax
    movl L_CFORGE_MAX_ANTE(%rip), %eax
    pushq %rax
    popq %rcx
    popq %rax
    cmpq %rcx, %rax
    setae %al
    movzbq %al, %rax
    pushq %rax
    popq %rax
    testq %rax, %rax
    jz L_if_end_65
    movslq L_CFORGE_E_FULL(%rip), %rax
    pushq %rax
    popq %rax
    movq %rbp, %rsp
    popq %rbp
    retq
    movq $0, %rax
    pushq %rax
    popq %rax
L_if_end_65:
    movl -8(%rbp), %eax
    pushq %rax
    popq %rax
    pushq %rax
    movabsq $0xffffffff, %rax
    pushq %rax
    popq %rcx
    popq %rax
    andq %rcx, %rax
    pushq %rax
    movabsq $0x4, %rax
    pushq %rax
    popq %rcx
    popq %rax
    imulq %rcx, %rax
    pushq %rax
    movl -24(%rbp), %eax
    pushq %rax
    popq %rax
    pushq %rax
    movabsq $0xffffffff, %rax
    pushq %rax
    popq %rcx
    popq %rax
    andq %rcx, %rax
    pushq %rax
    popq %rcx
    popq %rax
    addq %rcx, %rax
    pushq %rax
    popq %rax
    movq %rax, -32(%rbp)
    leaq L_CFORGE_ANTE(%rip), %rax
    pushq %rax
    movq -32(%rbp), %rax
    pushq %rax
    movl -16(%rbp), %eax
    pushq %rax
    popq %rdx
    popq %rcx
    popq %rax
    movl %edx, (%rax,%rcx,4)
    leaq L_CFORGE_ANTE_CAP(%rip), %rax
    pushq %rax
    movq -32(%rbp), %rax
    pushq %rax
    leaq L_CFORGE_CAPID(%rip), %rax
    pushq %rax
    movl -16(%rbp), %eax
    pushq %rax
    popq %rcx
    popq %rax
    movq (%rax,%rcx,8), %rax
    pushq %rax
    popq %rdx
    popq %rcx
    popq %rax
    movq %rdx, (%rax,%rcx,8)
    leaq L_CFORGE_ANTE_CNT(%rip), %rax
    pushq %rax
    movl -8(%rbp), %eax
    pushq %rax
    movl -24(%rbp), %eax
    pushq %rax
    movabsq $0x1, %rax
    pushq %rax
    popq %rcx
    popq %rax
    addq %rcx, %rax
    movl %eax, %eax
    pushq %rax
    popq %rdx
    popq %rcx
    popq %rax
    movl %edx, (%rax,%rcx,4)
    movslq L_CFORGE_OK(%rip), %rax
    pushq %rax
    popq %rax
    movq %rbp, %rsp
    popq %rbp
    retq
    movq $0, %rax
    pushq %rax
    movq $0, %rax
    movq %rbp, %rsp
    popq %rbp
    retq
    .seh_endproc
    .section .iii.ring3,"n"
    .asciz "cf_slot_of_cap"
    .text
    .global cf_slot_of_cap
    .seh_proc cf_slot_of_cap
cf_slot_of_cap:
    pushq %rbp
    .seh_pushreg %rbp
    movq %rsp, %rbp
    .seh_setframe %rbp, 0
    subq $1024, %rsp
    .seh_stackalloc 1024
    .seh_endprologue
    movq %rcx, -8(%rbp)
    movq -8(%rbp), %rax
    pushq %rax
    popq %rax
    movq %rax, -16(%rbp)
    movq -16(%rbp), %rax
    pushq %rax
    movabsq $0x0, %rax
    pushq %rax
    popq %rcx
    popq %rax
    cmpq %rcx, %rax
    sete %al
    movzbq %al, %rax
    pushq %rax
    popq %rax
    testq %rax, %rax
    jz L_if_end_67
    movl L_CFORGE_SENT(%rip), %eax
    pushq %rax
    popq %rax
    movq %rbp, %rsp
    popq %rbp
    retq
    movq $0, %rax
    pushq %rax
    popq %rax
L_if_end_67:
    movabsq $0x0, %rax
    pushq %rax
    popq %rax
    movq %rax, -24(%rbp)
L_loop_top_68:
    movl -24(%rbp), %eax
    pushq %rax
    movl L_CFORGE_MAX_FORGED(%rip), %eax
    pushq %rax
    popq %rcx
    popq %rax
    cmpq %rcx, %rax
    setb %al
    movzbq %al, %rax
    pushq %rax
    popq %rax
    testq %rax, %rax
    jz L_loop_end_69
    leaq L_CFORGE_LIVE(%rip), %rax
    pushq %rax
    movl -24(%rbp), %eax
    pushq %rax
    popq %rcx
    popq %rax
    movzbq (%rax,%rcx,1), %rax
    pushq %rax
    movabsq $0x1, %rax
    pushq %rax
    popq %rcx
    popq %rax
    cmpq %rcx, %rax
    sete %al
    movzbq %al, %rax
    pushq %rax
    popq %rax
    testq %rax, %rax
    jz L_if_end_71
    leaq L_CFORGE_CAPID(%rip), %rax
    pushq %rax
    movl -24(%rbp), %eax
    pushq %rax
    popq %rcx
    popq %rax
    movq (%rax,%rcx,8), %rax
    pushq %rax
    movq -16(%rbp), %rax
    pushq %rax
    popq %rcx
    popq %rax
    cmpq %rcx, %rax
    sete %al
    movzbq %al, %rax
    pushq %rax
    popq %rax
    testq %rax, %rax
    jz L_if_end_73
    movl -24(%rbp), %eax
    pushq %rax
    popq %rax
    movq %rbp, %rsp
    popq %rbp
    retq
    movq $0, %rax
    pushq %rax
    popq %rax
L_if_end_73:
    movq $0, %rax
    pushq %rax
    popq %rax
L_if_end_71:
    movl -24(%rbp), %eax
    pushq %rax
    movabsq $0x1, %rax
    pushq %rax
    popq %rcx
    popq %rax
    addq %rcx, %rax
    movl %eax, %eax
    pushq %rax
    popq %rax
    movq %rax, -24(%rbp)
    movq $0, %rax
    pushq %rax
    popq %rax
    jmp L_loop_top_68
L_loop_end_69:
    movl L_CFORGE_SENT(%rip), %eax
    pushq %rax
    popq %rax
    movq %rbp, %rsp
    popq %rbp
    retq
    movq $0, %rax
    pushq %rax
    movq $0, %rax
    movq %rbp, %rsp
    popq %rbp
    retq
    .seh_endproc
    .section .iii.ring3,"n"
    .asciz "cf_cascade_seed"
    .text
    .global L_cf_cascade_seed
    .seh_proc L_cf_cascade_seed
L_cf_cascade_seed:
    pushq %rbp
    .seh_pushreg %rbp
    movq %rsp, %rbp
    .seh_setframe %rbp, 0
    subq $1024, %rsp
    .seh_stackalloc 1024
    .seh_endprologue
    movq %rcx, -8(%rbp)
    movq -8(%rbp), %rax
    pushq %rax
    popq %rax
    movq %rax, -16(%rbp)
    movabsq $0x0, %rax
    pushq %rax
    popq %rax
    movq %rax, -24(%rbp)
L_loop_top_74:
    movl -24(%rbp), %eax
    pushq %rax
    movl L_CFORGE_MAX_FORGED(%rip), %eax
    pushq %rax
    popq %rcx
    popq %rax
    cmpq %rcx, %rax
    setb %al
    movzbq %al, %rax
    pushq %rax
    popq %rax
    testq %rax, %rax
    jz L_loop_end_75
    leaq L_CFORGE_REVOKED_SET(%rip), %rax
    pushq %rax
    movl -24(%rbp), %eax
    pushq %rax
    movabsq $0x0, %rax
    pushq %rax
    popq %rdx
    popq %rcx
    popq %rax
    movb %dl, (%rax,%rcx,1)
    leaq L_CFORGE_LIVE(%rip), %rax
    pushq %rax
    movl -24(%rbp), %eax
    pushq %rax
    popq %rcx
    popq %rax
    movzbq (%rax,%rcx,1), %rax
    pushq %rax
    movabsq $0x1, %rax
    pushq %rax
    popq %rcx
    popq %rax
    cmpq %rcx, %rax
    sete %al
    movzbq %al, %rax
    pushq %rax
    popq %rax
    testq %rax, %rax
    jz L_if_end_77
    movabsq $0x0, %rax
    pushq %rax
    popq %rax
    movq %rax, -32(%rbp)
    leaq L_CFORGE_CAPID(%rip), %rax
    pushq %rax
    movl -24(%rbp), %eax
    pushq %rax
    popq %rcx
    popq %rax
    movq (%rax,%rcx,8), %rax
    pushq %rax
    movq -16(%rbp), %rax
    pushq %rax
    popq %rcx
    popq %rax
    cmpq %rcx, %rax
    sete %al
    movzbq %al, %rax
    pushq %rax
    popq %rax
    testq %rax, %rax
    jz L_if_end_79
    movabsq $0x1, %rax
    pushq %rax
    popq %rax
    movq %rax, -32(%rbp)
    movq $0, %rax
    pushq %rax
    popq %rax
L_if_end_79:
    movl -24(%rbp), %eax
    pushq %rax
    popq %rax
    pushq %rax
    movabsq $0xffffffff, %rax
    pushq %rax
    popq %rcx
    popq %rax
    andq %rcx, %rax
    pushq %rax
    movabsq $0x4, %rax
    pushq %rax
    popq %rcx
    popq %rax
    imulq %rcx, %rax
    pushq %rax
    popq %rax
    movq %rax, -40(%rbp)
    leaq L_CFORGE_ANTE_CNT(%rip), %rax
    pushq %rax
    movl -24(%rbp), %eax
    pushq %rax
    popq %rcx
    popq %rax
    movl (%rax,%rcx,4), %eax
    pushq %rax
    popq %rax
    movq %rax, -48(%rbp)
    movabsq $0x0, %rax
    pushq %rax
    popq %rax
    movq %rax, -56(%rbp)
L_loop_top_80:
    movl -56(%rbp), %eax
    pushq %rax
    movl -48(%rbp), %eax
    pushq %rax
    popq %rcx
    popq %rax
    cmpq %rcx, %rax
    setb %al
    movzbq %al, %rax
    pushq %rax
    popq %rax
    testq %rax, %rax
    jz L_loop_end_81
    leaq L_CFORGE_ANTE_CAP(%rip), %rax
    pushq %rax
    movq -40(%rbp), %rax
    pushq %rax
    movl -56(%rbp), %eax
    pushq %rax
    popq %rax
    pushq %rax
    movabsq $0xffffffff, %rax
    pushq %rax
    popq %rcx
    popq %rax
    andq %rcx, %rax
    pushq %rax
    popq %rcx
    popq %rax
    addq %rcx, %rax
    pushq %rax
    popq %rcx
    popq %rax
    movq (%rax,%rcx,8), %rax
    pushq %rax
    movq -16(%rbp), %rax
    pushq %rax
    popq %rcx
    popq %rax
    cmpq %rcx, %rax
    sete %al
    movzbq %al, %rax
    pushq %rax
    popq %rax
    testq %rax, %rax
    jz L_if_end_83
    movabsq $0x1, %rax
    pushq %rax
    popq %rax
    movq %rax, -32(%rbp)
    movq $0, %rax
    pushq %rax
    popq %rax
L_if_end_83:
    movl -56(%rbp), %eax
    pushq %rax
    movabsq $0x1, %rax
    pushq %rax
    popq %rcx
    popq %rax
    addq %rcx, %rax
    movl %eax, %eax
    pushq %rax
    popq %rax
    movq %rax, -56(%rbp)
    movq $0, %rax
    pushq %rax
    popq %rax
    jmp L_loop_top_80
L_loop_end_81:
    movzbq -32(%rbp), %rax
    pushq %rax
    movabsq $0x1, %rax
    pushq %rax
    popq %rcx
    popq %rax
    cmpq %rcx, %rax
    sete %al
    movzbq %al, %rax
    pushq %rax
    popq %rax
    testq %rax, %rax
    jz L_if_end_85
    leaq L_CFORGE_REVOKED_SET(%rip), %rax
    pushq %rax
    movl -24(%rbp), %eax
    pushq %rax
    movabsq $0x1, %rax
    pushq %rax
    popq %rdx
    popq %rcx
    popq %rax
    movb %dl, (%rax,%rcx,1)
    movq $0, %rax
    pushq %rax
    popq %rax
L_if_end_85:
    movq $0, %rax
    pushq %rax
    popq %rax
L_if_end_77:
    movl -24(%rbp), %eax
    pushq %rax
    movabsq $0x1, %rax
    pushq %rax
    popq %rcx
    popq %rax
    addq %rcx, %rax
    movl %eax, %eax
    pushq %rax
    popq %rax
    movq %rax, -24(%rbp)
    movq $0, %rax
    pushq %rax
    popq %rax
    jmp L_loop_top_74
L_loop_end_75:
    movslq L_CFORGE_OK(%rip), %rax
    pushq %rax
    popq %rax
    movq %rbp, %rsp
    popq %rbp
    retq
    movq $0, %rax
    pushq %rax
    movq $0, %rax
    movq %rbp, %rsp
    popq %rbp
    retq
    .seh_endproc
    .section .iii.ring3,"n"
    .asciz "cf_cascade_pass"
    .text
    .global L_cf_cascade_pass
    .seh_proc L_cf_cascade_pass
L_cf_cascade_pass:
    pushq %rbp
    .seh_pushreg %rbp
    movq %rsp, %rbp
    .seh_setframe %rbp, 0
    subq $1024, %rsp
    .seh_stackalloc 1024
    .seh_endprologue
    movabsq $0x0, %rax
    pushq %rax
    popq %rax
    movq %rax, -8(%rbp)
    movabsq $0x0, %rax
    pushq %rax
    popq %rax
    movq %rax, -16(%rbp)
L_loop_top_86:
    movl -16(%rbp), %eax
    pushq %rax
    movl L_CFORGE_MAX_FORGED(%rip), %eax
    pushq %rax
    popq %rcx
    popq %rax
    cmpq %rcx, %rax
    setb %al
    movzbq %al, %rax
    pushq %rax
    popq %rax
    testq %rax, %rax
    jz L_loop_end_87
    leaq L_CFORGE_LIVE(%rip), %rax
    pushq %rax
    movl -16(%rbp), %eax
    pushq %rax
    popq %rcx
    popq %rax
    movzbq (%rax,%rcx,1), %rax
    pushq %rax
    movabsq $0x1, %rax
    pushq %rax
    popq %rcx
    popq %rax
    cmpq %rcx, %rax
    sete %al
    movzbq %al, %rax
    pushq %rax
    popq %rax
    testq %rax, %rax
    jz L_if_end_89
    leaq L_CFORGE_REVOKED_SET(%rip), %rax
    pushq %rax
    movl -16(%rbp), %eax
    pushq %rax
    popq %rcx
    popq %rax
    movzbq (%rax,%rcx,1), %rax
    pushq %rax
    movabsq $0x0, %rax
    pushq %rax
    popq %rcx
    popq %rax
    cmpq %rcx, %rax
    sete %al
    movzbq %al, %rax
    pushq %rax
    popq %rax
    testq %rax, %rax
    jz L_if_end_91
    movl -16(%rbp), %eax
    pushq %rax
    popq %rax
    pushq %rax
    movabsq $0xffffffff, %rax
    pushq %rax
    popq %rcx
    popq %rax
    andq %rcx, %rax
    pushq %rax
    movabsq $0x4, %rax
    pushq %rax
    popq %rcx
    popq %rax
    imulq %rcx, %rax
    pushq %rax
    popq %rax
    movq %rax, -24(%rbp)
    leaq L_CFORGE_ANTE_CNT(%rip), %rax
    pushq %rax
    movl -16(%rbp), %eax
    pushq %rax
    popq %rcx
    popq %rax
    movl (%rax,%rcx,4), %eax
    pushq %rax
    popq %rax
    movq %rax, -32(%rbp)
    movabsq $0x0, %rax
    pushq %rax
    popq %rax
    movq %rax, -40(%rbp)
    movabsq $0x0, %rax
    pushq %rax
    popq %rax
    movq %rax, -48(%rbp)
L_loop_top_92:
    movl -48(%rbp), %eax
    pushq %rax
    movl -32(%rbp), %eax
    pushq %rax
    popq %rcx
    popq %rax
    cmpq %rcx, %rax
    setb %al
    movzbq %al, %rax
    pushq %rax
    popq %rax
    testq %rax, %rax
    jz L_loop_end_93
    leaq L_CFORGE_ANTE(%rip), %rax
    pushq %rax
    movq -24(%rbp), %rax
    pushq %rax
    movl -48(%rbp), %eax
    pushq %rax
    popq %rax
    pushq %rax
    movabsq $0xffffffff, %rax
    pushq %rax
    popq %rcx
    popq %rax
    andq %rcx, %rax
    pushq %rax
    popq %rcx
    popq %rax
    addq %rcx, %rax
    pushq %rax
    popq %rcx
    popq %rax
    movl (%rax,%rcx,4), %eax
    pushq %rax
    popq %rax
    movq %rax, -56(%rbp)
    movl -56(%rbp), %eax
    pushq %rax
    movl L_CFORGE_SENT(%rip), %eax
    pushq %rax
    popq %rcx
    popq %rax
    cmpq %rcx, %rax
    setne %al
    movzbq %al, %rax
    pushq %rax
    popq %rax
    testq %rax, %rax
    jz L_if_end_95
    leaq L_CFORGE_REVOKED_SET(%rip), %rax
    pushq %rax
    movl -56(%rbp), %eax
    pushq %rax
    popq %rcx
    popq %rax
    movzbq (%rax,%rcx,1), %rax
    pushq %rax
    movabsq $0x1, %rax
    pushq %rax
    popq %rcx
    popq %rax
    cmpq %rcx, %rax
    sete %al
    movzbq %al, %rax
    pushq %rax
    popq %rax
    testq %rax, %rax
    jz L_if_end_97
    movabsq $0x1, %rax
    pushq %rax
    popq %rax
    movq %rax, -40(%rbp)
    movq $0, %rax
    pushq %rax
    popq %rax
L_if_end_97:
    movq $0, %rax
    pushq %rax
    popq %rax
L_if_end_95:
    movl -48(%rbp), %eax
    pushq %rax
    movabsq $0x1, %rax
    pushq %rax
    popq %rcx
    popq %rax
    addq %rcx, %rax
    movl %eax, %eax
    pushq %rax
    popq %rax
    movq %rax, -48(%rbp)
    movq $0, %rax
    pushq %rax
    popq %rax
    jmp L_loop_top_92
L_loop_end_93:
    movzbq -40(%rbp), %rax
    pushq %rax
    movabsq $0x1, %rax
    pushq %rax
    popq %rcx
    popq %rax
    cmpq %rcx, %rax
    sete %al
    movzbq %al, %rax
    pushq %rax
    popq %rax
    testq %rax, %rax
    jz L_if_end_99
    leaq L_CFORGE_REVOKED_SET(%rip), %rax
    pushq %rax
    movl -16(%rbp), %eax
    pushq %rax
    movabsq $0x1, %rax
    pushq %rax
    popq %rdx
    popq %rcx
    popq %rax
    movb %dl, (%rax,%rcx,1)
    movabsq $0x1, %rax
    pushq %rax
    popq %rax
    movq %rax, -8(%rbp)
    movq $0, %rax
    pushq %rax
    popq %rax
L_if_end_99:
    movq $0, %rax
    pushq %rax
    popq %rax
L_if_end_91:
    movq $0, %rax
    pushq %rax
    popq %rax
L_if_end_89:
    movl -16(%rbp), %eax
    pushq %rax
    movabsq $0x1, %rax
    pushq %rax
    popq %rcx
    popq %rax
    addq %rcx, %rax
    movl %eax, %eax
    pushq %rax
    popq %rax
    movq %rax, -16(%rbp)
    movq $0, %rax
    pushq %rax
    popq %rax
    jmp L_loop_top_86
L_loop_end_87:
    movzbq -8(%rbp), %rax
    pushq %rax
    popq %rax
    movq %rbp, %rsp
    popq %rbp
    retq
    movq $0, %rax
    pushq %rax
    movq $0, %rax
    movq %rbp, %rsp
    popq %rbp
    retq
    .seh_endproc
    .section .iii.ring3,"n"
    .asciz "cf_deforge_cascade"
    .text
    .global cf_deforge_cascade
    .seh_proc cf_deforge_cascade
cf_deforge_cascade:
    pushq %rbp
    .seh_pushreg %rbp
    movq %rsp, %rbp
    .seh_setframe %rbp, 0
    subq $1024, %rsp
    .seh_stackalloc 1024
    .seh_endprologue
    movq %rcx, -8(%rbp)
    movzbq L_CFORGE_INITED(%rip), %rax
    pushq %rax
    movabsq $0x0, %rax
    pushq %rax
    popq %rcx
    popq %rax
    cmpq %rcx, %rax
    sete %al
    movzbq %al, %rax
    pushq %rax
    popq %rax
    testq %rax, %rax
    jz L_if_end_101
    movabsq $0x0, %rax
    pushq %rax
    popq %rax
    movq %rbp, %rsp
    popq %rbp
    retq
    movq $0, %rax
    pushq %rax
    popq %rax
L_if_end_101:
    movq -8(%rbp), %rax
    pushq %rax
    movabsq $0x0, %rax
    pushq %rax
    popq %rcx
    popq %rax
    cmpq %rcx, %rax
    sete %al
    movzbq %al, %rax
    pushq %rax
    popq %rax
    testq %rax, %rax
    jz L_if_end_103
    movabsq $0x0, %rax
    pushq %rax
    popq %rax
    movq %rbp, %rsp
    popq %rbp
    retq
    movq $0, %rax
    pushq %rax
    popq %rax
L_if_end_103:
    movq -8(%rbp), %rax
    pushq %rax
    popq %rcx
    subq $32, %rsp
    callq L_cf_cascade_seed
    addq $32, %rsp
    movslq %eax, %rax
    pushq %rax
    popq %rax
    movabsq $0x1, %rax
    pushq %rax
    popq %rax
    movq %rax, -16(%rbp)
L_loop_top_104:
    movzbq -16(%rbp), %rax
    pushq %rax
    movabsq $0x1, %rax
    pushq %rax
    popq %rcx
    popq %rax
    cmpq %rcx, %rax
    sete %al
    movzbq %al, %rax
    pushq %rax
    popq %rax
    testq %rax, %rax
    jz L_loop_end_105
    subq $32, %rsp
    callq L_cf_cascade_pass
    addq $32, %rsp
    movzbq %al, %rax
    pushq %rax
    popq %rax
    movq %rax, -16(%rbp)
    movq $0, %rax
    pushq %rax
    popq %rax
    jmp L_loop_top_104
L_loop_end_105:
    movq -8(%rbp), %rax
    pushq %rax
    popq %rcx
    subq $32, %rsp
    callq L_cf_slot_of_cap_raw
    addq $32, %rsp
    movl %eax, %eax
    pushq %rax
    popq %rax
    movq %rax, -24(%rbp)
    movabsq $0x0, %rax
    pushq %rax
    popq %rax
    movq %rax, -32(%rbp)
    movabsq $0x0, %rax
    pushq %rax
    popq %rax
    movq %rax, -40(%rbp)
L_loop_top_106:
    movl -40(%rbp), %eax
    pushq %rax
    movl L_CFORGE_MAX_FORGED(%rip), %eax
    pushq %rax
    popq %rcx
    popq %rax
    cmpq %rcx, %rax
    setb %al
    movzbq %al, %rax
    pushq %rax
    popq %rax
    testq %rax, %rax
    jz L_loop_end_107
    leaq L_CFORGE_REVOKED_SET(%rip), %rax
    pushq %rax
    movl -40(%rbp), %eax
    pushq %rax
    popq %rcx
    popq %rax
    movzbq (%rax,%rcx,1), %rax
    pushq %rax
    movabsq $0x1, %rax
    pushq %rax
    popq %rcx
    popq %rax
    cmpq %rcx, %rax
    sete %al
    movzbq %al, %rax
    pushq %rax
    popq %rax
    testq %rax, %rax
    jz L_if_end_109
    leaq L_CFORGE_LIVE(%rip), %rax
    pushq %rax
    movl -40(%rbp), %eax
    pushq %rax
    popq %rcx
    popq %rax
    movzbq (%rax,%rcx,1), %rax
    pushq %rax
    movabsq $0x1, %rax
    pushq %rax
    popq %rcx
    popq %rax
    cmpq %rcx, %rax
    sete %al
    movzbq %al, %rax
    pushq %rax
    popq %rax
    testq %rax, %rax
    jz L_if_end_111
    movl -40(%rbp), %eax
    pushq %rax
    movl -24(%rbp), %eax
    pushq %rax
    popq %rcx
    popq %rax
    cmpq %rcx, %rax
    setne %al
    movzbq %al, %rax
    pushq %rax
    popq %rax
    testq %rax, %rax
    jz L_if_end_113
    movl -40(%rbp), %eax
    pushq %rax
    popq %rax
    pushq %rax
    movabsq $0xffffffff, %rax
    pushq %rax
    popq %rcx
    popq %rax
    andq %rcx, %rax
    pushq %rax
    movabsq $0x4, %rax
    pushq %rax
    popq %rcx
    popq %rax
    imulq %rcx, %rax
    pushq %rax
    popq %rax
    movq %rax, -48(%rbp)
    leaq L_CFORGE_ANTE_CAP(%rip), %rax
    pushq %rax
    movq -48(%rbp), %rax
    pushq %rax
    movabsq $0x0, %rax
    pushq %rax
    popq %rcx
    popq %rax
    addq %rcx, %rax
    pushq %rax
    popq %rcx
    popq %rax
    movq (%rax,%rcx,8), %rax
    pushq %rax
    popq %rax
    movq %rax, -56(%rbp)
    leaq L_CFORGE_CAPID(%rip), %rax
    pushq %rax
    movl -40(%rbp), %eax
    pushq %rax
    popq %rcx
    popq %rax
    movq (%rax,%rcx,8), %rax
    pushq %rax
    movq -56(%rbp), %rax
    pushq %rax
    popq %rcx
    popq %rdx
    subq $32, %rsp
    callq cap_revoke
    addq $32, %rsp
    movslq %eax, %rax
    pushq %rax
    popq %rax
    subq $32, %rsp
    callq L_cf_clear_idbuf
    addq $32, %rsp
    movslq %eax, %rax
    pushq %rax
    popq %rax
    leaq L_CFORGE_CAPID(%rip), %rax
    pushq %rax
    movl -40(%rbp), %eax
    pushq %rax
    popq %rcx
    popq %rax
    movq (%rax,%rcx,8), %rax
    pushq %rax
    movabsq $0x0, %rax
    pushq %rax
    popq %rcx
    popq %rdx
    subq $32, %rsp
    callq L_cf_pack_ante
    addq $32, %rsp
    movslq %eax, %rax
    pushq %rax
    popq %rax
    leaq L_CFORGE_FRAG(%rip), %rax
    pushq %rax
    movl -40(%rbp), %eax
    pushq %rax
    movabsq $0x1, %rax
    pushq %rax
    movzbq L_CFORGE_REVTAG_DEFORGE(%rip), %rax
    pushq %rax
    movl -40(%rbp), %eax
    pushq %rax
    popq %rcx
    popq %rdx
    popq %r8
    subq $32, %rsp
    callq L_cf_publish_slot
    addq $32, %rsp
    pushq %rax
    popq %rdx
    popq %rcx
    popq %rax
    movq %rdx, (%rax,%rcx,8)
    leaq L_CFORGE_LIVE(%rip), %rax
    pushq %rax
    movl -40(%rbp), %eax
    pushq %rax
    movabsq $0x0, %rax
    pushq %rax
    popq %rdx
    popq %rcx
    popq %rax
    movb %dl, (%rax,%rcx,1)
    movl L_CFORGE_USED(%rip), %eax
    pushq %rax
    movabsq $0x0, %rax
    pushq %rax
    popq %rcx
    popq %rax
    cmpq %rcx, %rax
    seta %al
    movzbq %al, %rax
    pushq %rax
    popq %rax
    testq %rax, %rax
    jz L_if_end_115
    movl L_CFORGE_USED(%rip), %eax
    pushq %rax
    movabsq $0x1, %rax
    pushq %rax
    popq %rcx
    popq %rax
    subq %rcx, %rax
    movl %eax, %eax
    pushq %rax
    popq %rax
    movl %eax, L_CFORGE_USED(%rip)
    movq $0, %rax
    pushq %rax
    popq %rax
L_if_end_115:
    movl -32(%rbp), %eax
    pushq %rax
    movabsq $0x1, %rax
    pushq %rax
    popq %rcx
    popq %rax
    addq %rcx, %rax
    movl %eax, %eax
    pushq %rax
    popq %rax
    movq %rax, -32(%rbp)
    movq $0, %rax
    pushq %rax
    popq %rax
L_if_end_113:
    movq $0, %rax
    pushq %rax
    popq %rax
L_if_end_111:
    movq $0, %rax
    pushq %rax
    popq %rax
L_if_end_109:
    movl -40(%rbp), %eax
    pushq %rax
    movabsq $0x1, %rax
    pushq %rax
    popq %rcx
    popq %rax
    addq %rcx, %rax
    movl %eax, %eax
    pushq %rax
    popq %rax
    movq %rax, -40(%rbp)
    movq $0, %rax
    pushq %rax
    popq %rax
    jmp L_loop_top_106
L_loop_end_107:
    movl -32(%rbp), %eax
    pushq %rax
    popq %rax
    movq %rbp, %rsp
    popq %rbp
    retq
    movq $0, %rax
    pushq %rax
    movq $0, %rax
    movq %rbp, %rsp
    popq %rbp
    retq
    .seh_endproc
    .section .iii.ring3,"n"
    .asciz "cf_forged_cap"
    .text
    .global cf_forged_cap
    .seh_proc cf_forged_cap
cf_forged_cap:
    pushq %rbp
    .seh_pushreg %rbp
    movq %rsp, %rbp
    .seh_setframe %rbp, 0
    subq $1024, %rsp
    .seh_stackalloc 1024
    .seh_endprologue
    movq %rcx, -8(%rbp)
    movl -8(%rbp), %eax
    pushq %rax
    movl L_CFORGE_MAX_FORGED(%rip), %eax
    pushq %rax
    popq %rcx
    popq %rax
    cmpq %rcx, %rax
    setae %al
    movzbq %al, %rax
    pushq %rax
    popq %rax
    testq %rax, %rax
    jz L_if_end_117
    movabsq $0x0, %rax
    pushq %rax
    popq %rax
    movq %rbp, %rsp
    popq %rbp
    retq
    movq $0, %rax
    pushq %rax
    popq %rax
L_if_end_117:
    leaq L_CFORGE_LIVE(%rip), %rax
    pushq %rax
    movl -8(%rbp), %eax
    pushq %rax
    popq %rcx
    popq %rax
    movzbq (%rax,%rcx,1), %rax
    pushq %rax
    movabsq $0x0, %rax
    pushq %rax
    popq %rcx
    popq %rax
    cmpq %rcx, %rax
    sete %al
    movzbq %al, %rax
    pushq %rax
    popq %rax
    testq %rax, %rax
    jz L_if_end_119
    movabsq $0x0, %rax
    pushq %rax
    popq %rax
    movq %rbp, %rsp
    popq %rbp
    retq
    movq $0, %rax
    pushq %rax
    popq %rax
L_if_end_119:
    leaq L_CFORGE_CAPID(%rip), %rax
    pushq %rax
    movl -8(%rbp), %eax
    pushq %rax
    popq %rcx
    popq %rax
    movq (%rax,%rcx,8), %rax
    pushq %rax
    popq %rax
    movq %rbp, %rsp
    popq %rbp
    retq
    movq $0, %rax
    pushq %rax
    movq $0, %rax
    movq %rbp, %rsp
    popq %rbp
    retq
    .seh_endproc
    .section .iii.ring3,"n"
    .asciz "cf_forged_frag"
    .text
    .global cf_forged_frag
    .seh_proc cf_forged_frag
cf_forged_frag:
    pushq %rbp
    .seh_pushreg %rbp
    movq %rsp, %rbp
    .seh_setframe %rbp, 0
    subq $1024, %rsp
    .seh_stackalloc 1024
    .seh_endprologue
    movq %rcx, -8(%rbp)
    movl -8(%rbp), %eax
    pushq %rax
    movl L_CFORGE_MAX_FORGED(%rip), %eax
    pushq %rax
    popq %rcx
    popq %rax
    cmpq %rcx, %rax
    setae %al
    movzbq %al, %rax
    pushq %rax
    popq %rax
    testq %rax, %rax
    jz L_if_end_121
    movabsq $0x0, %rax
    pushq %rax
    popq %rax
    movq %rbp, %rsp
    popq %rbp
    retq
    movq $0, %rax
    pushq %rax
    popq %rax
L_if_end_121:
    leaq L_CFORGE_FRAG(%rip), %rax
    pushq %rax
    movl -8(%rbp), %eax
    pushq %rax
    popq %rcx
    popq %rax
    movq (%rax,%rcx,8), %rax
    pushq %rax
    popq %rax
    movq %rbp, %rsp
    popq %rbp
    retq
    movq $0, %rax
    pushq %rax
    movq $0, %rax
    movq %rbp, %rsp
    popq %rbp
    retq
    .seh_endproc
    .section .iii.ring3,"n"
    .asciz "cf_is_live"
    .text
    .global cf_is_live
    .seh_proc cf_is_live
cf_is_live:
    pushq %rbp
    .seh_pushreg %rbp
    movq %rsp, %rbp
    .seh_setframe %rbp, 0
    subq $1024, %rsp
    .seh_stackalloc 1024
    .seh_endprologue
    movq %rcx, -8(%rbp)
    movl -8(%rbp), %eax
    pushq %rax
    movl L_CFORGE_MAX_FORGED(%rip), %eax
    pushq %rax
    popq %rcx
    popq %rax
    cmpq %rcx, %rax
    setae %al
    movzbq %al, %rax
    pushq %rax
    popq %rax
    testq %rax, %rax
    jz L_if_end_123
    movabsq $0x0, %rax
    pushq %rax
    popq %rax
    movq %rbp, %rsp
    popq %rbp
    retq
    movq $0, %rax
    pushq %rax
    popq %rax
L_if_end_123:
    leaq L_CFORGE_LIVE(%rip), %rax
    pushq %rax
    movl -8(%rbp), %eax
    pushq %rax
    popq %rcx
    popq %rax
    movzbq (%rax,%rcx,1), %rax
    pushq %rax
    popq %rax
    movq %rbp, %rsp
    popq %rbp
    retq
    movq $0, %rax
    pushq %rax
    movq $0, %rax
    movq %rbp, %rsp
    popq %rbp
    retq
    .seh_endproc
    .section .iii.ring3,"n"
    .asciz "cf_kind"
    .text
    .global cf_kind
    .seh_proc cf_kind
cf_kind:
    pushq %rbp
    .seh_pushreg %rbp
    movq %rsp, %rbp
    .seh_setframe %rbp, 0
    subq $1024, %rsp
    .seh_stackalloc 1024
    .seh_endprologue
    movq %rcx, -8(%rbp)
    movl -8(%rbp), %eax
    pushq %rax
    movl L_CFORGE_MAX_FORGED(%rip), %eax
    pushq %rax
    popq %rcx
    popq %rax
    cmpq %rcx, %rax
    setae %al
    movzbq %al, %rax
    pushq %rax
    popq %rax
    testq %rax, %rax
    jz L_if_end_125
    movabsq $0x0, %rax
    pushq %rax
    popq %rax
    movq %rbp, %rsp
    popq %rbp
    retq
    movq $0, %rax
    pushq %rax
    popq %rax
L_if_end_125:
    leaq L_CFORGE_KIND(%rip), %rax
    pushq %rax
    movl -8(%rbp), %eax
    pushq %rax
    popq %rcx
    popq %rax
    movzbq (%rax,%rcx,1), %rax
    pushq %rax
    popq %rax
    movq %rbp, %rsp
    popq %rbp
    retq
    movq $0, %rax
    pushq %rax
    movq $0, %rax
    movq %rbp, %rsp
    popq %rbp
    retq
    .seh_endproc
    .section .iii.ring3,"n"
    .asciz "cf_dependency_count"
    .text
    .global cf_dependency_count
    .seh_proc cf_dependency_count
cf_dependency_count:
    pushq %rbp
    .seh_pushreg %rbp
    movq %rsp, %rbp
    .seh_setframe %rbp, 0
    subq $1024, %rsp
    .seh_stackalloc 1024
    .seh_endprologue
    movq %rcx, -8(%rbp)
    movl -8(%rbp), %eax
    pushq %rax
    movl L_CFORGE_MAX_FORGED(%rip), %eax
    pushq %rax
    popq %rcx
    popq %rax
    cmpq %rcx, %rax
    setae %al
    movzbq %al, %rax
    pushq %rax
    popq %rax
    testq %rax, %rax
    jz L_if_end_127
    movabsq $0x0, %rax
    pushq %rax
    popq %rax
    movq %rbp, %rsp
    popq %rbp
    retq
    movq $0, %rax
    pushq %rax
    popq %rax
L_if_end_127:
    leaq L_CFORGE_LIVE(%rip), %rax
    pushq %rax
    movl -8(%rbp), %eax
    pushq %rax
    popq %rcx
    popq %rax
    movzbq (%rax,%rcx,1), %rax
    pushq %rax
    movabsq $0x0, %rax
    pushq %rax
    popq %rcx
    popq %rax
    cmpq %rcx, %rax
    sete %al
    movzbq %al, %rax
    pushq %rax
    popq %rax
    testq %rax, %rax
    jz L_if_end_129
    movabsq $0x0, %rax
    pushq %rax
    popq %rax
    movq %rbp, %rsp
    popq %rbp
    retq
    movq $0, %rax
    pushq %rax
    popq %rax
L_if_end_129:
    leaq L_CFORGE_ANTE_CNT(%rip), %rax
    pushq %rax
    movl -8(%rbp), %eax
    pushq %rax
    popq %rcx
    popq %rax
    movl (%rax,%rcx,4), %eax
    pushq %rax
    popq %rax
    movq %rbp, %rsp
    popq %rbp
    retq
    movq $0, %rax
    pushq %rax
    movq $0, %rax
    movq %rbp, %rsp
    popq %rbp
    retq
    .seh_endproc
    .section .iii.ring3,"n"
    .asciz "cf_dependency_at"
    .text
    .global cf_dependency_at
    .seh_proc cf_dependency_at
cf_dependency_at:
    pushq %rbp
    .seh_pushreg %rbp
    movq %rsp, %rbp
    .seh_setframe %rbp, 0
    subq $1024, %rsp
    .seh_stackalloc 1024
    .seh_endprologue
    movq %rcx, -8(%rbp)
    movq %rdx, -16(%rbp)
    movl -8(%rbp), %eax
    pushq %rax
    movl L_CFORGE_MAX_FORGED(%rip), %eax
    pushq %rax
    popq %rcx
    popq %rax
    cmpq %rcx, %rax
    setae %al
    movzbq %al, %rax
    pushq %rax
    popq %rax
    testq %rax, %rax
    jz L_if_end_131
    movl L_CFORGE_SENT(%rip), %eax
    pushq %rax
    popq %rax
    movq %rbp, %rsp
    popq %rbp
    retq
    movq $0, %rax
    pushq %rax
    popq %rax
L_if_end_131:
    movl -16(%rbp), %eax
    pushq %rax
    movl L_CFORGE_MAX_ANTE(%rip), %eax
    pushq %rax
    popq %rcx
    popq %rax
    cmpq %rcx, %rax
    setae %al
    movzbq %al, %rax
    pushq %rax
    popq %rax
    testq %rax, %rax
    jz L_if_end_133
    movl L_CFORGE_SENT(%rip), %eax
    pushq %rax
    popq %rax
    movq %rbp, %rsp
    popq %rbp
    retq
    movq $0, %rax
    pushq %rax
    popq %rax
L_if_end_133:
    movl -16(%rbp), %eax
    pushq %rax
    leaq L_CFORGE_ANTE_CNT(%rip), %rax
    pushq %rax
    movl -8(%rbp), %eax
    pushq %rax
    popq %rcx
    popq %rax
    movl (%rax,%rcx,4), %eax
    pushq %rax
    popq %rcx
    popq %rax
    cmpq %rcx, %rax
    setae %al
    movzbq %al, %rax
    pushq %rax
    popq %rax
    testq %rax, %rax
    jz L_if_end_135
    movl L_CFORGE_SENT(%rip), %eax
    pushq %rax
    popq %rax
    movq %rbp, %rsp
    popq %rbp
    retq
    movq $0, %rax
    pushq %rax
    popq %rax
L_if_end_135:
    movl -8(%rbp), %eax
    pushq %rax
    popq %rax
    pushq %rax
    movabsq $0xffffffff, %rax
    pushq %rax
    popq %rcx
    popq %rax
    andq %rcx, %rax
    pushq %rax
    movabsq $0x4, %rax
    pushq %rax
    popq %rcx
    popq %rax
    imulq %rcx, %rax
    pushq %rax
    movl -16(%rbp), %eax
    pushq %rax
    popq %rax
    pushq %rax
    movabsq $0xffffffff, %rax
    pushq %rax
    popq %rcx
    popq %rax
    andq %rcx, %rax
    pushq %rax
    popq %rcx
    popq %rax
    addq %rcx, %rax
    pushq %rax
    popq %rax
    movq %rax, -24(%rbp)
    leaq L_CFORGE_ANTE(%rip), %rax
    pushq %rax
    movq -24(%rbp), %rax
    pushq %rax
    popq %rcx
    popq %rax
    movl (%rax,%rcx,4), %eax
    pushq %rax
    popq %rax
    movq %rbp, %rsp
    popq %rbp
    retq
    movq $0, %rax
    pushq %rax
    movq $0, %rax
    movq %rbp, %rsp
    popq %rbp
    retq
    .seh_endproc
    .section .iii.ring3,"n"
    .asciz "cf_count"
    .text
    .global cf_count
    .seh_proc cf_count
cf_count:
    pushq %rbp
    .seh_pushreg %rbp
    movq %rsp, %rbp
    .seh_setframe %rbp, 0
    subq $1024, %rsp
    .seh_stackalloc 1024
    .seh_endprologue
    movl L_CFORGE_USED(%rip), %eax
    pushq %rax
    popq %rax
    movq %rbp, %rsp
    popq %rbp
    retq
    movq $0, %rax
    pushq %rax
    movq $0, %rax
    movq %rbp, %rsp
    popq %rbp
    retq
    .seh_endproc
    .section .iii.ring3,"n"
    .asciz "cf_selftest"
    .text
    .global cf_selftest
    .seh_proc cf_selftest
cf_selftest:
    pushq %rbp
    .seh_pushreg %rbp
    movq %rsp, %rbp
    .seh_setframe %rbp, 0
    subq $1024, %rsp
    .seh_stackalloc 1024
    .seh_endprologue
    subq $32, %rsp
    callq cap_env_init
    addq $32, %rsp
    pushq %rax
    popq %rax
    movabsq $0x0, %rax
    pushq %rax
    popq %rcx
    subq $32, %rsp
    callq wh_init
    addq $32, %rsp
    movslq %eax, %rax
    pushq %rax
    popq %rax
    subq $32, %rsp
    callq cf_init
    addq $32, %rsp
    movslq %eax, %rax
    pushq %rax
    popq %rax
    movabsq $0x0, %rax
    pushq %rax
    popq %rax
    movq %rax, -8(%rbp)
L_loop_top_136:
    movq -8(%rbp), %rax
    pushq %rax
    movabsq $0x20, %rax
    pushq %rax
    popq %rcx
    popq %rax
    cmpq %rcx, %rax
    setb %al
    movzbq %al, %rax
    pushq %rax
    popq %rax
    testq %rax, %rax
    jz L_loop_end_137
    leaq L_CFORGE_T_SUBRES(%rip), %rax
    pushq %rax
    movq -8(%rbp), %rax
    pushq %rax
    movabsq $0x0, %rax
    pushq %rax
    popq %rdx
    popq %rcx
    popq %rax
    movb %dl, (%rax,%rcx,1)
    movq -8(%rbp), %rax
    pushq %rax
    movabsq $0x1, %rax
    pushq %rax
    popq %rcx
    popq %rax
    addq %rcx, %rax
    pushq %rax
    popq %rax
    movq %rax, -8(%rbp)
    movq $0, %rax
    pushq %rax
    popq %rax
    jmp L_loop_top_136
L_loop_end_137:
    subq $32, %rsp
    callq cap_env_init
    addq $32, %rsp
    pushq %rax
    popq %rax
    movq %rax, -16(%rbp)
    movabsq $0x0, %rax
    pushq %rax
    movq L_CAP_RIGHT_FS_READ_L(%rip), %rax
    pushq %rax
    movq L_CAP_RIGHT_FS_WRITE_L(%rip), %rax
    pushq %rax
    popq %rcx
    popq %rax
    orq %rcx, %rax
    pushq %rax
    movq -16(%rbp), %rax
    pushq %rax
    popq %rcx
    popq %rdx
    popq %r8
    subq $32, %rsp
    callq cap_attenuate
    addq $32, %rsp
    pushq %rax
    popq %rax
    movq %rax, -24(%rbp)
    movq -24(%rbp), %rax
    pushq %rax
    movabsq $0x0, %rax
    pushq %rax
    popq %rcx
    popq %rax
    cmpq %rcx, %rax
    sete %al
    movzbq %al, %rax
    pushq %rax
    popq %rax
    testq %rax, %rax
    jz L_if_end_139
    movabsq $0x1, %rax
    pushq %rax
    popq %rax
    movq %rbp, %rsp
    popq %rbp
    retq
    movq $0, %rax
    pushq %rax
    popq %rax
L_if_end_139:
    leaq L_CFORGE_T_OUTCAP(%rip), %rax
    pushq %rax
    popq %rax
    pushq %rax
    movq L_CAP_RIGHT_FS_READ_L(%rip), %rax
    pushq %rax
    leaq L_CFORGE_T_SUBRES(%rip), %rax
    pushq %rax
    popq %rax
    pushq %rax
    movq -24(%rbp), %rax
    pushq %rax
    popq %rcx
    popq %rdx
    popq %r8
    popq %r9
    subq $32, %rsp
    callq cf_forge_restrict
    addq $32, %rsp
    movl %eax, %eax
    pushq %rax
    popq %rax
    movq %rax, -32(%rbp)
    movl -32(%rbp), %eax
    pushq %rax
    movabsq $0x0, %rax
    pushq %rax
    popq %rcx
    popq %rax
    cmpq %rcx, %rax
    setne %al
    movzbq %al, %rax
    pushq %rax
    popq %rax
    testq %rax, %rax
    jz L_if_end_141
    movabsq $0x2, %rax
    pushq %rax
    popq %rax
    movq %rbp, %rsp
    popq %rbp
    retq
    movq $0, %rax
    pushq %rax
    popq %rax
L_if_end_141:
    leaq L_CFORGE_T_OUTCAP(%rip), %rax
    pushq %rax
    movabsq $0x0, %rax
    pushq %rax
    popq %rcx
    popq %rax
    movq (%rax,%rcx,8), %rax
    pushq %rax
    popq %rax
    movq %rax, -40(%rbp)
    movq -40(%rbp), %rax
    pushq %rax
    movabsq $0x0, %rax
    pushq %rax
    popq %rcx
    popq %rax
    cmpq %rcx, %rax
    sete %al
    movzbq %al, %rax
    pushq %rax
    popq %rax
    testq %rax, %rax
    jz L_if_end_143
    movabsq $0x3, %rax
    pushq %rax
    popq %rax
    movq %rbp, %rsp
    popq %rbp
    retq
    movq $0, %rax
    pushq %rax
    popq %rax
L_if_end_143:
    movabsq $0x0, %rax
    pushq %rax
    popq %rcx
    subq $32, %rsp
    callq cf_forged_cap
    addq $32, %rsp
    pushq %rax
    movq -40(%rbp), %rax
    pushq %rax
    popq %rcx
    popq %rax
    cmpq %rcx, %rax
    setne %al
    movzbq %al, %rax
    pushq %rax
    popq %rax
    testq %rax, %rax
    jz L_if_end_145
    movabsq $0x4, %rax
    pushq %rax
    popq %rax
    movq %rbp, %rsp
    popq %rbp
    retq
    movq $0, %rax
    pushq %rax
    popq %rax
L_if_end_145:
    movq -40(%rbp), %rax
    pushq %rax
    popq %rcx
    subq $32, %rsp
    callq cap_rights
    addq $32, %rsp
    pushq %rax
    movabsq $0x2, %rax
    pushq %rax
    popq %rcx
    popq %rax
    cmpq %rcx, %rax
    setne %al
    movzbq %al, %rax
    pushq %rax
    popq %rax
    testq %rax, %rax
    jz L_if_end_147
    movabsq $0x5, %rax
    pushq %rax
    popq %rax
    movq %rbp, %rsp
    popq %rbp
    retq
    movq $0, %rax
    pushq %rax
    popq %rax
L_if_end_147:
    movabsq $0x0, %rax
    pushq %rax
    popq %rcx
    subq $32, %rsp
    callq cf_kind
    addq $32, %rsp
    movzbq %al, %rax
    pushq %rax
    movabsq $0x1, %rax
    pushq %rax
    popq %rcx
    popq %rax
    cmpq %rcx, %rax
    setne %al
    movzbq %al, %rax
    pushq %rax
    popq %rax
    testq %rax, %rax
    jz L_if_end_149
    movabsq $0x6, %rax
    pushq %rax
    popq %rax
    movq %rbp, %rsp
    popq %rbp
    retq
    movq $0, %rax
    pushq %rax
    popq %rax
L_if_end_149:
    movabsq $0x0, %rax
    pushq %rax
    popq %rcx
    subq $32, %rsp
    callq cf_dependency_count
    addq $32, %rsp
    movl %eax, %eax
    pushq %rax
    movabsq $0x1, %rax
    pushq %rax
    popq %rcx
    popq %rax
    cmpq %rcx, %rax
    setne %al
    movzbq %al, %rax
    pushq %rax
    popq %rax
    testq %rax, %rax
    jz L_if_end_151
    movabsq $0x7, %rax
    pushq %rax
    popq %rax
    movq %rbp, %rsp
    popq %rbp
    retq
    movq $0, %rax
    pushq %rax
    popq %rax
L_if_end_151:
    movabsq $0x0, %rax
    pushq %rax
    popq %rcx
    subq $32, %rsp
    callq cf_is_live
    addq $32, %rsp
    movzbq %al, %rax
    pushq %rax
    movabsq $0x1, %rax
    pushq %rax
    popq %rcx
    popq %rax
    cmpq %rcx, %rax
    setne %al
    movzbq %al, %rax
    pushq %rax
    popq %rax
    testq %rax, %rax
    jz L_if_end_153
    movabsq $0x8, %rax
    pushq %rax
    popq %rax
    movq %rbp, %rsp
    popq %rbp
    retq
    movq $0, %rax
    pushq %rax
    popq %rax
L_if_end_153:
    subq $32, %rsp
    callq cf_count
    addq $32, %rsp
    movl %eax, %eax
    pushq %rax
    movabsq $0x1, %rax
    pushq %rax
    popq %rcx
    popq %rax
    cmpq %rcx, %rax
    setne %al
    movzbq %al, %rax
    pushq %rax
    popq %rax
    testq %rax, %rax
    jz L_if_end_155
    movabsq $0x9, %rax
    pushq %rax
    popq %rax
    movq %rbp, %rsp
    popq %rbp
    retq
    movq $0, %rax
    pushq %rax
    popq %rax
L_if_end_155:
    movq L_CAP_RIGHT_FS_READ_L(%rip), %rax
    pushq %rax
    movq -40(%rbp), %rax
    pushq %rax
    popq %rcx
    popq %rdx
    subq $32, %rsp
    callq cap_verify_rights
    addq $32, %rsp
    movzbq %al, %rax
    pushq %rax
    movabsq $0x1, %rax
    pushq %rax
    popq %rcx
    popq %rax
    cmpq %rcx, %rax
    setne %al
    movzbq %al, %rax
    pushq %rax
    popq %rax
    testq %rax, %rax
    jz L_if_end_157
    movabsq $0xa, %rax
    pushq %rax
    popq %rax
    movq %rbp, %rsp
    popq %rbp
    retq
    movq $0, %rax
    pushq %rax
    popq %rax
L_if_end_157:
    movq L_CAP_RIGHT_FS_WRITE_L(%rip), %rax
    pushq %rax
    movq -40(%rbp), %rax
    pushq %rax
    popq %rcx
    popq %rdx
    subq $32, %rsp
    callq cap_verify_rights
    addq $32, %rsp
    movzbq %al, %rax
    pushq %rax
    movabsq $0x0, %rax
    pushq %rax
    popq %rcx
    popq %rax
    cmpq %rcx, %rax
    setne %al
    movzbq %al, %rax
    pushq %rax
    popq %rax
    testq %rax, %rax
    jz L_if_end_159
    movabsq $0xb, %rax
    pushq %rax
    popq %rax
    movq %rbp, %rsp
    popq %rbp
    retq
    movq $0, %rax
    pushq %rax
    popq %rax
L_if_end_159:
    movabsq $0x0, %rax
    pushq %rax
    movq L_CAP_RIGHT_FS_READ_L(%rip), %rax
    pushq %rax
    movq -16(%rbp), %rax
    pushq %rax
    popq %rcx
    popq %rdx
    popq %r8
    subq $32, %rsp
    callq cap_attenuate
    addq $32, %rsp
    pushq %rax
    popq %rax
    movq %rax, -48(%rbp)
    movabsq $0x0, %rax
    pushq %rax
    movq L_CAP_RIGHT_NET_DIAL_L(%rip), %rax
    pushq %rax
    movq -16(%rbp), %rax
    pushq %rax
    popq %rcx
    popq %rdx
    popq %r8
    subq $32, %rsp
    callq cap_attenuate
    addq $32, %rsp
    pushq %rax
    popq %rax
    movq %rax, -56(%rbp)
    movq -48(%rbp), %rax
    pushq %rax
    movabsq $0x0, %rax
    pushq %rax
    popq %rcx
    popq %rax
    cmpq %rcx, %rax
    sete %al
    movzbq %al, %rax
    pushq %rax
    popq %rax
    testq %rax, %rax
    jz L_if_end_161
    movabsq $0xc, %rax
    pushq %rax
    popq %rax
    movq %rbp, %rsp
    popq %rbp
    retq
    movq $0, %rax
    pushq %rax
    popq %rax
L_if_end_161:
    movq -56(%rbp), %rax
    pushq %rax
    movabsq $0x0, %rax
    pushq %rax
    popq %rcx
    popq %rax
    cmpq %rcx, %rax
    sete %al
    movzbq %al, %rax
    pushq %rax
    popq %rax
    testq %rax, %rax
    jz L_if_end_163
    movabsq $0xd, %rax
    pushq %rax
    popq %rax
    movq %rbp, %rsp
    popq %rbp
    retq
    movq $0, %rax
    pushq %rax
    popq %rax
L_if_end_163:
    leaq L_CFORGE_T_OUTCP2(%rip), %rax
    pushq %rax
    popq %rax
    pushq %rax
    movabsq $0xffffffffffffffff, %rax
    pushq %rax
    movq -56(%rbp), %rax
    pushq %rax
    movq -48(%rbp), %rax
    pushq %rax
    popq %rcx
    popq %rdx
    popq %r8
    popq %r9
    subq $32, %rsp
    callq cf_forge_compose
    addq $32, %rsp
    movl %eax, %eax
    pushq %rax
    popq %rax
    movq %rax, -64(%rbp)
    movl -64(%rbp), %eax
    pushq %rax
    movabsq $0x1, %rax
    pushq %rax
    popq %rcx
    popq %rax
    cmpq %rcx, %rax
    setne %al
    movzbq %al, %rax
    pushq %rax
    popq %rax
    testq %rax, %rax
    jz L_if_end_165
    movabsq $0xe, %rax
    pushq %rax
    popq %rax
    movq %rbp, %rsp
    popq %rbp
    retq
    movq $0, %rax
    pushq %rax
    popq %rax
L_if_end_165:
    leaq L_CFORGE_T_OUTCP2(%rip), %rax
    pushq %rax
    movabsq $0x0, %rax
    pushq %rax
    popq %rcx
    popq %rax
    movq (%rax,%rcx,8), %rax
    pushq %rax
    popq %rax
    movq %rax, -72(%rbp)
    movq -72(%rbp), %rax
    pushq %rax
    movabsq $0x0, %rax
    pushq %rax
    popq %rcx
    popq %rax
    cmpq %rcx, %rax
    sete %al
    movzbq %al, %rax
    pushq %rax
    popq %rax
    testq %rax, %rax
    jz L_if_end_167
    movabsq $0xf, %rax
    pushq %rax
    popq %rax
    movq %rbp, %rsp
    popq %rbp
    retq
    movq $0, %rax
    pushq %rax
    popq %rax
L_if_end_167:
    movq -72(%rbp), %rax
    pushq %rax
    popq %rcx
    subq $32, %rsp
    callq cap_rights
    addq $32, %rsp
    pushq %rax
    movabsq $0x2, %rax
    pushq %rax
    popq %rcx
    popq %rax
    cmpq %rcx, %rax
    setne %al
    movzbq %al, %rax
    pushq %rax
    popq %rax
    testq %rax, %rax
    jz L_if_end_169
    movabsq $0x10, %rax
    pushq %rax
    popq %rax
    movq %rbp, %rsp
    popq %rbp
    retq
    movq $0, %rax
    pushq %rax
    popq %rax
L_if_end_169:
    movabsq $0x1, %rax
    pushq %rax
    popq %rcx
    subq $32, %rsp
    callq cf_dependency_count
    addq $32, %rsp
    movl %eax, %eax
    pushq %rax
    movabsq $0x2, %rax
    pushq %rax
    popq %rcx
    popq %rax
    cmpq %rcx, %rax
    setne %al
    movzbq %al, %rax
    pushq %rax
    popq %rax
    testq %rax, %rax
    jz L_if_end_171
    movabsq $0x11, %rax
    pushq %rax
    popq %rax
    movq %rbp, %rsp
    popq %rbp
    retq
    movq $0, %rax
    pushq %rax
    popq %rax
L_if_end_171:
    movabsq $0x1, %rax
    pushq %rax
    popq %rcx
    subq $32, %rsp
    callq cf_kind
    addq $32, %rsp
    movzbq %al, %rax
    pushq %rax
    movabsq $0x0, %rax
    pushq %rax
    popq %rcx
    popq %rax
    cmpq %rcx, %rax
    setne %al
    movzbq %al, %rax
    pushq %rax
    popq %rax
    testq %rax, %rax
    jz L_if_end_173
    movabsq $0x12, %rax
    pushq %rax
    popq %rax
    movq %rbp, %rsp
    popq %rbp
    retq
    movq $0, %rax
    pushq %rax
    popq %rax
L_if_end_173:
    leaq L_CFORGE_OUTC(%rip), %rax
    pushq %rax
    popq %rax
    pushq %rax
    movabsq $0x1, %rax
    pushq %rax
    popq %rcx
    popq %rdx
    subq $32, %rsp
    callq L_cf_slot_commit
    addq $32, %rsp
    movslq %eax, %rax
    pushq %rax
    popq %rax
    movabsq $0x1, %rax
    pushq %rax
    popq %rcx
    subq $32, %rsp
    callq cf_forged_frag
    addq $32, %rsp
    pushq %rax
    movabsq $0x1, %rax
    pushq %rax
    popq %rcx
    popq %rax
    cmpq %rcx, %rax
    setne %al
    movzbq %al, %rax
    pushq %rax
    popq %rax
    testq %rax, %rax
    jz L_if_end_175
    movabsq $0x13, %rax
    pushq %rax
    popq %rax
    movq %rbp, %rsp
    popq %rbp
    retq
    movq $0, %rax
    pushq %rax
    popq %rax
L_if_end_175:
    leaq L_CFORGE_T_OUTCP2(%rip), %rax
    pushq %rax
    popq %rax
    pushq %rax
    movabsq $0xffffffffffffffff, %rax
    pushq %rax
    movq -56(%rbp), %rax
    pushq %rax
    movq -40(%rbp), %rax
    pushq %rax
    popq %rcx
    popq %rdx
    popq %r8
    popq %r9
    subq $32, %rsp
    callq cf_forge_compose
    addq $32, %rsp
    movl %eax, %eax
    pushq %rax
    popq %rax
    movq %rax, -80(%rbp)
    movl -80(%rbp), %eax
    pushq %rax
    movabsq $0x2, %rax
    pushq %rax
    popq %rcx
    popq %rax
    cmpq %rcx, %rax
    setne %al
    movzbq %al, %rax
    pushq %rax
    popq %rax
    testq %rax, %rax
    jz L_if_end_177
    movabsq $0x14, %rax
    pushq %rax
    popq %rax
    movq %rbp, %rsp
    popq %rbp
    retq
    movq $0, %rax
    pushq %rax
    popq %rax
L_if_end_177:
    leaq L_CFORGE_T_OUTCP2(%rip), %rax
    pushq %rax
    movabsq $0x0, %rax
    pushq %rax
    popq %rcx
    popq %rax
    movq (%rax,%rcx,8), %rax
    pushq %rax
    popq %rax
    movq %rax, -88(%rbp)
    movq -88(%rbp), %rax
    pushq %rax
    movabsq $0x0, %rax
    pushq %rax
    popq %rcx
    popq %rax
    cmpq %rcx, %rax
    sete %al
    movzbq %al, %rax
    pushq %rax
    popq %rax
    testq %rax, %rax
    jz L_if_end_179
    movabsq $0x15, %rax
    pushq %rax
    popq %rax
    movq %rbp, %rsp
    popq %rbp
    retq
    movq $0, %rax
    pushq %rax
    popq %rax
L_if_end_179:
    movabsq $0x0, %rax
    pushq %rax
    movabsq $0x2, %rax
    pushq %rax
    popq %rcx
    popq %rdx
    subq $32, %rsp
    callq cf_add_dependency
    addq $32, %rsp
    movslq %eax, %rax
    pushq %rax
    movslq L_CFORGE_OK(%rip), %rax
    pushq %rax
    popq %rcx
    popq %rax
    cmpq %rcx, %rax
    setne %al
    movzbq %al, %rax
    pushq %rax
    popq %rax
    testq %rax, %rax
    jz L_if_end_181
    movabsq $0x16, %rax
    pushq %rax
    popq %rax
    movq %rbp, %rsp
    popq %rbp
    retq
    movq $0, %rax
    pushq %rax
    popq %rax
L_if_end_181:
    movq -24(%rbp), %rax
    pushq %rax
    movq -16(%rbp), %rax
    pushq %rax
    popq %rcx
    popq %rdx
    subq $32, %rsp
    callq cap_revoke
    addq $32, %rsp
    movslq %eax, %rax
    pushq %rax
    movabsq $0x0, %rax
    pushq %rax
    popq %rcx
    popq %rax
    cmpq %rcx, %rax
    setne %al
    movzbq %al, %rax
    pushq %rax
    popq %rax
    testq %rax, %rax
    jz L_if_end_183
    movabsq $0x17, %rax
    pushq %rax
    popq %rax
    movq %rbp, %rsp
    popq %rbp
    retq
    movq $0, %rax
    pushq %rax
    popq %rax
L_if_end_183:
    movq -24(%rbp), %rax
    pushq %rax
    popq %rcx
    subq $32, %rsp
    callq cf_deforge_cascade
    addq $32, %rsp
    movl %eax, %eax
    pushq %rax
    popq %rax
    movq %rax, -96(%rbp)
    movl -96(%rbp), %eax
    pushq %rax
    movabsq $0x2, %rax
    pushq %rax
    popq %rcx
    popq %rax
    cmpq %rcx, %rax
    setne %al
    movzbq %al, %rax
    pushq %rax
    popq %rax
    testq %rax, %rax
    jz L_if_end_185
    movabsq $0x18, %rax
    pushq %rax
    popq %rax
    movq %rbp, %rsp
    popq %rbp
    retq
    movq $0, %rax
    pushq %rax
    popq %rax
L_if_end_185:
    movabsq $0x0, %rax
    pushq %rax
    popq %rcx
    subq $32, %rsp
    callq cf_is_live
    addq $32, %rsp
    movzbq %al, %rax
    pushq %rax
    movabsq $0x0, %rax
    pushq %rax
    popq %rcx
    popq %rax
    cmpq %rcx, %rax
    setne %al
    movzbq %al, %rax
    pushq %rax
    popq %rax
    testq %rax, %rax
    jz L_if_end_187
    movabsq $0x19, %rax
    pushq %rax
    popq %rax
    movq %rbp, %rsp
    popq %rbp
    retq
    movq $0, %rax
    pushq %rax
    popq %rax
L_if_end_187:
    movabsq $0x2, %rax
    pushq %rax
    popq %rcx
    subq $32, %rsp
    callq cf_is_live
    addq $32, %rsp
    movzbq %al, %rax
    pushq %rax
    movabsq $0x0, %rax
    pushq %rax
    popq %rcx
    popq %rax
    cmpq %rcx, %rax
    setne %al
    movzbq %al, %rax
    pushq %rax
    popq %rax
    testq %rax, %rax
    jz L_if_end_189
    movabsq $0x1a, %rax
    pushq %rax
    popq %rax
    movq %rbp, %rsp
    popq %rbp
    retq
    movq $0, %rax
    pushq %rax
    popq %rax
L_if_end_189:
    movq -40(%rbp), %rax
    pushq %rax
    popq %rcx
    subq $32, %rsp
    callq cap_is_revoked
    addq $32, %rsp
    movzbq %al, %rax
    pushq %rax
    movabsq $0x1, %rax
    pushq %rax
    popq %rcx
    popq %rax
    cmpq %rcx, %rax
    setne %al
    movzbq %al, %rax
    pushq %rax
    popq %rax
    testq %rax, %rax
    jz L_if_end_191
    movabsq $0x1b, %rax
    pushq %rax
    popq %rax
    movq %rbp, %rsp
    popq %rbp
    retq
    movq $0, %rax
    pushq %rax
    popq %rax
L_if_end_191:
    movq -88(%rbp), %rax
    pushq %rax
    popq %rcx
    subq $32, %rsp
    callq cap_is_revoked
    addq $32, %rsp
    movzbq %al, %rax
    pushq %rax
    movabsq $0x1, %rax
    pushq %rax
    popq %rcx
    popq %rax
    cmpq %rcx, %rax
    setne %al
    movzbq %al, %rax
    pushq %rax
    popq %rax
    testq %rax, %rax
    jz L_if_end_193
    movabsq $0x1c, %rax
    pushq %rax
    popq %rax
    movq %rbp, %rsp
    popq %rbp
    retq
    movq $0, %rax
    pushq %rax
    popq %rax
L_if_end_193:
    movq -24(%rbp), %rax
    pushq %rax
    popq %rcx
    subq $32, %rsp
    callq cf_deforge_cascade
    addq $32, %rsp
    movl %eax, %eax
    pushq %rax
    movabsq $0x0, %rax
    pushq %rax
    popq %rcx
    popq %rax
    cmpq %rcx, %rax
    setne %al
    movzbq %al, %rax
    pushq %rax
    popq %rax
    testq %rax, %rax
    jz L_if_end_195
    movabsq $0x1d, %rax
    pushq %rax
    popq %rax
    movq %rbp, %rsp
    popq %rbp
    retq
    movq $0, %rax
    pushq %rax
    popq %rax
L_if_end_195:
    subq $32, %rsp
    callq cf_count
    addq $32, %rsp
    movl %eax, %eax
    pushq %rax
    popq %rax
    movq %rax, -104(%rbp)
    leaq L_CFORGE_T_OUTCAP(%rip), %rax
    pushq %rax
    popq %rax
    pushq %rax
    movabsq $0xff, %rax
    pushq %rax
    movq -56(%rbp), %rax
    pushq %rax
    movabsq $0x0, %rax
    pushq %rax
    popq %rcx
    popq %rdx
    popq %r8
    popq %r9
    subq $32, %rsp
    callq cf_forge_compose
    addq $32, %rsp
    movl %eax, %eax
    pushq %rax
    popq %rax
    movq %rax, -112(%rbp)
    movl -112(%rbp), %eax
    pushq %rax
    movl L_CFORGE_SENT(%rip), %eax
    pushq %rax
    popq %rcx
    popq %rax
    cmpq %rcx, %rax
    setne %al
    movzbq %al, %rax
    pushq %rax
    popq %rax
    testq %rax, %rax
    jz L_if_end_197
    movabsq $0x1e, %rax
    pushq %rax
    popq %rax
    movq %rbp, %rsp
    popq %rbp
    retq
    movq $0, %rax
    pushq %rax
    popq %rax
L_if_end_197:
    leaq L_CFORGE_T_OUTCAP(%rip), %rax
    pushq %rax
    movabsq $0x0, %rax
    pushq %rax
    popq %rcx
    popq %rax
    movq (%rax,%rcx,8), %rax
    pushq %rax
    movabsq $0x0, %rax
    pushq %rax
    popq %rcx
    popq %rax
    cmpq %rcx, %rax
    setne %al
    movzbq %al, %rax
    pushq %rax
    popq %rax
    testq %rax, %rax
    jz L_if_end_199
    movabsq $0x1f, %rax
    pushq %rax
    popq %rax
    movq %rbp, %rsp
    popq %rbp
    retq
    movq $0, %rax
    pushq %rax
    popq %rax
L_if_end_199:
    subq $32, %rsp
    callq cf_count
    addq $32, %rsp
    movl %eax, %eax
    pushq %rax
    movl -104(%rbp), %eax
    pushq %rax
    popq %rcx
    popq %rax
    cmpq %rcx, %rax
    setne %al
    movzbq %al, %rax
    pushq %rax
    popq %rax
    testq %rax, %rax
    jz L_if_end_201
    movabsq $0x20, %rax
    pushq %rax
    popq %rax
    movq %rbp, %rsp
    popq %rbp
    retq
    movq $0, %rax
    pushq %rax
    popq %rax
L_if_end_201:
    leaq L_CFORGE_T_OUTCAP(%rip), %rax
    pushq %rax
    popq %rax
    pushq %rax
    movq L_CAP_RIGHT_FS_READ_L(%rip), %rax
    pushq %rax
    leaq L_CFORGE_T_SUBRES(%rip), %rax
    pushq %rax
    popq %rax
    pushq %rax
    movq -40(%rbp), %rax
    pushq %rax
    popq %rcx
    popq %rdx
    popq %r8
    popq %r9
    subq $32, %rsp
    callq cf_forge_restrict
    addq $32, %rsp
    movl %eax, %eax
    pushq %rax
    popq %rax
    movq %rax, -120(%rbp)
    movl -120(%rbp), %eax
    pushq %rax
    movl L_CFORGE_SENT(%rip), %eax
    pushq %rax
    popq %rcx
    popq %rax
    cmpq %rcx, %rax
    setne %al
    movzbq %al, %rax
    pushq %rax
    popq %rax
    testq %rax, %rax
    jz L_if_end_203
    movabsq $0x21, %rax
    pushq %rax
    popq %rax
    movq %rbp, %rsp
    popq %rbp
    retq
    movq $0, %rax
    pushq %rax
    popq %rax
L_if_end_203:
    leaq L_CFORGE_T_OUTCAP(%rip), %rax
    pushq %rax
    movabsq $0x0, %rax
    pushq %rax
    popq %rcx
    popq %rax
    movq (%rax,%rcx,8), %rax
    pushq %rax
    movabsq $0x0, %rax
    pushq %rax
    popq %rcx
    popq %rax
    cmpq %rcx, %rax
    setne %al
    movzbq %al, %rax
    pushq %rax
    popq %rax
    testq %rax, %rax
    jz L_if_end_205
    movabsq $0x22, %rax
    pushq %rax
    popq %rax
    movq %rbp, %rsp
    popq %rbp
    retq
    movq $0, %rax
    pushq %rax
    popq %rax
L_if_end_205:
    subq $32, %rsp
    callq cf_count
    addq $32, %rsp
    movl %eax, %eax
    pushq %rax
    movl -104(%rbp), %eax
    pushq %rax
    popq %rcx
    popq %rax
    cmpq %rcx, %rax
    setne %al
    movzbq %al, %rax
    pushq %rax
    popq %rax
    testq %rax, %rax
    jz L_if_end_207
    movabsq $0x23, %rax
    pushq %rax
    popq %rax
    movq %rbp, %rsp
    popq %rbp
    retq
    movq $0, %rax
    pushq %rax
    popq %rax
L_if_end_207:
    movabsq $0x0, %rax
    pushq %rax
    movabsq $0x270f, %rax
    pushq %rax
    popq %rcx
    popq %rdx
    subq $32, %rsp
    callq cf_dependency_at
    addq $32, %rsp
    movl %eax, %eax
    pushq %rax
    movl L_CFORGE_SENT(%rip), %eax
    pushq %rax
    popq %rcx
    popq %rax
    cmpq %rcx, %rax
    setne %al
    movzbq %al, %rax
    pushq %rax
    popq %rax
    testq %rax, %rax
    jz L_if_end_209
    movabsq $0x24, %rax
    pushq %rax
    popq %rax
    movq %rbp, %rsp
    popq %rbp
    retq
    movq $0, %rax
    pushq %rax
    popq %rax
L_if_end_209:
    movabsq $0x0, %rax
    pushq %rax
    popq %rcx
    subq $32, %rsp
    callq cf_deforge_cascade
    addq $32, %rsp
    movl %eax, %eax
    pushq %rax
    movabsq $0x0, %rax
    pushq %rax
    popq %rcx
    popq %rax
    cmpq %rcx, %rax
    setne %al
    movzbq %al, %rax
    pushq %rax
    popq %rax
    testq %rax, %rax
    jz L_if_end_211
    movabsq $0x25, %rax
    pushq %rax
    popq %rax
    movq %rbp, %rsp
    popq %rbp
    retq
    movq $0, %rax
    pushq %rax
    popq %rax
L_if_end_211:
    movabsq $0x1, %rax
    pushq %rax
    movabsq $0x0, %rax
    pushq %rax
    popq %rcx
    popq %rdx
    subq $32, %rsp
    callq cf_add_dependency
    addq $32, %rsp
    movslq %eax, %rax
    pushq %rax
    movslq L_CFORGE_E_BAD(%rip), %rax
    pushq %rax
    popq %rcx
    popq %rax
    cmpq %rcx, %rax
    setne %al
    movzbq %al, %rax
    pushq %rax
    popq %rax
    testq %rax, %rax
    jz L_if_end_213
    movabsq $0x26, %rax
    pushq %rax
    popq %rax
    movq %rbp, %rsp
    popq %rbp
    retq
    movq $0, %rax
    pushq %rax
    popq %rax
L_if_end_213:
    movabsq $0x63, %rax
    pushq %rax
    popq %rax
    movq %rbp, %rsp
    popq %rbp
    retq
    movq $0, %rax
    pushq %rax
    movq $0, %rax
    movq %rbp, %rsp
    popq %rbp
    retq
    .seh_endproc
