# III Stage-0 Ring-3 codegen output
# Microsoft x64 ABI; gas syntax (AT&T); PE/COFF target
    .att_syntax
    .file 1 "<iii-source>"
    .section .rodata
L_str_0:
    .ascii "memo_lattice.iiimemo_lattice.iiimemo_lattice.iiimemo_lattice.iiimemo_lattice.iiicapability.iiiwitness_hook.iiiidentifier.iiiidentifier.iiiwitness_hook.iiiwitness_hook.iiiwitness_spine.iiiwitness_spine.iiiconstitution.iiimemo_lattice.iiimemo_lattice.iiimemo_lattice.iiicapability.iiicapability.iii\0"
L_str_1:
    .ascii "memo_lattice.iiimemo_lattice.iiimemo_lattice.iiimemo_lattice.iiicapability.iiiwitness_hook.iiiidentifier.iiiidentifier.iiiwitness_hook.iiiwitness_hook.iiiwitness_spine.iiiwitness_spine.iiiconstitution.iiimemo_lattice.iiimemo_lattice.iiimemo_lattice.iiicapability.iiicapability.iii\0"
L_str_2:
    .ascii "memo_lattice.iiimemo_lattice.iiimemo_lattice.iiicapability.iiiwitness_hook.iiiidentifier.iiiidentifier.iiiwitness_hook.iiiwitness_hook.iiiwitness_spine.iiiwitness_spine.iiiconstitution.iiimemo_lattice.iiimemo_lattice.iiimemo_lattice.iiicapability.iiicapability.iii\0"
L_str_3:
    .ascii "memo_lattice.iiimemo_lattice.iiicapability.iiiwitness_hook.iiiidentifier.iiiidentifier.iiiwitness_hook.iiiwitness_hook.iiiwitness_spine.iiiwitness_spine.iiiconstitution.iiimemo_lattice.iiimemo_lattice.iiimemo_lattice.iiicapability.iiicapability.iii\0"
L_str_4:
    .ascii "memo_lattice.iiicapability.iiiwitness_hook.iiiidentifier.iiiidentifier.iiiwitness_hook.iiiwitness_hook.iiiwitness_spine.iiiwitness_spine.iiiconstitution.iiimemo_lattice.iiimemo_lattice.iiimemo_lattice.iiicapability.iiicapability.iii\0"
L_str_5:
    .ascii "capability.iiiwitness_hook.iiiidentifier.iiiidentifier.iiiwitness_hook.iiiwitness_hook.iiiwitness_spine.iiiwitness_spine.iiiconstitution.iiimemo_lattice.iiimemo_lattice.iiimemo_lattice.iiicapability.iiicapability.iii\0"
L_str_6:
    .ascii "witness_hook.iiiidentifier.iiiidentifier.iiiwitness_hook.iiiwitness_hook.iiiwitness_spine.iiiwitness_spine.iiiconstitution.iiimemo_lattice.iiimemo_lattice.iiimemo_lattice.iiicapability.iiicapability.iii\0"
L_str_7:
    .ascii "identifier.iiiidentifier.iiiwitness_hook.iiiwitness_hook.iiiwitness_spine.iiiwitness_spine.iiiconstitution.iiimemo_lattice.iiimemo_lattice.iiimemo_lattice.iiicapability.iiicapability.iii\0"
L_str_8:
    .ascii "identifier.iiiwitness_hook.iiiwitness_hook.iiiwitness_spine.iiiwitness_spine.iiiconstitution.iiimemo_lattice.iiimemo_lattice.iiimemo_lattice.iiicapability.iiicapability.iii\0"
L_str_9:
    .ascii "witness_hook.iiiwitness_hook.iiiwitness_spine.iiiwitness_spine.iiiconstitution.iiimemo_lattice.iiimemo_lattice.iiimemo_lattice.iiicapability.iiicapability.iii\0"
L_str_10:
    .ascii "witness_hook.iiiwitness_spine.iiiwitness_spine.iiiconstitution.iiimemo_lattice.iiimemo_lattice.iiimemo_lattice.iiicapability.iiicapability.iii\0"
L_str_11:
    .ascii "witness_spine.iiiwitness_spine.iiiconstitution.iiimemo_lattice.iiimemo_lattice.iiimemo_lattice.iiicapability.iiicapability.iii\0"
L_str_12:
    .ascii "witness_spine.iiiconstitution.iiimemo_lattice.iiimemo_lattice.iiimemo_lattice.iiicapability.iiicapability.iii\0"
L_str_13:
    .ascii "constitution.iiimemo_lattice.iiimemo_lattice.iiimemo_lattice.iiicapability.iiicapability.iii\0"
L_str_14:
    .ascii "memo_lattice.iiimemo_lattice.iiimemo_lattice.iiicapability.iiicapability.iii\0"
L_str_15:
    .ascii "memo_lattice.iiimemo_lattice.iiicapability.iiicapability.iii\0"
L_str_16:
    .ascii "memo_lattice.iiicapability.iiicapability.iii\0"
L_str_17:
    .ascii "capability.iiicapability.iii\0"
L_str_18:
    .ascii "capability.iii\0"
    .section .rodata
L_MCC_OK:
    .quad 0x0
L_MCC_E_NULL:
    .quad 0xffffffffffffffff
L_MCC_E_NOT_INITED:
    .quad 0xfffffffffffffffe
L_MCC_E_DENIED:
    .quad 0xfffffffffffffffd
L_MCC_E_LATTICE:
    .quad 0xfffffffffffffffc
L_MCC_E_WITNESS:
    .quad 0xfffffffffffffffb
L_MCC_SLOTS:
    .quad 0x10000
L_MCC_KEY_BYTES:
    .quad 0x20
L_MCC_CAP_AMEND:
    .quad 0x4000
L_MCC_PAYLOAD_TAG:
    .quad 0xe3
L_MCC_EVT_COORD:
    .quad 0x18
L_MCC_U64_SENT:
    .quad 0xffffffffffffffff
L_MCC_ML_OK:
    .quad 0x0
L_MCC_ML_STALE:
    .quad 0xfffffffffffffffd
    .section .data
    .global L_MCC_INITED
L_MCC_INITED:
    .quad 0x0
    .global L_MCC_LAST_COUNT
L_MCC_LAST_COUNT:
    .quad 0x0
    .section .bss
    .global L_MCC_SCR_KEY
L_MCC_SCR_KEY:
    .zero 256
    .global L_MCC_SCR_PAYLOAD
L_MCC_SCR_PAYLOAD:
    .zero 384
    .global L_MCC_SCR_PRODUCER
L_MCC_SCR_PRODUCER:
    .zero 256
    .global L_MCC_SCR_OPID
L_MCC_SCR_OPID:
    .zero 256
    .global L_MCC_SCR_INC
L_MCC_SCR_INC:
    .zero 256
    .global L_MCC_SCR_OUTC
L_MCC_SCR_OUTC:
    .zero 256
    .global L_MCC_SCR_FRAGID
L_MCC_SCR_FRAGID:
    .zero 256
    .global L_MCC_CLAUSE_LABEL
L_MCC_CLAUSE_LABEL:
    .zero 104
    .global L_MCC_RATIFY_BUF
L_MCC_RATIFY_BUF:
    .zero 128
    .global L_MCC_WIT_PAYLOAD
L_MCC_WIT_PAYLOAD:
    .zero 576
    .global L_MCC_CH0
L_MCC_CH0:
    .zero 256
    .global L_MCC_CH1
L_MCC_CH1:
    .zero 256
    .global L_MCC_CH2
L_MCC_CH2:
    .zero 256
    .global L_MCC_CH9
L_MCC_CH9:
    .zero 256
    .global L_MCC_KA
L_MCC_KA:
    .zero 256
    .global L_MCC_KB
L_MCC_KB:
    .zero 256
    .global L_MCC_KC
L_MCC_KC:
    .zero 256
    .global L_MCC_KD
L_MCC_KD:
    .zero 256
    .global L_MCC_CA
L_MCC_CA:
    .zero 256
    .global L_MCC_LK_OC
L_MCC_LK_OC:
    .zero 256
    .global L_MCC_LK_CH
L_MCC_LK_CH:
    .zero 256
    .global L_MCC_LK_KM
L_MCC_LK_KM:
    .zero 256
    .section .iii.ring3,"n"
    .asciz "mcc_process_slot"
    .text
    .global L_mcc_process_slot
    .seh_proc L_mcc_process_slot
L_mcc_process_slot:
    pushq %rbp
    .seh_pushreg %rbp
    movq %rsp, %rbp
    .seh_setframe %rbp, 0
    subq $1024, %rsp
    .seh_stackalloc 1024
    .seh_endprologue
    movq %rcx, -8(%rbp)
    movq %rdx, -16(%rbp)
    movq -8(%rbp), %rax
    pushq %rax
    popq %rcx
    subq $32, %rsp
    callq ml_slot_is_live
    addq $32, %rsp
    movzbq %al, %rax
    pushq %rax
    movabsq $0x1, %rax
    pushq %rax
    popq %rcx
    popq %rax
    cmpq %rcx, %rax
    setne %al
    movzbq %al, %rax
    pushq %rax
    popq %rax
    testq %rax, %rax
    jz L_if_end_1
    movabsq $0x0, %rax
    pushq %rax
    popq %rax
    movq %rbp, %rsp
    popq %rbp
    retq
    movq $0, %rax
    pushq %rax
    popq %rax
L_if_end_1:
    movq -16(%rbp), %rax
    pushq %rax
    popq %rax
    pushq %rax
    movq -8(%rbp), %rax
    pushq %rax
    popq %rcx
    popq %rdx
    subq $32, %rsp
    callq ml_slot_chain_eq
    addq $32, %rsp
    movzbq %al, %rax
    pushq %rax
    movabsq $0x1, %rax
    pushq %rax
    popq %rcx
    popq %rax
    cmpq %rcx, %rax
    setne %al
    movzbq %al, %rax
    pushq %rax
    popq %rax
    testq %rax, %rax
    jz L_if_end_3
    movabsq $0x0, %rax
    pushq %rax
    popq %rax
    movq %rbp, %rsp
    popq %rbp
    retq
    movq $0, %rax
    pushq %rax
    popq %rax
L_if_end_3:
    leaq L_MCC_SCR_KEY(%rip), %rax
    pushq %rax
    popq %rax
    pushq %rax
    popq %rax
    pushq %rax
    movq -8(%rbp), %rax
    pushq %rax
    popq %rcx
    popq %rdx
    subq $32, %rsp
    callq ml_slot_key
    addq $32, %rsp
    movslq %eax, %rax
    pushq %rax
    movslq L_MCC_OK(%rip), %rax
    pushq %rax
    popq %rcx
    popq %rax
    cmpq %rcx, %rax
    setne %al
    movzbq %al, %rax
    pushq %rax
    popq %rax
    testq %rax, %rax
    jz L_if_end_5
    movslq L_MCC_E_LATTICE(%rip), %rax
    pushq %rax
    popq %rax
    movq %rbp, %rsp
    popq %rbp
    retq
    movq $0, %rax
    pushq %rax
    popq %rax
L_if_end_5:
    leaq L_MCC_SCR_KEY(%rip), %rax
    pushq %rax
    popq %rax
    pushq %rax
    popq %rax
    pushq %rax
    popq %rcx
    subq $32, %rsp
    callq ml_mark_stale
    addq $32, %rsp
    movslq %eax, %rax
    pushq %rax
    movslq L_MCC_OK(%rip), %rax
    pushq %rax
    popq %rcx
    popq %rax
    cmpq %rcx, %rax
    setne %al
    movzbq %al, %rax
    pushq %rax
    popq %rax
    testq %rax, %rax
    jz L_if_end_7
    movslq L_MCC_E_LATTICE(%rip), %rax
    pushq %rax
    popq %rax
    movq %rbp, %rsp
    popq %rbp
    retq
    movq $0, %rax
    pushq %rax
    popq %rax
L_if_end_7:
    movabsq $0x1, %rax
    pushq %rax
    popq %rax
    movq %rbp, %rsp
    popq %rbp
    retq
    movq $0, %rax
    pushq %rax
    movq $0, %rax
    movq %rbp, %rsp
    popq %rbp
    retq
    .seh_endproc
    .section .iii.ring3,"n"
    .asciz "mcc_emit_pass"
    .text
    .global L_mcc_emit_pass
    .seh_proc L_mcc_emit_pass
L_mcc_emit_pass:
    pushq %rbp
    .seh_pushreg %rbp
    movq %rsp, %rbp
    .seh_setframe %rbp, 0
    subq $1024, %rsp
    .seh_stackalloc 1024
    .seh_endprologue
    movq %rcx, -8(%rbp)
    movq %rdx, -16(%rbp)
    movq -8(%rbp), %rax
    pushq %rax
    popq %rax
    movq %rax, -24(%rbp)
    leaq L_MCC_SCR_PAYLOAD(%rip), %rax
    pushq %rax
    popq %rax
    pushq %rax
    popq %rax
    pushq %rax
    popq %rax
    movq %rax, -32(%rbp)
    movabsq $0x0, %rax
    pushq %rax
    popq %rax
    movq %rax, -40(%rbp)
L_loop_top_8:
    movq -40(%rbp), %rax
    pushq %rax
    movabsq $0x30, %rax
    pushq %rax
    popq %rcx
    popq %rax
    cmpq %rcx, %rax
    setb %al
    movzbq %al, %rax
    pushq %rax
    popq %rax
    testq %rax, %rax
    jz L_loop_end_9
    movq -32(%rbp), %rax
    pushq %rax
    movq -40(%rbp), %rax
    pushq %rax
    movabsq $0x0, %rax
    pushq %rax
    popq %rdx
    popq %rcx
    popq %rax
    movb %dl, (%rax,%rcx,1)
    movq -40(%rbp), %rax
    pushq %rax
    movabsq $0x1, %rax
    pushq %rax
    popq %rcx
    popq %rax
    addq %rcx, %rax
    pushq %rax
    popq %rax
    movq %rax, -40(%rbp)
    movq $0, %rax
    pushq %rax
    popq %rax
    jmp L_loop_top_8
L_loop_end_9:
    movq -32(%rbp), %rax
    pushq %rax
    movabsq $0x0, %rax
    pushq %rax
    movzbq L_MCC_PAYLOAD_TAG(%rip), %rax
    pushq %rax
    popq %rdx
    popq %rcx
    popq %rax
    movb %dl, (%rax,%rcx,1)
    movq -32(%rbp), %rax
    pushq %rax
    movabsq $0x1, %rax
    pushq %rax
    movzbq L_MCC_EVT_COORD(%rip), %rax
    pushq %rax
    popq %rdx
    popq %rcx
    popq %rax
    movb %dl, (%rax,%rcx,1)
    movabsq $0x0, %rax
    pushq %rax
    popq %rax
    movq %rax, -48(%rbp)
L_loop_top_10:
    movq -48(%rbp), %rax
    pushq %rax
    movabsq $0x20, %rax
    pushq %rax
    popq %rcx
    popq %rax
    cmpq %rcx, %rax
    setb %al
    movzbq %al, %rax
    pushq %rax
    popq %rax
    testq %rax, %rax
    jz L_loop_end_11
    movq -32(%rbp), %rax
    pushq %rax
    movabsq $0x8, %rax
    pushq %rax
    movq -48(%rbp), %rax
    pushq %rax
    popq %rcx
    popq %rax
    addq %rcx, %rax
    pushq %rax
    movq -24(%rbp), %rax
    pushq %rax
    movq -48(%rbp), %rax
    pushq %rax
    popq %rcx
    popq %rax
    movzbq (%rax,%rcx,1), %rax
    pushq %rax
    popq %rdx
    popq %rcx
    popq %rax
    movb %dl, (%rax,%rcx,1)
    movq -48(%rbp), %rax
    pushq %rax
    movabsq $0x1, %rax
    pushq %rax
    popq %rcx
    popq %rax
    addq %rcx, %rax
    pushq %rax
    popq %rax
    movq %rax, -48(%rbp)
    movq $0, %rax
    pushq %rax
    popq %rax
    jmp L_loop_top_10
L_loop_end_11:
    movabsq $0x0, %rax
    pushq %rax
    popq %rax
    movq %rax, -56(%rbp)
L_loop_top_12:
    movq -56(%rbp), %rax
    pushq %rax
    movabsq $0x8, %rax
    pushq %rax
    popq %rcx
    popq %rax
    cmpq %rcx, %rax
    setb %al
    movzbq %al, %rax
    pushq %rax
    popq %rax
    testq %rax, %rax
    jz L_loop_end_13
    movq -32(%rbp), %rax
    pushq %rax
    movabsq $0x28, %rax
    pushq %rax
    movq -56(%rbp), %rax
    pushq %rax
    popq %rcx
    popq %rax
    addq %rcx, %rax
    pushq %rax
    movq -16(%rbp), %rax
    pushq %rax
    movq -56(%rbp), %rax
    pushq %rax
    movabsq $0x8, %rax
    pushq %rax
    popq %rcx
    popq %rax
    imulq %rcx, %rax
    pushq %rax
    popq %rcx
    popq %rax
    shrq %cl, %rax
    pushq %rax
    movabsq $0xff, %rax
    pushq %rax
    popq %rcx
    popq %rax
    andq %rcx, %rax
    pushq %rax
    popq %rax
    movzbq %al, %rax
    pushq %rax
    popq %rdx
    popq %rcx
    popq %rax
    movb %dl, (%rax,%rcx,1)
    movq -56(%rbp), %rax
    pushq %rax
    movabsq $0x1, %rax
    pushq %rax
    popq %rcx
    popq %rax
    addq %rcx, %rax
    pushq %rax
    popq %rax
    movq %rax, -56(%rbp)
    movq $0, %rax
    pushq %rax
    popq %rax
    jmp L_loop_top_12
L_loop_end_13:
    leaq L_MCC_SCR_PRODUCER(%rip), %rax
    pushq %rax
    popq %rax
    pushq %rax
    popq %rax
    pushq %rax
    popq %rcx
    subq $32, %rsp
    callq ident_zero
    addq $32, %rsp
    movslq %eax, %rax
    pushq %rax
    popq %rax
    leaq L_MCC_SCR_OPID(%rip), %rax
    pushq %rax
    popq %rax
    pushq %rax
    popq %rax
    pushq %rax
    popq %rcx
    subq $32, %rsp
    callq ident_zero
    addq $32, %rsp
    movslq %eax, %rax
    pushq %rax
    popq %rax
    leaq L_MCC_SCR_OUTC(%rip), %rax
    pushq %rax
    popq %rax
    pushq %rax
    popq %rax
    pushq %rax
    popq %rcx
    subq $32, %rsp
    callq ident_zero
    addq $32, %rsp
    movslq %eax, %rax
    pushq %rax
    popq %rax
    leaq L_MCC_SCR_INC(%rip), %rax
    pushq %rax
    popq %rax
    pushq %rax
    popq %rax
    pushq %rax
    movq -24(%rbp), %rax
    pushq %rax
    popq %rcx
    popq %rdx
    subq $32, %rsp
    callq ident_copy
    addq $32, %rsp
    movslq %eax, %rax
    pushq %rax
    popq %rax
    leaq L_MCC_SCR_PRODUCER(%rip), %rax
    pushq %rax
    popq %rax
    pushq %rax
    popq %rax
    pushq %rax
    popq %rax
    movq %rax, -64(%rbp)
    leaq L_MCC_SCR_FRAGID(%rip), %rax
    pushq %rax
    popq %rax
    pushq %rax
    popq %rax
    pushq %rax
    movabsq $0x30, %rax
    pushq %rax
    movq -32(%rbp), %rax
    pushq %rax
    movabsq $0x0, %rax
    pushq %rax
    movq -64(%rbp), %rax
    pushq %rax
    movabsq $0x0, %rax
    pushq %rax
    movabsq $0x0, %rax
    pushq %rax
    movabsq $0x0, %rax
    pushq %rax
    leaq L_MCC_SCR_OUTC(%rip), %rax
    pushq %rax
    popq %rax
    pushq %rax
    popq %rax
    pushq %rax
    leaq L_MCC_SCR_INC(%rip), %rax
    pushq %rax
    popq %rax
    pushq %rax
    popq %rax
    pushq %rax
    leaq L_MCC_SCR_OPID(%rip), %rax
    pushq %rax
    popq %rax
    pushq %rax
    popq %rax
    pushq %rax
    movq -64(%rbp), %rax
    pushq %rax
    popq %rcx
    popq %rdx
    popq %r8
    popq %r9
    subq $32, %rsp
    callq wh_publish
    addq $32, %rsp
    addq $64, %rsp
    pushq %rax
    popq %rax
    movq %rax, -72(%rbp)
    movq -72(%rbp), %rax
    pushq %rax
    movq L_MCC_U64_SENT(%rip), %rax
    pushq %rax
    popq %rcx
    popq %rax
    cmpq %rcx, %rax
    sete %al
    movzbq %al, %rax
    pushq %rax
    popq %rax
    testq %rax, %rax
    jz L_if_end_15
    movslq L_MCC_E_WITNESS(%rip), %rax
    pushq %rax
    popq %rax
    movq %rbp, %rsp
    popq %rbp
    retq
    movq $0, %rax
    pushq %rax
    popq %rax
L_if_end_15:
    movslq L_MCC_OK(%rip), %rax
    pushq %rax
    popq %rax
    movq %rbp, %rsp
    popq %rbp
    retq
    movq $0, %rax
    pushq %rax
    movq $0, %rax
    movq %rbp, %rsp
    popq %rbp
    retq
    .seh_endproc
    .section .iii.ring3,"n"
    .asciz "mcc_init"
    .text
    .global mcc_init
    .seh_proc mcc_init
mcc_init:
    pushq %rbp
    .seh_pushreg %rbp
    movq %rsp, %rbp
    .seh_setframe %rbp, 0
    subq $1024, %rsp
    .seh_stackalloc 1024
    .seh_endprologue
    movzbq L_MCC_INITED(%rip), %rax
    pushq %rax
    movabsq $0x1, %rax
    pushq %rax
    popq %rcx
    popq %rax
    cmpq %rcx, %rax
    sete %al
    movzbq %al, %rax
    pushq %rax
    popq %rax
    testq %rax, %rax
    jz L_if_end_17
    movslq L_MCC_OK(%rip), %rax
    pushq %rax
    popq %rax
    movq %rbp, %rsp
    popq %rbp
    retq
    movq $0, %rax
    pushq %rax
    popq %rax
L_if_end_17:
    movabsq $0x0, %rax
    pushq %rax
    popq %rax
    movq %rax, L_MCC_LAST_COUNT(%rip)
    movabsq $0x1, %rax
    pushq %rax
    popq %rax
    movb %al, L_MCC_INITED(%rip)
    movslq L_MCC_OK(%rip), %rax
    pushq %rax
    popq %rax
    movq %rbp, %rsp
    popq %rbp
    retq
    movq $0, %rax
    pushq %rax
    movq $0, %rax
    movq %rbp, %rsp
    popq %rbp
    retq
    .seh_endproc
    .section .iii.ring3,"n"
    .asciz "mcc_on_compaction"
    .text
    .global mcc_on_compaction
    .seh_proc mcc_on_compaction
mcc_on_compaction:
    pushq %rbp
    .seh_pushreg %rbp
    movq %rsp, %rbp
    .seh_setframe %rbp, 0
    subq $1024, %rsp
    .seh_stackalloc 1024
    .seh_endprologue
    movq %rcx, -8(%rbp)
    movq %rdx, -16(%rbp)
    movq -8(%rbp), %rax
    pushq %rax
    popq %rax
    pushq %rax
    popq %rax
    movq %rax, -24(%rbp)
    movq -16(%rbp), %rax
    pushq %rax
    popq %rax
    movq %rax, -32(%rbp)
    movzbq L_MCC_INITED(%rip), %rax
    pushq %rax
    movabsq $0x0, %rax
    pushq %rax
    popq %rcx
    popq %rax
    cmpq %rcx, %rax
    sete %al
    movzbq %al, %rax
    pushq %rax
    popq %rax
    testq %rax, %rax
    jz L_if_end_19
    movslq L_MCC_E_NOT_INITED(%rip), %rax
    pushq %rax
    popq %rax
    movq %rbp, %rsp
    popq %rbp
    retq
    movq $0, %rax
    pushq %rax
    popq %rax
L_if_end_19:
    movq -24(%rbp), %rax
    pushq %rax
    movabsq $0x0, %rax
    pushq %rax
    popq %rcx
    popq %rax
    cmpq %rcx, %rax
    sete %al
    movzbq %al, %rax
    pushq %rax
    popq %rax
    testq %rax, %rax
    jz L_if_end_21
    movslq L_MCC_E_NULL(%rip), %rax
    pushq %rax
    popq %rax
    movq %rbp, %rsp
    popq %rbp
    retq
    movq $0, %rax
    pushq %rax
    popq %rax
L_if_end_21:
    movq L_MCC_CAP_AMEND(%rip), %rax
    pushq %rax
    movq -32(%rbp), %rax
    pushq %rax
    popq %rcx
    popq %rdx
    subq $32, %rsp
    callq cap_verify_rights
    addq $32, %rsp
    movzbq %al, %rax
    pushq %rax
    movabsq $0x1, %rax
    pushq %rax
    popq %rcx
    popq %rax
    cmpq %rcx, %rax
    setne %al
    movzbq %al, %rax
    pushq %rax
    popq %rax
    testq %rax, %rax
    jz L_if_end_23
    movslq L_MCC_E_DENIED(%rip), %rax
    pushq %rax
    popq %rax
    movq %rbp, %rsp
    popq %rbp
    retq
    movq $0, %rax
    pushq %rax
    popq %rax
L_if_end_23:
    subq $32, %rsp
    callq ml_slot_count
    addq $32, %rsp
    pushq %rax
    popq %rax
    movq %rax, -40(%rbp)
    movabsq $0x0, %rax
    pushq %rax
    popq %rax
    movq %rax, -48(%rbp)
    movabsq $0x0, %rax
    pushq %rax
    popq %rax
    movq %rax, -56(%rbp)
    movslq L_MCC_OK(%rip), %rax
    pushq %rax
    popq %rax
    movq %rax, -64(%rbp)
    movabsq $0x1, %rax
    pushq %rax
    popq %rax
    movq %rax, -72(%rbp)
L_loop_top_24:
    movzbq -72(%rbp), %rax
    pushq %rax
    movabsq $0x1, %rax
    pushq %rax
    popq %rcx
    popq %rax
    cmpq %rcx, %rax
    sete %al
    movzbq %al, %rax
    pushq %rax
    popq %rax
    testq %rax, %rax
    jz L_loop_end_25
    movq -48(%rbp), %rax
    pushq %rax
    movq -40(%rbp), %rax
    pushq %rax
    popq %rcx
    popq %rax
    cmpq %rcx, %rax
    setae %al
    movzbq %al, %rax
    pushq %rax
    popq %rax
    testq %rax, %rax
    jz L_if_end_27
    movabsq $0x0, %rax
    pushq %rax
    popq %rax
    movq %rax, -72(%rbp)
    movq $0, %rax
    pushq %rax
    popq %rax
L_if_end_27:
    movq -48(%rbp), %rax
    pushq %rax
    movq L_MCC_SLOTS(%rip), %rax
    pushq %rax
    popq %rcx
    popq %rax
    cmpq %rcx, %rax
    setae %al
    movzbq %al, %rax
    pushq %rax
    popq %rax
    testq %rax, %rax
    jz L_if_end_29
    movabsq $0x0, %rax
    pushq %rax
    popq %rax
    movq %rax, -72(%rbp)
    movq $0, %rax
    pushq %rax
    popq %rax
L_if_end_29:
    movzbq -72(%rbp), %rax
    pushq %rax
    movabsq $0x1, %rax
    pushq %rax
    popq %rcx
    popq %rax
    cmpq %rcx, %rax
    sete %al
    movzbq %al, %rax
    pushq %rax
    popq %rax
    testq %rax, %rax
    jz L_if_end_31
    movq -24(%rbp), %rax
    pushq %rax
    movq -48(%rbp), %rax
    pushq %rax
    popq %rcx
    popq %rdx
    subq $32, %rsp
    callq L_mcc_process_slot
    addq $32, %rsp
    movslq %eax, %rax
    pushq %rax
    popq %rax
    movq %rax, -80(%rbp)
    movslq -80(%rbp), %rax
    pushq %rax
    movabsq $0x1, %rax
    pushq %rax
    popq %rcx
    popq %rax
    cmpq %rcx, %rax
    sete %al
    movzbq %al, %rax
    pushq %rax
    popq %rax
    testq %rax, %rax
    jz L_if_end_33
    movq -56(%rbp), %rax
    pushq %rax
    movabsq $0x1, %rax
    pushq %rax
    popq %rcx
    popq %rax
    addq %rcx, %rax
    pushq %rax
    popq %rax
    movq %rax, -56(%rbp)
    movq $0, %rax
    pushq %rax
    popq %rax
L_if_end_33:
    movslq -80(%rbp), %rax
    pushq %rax
    movslq L_MCC_E_LATTICE(%rip), %rax
    pushq %rax
    popq %rcx
    popq %rax
    cmpq %rcx, %rax
    sete %al
    movzbq %al, %rax
    pushq %rax
    popq %rax
    testq %rax, %rax
    jz L_if_end_35
    movslq L_MCC_E_LATTICE(%rip), %rax
    pushq %rax
    popq %rax
    movq %rax, -64(%rbp)
    movabsq $0x0, %rax
    pushq %rax
    popq %rax
    movq %rax, -72(%rbp)
    movq $0, %rax
    pushq %rax
    popq %rax
L_if_end_35:
    movq -48(%rbp), %rax
    pushq %rax
    movabsq $0x1, %rax
    pushq %rax
    popq %rcx
    popq %rax
    addq %rcx, %rax
    pushq %rax
    popq %rax
    movq %rax, -48(%rbp)
    movq $0, %rax
    pushq %rax
    popq %rax
L_if_end_31:
    movq $0, %rax
    pushq %rax
    popq %rax
    jmp L_loop_top_24
L_loop_end_25:
    movslq -64(%rbp), %rax
    pushq %rax
    movslq L_MCC_OK(%rip), %rax
    pushq %rax
    popq %rcx
    popq %rax
    cmpq %rcx, %rax
    setne %al
    movzbq %al, %rax
    pushq %rax
    popq %rax
    testq %rax, %rax
    jz L_if_end_37
    movslq -64(%rbp), %rax
    pushq %rax
    popq %rax
    movq %rbp, %rsp
    popq %rbp
    retq
    movq $0, %rax
    pushq %rax
    popq %rax
L_if_end_37:
    movq -56(%rbp), %rax
    pushq %rax
    popq %rax
    movq %rax, L_MCC_LAST_COUNT(%rip)
    movq -56(%rbp), %rax
    pushq %rax
    movq -24(%rbp), %rax
    pushq %rax
    popq %rax
    pushq %rax
    popq %rcx
    popq %rdx
    subq $32, %rsp
    callq L_mcc_emit_pass
    addq $32, %rsp
    movslq %eax, %rax
    pushq %rax
    movslq L_MCC_OK(%rip), %rax
    pushq %rax
    popq %rcx
    popq %rax
    cmpq %rcx, %rax
    setne %al
    movzbq %al, %rax
    pushq %rax
    popq %rax
    testq %rax, %rax
    jz L_if_end_39
    movslq L_MCC_E_WITNESS(%rip), %rax
    pushq %rax
    popq %rax
    movq %rbp, %rsp
    popq %rbp
    retq
    movq $0, %rax
    pushq %rax
    popq %rax
L_if_end_39:
    movslq L_MCC_OK(%rip), %rax
    pushq %rax
    popq %rax
    movq %rbp, %rsp
    popq %rbp
    retq
    movq $0, %rax
    pushq %rax
    movq $0, %rax
    movq %rbp, %rsp
    popq %rbp
    retq
    .seh_endproc
    .section .iii.ring3,"n"
    .asciz "mcc_last_marked_count"
    .text
    .global mcc_last_marked_count
    .seh_proc mcc_last_marked_count
mcc_last_marked_count:
    pushq %rbp
    .seh_pushreg %rbp
    movq %rsp, %rbp
    .seh_setframe %rbp, 0
    subq $1024, %rsp
    .seh_stackalloc 1024
    .seh_endprologue
    movq L_MCC_LAST_COUNT(%rip), %rax
    pushq %rax
    popq %rax
    movq %rbp, %rsp
    popq %rbp
    retq
    movq $0, %rax
    pushq %rax
    movq $0, %rax
    movq %rbp, %rsp
    popq %rbp
    retq
    .seh_endproc
    .section .iii.ring3,"n"
    .asciz "mcc_st_fill"
    .text
    .global L_mcc_st_fill
    .seh_proc L_mcc_st_fill
L_mcc_st_fill:
    pushq %rbp
    .seh_pushreg %rbp
    movq %rsp, %rbp
    .seh_setframe %rbp, 0
    subq $1024, %rsp
    .seh_stackalloc 1024
    .seh_endprologue
    movq %rcx, -8(%rbp)
    movq %rdx, -16(%rbp)
    movq -8(%rbp), %rax
    pushq %rax
    popq %rax
    pushq %rax
    popq %rax
    movq %rax, -24(%rbp)
    movabsq $0x0, %rax
    pushq %rax
    popq %rax
    movq %rax, -32(%rbp)
L_loop_top_40:
    movq -32(%rbp), %rax
    pushq %rax
    movabsq $0x20, %rax
    pushq %rax
    popq %rcx
    popq %rax
    cmpq %rcx, %rax
    setb %al
    movzbq %al, %rax
    pushq %rax
    popq %rax
    testq %rax, %rax
    jz L_loop_end_41
    movq -24(%rbp), %rax
    pushq %rax
    movq -32(%rbp), %rax
    pushq %rax
    movzbq -16(%rbp), %rax
    pushq %rax
    popq %rdx
    popq %rcx
    popq %rax
    movb %dl, (%rax,%rcx,1)
    movq -32(%rbp), %rax
    pushq %rax
    movabsq $0x1, %rax
    pushq %rax
    popq %rcx
    popq %rax
    addq %rcx, %rax
    pushq %rax
    popq %rax
    movq %rax, -32(%rbp)
    movq $0, %rax
    pushq %rax
    popq %rax
    jmp L_loop_top_40
L_loop_end_41:
    movslq L_MCC_OK(%rip), %rax
    pushq %rax
    popq %rax
    movq %rbp, %rsp
    popq %rbp
    retq
    movq $0, %rax
    pushq %rax
    movq $0, %rax
    movq %rbp, %rsp
    popq %rbp
    retq
    .seh_endproc
    .section .iii.ring3,"n"
    .asciz "mcc_st_ratify"
    .text
    .global L_mcc_st_ratify
    .seh_proc L_mcc_st_ratify
L_mcc_st_ratify:
    pushq %rbp
    .seh_pushreg %rbp
    movq %rsp, %rbp
    .seh_setframe %rbp, 0
    subq $1024, %rsp
    .seh_stackalloc 1024
    .seh_endprologue
    leaq L_MCC_CLAUSE_LABEL(%rip), %rax
    pushq %rax
    popq %rax
    pushq %rax
    popq %rax
    pushq %rax
    popq %rax
    movq %rax, -8(%rbp)
    movq -8(%rbp), %rax
    pushq %rax
    movabsq $0x0, %rax
    pushq %rax
    movabsq $0x63, %rax
    pushq %rax
    popq %rdx
    popq %rcx
    popq %rax
    movb %dl, (%rax,%rcx,1)
    movq -8(%rbp), %rax
    pushq %rax
    movabsq $0x1, %rax
    pushq %rax
    movabsq $0x70, %rax
    pushq %rax
    popq %rdx
    popq %rcx
    popq %rax
    movb %dl, (%rax,%rcx,1)
    movq -8(%rbp), %rax
    pushq %rax
    movabsq $0x2, %rax
    pushq %rax
    movabsq $0x5f, %rax
    pushq %rax
    popq %rdx
    popq %rcx
    popq %rax
    movb %dl, (%rax,%rcx,1)
    movq -8(%rbp), %rax
    pushq %rax
    movabsq $0x3, %rax
    pushq %rax
    movabsq $0x6d, %rax
    pushq %rax
    popq %rdx
    popq %rcx
    popq %rax
    movb %dl, (%rax,%rcx,1)
    movq -8(%rbp), %rax
    pushq %rax
    movabsq $0x4, %rax
    pushq %rax
    movabsq $0x65, %rax
    pushq %rax
    popq %rdx
    popq %rcx
    popq %rax
    movb %dl, (%rax,%rcx,1)
    movq -8(%rbp), %rax
    pushq %rax
    movabsq $0x5, %rax
    pushq %rax
    movabsq $0x6d, %rax
    pushq %rax
    popq %rdx
    popq %rcx
    popq %rax
    movb %dl, (%rax,%rcx,1)
    movq -8(%rbp), %rax
    pushq %rax
    movabsq $0x6, %rax
    pushq %rax
    movabsq $0x6f, %rax
    pushq %rax
    popq %rdx
    popq %rcx
    popq %rax
    movb %dl, (%rax,%rcx,1)
    movq -8(%rbp), %rax
    pushq %rax
    movabsq $0x7, %rax
    pushq %rax
    movabsq $0x5f, %rax
    pushq %rax
    popq %rdx
    popq %rcx
    popq %rax
    movb %dl, (%rax,%rcx,1)
    movq -8(%rbp), %rax
    pushq %rax
    movabsq $0x8, %rax
    pushq %rax
    movabsq $0x61, %rax
    pushq %rax
    popq %rdx
    popq %rcx
    popq %rax
    movb %dl, (%rax,%rcx,1)
    movq -8(%rbp), %rax
    pushq %rax
    movabsq $0x9, %rax
    pushq %rax
    movabsq $0x64, %rax
    pushq %rax
    popq %rdx
    popq %rcx
    popq %rax
    movb %dl, (%rax,%rcx,1)
    movq -8(%rbp), %rax
    pushq %rax
    movabsq $0xa, %rax
    pushq %rax
    movabsq $0x6d, %rax
    pushq %rax
    popq %rdx
    popq %rcx
    popq %rax
    movb %dl, (%rax,%rcx,1)
    movq -8(%rbp), %rax
    pushq %rax
    movabsq $0xb, %rax
    pushq %rax
    movabsq $0x69, %rax
    pushq %rax
    popq %rdx
    popq %rcx
    popq %rax
    movb %dl, (%rax,%rcx,1)
    movq -8(%rbp), %rax
    pushq %rax
    movabsq $0xc, %rax
    pushq %rax
    movabsq $0x74, %rax
    pushq %rax
    popq %rdx
    popq %rcx
    popq %rax
    movb %dl, (%rax,%rcx,1)
    leaq L_MCC_RATIFY_BUF(%rip), %rax
    pushq %rax
    popq %rax
    pushq %rax
    popq %rax
    movq %rax, -16(%rbp)
    leaq L_MCC_CLAUSE_LABEL(%rip), %rax
    pushq %rax
    popq %rax
    pushq %rax
    popq %rax
    movq %rax, -24(%rbp)
    movq -16(%rbp), %rax
    pushq %rax
    popq %rax
    pushq %rax
    popq %rax
    movq %rax, -32(%rbp)
    movq -32(%rbp), %rax
    pushq %rax
    movabsq $0x0, %rax
    pushq %rax
    movq -16(%rbp), %rax
    pushq %rax
    movabsq $0x40, %rax
    pushq %rax
    popq %rcx
    popq %rax
    addq %rcx, %rax
    pushq %rax
    popq %rdx
    popq %rcx
    popq %rax
    movq %rdx, (%rax,%rcx,8)
    movq -32(%rbp), %rax
    pushq %rax
    movabsq $0x1, %rax
    pushq %rax
    movq -24(%rbp), %rax
    pushq %rax
    popq %rdx
    popq %rcx
    popq %rax
    movq %rdx, (%rax,%rcx,8)
    movq -32(%rbp), %rax
    pushq %rax
    movabsq $0x2, %rax
    pushq %rax
    movabsq $0xd, %rax
    pushq %rax
    popq %rdx
    popq %rcx
    popq %rax
    movq %rdx, (%rax,%rcx,8)
    movq -32(%rbp), %rax
    pushq %rax
    movabsq $0x3, %rax
    pushq %rax
    movq -24(%rbp), %rax
    pushq %rax
    popq %rdx
    popq %rcx
    popq %rax
    movq %rdx, (%rax,%rcx,8)
    movq -32(%rbp), %rax
    pushq %rax
    movabsq $0x4, %rax
    pushq %rax
    movabsq $0x0, %rax
    pushq %rax
    popq %rdx
    popq %rcx
    popq %rax
    movq %rdx, (%rax,%rcx,8)
    movq -32(%rbp), %rax
    pushq %rax
    movabsq $0x5, %rax
    pushq %rax
    movq -24(%rbp), %rax
    pushq %rax
    popq %rdx
    popq %rcx
    popq %rax
    movq %rdx, (%rax,%rcx,8)
    movq -32(%rbp), %rax
    pushq %rax
    movabsq $0x6, %rax
    pushq %rax
    movabsq $0x0, %rax
    pushq %rax
    popq %rdx
    popq %rcx
    popq %rax
    movq %rdx, (%rax,%rcx,8)
    movq -16(%rbp), %rax
    pushq %rax
    popq %rax
    pushq %rax
    popq %rcx
    subq $32, %rsp
    callq cons_ratify
    addq $32, %rsp
    pushq %rax
    popq %rax
    movq %rax, -40(%rbp)
    movq -40(%rbp), %rax
    pushq %rax
    movq L_MCC_U64_SENT(%rip), %rax
    pushq %rax
    popq %rcx
    popq %rax
    cmpq %rcx, %rax
    sete %al
    movzbq %al, %rax
    pushq %rax
    popq %rax
    testq %rax, %rax
    jz L_if_end_43
    movslq L_MCC_E_LATTICE(%rip), %rax
    pushq %rax
    popq %rax
    movq %rbp, %rsp
    popq %rbp
    retq
    movq $0, %rax
    pushq %rax
    popq %rax
L_if_end_43:
    movslq L_MCC_OK(%rip), %rax
    pushq %rax
    popq %rax
    movq %rbp, %rsp
    popq %rbp
    retq
    movq $0, %rax
    pushq %rax
    movq $0, %rax
    movq %rbp, %rsp
    popq %rbp
    retq
    .seh_endproc
    .section .iii.ring3,"n"
    .asciz "mcc_st_make_chain"
    .text
    .global L_mcc_st_make_chain
    .seh_proc L_mcc_st_make_chain
L_mcc_st_make_chain:
    pushq %rbp
    .seh_pushreg %rbp
    movq %rsp, %rbp
    .seh_setframe %rbp, 0
    subq $1024, %rsp
    .seh_stackalloc 1024
    .seh_endprologue
    movq %rcx, -8(%rbp)
    movq %rdx, -16(%rbp)
    movzbq -16(%rbp), %rax
    pushq %rax
    leaq L_MCC_WIT_PAYLOAD(%rip), %rax
    pushq %rax
    popq %rax
    pushq %rax
    popq %rcx
    popq %rdx
    subq $32, %rsp
    callq L_mcc_st_fill
    addq $32, %rsp
    movslq %eax, %rax
    pushq %rax
    popq %rax
    leaq L_MCC_SCR_PRODUCER(%rip), %rax
    pushq %rax
    popq %rax
    pushq %rax
    popq %rax
    pushq %rax
    popq %rax
    movq %rax, -24(%rbp)
    movq -24(%rbp), %rax
    pushq %rax
    popq %rcx
    subq $32, %rsp
    callq ident_zero
    addq $32, %rsp
    movslq %eax, %rax
    pushq %rax
    popq %rax
    movq -8(%rbp), %rax
    pushq %rax
    popq %rax
    pushq %rax
    movabsq $0x48, %rax
    pushq %rax
    leaq L_MCC_WIT_PAYLOAD(%rip), %rax
    pushq %rax
    popq %rax
    pushq %rax
    popq %rax
    pushq %rax
    movabsq $0x0, %rax
    pushq %rax
    movq -24(%rbp), %rax
    pushq %rax
    movabsq $0x1, %rax
    pushq %rax
    movabsq $0x0, %rax
    pushq %rax
    movabsq $0x0, %rax
    pushq %rax
    movq -24(%rbp), %rax
    pushq %rax
    movq -24(%rbp), %rax
    pushq %rax
    movq -24(%rbp), %rax
    pushq %rax
    movq -24(%rbp), %rax
    pushq %rax
    popq %rcx
    popq %rdx
    popq %r8
    popq %r9
    subq $32, %rsp
    callq wh_publish
    addq $32, %rsp
    addq $64, %rsp
    pushq %rax
    popq %rax
    movq %rax, -32(%rbp)
    movq -32(%rbp), %rax
    pushq %rax
    movq L_MCC_U64_SENT(%rip), %rax
    pushq %rax
    popq %rcx
    popq %rax
    cmpq %rcx, %rax
    sete %al
    movzbq %al, %rax
    pushq %rax
    popq %rax
    testq %rax, %rax
    jz L_if_end_45
    movslq L_MCC_E_LATTICE(%rip), %rax
    pushq %rax
    popq %rax
    movq %rbp, %rsp
    popq %rbp
    retq
    movq $0, %rax
    pushq %rax
    popq %rax
L_if_end_45:
    movq -32(%rbp), %rax
    pushq %rax
    popq %rcx
    subq $32, %rsp
    callq ws_register
    addq $32, %rsp
    movslq %eax, %rax
    pushq %rax
    popq %rax
    movslq L_MCC_OK(%rip), %rax
    pushq %rax
    popq %rax
    movq %rbp, %rsp
    popq %rbp
    retq
    movq $0, %rax
    pushq %rax
    movq $0, %rax
    movq %rbp, %rsp
    popq %rbp
    retq
    .seh_endproc
    .section .iii.ring3,"n"
    .asciz "mcc_st_setup"
    .text
    .global L_mcc_st_setup
    .seh_proc L_mcc_st_setup
L_mcc_st_setup:
    pushq %rbp
    .seh_pushreg %rbp
    movq %rsp, %rbp
    .seh_setframe %rbp, 0
    subq $1024, %rsp
    .seh_stackalloc 1024
    .seh_endprologue
    movabsq $0x0, %rax
    pushq %rax
    popq %rcx
    subq $32, %rsp
    callq wh_init
    addq $32, %rsp
    movslq %eax, %rax
    pushq %rax
    popq %rax
    subq $32, %rsp
    callq ws_init
    addq $32, %rsp
    movslq %eax, %rax
    pushq %rax
    popq %rax
    subq $32, %rsp
    callq ml_init
    addq $32, %rsp
    movslq %eax, %rax
    pushq %rax
    popq %rax
    subq $32, %rsp
    callq cap_env_init
    addq $32, %rsp
    pushq %rax
    popq %rax
    subq $32, %rsp
    callq L_mcc_st_ratify
    addq $32, %rsp
    movslq %eax, %rax
    pushq %rax
    movslq L_MCC_OK(%rip), %rax
    pushq %rax
    popq %rcx
    popq %rax
    cmpq %rcx, %rax
    setne %al
    movzbq %al, %rax
    pushq %rax
    popq %rax
    testq %rax, %rax
    jz L_if_end_47
    movabsq $0x1, %rax
    pushq %rax
    popq %rax
    movq %rbp, %rsp
    popq %rbp
    retq
    movq $0, %rax
    pushq %rax
    popq %rax
L_if_end_47:
    movabsq $0xc0, %rax
    pushq %rax
    leaq L_MCC_CH0(%rip), %rax
    pushq %rax
    popq %rax
    pushq %rax
    popq %rcx
    popq %rdx
    subq $32, %rsp
    callq L_mcc_st_make_chain
    addq $32, %rsp
    movslq %eax, %rax
    pushq %rax
    movslq L_MCC_OK(%rip), %rax
    pushq %rax
    popq %rcx
    popq %rax
    cmpq %rcx, %rax
    setne %al
    movzbq %al, %rax
    pushq %rax
    popq %rax
    testq %rax, %rax
    jz L_if_end_49
    movabsq $0x2, %rax
    pushq %rax
    popq %rax
    movq %rbp, %rsp
    popq %rbp
    retq
    movq $0, %rax
    pushq %rax
    popq %rax
L_if_end_49:
    movabsq $0xc1, %rax
    pushq %rax
    leaq L_MCC_CH1(%rip), %rax
    pushq %rax
    popq %rax
    pushq %rax
    popq %rcx
    popq %rdx
    subq $32, %rsp
    callq L_mcc_st_make_chain
    addq $32, %rsp
    movslq %eax, %rax
    pushq %rax
    movslq L_MCC_OK(%rip), %rax
    pushq %rax
    popq %rcx
    popq %rax
    cmpq %rcx, %rax
    setne %al
    movzbq %al, %rax
    pushq %rax
    popq %rax
    testq %rax, %rax
    jz L_if_end_51
    movabsq $0x3, %rax
    pushq %rax
    popq %rax
    movq %rbp, %rsp
    popq %rbp
    retq
    movq $0, %rax
    pushq %rax
    popq %rax
L_if_end_51:
    movabsq $0xc2, %rax
    pushq %rax
    leaq L_MCC_CH2(%rip), %rax
    pushq %rax
    popq %rax
    pushq %rax
    popq %rcx
    popq %rdx
    subq $32, %rsp
    callq L_mcc_st_make_chain
    addq $32, %rsp
    movslq %eax, %rax
    pushq %rax
    movslq L_MCC_OK(%rip), %rax
    pushq %rax
    popq %rcx
    popq %rax
    cmpq %rcx, %rax
    setne %al
    movzbq %al, %rax
    pushq %rax
    popq %rax
    testq %rax, %rax
    jz L_if_end_53
    movabsq $0x4, %rax
    pushq %rax
    popq %rax
    movq %rbp, %rsp
    popq %rbp
    retq
    movq $0, %rax
    pushq %rax
    popq %rax
L_if_end_53:
    movabsq $0x99, %rax
    pushq %rax
    leaq L_MCC_CH9(%rip), %rax
    pushq %rax
    popq %rax
    pushq %rax
    popq %rcx
    popq %rdx
    subq $32, %rsp
    callq L_mcc_st_fill
    addq $32, %rsp
    movslq %eax, %rax
    pushq %rax
    popq %rax
    movabsq $0xa1, %rax
    pushq %rax
    leaq L_MCC_KA(%rip), %rax
    pushq %rax
    popq %rax
    pushq %rax
    popq %rcx
    popq %rdx
    subq $32, %rsp
    callq L_mcc_st_fill
    addq $32, %rsp
    movslq %eax, %rax
    pushq %rax
    popq %rax
    movabsq $0xb1, %rax
    pushq %rax
    leaq L_MCC_KB(%rip), %rax
    pushq %rax
    popq %rax
    pushq %rax
    popq %rcx
    popq %rdx
    subq $32, %rsp
    callq L_mcc_st_fill
    addq $32, %rsp
    movslq %eax, %rax
    pushq %rax
    popq %rax
    movabsq $0xc3, %rax
    pushq %rax
    leaq L_MCC_KC(%rip), %rax
    pushq %rax
    popq %rax
    pushq %rax
    popq %rcx
    popq %rdx
    subq $32, %rsp
    callq L_mcc_st_fill
    addq $32, %rsp
    movslq %eax, %rax
    pushq %rax
    popq %rax
    movabsq $0xd1, %rax
    pushq %rax
    leaq L_MCC_KD(%rip), %rax
    pushq %rax
    popq %rax
    pushq %rax
    popq %rcx
    popq %rdx
    subq $32, %rsp
    callq L_mcc_st_fill
    addq $32, %rsp
    movslq %eax, %rax
    pushq %rax
    popq %rax
    movabsq $0x66, %rax
    pushq %rax
    leaq L_MCC_CA(%rip), %rax
    pushq %rax
    popq %rax
    pushq %rax
    popq %rcx
    popq %rdx
    subq $32, %rsp
    callq L_mcc_st_fill
    addq $32, %rsp
    movslq %eax, %rax
    pushq %rax
    popq %rax
    leaq L_MCC_CH0(%rip), %rax
    pushq %rax
    popq %rax
    pushq %rax
    popq %rax
    pushq %rax
    leaq L_MCC_CA(%rip), %rax
    pushq %rax
    popq %rax
    pushq %rax
    popq %rax
    pushq %rax
    leaq L_MCC_KA(%rip), %rax
    pushq %rax
    popq %rax
    pushq %rax
    popq %rax
    pushq %rax
    popq %rcx
    popq %rdx
    popq %r8
    subq $32, %rsp
    callq ml_admit
    addq $32, %rsp
    movslq %eax, %rax
    pushq %rax
    movslq L_MCC_ML_OK(%rip), %rax
    pushq %rax
    popq %rcx
    popq %rax
    cmpq %rcx, %rax
    setne %al
    movzbq %al, %rax
    pushq %rax
    popq %rax
    testq %rax, %rax
    jz L_if_end_55
    movabsq $0x5, %rax
    pushq %rax
    popq %rax
    movq %rbp, %rsp
    popq %rbp
    retq
    movq $0, %rax
    pushq %rax
    popq %rax
L_if_end_55:
    leaq L_MCC_CH0(%rip), %rax
    pushq %rax
    popq %rax
    pushq %rax
    popq %rax
    pushq %rax
    leaq L_MCC_CA(%rip), %rax
    pushq %rax
    popq %rax
    pushq %rax
    popq %rax
    pushq %rax
    leaq L_MCC_KB(%rip), %rax
    pushq %rax
    popq %rax
    pushq %rax
    popq %rax
    pushq %rax
    popq %rcx
    popq %rdx
    popq %r8
    subq $32, %rsp
    callq ml_admit
    addq $32, %rsp
    movslq %eax, %rax
    pushq %rax
    movslq L_MCC_ML_OK(%rip), %rax
    pushq %rax
    popq %rcx
    popq %rax
    cmpq %rcx, %rax
    setne %al
    movzbq %al, %rax
    pushq %rax
    popq %rax
    testq %rax, %rax
    jz L_if_end_57
    movabsq $0x6, %rax
    pushq %rax
    popq %rax
    movq %rbp, %rsp
    popq %rbp
    retq
    movq $0, %rax
    pushq %rax
    popq %rax
L_if_end_57:
    leaq L_MCC_CH1(%rip), %rax
    pushq %rax
    popq %rax
    pushq %rax
    popq %rax
    pushq %rax
    leaq L_MCC_CA(%rip), %rax
    pushq %rax
    popq %rax
    pushq %rax
    popq %rax
    pushq %rax
    leaq L_MCC_KC(%rip), %rax
    pushq %rax
    popq %rax
    pushq %rax
    popq %rax
    pushq %rax
    popq %rcx
    popq %rdx
    popq %r8
    subq $32, %rsp
    callq ml_admit
    addq $32, %rsp
    movslq %eax, %rax
    pushq %rax
    movslq L_MCC_ML_OK(%rip), %rax
    pushq %rax
    popq %rcx
    popq %rax
    cmpq %rcx, %rax
    setne %al
    movzbq %al, %rax
    pushq %rax
    popq %rax
    testq %rax, %rax
    jz L_if_end_59
    movabsq $0x7, %rax
    pushq %rax
    popq %rax
    movq %rbp, %rsp
    popq %rbp
    retq
    movq $0, %rax
    pushq %rax
    popq %rax
L_if_end_59:
    leaq L_MCC_CH2(%rip), %rax
    pushq %rax
    popq %rax
    pushq %rax
    popq %rax
    pushq %rax
    leaq L_MCC_CA(%rip), %rax
    pushq %rax
    popq %rax
    pushq %rax
    popq %rax
    pushq %rax
    leaq L_MCC_KD(%rip), %rax
    pushq %rax
    popq %rax
    pushq %rax
    popq %rax
    pushq %rax
    popq %rcx
    popq %rdx
    popq %r8
    subq $32, %rsp
    callq ml_admit
    addq $32, %rsp
    movslq %eax, %rax
    pushq %rax
    movslq L_MCC_ML_OK(%rip), %rax
    pushq %rax
    popq %rcx
    popq %rax
    cmpq %rcx, %rax
    setne %al
    movzbq %al, %rax
    pushq %rax
    popq %rax
    testq %rax, %rax
    jz L_if_end_61
    movabsq $0x8, %rax
    pushq %rax
    popq %rax
    movq %rbp, %rsp
    popq %rbp
    retq
    movq $0, %rax
    pushq %rax
    popq %rax
L_if_end_61:
    movslq L_MCC_OK(%rip), %rax
    pushq %rax
    popq %rax
    movq %rbp, %rsp
    popq %rbp
    retq
    movq $0, %rax
    pushq %rax
    movq $0, %rax
    movq %rbp, %rsp
    popq %rbp
    retq
    .seh_endproc
    .section .iii.ring3,"n"
    .asciz "mcc_st_lookup"
    .text
    .global L_mcc_st_lookup
    .seh_proc L_mcc_st_lookup
L_mcc_st_lookup:
    pushq %rbp
    .seh_pushreg %rbp
    movq %rsp, %rbp
    .seh_setframe %rbp, 0
    subq $1024, %rsp
    .seh_stackalloc 1024
    .seh_endprologue
    movq %rcx, -8(%rbp)
    leaq L_MCC_LK_KM(%rip), %rax
    pushq %rax
    popq %rax
    pushq %rax
    popq %rax
    pushq %rax
    leaq L_MCC_LK_CH(%rip), %rax
    pushq %rax
    popq %rax
    pushq %rax
    popq %rax
    pushq %rax
    leaq L_MCC_LK_OC(%rip), %rax
    pushq %rax
    popq %rax
    pushq %rax
    popq %rax
    pushq %rax
    movq -8(%rbp), %rax
    pushq %rax
    popq %rax
    pushq %rax
    popq %rcx
    popq %rdx
    popq %r8
    popq %r9
    subq $32, %rsp
    callq ml_lookup
    addq $32, %rsp
    movslq %eax, %rax
    pushq %rax
    popq %rax
    movq %rbp, %rsp
    popq %rbp
    retq
    movq $0, %rax
    pushq %rax
    movq $0, %rax
    movq %rbp, %rsp
    popq %rbp
    retq
    .seh_endproc
    .section .iii.ring3,"n"
    .asciz "mcc_selftest"
    .text
    .global mcc_selftest
    .seh_proc mcc_selftest
mcc_selftest:
    pushq %rbp
    .seh_pushreg %rbp
    movq %rsp, %rbp
    .seh_setframe %rbp, 0
    subq $1024, %rsp
    .seh_stackalloc 1024
    .seh_endprologue
    movabsq $0x0, %rax
    pushq %rax
    popq %rax
    movb %al, L_MCC_INITED(%rip)
    subq $32, %rsp
    callq L_mcc_st_setup
    addq $32, %rsp
    movslq %eax, %rax
    pushq %rax
    popq %rax
    movq %rax, -8(%rbp)
    movslq -8(%rbp), %rax
    pushq %rax
    movslq L_MCC_OK(%rip), %rax
    pushq %rax
    popq %rcx
    popq %rax
    cmpq %rcx, %rax
    setne %al
    movzbq %al, %rax
    pushq %rax
    popq %rax
    testq %rax, %rax
    jz L_if_end_63
    movslq -8(%rbp), %rax
    pushq %rax
    popq %rax
    pushq %rax
    popq %rax
    movq %rbp, %rsp
    popq %rbp
    retq
    movq $0, %rax
    pushq %rax
    popq %rax
L_if_end_63:
    movabsq $0x1, %rax
    pushq %rax
    popq %rax
    movq %rax, -16(%rbp)
    movabsq $0x0, %rax
    pushq %rax
    movabsq $0x800, %rax
    pushq %rax
    movabsq $0x1, %rax
    pushq %rax
    popq %rcx
    popq %rdx
    popq %r8
    subq $32, %rsp
    callq cap_attenuate
    addq $32, %rsp
    pushq %rax
    popq %rax
    movq %rax, -24(%rbp)
    movq -24(%rbp), %rax
    pushq %rax
    movabsq $0x0, %rax
    pushq %rax
    popq %rcx
    popq %rax
    cmpq %rcx, %rax
    sete %al
    movzbq %al, %rax
    pushq %rax
    popq %rax
    testq %rax, %rax
    jz L_if_end_65
    movabsq $0x9, %rax
    pushq %rax
    popq %rax
    movq %rbp, %rsp
    popq %rbp
    retq
    movq $0, %rax
    pushq %rax
    popq %rax
L_if_end_65:
    movq -16(%rbp), %rax
    pushq %rax
    leaq L_MCC_CH0(%rip), %rax
    pushq %rax
    popq %rax
    pushq %rax
    popq %rax
    pushq %rax
    popq %rcx
    popq %rdx
    subq $32, %rsp
    callq mcc_on_compaction
    addq $32, %rsp
    movslq %eax, %rax
    pushq %rax
    movslq L_MCC_E_NOT_INITED(%rip), %rax
    pushq %rax
    popq %rcx
    popq %rax
    cmpq %rcx, %rax
    setne %al
    movzbq %al, %rax
    pushq %rax
    popq %rax
    testq %rax, %rax
    jz L_if_end_67
    movabsq $0xa, %rax
    pushq %rax
    popq %rax
    movq %rbp, %rsp
    popq %rbp
    retq
    movq $0, %rax
    pushq %rax
    popq %rax
L_if_end_67:
    subq $32, %rsp
    callq mcc_init
    addq $32, %rsp
    movslq %eax, %rax
    pushq %rax
    popq %rax
    movabsq $0x0, %rax
    pushq %rax
    popq %rax
    pushq %rax
    popq %rax
    movq %rax, -32(%rbp)
    movq -16(%rbp), %rax
    pushq %rax
    movq -32(%rbp), %rax
    pushq %rax
    popq %rcx
    popq %rdx
    subq $32, %rsp
    callq mcc_on_compaction
    addq $32, %rsp
    movslq %eax, %rax
    pushq %rax
    movslq L_MCC_E_NULL(%rip), %rax
    pushq %rax
    popq %rcx
    popq %rax
    cmpq %rcx, %rax
    setne %al
    movzbq %al, %rax
    pushq %rax
    popq %rax
    testq %rax, %rax
    jz L_if_end_69
    movabsq $0xb, %rax
    pushq %rax
    popq %rax
    movq %rbp, %rsp
    popq %rbp
    retq
    movq $0, %rax
    pushq %rax
    popq %rax
L_if_end_69:
    movq -24(%rbp), %rax
    pushq %rax
    leaq L_MCC_CH2(%rip), %rax
    pushq %rax
    popq %rax
    pushq %rax
    popq %rax
    pushq %rax
    popq %rcx
    popq %rdx
    subq $32, %rsp
    callq mcc_on_compaction
    addq $32, %rsp
    movslq %eax, %rax
    pushq %rax
    movslq L_MCC_E_DENIED(%rip), %rax
    pushq %rax
    popq %rcx
    popq %rax
    cmpq %rcx, %rax
    setne %al
    movzbq %al, %rax
    pushq %rax
    popq %rax
    testq %rax, %rax
    jz L_if_end_71
    movabsq $0xc, %rax
    pushq %rax
    popq %rax
    movq %rbp, %rsp
    popq %rbp
    retq
    movq $0, %rax
    pushq %rax
    popq %rax
L_if_end_71:
    subq $32, %rsp
    callq mcc_last_marked_count
    addq $32, %rsp
    pushq %rax
    movabsq $0x0, %rax
    pushq %rax
    popq %rcx
    popq %rax
    cmpq %rcx, %rax
    setne %al
    movzbq %al, %rax
    pushq %rax
    popq %rax
    testq %rax, %rax
    jz L_if_end_73
    movabsq $0xd, %rax
    pushq %rax
    popq %rax
    movq %rbp, %rsp
    popq %rbp
    retq
    movq $0, %rax
    pushq %rax
    popq %rax
L_if_end_73:
    leaq L_MCC_KD(%rip), %rax
    pushq %rax
    popq %rax
    pushq %rax
    popq %rcx
    subq $32, %rsp
    callq L_mcc_st_lookup
    addq $32, %rsp
    movslq %eax, %rax
    pushq %rax
    movslq L_MCC_ML_OK(%rip), %rax
    pushq %rax
    popq %rcx
    popq %rax
    cmpq %rcx, %rax
    setne %al
    movzbq %al, %rax
    pushq %rax
    popq %rax
    testq %rax, %rax
    jz L_if_end_75
    movabsq $0xe, %rax
    pushq %rax
    popq %rax
    movq %rbp, %rsp
    popq %rbp
    retq
    movq $0, %rax
    pushq %rax
    popq %rax
L_if_end_75:
    movq -16(%rbp), %rax
    pushq %rax
    leaq L_MCC_CH0(%rip), %rax
    pushq %rax
    popq %rax
    pushq %rax
    popq %rax
    pushq %rax
    popq %rcx
    popq %rdx
    subq $32, %rsp
    callq mcc_on_compaction
    addq $32, %rsp
    movslq %eax, %rax
    pushq %rax
    movslq L_MCC_OK(%rip), %rax
    pushq %rax
    popq %rcx
    popq %rax
    cmpq %rcx, %rax
    setne %al
    movzbq %al, %rax
    pushq %rax
    popq %rax
    testq %rax, %rax
    jz L_if_end_77
    movabsq $0xf, %rax
    pushq %rax
    popq %rax
    movq %rbp, %rsp
    popq %rbp
    retq
    movq $0, %rax
    pushq %rax
    popq %rax
L_if_end_77:
    subq $32, %rsp
    callq mcc_last_marked_count
    addq $32, %rsp
    pushq %rax
    movabsq $0x2, %rax
    pushq %rax
    popq %rcx
    popq %rax
    cmpq %rcx, %rax
    setne %al
    movzbq %al, %rax
    pushq %rax
    popq %rax
    testq %rax, %rax
    jz L_if_end_79
    movabsq $0x10, %rax
    pushq %rax
    popq %rax
    movq %rbp, %rsp
    popq %rbp
    retq
    movq $0, %rax
    pushq %rax
    popq %rax
L_if_end_79:
    leaq L_MCC_KA(%rip), %rax
    pushq %rax
    popq %rax
    pushq %rax
    popq %rcx
    subq $32, %rsp
    callq L_mcc_st_lookup
    addq $32, %rsp
    movslq %eax, %rax
    pushq %rax
    movslq L_MCC_ML_STALE(%rip), %rax
    pushq %rax
    popq %rcx
    popq %rax
    cmpq %rcx, %rax
    setne %al
    movzbq %al, %rax
    pushq %rax
    popq %rax
    testq %rax, %rax
    jz L_if_end_81
    movabsq $0x11, %rax
    pushq %rax
    popq %rax
    movq %rbp, %rsp
    popq %rbp
    retq
    movq $0, %rax
    pushq %rax
    popq %rax
L_if_end_81:
    leaq L_MCC_KB(%rip), %rax
    pushq %rax
    popq %rax
    pushq %rax
    popq %rcx
    subq $32, %rsp
    callq L_mcc_st_lookup
    addq $32, %rsp
    movslq %eax, %rax
    pushq %rax
    movslq L_MCC_ML_STALE(%rip), %rax
    pushq %rax
    popq %rcx
    popq %rax
    cmpq %rcx, %rax
    setne %al
    movzbq %al, %rax
    pushq %rax
    popq %rax
    testq %rax, %rax
    jz L_if_end_83
    movabsq $0x12, %rax
    pushq %rax
    popq %rax
    movq %rbp, %rsp
    popq %rbp
    retq
    movq $0, %rax
    pushq %rax
    popq %rax
L_if_end_83:
    leaq L_MCC_KC(%rip), %rax
    pushq %rax
    popq %rax
    pushq %rax
    popq %rcx
    subq $32, %rsp
    callq L_mcc_st_lookup
    addq $32, %rsp
    movslq %eax, %rax
    pushq %rax
    movslq L_MCC_ML_OK(%rip), %rax
    pushq %rax
    popq %rcx
    popq %rax
    cmpq %rcx, %rax
    setne %al
    movzbq %al, %rax
    pushq %rax
    popq %rax
    testq %rax, %rax
    jz L_if_end_85
    movabsq $0x13, %rax
    pushq %rax
    popq %rax
    movq %rbp, %rsp
    popq %rbp
    retq
    movq $0, %rax
    pushq %rax
    popq %rax
L_if_end_85:
    movq -16(%rbp), %rax
    pushq %rax
    leaq L_MCC_CH9(%rip), %rax
    pushq %rax
    popq %rax
    pushq %rax
    popq %rax
    pushq %rax
    popq %rcx
    popq %rdx
    subq $32, %rsp
    callq mcc_on_compaction
    addq $32, %rsp
    movslq %eax, %rax
    pushq %rax
    movslq L_MCC_OK(%rip), %rax
    pushq %rax
    popq %rcx
    popq %rax
    cmpq %rcx, %rax
    setne %al
    movzbq %al, %rax
    pushq %rax
    popq %rax
    testq %rax, %rax
    jz L_if_end_87
    movabsq $0x14, %rax
    pushq %rax
    popq %rax
    movq %rbp, %rsp
    popq %rbp
    retq
    movq $0, %rax
    pushq %rax
    popq %rax
L_if_end_87:
    subq $32, %rsp
    callq mcc_last_marked_count
    addq $32, %rsp
    pushq %rax
    movabsq $0x0, %rax
    pushq %rax
    popq %rcx
    popq %rax
    cmpq %rcx, %rax
    setne %al
    movzbq %al, %rax
    pushq %rax
    popq %rax
    testq %rax, %rax
    jz L_if_end_89
    movabsq $0x15, %rax
    pushq %rax
    popq %rax
    movq %rbp, %rsp
    popq %rbp
    retq
    movq $0, %rax
    pushq %rax
    popq %rax
L_if_end_89:
    movq -16(%rbp), %rax
    pushq %rax
    leaq L_MCC_CH0(%rip), %rax
    pushq %rax
    popq %rax
    pushq %rax
    popq %rax
    pushq %rax
    popq %rcx
    popq %rdx
    subq $32, %rsp
    callq mcc_on_compaction
    addq $32, %rsp
    movslq %eax, %rax
    pushq %rax
    movslq L_MCC_OK(%rip), %rax
    pushq %rax
    popq %rcx
    popq %rax
    cmpq %rcx, %rax
    setne %al
    movzbq %al, %rax
    pushq %rax
    popq %rax
    testq %rax, %rax
    jz L_if_end_91
    movabsq $0x16, %rax
    pushq %rax
    popq %rax
    movq %rbp, %rsp
    popq %rbp
    retq
    movq $0, %rax
    pushq %rax
    popq %rax
L_if_end_91:
    subq $32, %rsp
    callq mcc_last_marked_count
    addq $32, %rsp
    pushq %rax
    movabsq $0x2, %rax
    pushq %rax
    popq %rcx
    popq %rax
    cmpq %rcx, %rax
    setne %al
    movzbq %al, %rax
    pushq %rax
    popq %rax
    testq %rax, %rax
    jz L_if_end_93
    movabsq $0x17, %rax
    pushq %rax
    popq %rax
    movq %rbp, %rsp
    popq %rbp
    retq
    movq $0, %rax
    pushq %rax
    popq %rax
L_if_end_93:
    leaq L_MCC_KA(%rip), %rax
    pushq %rax
    popq %rax
    pushq %rax
    popq %rcx
    subq $32, %rsp
    callq L_mcc_st_lookup
    addq $32, %rsp
    movslq %eax, %rax
    pushq %rax
    movslq L_MCC_ML_STALE(%rip), %rax
    pushq %rax
    popq %rcx
    popq %rax
    cmpq %rcx, %rax
    setne %al
    movzbq %al, %rax
    pushq %rax
    popq %rax
    testq %rax, %rax
    jz L_if_end_95
    movabsq $0x18, %rax
    pushq %rax
    popq %rax
    movq %rbp, %rsp
    popq %rbp
    retq
    movq $0, %rax
    pushq %rax
    popq %rax
L_if_end_95:
    movabsq $0x63, %rax
    pushq %rax
    popq %rax
    movq %rbp, %rsp
    popq %rbp
    retq
    movq $0, %rax
    pushq %rax
    movq $0, %rax
    movq %rbp, %rsp
    popq %rbp
    retq
    .seh_endproc
