# III Stage-0 Ring-3 codegen output
# Microsoft x64 ABI; gas syntax (AT&T); PE/COFF target
    .att_syntax
    .file 1 "<iii-source>"
    .section .rodata
L_str_0:
    .ascii "quine6.iii\0"
L_str_1:
    .ascii "quine6.iii\0"
    .section .bss
    .global L_BFP_RESULTS
L_BFP_RESULTS:
    .zero 96
    .section .iii.ring3,"n"
    .asciz "bfp_fill"
    .text
    .seh_proc L_bfp_fill
L_bfp_fill:
    pushq %rbp
    .seh_pushreg %rbp
    movq %rsp, %rbp
    .seh_setframe %rbp, 0
    subq $1024, %rsp
    .seh_stackalloc 1024
    .seh_endprologue
    movabsq $0xa5a5a5a5, %rax
    pushq %rax
    popq %rax
    movq %rax, -8(%rbp)
    movabsq $0x3c3c3c3c, %rax
    pushq %rax
    popq %rax
    movq %rax, -16(%rbp)
    leaq L_BFP_RESULTS(%rip), %rax
    pushq %rax
    popq %rax
    pushq %rax
    popq %rax
    pushq %rax
    popq %rax
    movq %rax, -24(%rbp)
    movq -24(%rbp), %rax
    pushq %rax
    movabsq $0x0, %rax
    pushq %rax
    movl -8(%rbp), %eax
    pushq %rax
    movl -16(%rbp), %eax
    pushq %rax
    popq %rcx
    popq %rax
    andq %rcx, %rax
    pushq %rax
    movabsq $0x6, %rax
    pushq %rax
    popq %rcx
    popq %rax
    xorl %edx, %edx
    divq %rcx
    movq %rdx, %rax
    pushq %rax
    popq %rax
    movzbq %al, %rax
    pushq %rax
    popq %rdx
    popq %rcx
    popq %rax
    movb %dl, (%rax,%rcx,1)
    movq -24(%rbp), %rax
    pushq %rax
    movabsq $0x1, %rax
    pushq %rax
    movl -8(%rbp), %eax
    pushq %rax
    movl -16(%rbp), %eax
    pushq %rax
    popq %rcx
    popq %rax
    orq %rcx, %rax
    pushq %rax
    movabsq $0x6, %rax
    pushq %rax
    popq %rcx
    popq %rax
    xorl %edx, %edx
    divq %rcx
    movq %rdx, %rax
    pushq %rax
    popq %rax
    movzbq %al, %rax
    pushq %rax
    popq %rdx
    popq %rcx
    popq %rax
    movb %dl, (%rax,%rcx,1)
    movq -24(%rbp), %rax
    pushq %rax
    movabsq $0x2, %rax
    pushq %rax
    movl -8(%rbp), %eax
    pushq %rax
    movl -16(%rbp), %eax
    pushq %rax
    popq %rcx
    popq %rax
    xorq %rcx, %rax
    pushq %rax
    movabsq $0x6, %rax
    pushq %rax
    popq %rcx
    popq %rax
    xorl %edx, %edx
    divq %rcx
    movq %rdx, %rax
    pushq %rax
    popq %rax
    movzbq %al, %rax
    pushq %rax
    popq %rdx
    popq %rcx
    popq %rax
    movb %dl, (%rax,%rcx,1)
    movq -24(%rbp), %rax
    pushq %rax
    movabsq $0x3, %rax
    pushq %rax
    movl -8(%rbp), %eax
    pushq %rax
    movl -16(%rbp), %eax
    pushq %rax
    popq %rcx
    popq %rax
    addq %rcx, %rax
    movl %eax, %eax
    pushq %rax
    movabsq $0x6, %rax
    pushq %rax
    popq %rcx
    popq %rax
    xorl %edx, %edx
    divq %rcx
    movq %rdx, %rax
    pushq %rax
    popq %rax
    movzbq %al, %rax
    pushq %rax
    popq %rdx
    popq %rcx
    popq %rax
    movb %dl, (%rax,%rcx,1)
    movq -24(%rbp), %rax
    pushq %rax
    movabsq $0x4, %rax
    pushq %rax
    movl -8(%rbp), %eax
    pushq %rax
    movabsq $0x3, %rax
    pushq %rax
    popq %rcx
    popq %rax
    imulq %rcx, %rax
    movl %eax, %eax
    pushq %rax
    movabsq $0x6, %rax
    pushq %rax
    popq %rcx
    popq %rax
    xorl %edx, %edx
    divq %rcx
    movq %rdx, %rax
    pushq %rax
    popq %rax
    movzbq %al, %rax
    pushq %rax
    popq %rdx
    popq %rcx
    popq %rax
    movb %dl, (%rax,%rcx,1)
    movq -24(%rbp), %rax
    pushq %rax
    movabsq $0x5, %rax
    pushq %rax
    movl -8(%rbp), %eax
    pushq %rax
    popq %rax
    shrq $5, %rax
    pushq %rax
    movabsq $0x6, %rax
    pushq %rax
    popq %rcx
    popq %rax
    xorl %edx, %edx
    divq %rcx
    movq %rdx, %rax
    pushq %rax
    popq %rax
    movzbq %al, %rax
    pushq %rax
    popq %rdx
    popq %rcx
    popq %rax
    movb %dl, (%rax,%rcx,1)
    movq -24(%rbp), %rax
    pushq %rax
    movabsq $0x6, %rax
    pushq %rax
    movl -8(%rbp), %eax
    pushq %rax
    popq %rax
    notq %rax
    pushq %rax
    movl -16(%rbp), %eax
    pushq %rax
    popq %rcx
    popq %rax
    andq %rcx, %rax
    pushq %rax
    movabsq $0x6, %rax
    pushq %rax
    popq %rcx
    popq %rax
    xorl %edx, %edx
    divq %rcx
    movq %rdx, %rax
    pushq %rax
    popq %rax
    movzbq %al, %rax
    pushq %rax
    popq %rdx
    popq %rcx
    popq %rax
    movb %dl, (%rax,%rcx,1)
    movq -24(%rbp), %rax
    pushq %rax
    movabsq $0x7, %rax
    pushq %rax
    movl -16(%rbp), %eax
    pushq %rax
    movl -16(%rbp), %eax
    pushq %rax
    popq %rcx
    popq %rax
    imulq %rcx, %rax
    movl %eax, %eax
    pushq %rax
    movabsq $0x6, %rax
    pushq %rax
    popq %rcx
    popq %rax
    xorl %edx, %edx
    divq %rcx
    movq %rdx, %rax
    pushq %rax
    popq %rax
    movzbq %al, %rax
    pushq %rax
    popq %rdx
    popq %rcx
    popq %rax
    movb %dl, (%rax,%rcx,1)
    movq -24(%rbp), %rax
    pushq %rax
    movabsq $0x8, %rax
    pushq %rax
    movl -8(%rbp), %eax
    pushq %rax
    popq %rax
    shlq $3, %rax
    movl %eax, %eax
    pushq %rax
    movabsq $0x6, %rax
    pushq %rax
    popq %rcx
    popq %rax
    xorl %edx, %edx
    divq %rcx
    movq %rdx, %rax
    pushq %rax
    popq %rax
    movzbq %al, %rax
    pushq %rax
    popq %rdx
    popq %rcx
    popq %rax
    movb %dl, (%rax,%rcx,1)
    movq -24(%rbp), %rax
    pushq %rax
    movabsq $0x9, %rax
    pushq %rax
    movl -8(%rbp), %eax
    pushq %rax
    movl -16(%rbp), %eax
    pushq %rax
    popq %rcx
    popq %rax
    subq %rcx, %rax
    movl %eax, %eax
    pushq %rax
    movabsq $0x6, %rax
    pushq %rax
    popq %rcx
    popq %rax
    xorl %edx, %edx
    divq %rcx
    movq %rdx, %rax
    pushq %rax
    popq %rax
    movzbq %al, %rax
    pushq %rax
    popq %rdx
    popq %rcx
    popq %rax
    movb %dl, (%rax,%rcx,1)
    movq -24(%rbp), %rax
    pushq %rax
    movabsq $0xa, %rax
    pushq %rax
    movl -8(%rbp), %eax
    pushq %rax
    movl -16(%rbp), %eax
    pushq %rax
    movabsq $0x1, %rax
    pushq %rax
    popq %rcx
    popq %rax
    addq %rcx, %rax
    movl %eax, %eax
    pushq %rax
    popq %rcx
    popq %rax
    xorq %rcx, %rax
    pushq %rax
    movabsq $0x6, %rax
    pushq %rax
    popq %rcx
    popq %rax
    xorl %edx, %edx
    divq %rcx
    movq %rdx, %rax
    pushq %rax
    popq %rax
    movzbq %al, %rax
    pushq %rax
    popq %rdx
    popq %rcx
    popq %rax
    movb %dl, (%rax,%rcx,1)
    movq -24(%rbp), %rax
    pushq %rax
    movabsq $0xb, %rax
    pushq %rax
    movl -8(%rbp), %eax
    pushq %rax
    movabsq $0xff, %rax
    pushq %rax
    popq %rcx
    popq %rax
    andq %rcx, %rax
    pushq %rax
    movl -16(%rbp), %eax
    pushq %rax
    movabsq $0xff, %rax
    pushq %rax
    popq %rcx
    popq %rax
    andq %rcx, %rax
    pushq %rax
    popq %rcx
    popq %rax
    imulq %rcx, %rax
    movl %eax, %eax
    pushq %rax
    movabsq $0x6, %rax
    pushq %rax
    popq %rcx
    popq %rax
    xorl %edx, %edx
    divq %rcx
    movq %rdx, %rax
    pushq %rax
    popq %rax
    movzbq %al, %rax
    pushq %rax
    popq %rdx
    popq %rcx
    popq %rax
    movb %dl, (%rax,%rcx,1)
    movabsq $0x0, %rax
    pushq %rax
    popq %rax
    movq %rbp, %rsp
    popq %rbp
    retq
    movq $0, %rax
    pushq %rax
    movq $0, %rax
    movq %rbp, %rsp
    popq %rbp
    retq
    .seh_endproc
    .section .iii.ring3,"n"
    .asciz "bfp_compute"
    .text
    .global bfp_compute
    .seh_proc bfp_compute
bfp_compute:
    pushq %rbp
    .seh_pushreg %rbp
    movq %rsp, %rbp
    .seh_setframe %rbp, 0
    subq $1024, %rsp
    .seh_stackalloc 1024
    .seh_endprologue
    subq $32, %rsp
    callq L_bfp_fill
    addq $32, %rsp
    movslq %eax, %rax
    pushq %rax
    popq %rax
    movabsq $0xc, %rax
    pushq %rax
    leaq L_BFP_RESULTS(%rip), %rax
    pushq %rax
    popq %rax
    pushq %rax
    popq %rcx
    popq %rdx
    subq $32, %rsp
    callq q6_addr24
    addq $32, %rsp
    movl %eax, %eax
    pushq %rax
    popq %rax
    movq %rbp, %rsp
    popq %rbp
    retq
    movq $0, %rax
    pushq %rax
    movq $0, %rax
    movq %rbp, %rsp
    popq %rbp
    retq
    .seh_endproc
    .section .iii.ring3,"n"
    .asciz "bfp_compute48"
    .text
    .global bfp_compute48
    .seh_proc bfp_compute48
bfp_compute48:
    pushq %rbp
    .seh_pushreg %rbp
    movq %rsp, %rbp
    .seh_setframe %rbp, 0
    subq $1024, %rsp
    .seh_stackalloc 1024
    .seh_endprologue
    subq $32, %rsp
    callq L_bfp_fill
    addq $32, %rsp
    movslq %eax, %rax
    pushq %rax
    popq %rax
    movabsq $0xc, %rax
    pushq %rax
    leaq L_BFP_RESULTS(%rip), %rax
    pushq %rax
    popq %rax
    pushq %rax
    popq %rcx
    popq %rdx
    subq $32, %rsp
    callq q6_addr48
    addq $32, %rsp
    pushq %rax
    popq %rax
    movq %rbp, %rsp
    popq %rbp
    retq
    movq $0, %rax
    pushq %rax
    movq $0, %rax
    movq %rbp, %rsp
    popq %rbp
    retq
    .seh_endproc
    .section .iii.ring3,"n"
    .asciz "bfp_consistent"
    .text
    .global bfp_consistent
    .seh_proc bfp_consistent
bfp_consistent:
    pushq %rbp
    .seh_pushreg %rbp
    movq %rsp, %rbp
    .seh_setframe %rbp, 0
    subq $1024, %rsp
    .seh_stackalloc 1024
    .seh_endprologue
    movq %rcx, -8(%rbp)
    movq %rdx, -16(%rbp)
    movl -8(%rbp), %eax
    pushq %rax
    movl -16(%rbp), %eax
    pushq %rax
    popq %rcx
    popq %rax
    cmpq %rcx, %rax
    sete %al
    movzbq %al, %rax
    pushq %rax
    popq %rax
    testq %rax, %rax
    jz L_if_end_1
    movabsq $0x1, %rax
    pushq %rax
    popq %rax
    movq %rbp, %rsp
    popq %rbp
    retq
    movq $0, %rax
    pushq %rax
    popq %rax
L_if_end_1:
    movabsq $0x0, %rax
    pushq %rax
    popq %rax
    movq %rbp, %rsp
    popq %rbp
    retq
    movq $0, %rax
    pushq %rax
    movq $0, %rax
    movq %rbp, %rsp
    popq %rbp
    retq
    .seh_endproc
    .section .iii.ring3,"n"
    .asciz "bfp_drift"
    .text
    .global bfp_drift
    .seh_proc bfp_drift
bfp_drift:
    pushq %rbp
    .seh_pushreg %rbp
    movq %rsp, %rbp
    .seh_setframe %rbp, 0
    subq $1024, %rsp
    .seh_stackalloc 1024
    .seh_endprologue
    movq %rcx, -8(%rbp)
    subq $32, %rsp
    callq bfp_compute
    addq $32, %rsp
    movl %eax, %eax
    pushq %rax
    movl -8(%rbp), %eax
    pushq %rax
    popq %rcx
    popq %rax
    cmpq %rcx, %rax
    setne %al
    movzbq %al, %rax
    pushq %rax
    popq %rax
    testq %rax, %rax
    jz L_if_end_3
    movabsq $0x1, %rax
    pushq %rax
    popq %rax
    movq %rbp, %rsp
    popq %rbp
    retq
    movq $0, %rax
    pushq %rax
    popq %rax
L_if_end_3:
    movabsq $0x0, %rax
    pushq %rax
    popq %rax
    movq %rbp, %rsp
    popq %rbp
    retq
    movq $0, %rax
    pushq %rax
    movq $0, %rax
    movq %rbp, %rsp
    popq %rbp
    retq
    .seh_endproc
