# III Stage-0 Ring-3 codegen output
# Microsoft x64 ABI; gas syntax (AT&T); PE/COFF target
    .att_syntax
    .file 1 "<iii-source>"
    .section .rodata
L_str_0:
    .ascii "typecheck.iii\0"
L_str_1:
    .ascii "typecheck.iii\0"
L_str_2:
    .ascii "typecheck.iii\0"
L_str_3:
    .ascii "typecheck.iii\0"
L_str_4:
    .ascii "typecheck.iii\0"
L_str_5:
    .ascii "typecheck.iii\0"
L_str_6:
    .ascii "typecheck.iii\0"
L_str_7:
    .ascii "typecheck.iii\0"
L_str_8:
    .ascii "typecheck.iii\0"
L_str_9:
    .ascii "typecheck.iii\0"
L_str_10:
    .ascii "theorem_commons.iii\0"
L_str_11:
    .ascii "theorem_commons.iii\0"
    .section .iii.ring3,"n"
    .asciz "ind_forall"
    .text
    .global ind_forall
    .seh_proc ind_forall
ind_forall:
    pushq %rbp
    .seh_pushreg %rbp
    movq %rsp, %rbp
    .seh_setframe %rbp, 0
    subq $1024, %rsp
    .seh_stackalloc 1024
    .seh_endprologue
    movq %rcx, -8(%rbp)
    movq %rdx, -16(%rbp)
    movq %r8, -24(%rbp)
    movq %r9, -32(%rbp)
    movl -32(%rbp), %eax
    pushq %rax
    movl -8(%rbp), %eax
    pushq %rax
    popq %rcx
    popq %rdx
    subq $32, %rsp
    callq tc_app
    addq $32, %rsp
    movl %eax, %eax
    pushq %rax
    subq $8, %rsp
    movl -32(%rbp), %eax
    pushq %rax
    movl -24(%rbp), %eax
    pushq %rax
    movl -16(%rbp), %eax
    pushq %rax
    movl -8(%rbp), %eax
    pushq %rax
    popq %rcx
    popq %rdx
    popq %r8
    popq %r9
    subq $32, %rsp
    callq tc_natrec
    addq $32, %rsp
    addq $8, %rsp
    movl %eax, %eax
    pushq %rax
    popq %rcx
    popq %rdx
    subq $32, %rsp
    callq tc_check
    addq $32, %rsp
    movzbq %al, %rax
    pushq %rax
    popq %rax
    movq %rbp, %rsp
    popq %rbp
    retq
    movq $0, %rax
    pushq %rax
    movq $0, %rax
    movq %rbp, %rsp
    popq %rbp
    retq
    .seh_endproc
    .section .iii.ring3,"n"
    .asciz "ind_forall_w"
    .text
    .global ind_forall_w
    .seh_proc ind_forall_w
ind_forall_w:
    pushq %rbp
    .seh_pushreg %rbp
    movq %rsp, %rbp
    .seh_setframe %rbp, 0
    subq $1024, %rsp
    .seh_stackalloc 1024
    .seh_endprologue
    movq %rcx, -8(%rbp)
    movq %rdx, -16(%rbp)
    movq %r8, -24(%rbp)
    movl -24(%rbp), %eax
    pushq %rax
    movl -8(%rbp), %eax
    pushq %rax
    popq %rcx
    popq %rdx
    subq $32, %rsp
    callq tc_app
    addq $32, %rsp
    movl %eax, %eax
    pushq %rax
    subq $8, %rsp
    movl -24(%rbp), %eax
    pushq %rax
    movl -16(%rbp), %eax
    pushq %rax
    movl -8(%rbp), %eax
    pushq %rax
    popq %rcx
    popq %rdx
    popq %r8
    subq $32, %rsp
    callq tc_wrec
    addq $32, %rsp
    addq $8, %rsp
    movl %eax, %eax
    pushq %rax
    popq %rcx
    popq %rdx
    subq $32, %rsp
    callq tc_check
    addq $32, %rsp
    movzbq %al, %rax
    pushq %rax
    popq %rax
    movq %rbp, %rsp
    popq %rbp
    retq
    movq $0, %rax
    pushq %rax
    movq $0, %rax
    movq %rbp, %rsp
    popq %rbp
    retq
    .seh_endproc
    .section .iii.ring3,"n"
    .asciz "ind_forall_id"
    .text
    .global ind_forall_id
    .seh_proc ind_forall_id
ind_forall_id:
    pushq %rbp
    .seh_pushreg %rbp
    movq %rsp, %rbp
    .seh_setframe %rbp, 0
    subq $1024, %rsp
    .seh_stackalloc 1024
    .seh_endprologue
    movq %rcx, -8(%rbp)
    movq %rdx, -16(%rbp)
    movq %r8, -24(%rbp)
    movq %r9, -32(%rbp)
    movl -32(%rbp), %eax
    pushq %rax
    subq $8, %rsp
    movl -24(%rbp), %eax
    pushq %rax
    movl -8(%rbp), %eax
    pushq %rax
    popq %rcx
    popq %rdx
    subq $32, %rsp
    callq tc_app
    addq $32, %rsp
    addq $8, %rsp
    movl %eax, %eax
    pushq %rax
    popq %rcx
    popq %rdx
    subq $32, %rsp
    callq tc_app
    addq $32, %rsp
    movl %eax, %eax
    pushq %rax
    subq $8, %rsp
    movl -32(%rbp), %eax
    pushq %rax
    movl -16(%rbp), %eax
    pushq %rax
    movl -8(%rbp), %eax
    pushq %rax
    popq %rcx
    popq %rdx
    popq %r8
    subq $32, %rsp
    callq tc_j
    addq $32, %rsp
    addq $8, %rsp
    movl %eax, %eax
    pushq %rax
    popq %rcx
    popq %rdx
    subq $32, %rsp
    callq tc_check
    addq $32, %rsp
    movzbq %al, %rax
    pushq %rax
    popq %rax
    movq %rbp, %rsp
    popq %rbp
    retq
    movq $0, %rax
    pushq %rax
    movq $0, %rax
    movq %rbp, %rsp
    popq %rbp
    retq
    .seh_endproc
    .section .iii.ring3,"n"
    .asciz "ind_forall_commons"
    .text
    .global ind_forall_commons
    .seh_proc ind_forall_commons
ind_forall_commons:
    pushq %rbp
    .seh_pushreg %rbp
    movq %rsp, %rbp
    .seh_setframe %rbp, 0
    subq $1024, %rsp
    .seh_stackalloc 1024
    .seh_endprologue
    movq %rcx, -8(%rbp)
    movq %rdx, -16(%rbp)
    movq %r8, -24(%rbp)
    movabsq $0x0, %rax
    pushq %rax
    popq %rcx
    subq $32, %rsp
    callq tc_var
    addq $32, %rsp
    movl %eax, %eax
    pushq %rax
    movl -24(%rbp), %eax
    pushq %rax
    movl -16(%rbp), %eax
    pushq %rax
    movl -8(%rbp), %eax
    pushq %rax
    popq %rcx
    popq %rdx
    popq %r8
    popq %r9
    subq $32, %rsp
    callq tc_natrec
    addq $32, %rsp
    movl %eax, %eax
    pushq %rax
    subq $8, %rsp
    subq $32, %rsp
    callq tc_nat
    addq $32, %rsp
    addq $8, %rsp
    movl %eax, %eax
    pushq %rax
    popq %rcx
    popq %rdx
    subq $32, %rsp
    callq tc_lam
    addq $32, %rsp
    movl %eax, %eax
    pushq %rax
    popq %rax
    movq %rax, -32(%rbp)
    movabsq $0x0, %rax
    pushq %rax
    popq %rcx
    subq $32, %rsp
    callq tc_var
    addq $32, %rsp
    movl %eax, %eax
    pushq %rax
    movl -8(%rbp), %eax
    pushq %rax
    popq %rcx
    popq %rdx
    subq $32, %rsp
    callq tc_app
    addq $32, %rsp
    movl %eax, %eax
    pushq %rax
    subq $8, %rsp
    subq $32, %rsp
    callq tc_nat
    addq $32, %rsp
    addq $8, %rsp
    movl %eax, %eax
    pushq %rax
    popq %rcx
    popq %rdx
    subq $32, %rsp
    callq tc_pi
    addq $32, %rsp
    movl %eax, %eax
    pushq %rax
    popq %rax
    movq %rax, -40(%rbp)
    movl -40(%rbp), %eax
    pushq %rax
    movl -32(%rbp), %eax
    pushq %rax
    popq %rcx
    popq %rdx
    subq $32, %rsp
    callq tcom_admit_goal
    addq $32, %rsp
    movslq %eax, %rax
    pushq %rax
    popq %rax
    movq %rbp, %rsp
    popq %rbp
    retq
    movq $0, %rax
    pushq %rax
    movq $0, %rax
    movq %rbp, %rsp
    popq %rbp
    retq
    .seh_endproc
    .section .iii.ring3,"n"
    .asciz "ind_forall_cite"
    .text
    .global ind_forall_cite
    .seh_proc ind_forall_cite
ind_forall_cite:
    pushq %rbp
    .seh_pushreg %rbp
    movq %rsp, %rbp
    .seh_setframe %rbp, 0
    subq $1024, %rsp
    .seh_stackalloc 1024
    .seh_endprologue
    movq %rcx, -8(%rbp)
    movabsq $0x0, %rax
    pushq %rax
    popq %rcx
    subq $32, %rsp
    callq tc_var
    addq $32, %rsp
    movl %eax, %eax
    pushq %rax
    movl -8(%rbp), %eax
    pushq %rax
    popq %rcx
    popq %rdx
    subq $32, %rsp
    callq tc_app
    addq $32, %rsp
    movl %eax, %eax
    pushq %rax
    subq $8, %rsp
    subq $32, %rsp
    callq tc_nat
    addq $32, %rsp
    addq $8, %rsp
    movl %eax, %eax
    pushq %rax
    popq %rcx
    popq %rdx
    subq $32, %rsp
    callq tc_pi
    addq $32, %rsp
    movl %eax, %eax
    pushq %rax
    popq %rcx
    subq $32, %rsp
    callq tcom_cite_goal
    addq $32, %rsp
    movslq %eax, %rax
    pushq %rax
    popq %rax
    movq %rbp, %rsp
    popq %rbp
    retq
    movq $0, %rax
    pushq %rax
    movq $0, %rax
    movq %rbp, %rsp
    popq %rbp
    retq
    .seh_endproc
    .section .iii.ring3,"n"
    .asciz "ind_forall_w_commons"
    .text
    .global ind_forall_w_commons
    .seh_proc ind_forall_w_commons
ind_forall_w_commons:
    pushq %rbp
    .seh_pushreg %rbp
    movq %rsp, %rbp
    .seh_setframe %rbp, 0
    subq $1024, %rsp
    .seh_stackalloc 1024
    .seh_endprologue
    movq %rcx, -8(%rbp)
    movq %rdx, -16(%rbp)
    movq %r8, -24(%rbp)
    movabsq $0x0, %rax
    pushq %rax
    popq %rcx
    subq $32, %rsp
    callq tc_var
    addq $32, %rsp
    movl %eax, %eax
    pushq %rax
    movl -16(%rbp), %eax
    pushq %rax
    movl -8(%rbp), %eax
    pushq %rax
    popq %rcx
    popq %rdx
    popq %r8
    subq $32, %rsp
    callq tc_wrec
    addq $32, %rsp
    movl %eax, %eax
    pushq %rax
    movl -24(%rbp), %eax
    pushq %rax
    popq %rcx
    popq %rdx
    subq $32, %rsp
    callq tc_lam
    addq $32, %rsp
    movl %eax, %eax
    pushq %rax
    popq %rax
    movq %rax, -32(%rbp)
    movabsq $0x0, %rax
    pushq %rax
    popq %rcx
    subq $32, %rsp
    callq tc_var
    addq $32, %rsp
    movl %eax, %eax
    pushq %rax
    movl -8(%rbp), %eax
    pushq %rax
    popq %rcx
    popq %rdx
    subq $32, %rsp
    callq tc_app
    addq $32, %rsp
    movl %eax, %eax
    pushq %rax
    movl -24(%rbp), %eax
    pushq %rax
    popq %rcx
    popq %rdx
    subq $32, %rsp
    callq tc_pi
    addq $32, %rsp
    movl %eax, %eax
    pushq %rax
    popq %rax
    movq %rax, -40(%rbp)
    movl -40(%rbp), %eax
    pushq %rax
    movl -32(%rbp), %eax
    pushq %rax
    popq %rcx
    popq %rdx
    subq $32, %rsp
    callq tcom_admit_goal
    addq $32, %rsp
    movslq %eax, %rax
    pushq %rax
    popq %rax
    movq %rbp, %rsp
    popq %rbp
    retq
    movq $0, %rax
    pushq %rax
    movq $0, %rax
    movq %rbp, %rsp
    popq %rbp
    retq
    .seh_endproc
    .section .iii.ring3,"n"
    .asciz "ind_forall_w_cite"
    .text
    .global ind_forall_w_cite
    .seh_proc ind_forall_w_cite
ind_forall_w_cite:
    pushq %rbp
    .seh_pushreg %rbp
    movq %rsp, %rbp
    .seh_setframe %rbp, 0
    subq $1024, %rsp
    .seh_stackalloc 1024
    .seh_endprologue
    movq %rcx, -8(%rbp)
    movq %rdx, -16(%rbp)
    movabsq $0x0, %rax
    pushq %rax
    popq %rcx
    subq $32, %rsp
    callq tc_var
    addq $32, %rsp
    movl %eax, %eax
    pushq %rax
    movl -8(%rbp), %eax
    pushq %rax
    popq %rcx
    popq %rdx
    subq $32, %rsp
    callq tc_app
    addq $32, %rsp
    movl %eax, %eax
    pushq %rax
    movl -16(%rbp), %eax
    pushq %rax
    popq %rcx
    popq %rdx
    subq $32, %rsp
    callq tc_pi
    addq $32, %rsp
    movl %eax, %eax
    pushq %rax
    popq %rcx
    subq $32, %rsp
    callq tcom_cite_goal
    addq $32, %rsp
    movslq %eax, %rax
    pushq %rax
    popq %rax
    movq %rbp, %rsp
    popq %rbp
    retq
    movq $0, %rax
    pushq %rax
    movq $0, %rax
    movq %rbp, %rsp
    popq %rbp
    retq
    .seh_endproc
    .section .iii.ring3,"n"
    .asciz "ind_forall_id_commons"
    .text
    .global ind_forall_id_commons
    .seh_proc ind_forall_id_commons
ind_forall_id_commons:
    pushq %rbp
    .seh_pushreg %rbp
    movq %rsp, %rbp
    .seh_setframe %rbp, 0
    subq $1024, %rsp
    .seh_stackalloc 1024
    .seh_endprologue
    movq %rcx, -8(%rbp)
    movq %rdx, -16(%rbp)
    movq %r8, -24(%rbp)
    movq %r9, -32(%rbp)
    movabsq $0x0, %rax
    pushq %rax
    popq %rcx
    subq $32, %rsp
    callq tc_var
    addq $32, %rsp
    movl %eax, %eax
    pushq %rax
    movl -32(%rbp), %eax
    pushq %rax
    movl -24(%rbp), %eax
    pushq %rax
    popq %rcx
    popq %rdx
    popq %r8
    subq $32, %rsp
    callq tc_id
    addq $32, %rsp
    movl %eax, %eax
    pushq %rax
    popq %rax
    movq %rax, -40(%rbp)
    movabsq $0x0, %rax
    pushq %rax
    popq %rcx
    subq $32, %rsp
    callq tc_var
    addq $32, %rsp
    movl %eax, %eax
    pushq %rax
    movl -16(%rbp), %eax
    pushq %rax
    movl -8(%rbp), %eax
    pushq %rax
    popq %rcx
    popq %rdx
    popq %r8
    subq $32, %rsp
    callq tc_j
    addq $32, %rsp
    movl %eax, %eax
    pushq %rax
    movl -40(%rbp), %eax
    pushq %rax
    popq %rcx
    popq %rdx
    subq $32, %rsp
    callq tc_lam
    addq $32, %rsp
    movl %eax, %eax
    pushq %rax
    movl -24(%rbp), %eax
    pushq %rax
    popq %rcx
    popq %rdx
    subq $32, %rsp
    callq tc_lam
    addq $32, %rsp
    movl %eax, %eax
    pushq %rax
    popq %rax
    movq %rax, -48(%rbp)
    movabsq $0x0, %rax
    pushq %rax
    popq %rcx
    subq $32, %rsp
    callq tc_var
    addq $32, %rsp
    movl %eax, %eax
    pushq %rax
    movl -32(%rbp), %eax
    pushq %rax
    movl -24(%rbp), %eax
    pushq %rax
    popq %rcx
    popq %rdx
    popq %r8
    subq $32, %rsp
    callq tc_id
    addq $32, %rsp
    movl %eax, %eax
    pushq %rax
    popq %rax
    movq %rax, -56(%rbp)
    movabsq $0x0, %rax
    pushq %rax
    popq %rcx
    subq $32, %rsp
    callq tc_var
    addq $32, %rsp
    movl %eax, %eax
    pushq %rax
    subq $8, %rsp
    movabsq $0x1, %rax
    pushq %rax
    popq %rcx
    subq $32, %rsp
    callq tc_var
    addq $32, %rsp
    movl %eax, %eax
    pushq %rax
    movl -8(%rbp), %eax
    pushq %rax
    popq %rcx
    popq %rdx
    subq $32, %rsp
    callq tc_app
    addq $32, %rsp
    addq $8, %rsp
    movl %eax, %eax
    pushq %rax
    popq %rcx
    popq %rdx
    subq $32, %rsp
    callq tc_app
    addq $32, %rsp
    movl %eax, %eax
    pushq %rax
    movl -56(%rbp), %eax
    pushq %rax
    popq %rcx
    popq %rdx
    subq $32, %rsp
    callq tc_pi
    addq $32, %rsp
    movl %eax, %eax
    pushq %rax
    movl -24(%rbp), %eax
    pushq %rax
    popq %rcx
    popq %rdx
    subq $32, %rsp
    callq tc_pi
    addq $32, %rsp
    movl %eax, %eax
    pushq %rax
    popq %rax
    movq %rax, -64(%rbp)
    movl -64(%rbp), %eax
    pushq %rax
    movl -48(%rbp), %eax
    pushq %rax
    popq %rcx
    popq %rdx
    subq $32, %rsp
    callq tcom_admit_goal
    addq $32, %rsp
    movslq %eax, %rax
    pushq %rax
    popq %rax
    movq %rbp, %rsp
    popq %rbp
    retq
    movq $0, %rax
    pushq %rax
    movq $0, %rax
    movq %rbp, %rsp
    popq %rbp
    retq
    .seh_endproc
    .section .iii.ring3,"n"
    .asciz "ind_forall_id_cite"
    .text
    .global ind_forall_id_cite
    .seh_proc ind_forall_id_cite
ind_forall_id_cite:
    pushq %rbp
    .seh_pushreg %rbp
    movq %rsp, %rbp
    .seh_setframe %rbp, 0
    subq $1024, %rsp
    .seh_stackalloc 1024
    .seh_endprologue
    movq %rcx, -8(%rbp)
    movq %rdx, -16(%rbp)
    movq %r8, -24(%rbp)
    movabsq $0x0, %rax
    pushq %rax
    popq %rcx
    subq $32, %rsp
    callq tc_var
    addq $32, %rsp
    movl %eax, %eax
    pushq %rax
    movl -24(%rbp), %eax
    pushq %rax
    movl -16(%rbp), %eax
    pushq %rax
    popq %rcx
    popq %rdx
    popq %r8
    subq $32, %rsp
    callq tc_id
    addq $32, %rsp
    movl %eax, %eax
    pushq %rax
    popq %rax
    movq %rax, -32(%rbp)
    movabsq $0x0, %rax
    pushq %rax
    popq %rcx
    subq $32, %rsp
    callq tc_var
    addq $32, %rsp
    movl %eax, %eax
    pushq %rax
    subq $8, %rsp
    movabsq $0x1, %rax
    pushq %rax
    popq %rcx
    subq $32, %rsp
    callq tc_var
    addq $32, %rsp
    movl %eax, %eax
    pushq %rax
    movl -8(%rbp), %eax
    pushq %rax
    popq %rcx
    popq %rdx
    subq $32, %rsp
    callq tc_app
    addq $32, %rsp
    addq $8, %rsp
    movl %eax, %eax
    pushq %rax
    popq %rcx
    popq %rdx
    subq $32, %rsp
    callq tc_app
    addq $32, %rsp
    movl %eax, %eax
    pushq %rax
    movl -32(%rbp), %eax
    pushq %rax
    popq %rcx
    popq %rdx
    subq $32, %rsp
    callq tc_pi
    addq $32, %rsp
    movl %eax, %eax
    pushq %rax
    movl -16(%rbp), %eax
    pushq %rax
    popq %rcx
    popq %rdx
    subq $32, %rsp
    callq tc_pi
    addq $32, %rsp
    movl %eax, %eax
    pushq %rax
    popq %rcx
    subq $32, %rsp
    callq tcom_cite_goal
    addq $32, %rsp
    movslq %eax, %rax
    pushq %rax
    popq %rax
    movq %rbp, %rsp
    popq %rbp
    retq
    movq $0, %rax
    pushq %rax
    movq $0, %rax
    movq %rbp, %rsp
    popq %rbp
    retq
    .seh_endproc
