# III Stage-0 Ring-3 codegen output
# Microsoft x64 ABI; gas syntax (AT&T); PE/COFF target
    .att_syntax
    .file 1 "<iii-source>"
    .section .rodata
    .section .rodata
L_RO_D:
    .quad 0x10
    .section .bss
    .global L_RO_M
L_RO_M:
    .zero 8
    .section .iii.ring3,"n"
    .asciz "ro_naive"
    .text
    .global ro_naive
    .seh_proc ro_naive
ro_naive:
    pushq %rbp
    .seh_pushreg %rbp
    movq %rsp, %rbp
    .seh_setframe %rbp, 0
    subq $1024, %rsp
    .seh_stackalloc 1024
    .seh_endprologue
    movq %rcx, -8(%rbp)
    movq %rdx, -16(%rbp)
    movq %r8, -24(%rbp)
    movq %r9, -32(%rbp)
    movq 48(%rbp), %rax
    movq %rax, -40(%rbp)
    movl -40(%rbp), %eax
    pushq %rax
    movl -40(%rbp), %eax
    pushq %rax
    popq %rcx
    popq %rax
    imulq %rcx, %rax
    movl %eax, %eax
    pushq %rax
    popq %rax
    movq %rax, -48(%rbp)
    leaq L_RO_M(%rip), %rax
    pushq %rax
    movabsq $0x0, %rax
    pushq %rax
    leaq L_RO_M(%rip), %rax
    pushq %rax
    movabsq $0x0, %rax
    pushq %rax
    popq %rcx
    popq %rax
    movl (%rax,%rcx,4), %eax
    pushq %rax
    movabsq $0x1, %rax
    pushq %rax
    popq %rcx
    popq %rax
    addq %rcx, %rax
    pushq %rax
    popq %rdx
    popq %rcx
    popq %rax
    movl %edx, (%rax,%rcx,4)
    movl -48(%rbp), %eax
    pushq %rax
    movl -40(%rbp), %eax
    pushq %rax
    popq %rcx
    popq %rax
    imulq %rcx, %rax
    movl %eax, %eax
    pushq %rax
    popq %rax
    movq %rax, -56(%rbp)
    leaq L_RO_M(%rip), %rax
    pushq %rax
    movabsq $0x0, %rax
    pushq %rax
    leaq L_RO_M(%rip), %rax
    pushq %rax
    movabsq $0x0, %rax
    pushq %rax
    popq %rcx
    popq %rax
    movl (%rax,%rcx,4), %eax
    pushq %rax
    movabsq $0x1, %rax
    pushq %rax
    popq %rcx
    popq %rax
    addq %rcx, %rax
    pushq %rax
    popq %rdx
    popq %rcx
    popq %rax
    movl %edx, (%rax,%rcx,4)
    movl -8(%rbp), %eax
    pushq %rax
    movl -56(%rbp), %eax
    pushq %rax
    popq %rcx
    popq %rax
    imulq %rcx, %rax
    movl %eax, %eax
    pushq %rax
    popq %rax
    movq %rax, -64(%rbp)
    leaq L_RO_M(%rip), %rax
    pushq %rax
    movabsq $0x0, %rax
    pushq %rax
    leaq L_RO_M(%rip), %rax
    pushq %rax
    movabsq $0x0, %rax
    pushq %rax
    popq %rcx
    popq %rax
    movl (%rax,%rcx,4), %eax
    pushq %rax
    movabsq $0x1, %rax
    pushq %rax
    popq %rcx
    popq %rax
    addq %rcx, %rax
    pushq %rax
    popq %rdx
    popq %rcx
    popq %rax
    movl %edx, (%rax,%rcx,4)
    movl -16(%rbp), %eax
    pushq %rax
    movl -48(%rbp), %eax
    pushq %rax
    popq %rcx
    popq %rax
    imulq %rcx, %rax
    movl %eax, %eax
    pushq %rax
    popq %rax
    movq %rax, -72(%rbp)
    leaq L_RO_M(%rip), %rax
    pushq %rax
    movabsq $0x0, %rax
    pushq %rax
    leaq L_RO_M(%rip), %rax
    pushq %rax
    movabsq $0x0, %rax
    pushq %rax
    popq %rcx
    popq %rax
    movl (%rax,%rcx,4), %eax
    pushq %rax
    movabsq $0x1, %rax
    pushq %rax
    popq %rcx
    popq %rax
    addq %rcx, %rax
    pushq %rax
    popq %rdx
    popq %rcx
    popq %rax
    movl %edx, (%rax,%rcx,4)
    movl -24(%rbp), %eax
    pushq %rax
    movl -40(%rbp), %eax
    pushq %rax
    popq %rcx
    popq %rax
    imulq %rcx, %rax
    movl %eax, %eax
    pushq %rax
    popq %rax
    movq %rax, -80(%rbp)
    leaq L_RO_M(%rip), %rax
    pushq %rax
    movabsq $0x0, %rax
    pushq %rax
    leaq L_RO_M(%rip), %rax
    pushq %rax
    movabsq $0x0, %rax
    pushq %rax
    popq %rcx
    popq %rax
    movl (%rax,%rcx,4), %eax
    pushq %rax
    movabsq $0x1, %rax
    pushq %rax
    popq %rcx
    popq %rax
    addq %rcx, %rax
    pushq %rax
    popq %rdx
    popq %rcx
    popq %rax
    movl %edx, (%rax,%rcx,4)
    movl -64(%rbp), %eax
    pushq %rax
    movl -72(%rbp), %eax
    pushq %rax
    popq %rcx
    popq %rax
    addq %rcx, %rax
    movl %eax, %eax
    pushq %rax
    movl -80(%rbp), %eax
    pushq %rax
    popq %rcx
    popq %rax
    addq %rcx, %rax
    movl %eax, %eax
    pushq %rax
    movl -32(%rbp), %eax
    pushq %rax
    popq %rcx
    popq %rax
    addq %rcx, %rax
    movl %eax, %eax
    pushq %rax
    popq %rax
    movq %rbp, %rsp
    popq %rbp
    retq
    movq $0, %rax
    pushq %rax
    movq $0, %rax
    movq %rbp, %rsp
    popq %rbp
    retq
    .seh_endproc
    .section .iii.ring3,"n"
    .asciz "ro_horner"
    .text
    .global ro_horner
    .seh_proc ro_horner
ro_horner:
    pushq %rbp
    .seh_pushreg %rbp
    movq %rsp, %rbp
    .seh_setframe %rbp, 0
    subq $1024, %rsp
    .seh_stackalloc 1024
    .seh_endprologue
    movq %rcx, -8(%rbp)
    movq %rdx, -16(%rbp)
    movq %r8, -24(%rbp)
    movq %r9, -32(%rbp)
    movq 48(%rbp), %rax
    movq %rax, -40(%rbp)
    movl -8(%rbp), %eax
    pushq %rax
    movl -40(%rbp), %eax
    pushq %rax
    popq %rcx
    popq %rax
    imulq %rcx, %rax
    movl %eax, %eax
    pushq %rax
    popq %rax
    movq %rax, -48(%rbp)
    leaq L_RO_M(%rip), %rax
    pushq %rax
    movabsq $0x0, %rax
    pushq %rax
    leaq L_RO_M(%rip), %rax
    pushq %rax
    movabsq $0x0, %rax
    pushq %rax
    popq %rcx
    popq %rax
    movl (%rax,%rcx,4), %eax
    pushq %rax
    movabsq $0x1, %rax
    pushq %rax
    popq %rcx
    popq %rax
    addq %rcx, %rax
    pushq %rax
    popq %rdx
    popq %rcx
    popq %rax
    movl %edx, (%rax,%rcx,4)
    movl -48(%rbp), %eax
    pushq %rax
    movl -16(%rbp), %eax
    pushq %rax
    popq %rcx
    popq %rax
    addq %rcx, %rax
    movl %eax, %eax
    pushq %rax
    popq %rax
    movq %rax, -48(%rbp)
    movl -48(%rbp), %eax
    pushq %rax
    movl -40(%rbp), %eax
    pushq %rax
    popq %rcx
    popq %rax
    imulq %rcx, %rax
    movl %eax, %eax
    pushq %rax
    popq %rax
    movq %rax, -48(%rbp)
    leaq L_RO_M(%rip), %rax
    pushq %rax
    movabsq $0x0, %rax
    pushq %rax
    leaq L_RO_M(%rip), %rax
    pushq %rax
    movabsq $0x0, %rax
    pushq %rax
    popq %rcx
    popq %rax
    movl (%rax,%rcx,4), %eax
    pushq %rax
    movabsq $0x1, %rax
    pushq %rax
    popq %rcx
    popq %rax
    addq %rcx, %rax
    pushq %rax
    popq %rdx
    popq %rcx
    popq %rax
    movl %edx, (%rax,%rcx,4)
    movl -48(%rbp), %eax
    pushq %rax
    movl -24(%rbp), %eax
    pushq %rax
    popq %rcx
    popq %rax
    addq %rcx, %rax
    movl %eax, %eax
    pushq %rax
    popq %rax
    movq %rax, -48(%rbp)
    movl -48(%rbp), %eax
    pushq %rax
    movl -40(%rbp), %eax
    pushq %rax
    popq %rcx
    popq %rax
    imulq %rcx, %rax
    movl %eax, %eax
    pushq %rax
    popq %rax
    movq %rax, -48(%rbp)
    leaq L_RO_M(%rip), %rax
    pushq %rax
    movabsq $0x0, %rax
    pushq %rax
    leaq L_RO_M(%rip), %rax
    pushq %rax
    movabsq $0x0, %rax
    pushq %rax
    popq %rcx
    popq %rax
    movl (%rax,%rcx,4), %eax
    pushq %rax
    movabsq $0x1, %rax
    pushq %rax
    popq %rcx
    popq %rax
    addq %rcx, %rax
    pushq %rax
    popq %rdx
    popq %rcx
    popq %rax
    movl %edx, (%rax,%rcx,4)
    movl -48(%rbp), %eax
    pushq %rax
    movl -32(%rbp), %eax
    pushq %rax
    popq %rcx
    popq %rax
    addq %rcx, %rax
    movl %eax, %eax
    pushq %rax
    popq %rax
    movq %rax, -48(%rbp)
    movl -48(%rbp), %eax
    pushq %rax
    popq %rax
    movq %rbp, %rsp
    popq %rbp
    retq
    movq $0, %rax
    pushq %rax
    movq $0, %rax
    movq %rbp, %rsp
    popq %rbp
    retq
    .seh_endproc
    .section .iii.ring3,"n"
    .asciz "ro_horner_wrong"
    .text
    .global ro_horner_wrong
    .seh_proc ro_horner_wrong
ro_horner_wrong:
    pushq %rbp
    .seh_pushreg %rbp
    movq %rsp, %rbp
    .seh_setframe %rbp, 0
    subq $1024, %rsp
    .seh_stackalloc 1024
    .seh_endprologue
    movq %rcx, -8(%rbp)
    movq %rdx, -16(%rbp)
    movq %r8, -24(%rbp)
    movq %r9, -32(%rbp)
    movq 48(%rbp), %rax
    movq %rax, -40(%rbp)
    subq $8, %rsp
    movl -40(%rbp), %eax
    pushq %rax
    movl -32(%rbp), %eax
    pushq %rax
    movl -24(%rbp), %eax
    pushq %rax
    movl -16(%rbp), %eax
    pushq %rax
    movl -8(%rbp), %eax
    pushq %rax
    popq %rcx
    popq %rdx
    popq %r8
    popq %r9
    subq $32, %rsp
    callq ro_horner
    addq $32, %rsp
    addq $8, %rsp
    addq $8, %rsp
    movl %eax, %eax
    pushq %rax
    movabsq $0x1, %rax
    pushq %rax
    popq %rcx
    popq %rax
    addq %rcx, %rax
    pushq %rax
    popq %rax
    movq %rbp, %rsp
    popq %rbp
    retq
    movq $0, %rax
    pushq %rax
    movq $0, %rax
    movq %rbp, %rsp
    popq %rbp
    retq
    .seh_endproc
    .section .iii.ring3,"n"
    .asciz "ro_cost_naive"
    .text
    .global ro_cost_naive
    .seh_proc ro_cost_naive
ro_cost_naive:
    pushq %rbp
    .seh_pushreg %rbp
    movq %rsp, %rbp
    .seh_setframe %rbp, 0
    subq $1024, %rsp
    .seh_stackalloc 1024
    .seh_endprologue
    leaq L_RO_M(%rip), %rax
    pushq %rax
    movabsq $0x0, %rax
    pushq %rax
    movabsq $0x0, %rax
    pushq %rax
    popq %rdx
    popq %rcx
    popq %rax
    movl %edx, (%rax,%rcx,4)
    subq $8, %rsp
    movabsq $0x5, %rax
    pushq %rax
    movabsq $0x4, %rax
    pushq %rax
    movabsq $0x3, %rax
    pushq %rax
    movabsq $0x2, %rax
    pushq %rax
    movabsq $0x1, %rax
    pushq %rax
    popq %rcx
    popq %rdx
    popq %r8
    popq %r9
    subq $32, %rsp
    callq ro_naive
    addq $32, %rsp
    addq $8, %rsp
    addq $8, %rsp
    movl %eax, %eax
    pushq %rax
    popq %rax
    leaq L_RO_M(%rip), %rax
    pushq %rax
    movabsq $0x0, %rax
    pushq %rax
    popq %rcx
    popq %rax
    movl (%rax,%rcx,4), %eax
    pushq %rax
    popq %rax
    movq %rbp, %rsp
    popq %rbp
    retq
    movq $0, %rax
    pushq %rax
    movq $0, %rax
    movq %rbp, %rsp
    popq %rbp
    retq
    .seh_endproc
    .section .iii.ring3,"n"
    .asciz "ro_cost_horner"
    .text
    .global ro_cost_horner
    .seh_proc ro_cost_horner
ro_cost_horner:
    pushq %rbp
    .seh_pushreg %rbp
    movq %rsp, %rbp
    .seh_setframe %rbp, 0
    subq $1024, %rsp
    .seh_stackalloc 1024
    .seh_endprologue
    leaq L_RO_M(%rip), %rax
    pushq %rax
    movabsq $0x0, %rax
    pushq %rax
    movabsq $0x0, %rax
    pushq %rax
    popq %rdx
    popq %rcx
    popq %rax
    movl %edx, (%rax,%rcx,4)
    subq $8, %rsp
    movabsq $0x5, %rax
    pushq %rax
    movabsq $0x4, %rax
    pushq %rax
    movabsq $0x3, %rax
    pushq %rax
    movabsq $0x2, %rax
    pushq %rax
    movabsq $0x1, %rax
    pushq %rax
    popq %rcx
    popq %rdx
    popq %r8
    popq %r9
    subq $32, %rsp
    callq ro_horner
    addq $32, %rsp
    addq $8, %rsp
    addq $8, %rsp
    movl %eax, %eax
    pushq %rax
    popq %rax
    leaq L_RO_M(%rip), %rax
    pushq %rax
    movabsq $0x0, %rax
    pushq %rax
    popq %rcx
    popq %rax
    movl (%rax,%rcx,4), %eax
    pushq %rax
    popq %rax
    movq %rbp, %rsp
    popq %rbp
    retq
    movq $0, %rax
    pushq %rax
    movq $0, %rax
    movq %rbp, %rsp
    popq %rbp
    retq
    .seh_endproc
    .section .iii.ring3,"n"
    .asciz "ro_equiv_horner"
    .text
    .global ro_equiv_horner
    .seh_proc ro_equiv_horner
ro_equiv_horner:
    pushq %rbp
    .seh_pushreg %rbp
    movq %rsp, %rbp
    .seh_setframe %rbp, 0
    subq $1024, %rsp
    .seh_stackalloc 1024
    .seh_endprologue
    movabsq $0x0, %rax
    pushq %rax
    popq %rax
    movq %rax, -8(%rbp)
L_loop_top_0:
    movl -8(%rbp), %eax
    pushq %rax
    movabsq $0x8, %rax
    pushq %rax
    popq %rcx
    popq %rax
    cmpq %rcx, %rax
    setb %al
    movzbq %al, %rax
    pushq %rax
    popq %rax
    testq %rax, %rax
    jz L_loop_end_1
    movl -8(%rbp), %eax
    pushq %rax
    movabsq $0x1, %rax
    pushq %rax
    popq %rcx
    popq %rax
    addq %rcx, %rax
    movl %eax, %eax
    pushq %rax
    popq %rax
    movq %rax, -16(%rbp)
    movl -8(%rbp), %eax
    pushq %rax
    movabsq $0x2, %rax
    pushq %rax
    popq %rcx
    popq %rax
    addq %rcx, %rax
    movl %eax, %eax
    pushq %rax
    popq %rax
    movq %rax, -24(%rbp)
    movl -8(%rbp), %eax
    pushq %rax
    movabsq $0x3, %rax
    pushq %rax
    popq %rcx
    popq %rax
    addq %rcx, %rax
    movl %eax, %eax
    pushq %rax
    popq %rax
    movq %rax, -32(%rbp)
    movl -8(%rbp), %eax
    pushq %rax
    movabsq $0x4, %rax
    pushq %rax
    popq %rcx
    popq %rax
    addq %rcx, %rax
    movl %eax, %eax
    pushq %rax
    popq %rax
    movq %rax, -40(%rbp)
    movabsq $0x0, %rax
    pushq %rax
    popq %rax
    movq %rax, -48(%rbp)
L_loop_top_2:
    movl -48(%rbp), %eax
    pushq %rax
    movl L_RO_D(%rip), %eax
    pushq %rax
    popq %rcx
    popq %rax
    cmpq %rcx, %rax
    setb %al
    movzbq %al, %rax
    pushq %rax
    popq %rax
    testq %rax, %rax
    jz L_loop_end_3
    subq $8, %rsp
    movl -48(%rbp), %eax
    pushq %rax
    movl -40(%rbp), %eax
    pushq %rax
    movl -32(%rbp), %eax
    pushq %rax
    movl -24(%rbp), %eax
    pushq %rax
    movl -16(%rbp), %eax
    pushq %rax
    popq %rcx
    popq %rdx
    popq %r8
    popq %r9
    subq $32, %rsp
    callq ro_naive
    addq $32, %rsp
    addq $8, %rsp
    addq $8, %rsp
    movl %eax, %eax
    pushq %rax
    movl -48(%rbp), %eax
    pushq %rax
    movl -40(%rbp), %eax
    pushq %rax
    movl -32(%rbp), %eax
    pushq %rax
    movl -24(%rbp), %eax
    pushq %rax
    movl -16(%rbp), %eax
    pushq %rax
    popq %rcx
    popq %rdx
    popq %r8
    popq %r9
    subq $32, %rsp
    callq ro_horner
    addq $32, %rsp
    addq $8, %rsp
    movl %eax, %eax
    pushq %rax
    popq %rcx
    popq %rax
    cmpq %rcx, %rax
    setne %al
    movzbq %al, %rax
    pushq %rax
    popq %rax
    testq %rax, %rax
    jz L_if_end_5
    movabsq $0x0, %rax
    pushq %rax
    popq %rax
    movq %rbp, %rsp
    popq %rbp
    retq
    movq $0, %rax
    pushq %rax
    popq %rax
L_if_end_5:
    movl -48(%rbp), %eax
    pushq %rax
    movabsq $0x1, %rax
    pushq %rax
    popq %rcx
    popq %rax
    addq %rcx, %rax
    movl %eax, %eax
    pushq %rax
    popq %rax
    movq %rax, -48(%rbp)
    movq $0, %rax
    pushq %rax
    popq %rax
    jmp L_loop_top_2
L_loop_end_3:
    movl -8(%rbp), %eax
    pushq %rax
    movabsq $0x1, %rax
    pushq %rax
    popq %rcx
    popq %rax
    addq %rcx, %rax
    movl %eax, %eax
    pushq %rax
    popq %rax
    movq %rax, -8(%rbp)
    movq $0, %rax
    pushq %rax
    popq %rax
    jmp L_loop_top_0
L_loop_end_1:
    movabsq $0x1, %rax
    pushq %rax
    popq %rax
    movq %rbp, %rsp
    popq %rbp
    retq
    movq $0, %rax
    pushq %rax
    movq $0, %rax
    movq %rbp, %rsp
    popq %rbp
    retq
    .seh_endproc
    .section .iii.ring3,"n"
    .asciz "ring_opt_kat"
    .text
    .global ring_opt_kat
    .seh_proc ring_opt_kat
ring_opt_kat:
    pushq %rbp
    .seh_pushreg %rbp
    movq %rsp, %rbp
    .seh_setframe %rbp, 0
    subq $1024, %rsp
    .seh_stackalloc 1024
    .seh_endprologue
    subq $32, %rsp
    callq ro_equiv_horner
    addq $32, %rsp
    movl %eax, %eax
    pushq %rax
    movabsq $0x1, %rax
    pushq %rax
    popq %rcx
    popq %rax
    cmpq %rcx, %rax
    setne %al
    movzbq %al, %rax
    pushq %rax
    popq %rax
    testq %rax, %rax
    jz L_if_end_7
    movabsq $0x1, %rax
    pushq %rax
    popq %rax
    movq %rbp, %rsp
    popq %rbp
    retq
    movq $0, %rax
    pushq %rax
    popq %rax
L_if_end_7:
    subq $32, %rsp
    callq ro_cost_horner
    addq $32, %rsp
    movl %eax, %eax
    pushq %rax
    movabsq $0x3, %rax
    pushq %rax
    popq %rcx
    popq %rax
    cmpq %rcx, %rax
    setne %al
    movzbq %al, %rax
    pushq %rax
    popq %rax
    testq %rax, %rax
    jz L_if_end_9
    movabsq $0x2, %rax
    pushq %rax
    popq %rax
    movq %rbp, %rsp
    popq %rbp
    retq
    movq $0, %rax
    pushq %rax
    popq %rax
L_if_end_9:
    subq $32, %rsp
    callq ro_cost_naive
    addq $32, %rsp
    movl %eax, %eax
    pushq %rax
    movabsq $0x5, %rax
    pushq %rax
    popq %rcx
    popq %rax
    cmpq %rcx, %rax
    setne %al
    movzbq %al, %rax
    pushq %rax
    popq %rax
    testq %rax, %rax
    jz L_if_end_11
    movabsq $0x3, %rax
    pushq %rax
    popq %rax
    movq %rbp, %rsp
    popq %rbp
    retq
    movq $0, %rax
    pushq %rax
    popq %rax
L_if_end_11:
    subq $32, %rsp
    callq ro_cost_horner
    addq $32, %rsp
    movl %eax, %eax
    pushq %rax
    subq $8, %rsp
    subq $32, %rsp
    callq ro_cost_naive
    addq $32, %rsp
    addq $8, %rsp
    movl %eax, %eax
    pushq %rax
    popq %rcx
    popq %rax
    cmpq %rcx, %rax
    setae %al
    movzbq %al, %rax
    pushq %rax
    popq %rax
    testq %rax, %rax
    jz L_if_end_13
    movabsq $0x4, %rax
    pushq %rax
    popq %rax
    movq %rbp, %rsp
    popq %rbp
    retq
    movq $0, %rax
    pushq %rax
    popq %rax
L_if_end_13:
    subq $8, %rsp
    movabsq $0x5, %rax
    pushq %rax
    movabsq $0x4, %rax
    pushq %rax
    movabsq $0x3, %rax
    pushq %rax
    movabsq $0x2, %rax
    pushq %rax
    movabsq $0x1, %rax
    pushq %rax
    popq %rcx
    popq %rdx
    popq %r8
    popq %r9
    subq $32, %rsp
    callq ro_naive
    addq $32, %rsp
    addq $8, %rsp
    addq $8, %rsp
    movl %eax, %eax
    pushq %rax
    movabsq $0xc2, %rax
    pushq %rax
    popq %rcx
    popq %rax
    cmpq %rcx, %rax
    setne %al
    movzbq %al, %rax
    pushq %rax
    popq %rax
    testq %rax, %rax
    jz L_if_end_15
    movabsq $0x5, %rax
    pushq %rax
    popq %rax
    movq %rbp, %rsp
    popq %rbp
    retq
    movq $0, %rax
    pushq %rax
    popq %rax
L_if_end_15:
    subq $8, %rsp
    movabsq $0x5, %rax
    pushq %rax
    movabsq $0x4, %rax
    pushq %rax
    movabsq $0x3, %rax
    pushq %rax
    movabsq $0x2, %rax
    pushq %rax
    movabsq $0x1, %rax
    pushq %rax
    popq %rcx
    popq %rdx
    popq %r8
    popq %r9
    subq $32, %rsp
    callq ro_horner
    addq $32, %rsp
    addq $8, %rsp
    addq $8, %rsp
    movl %eax, %eax
    pushq %rax
    movabsq $0xc2, %rax
    pushq %rax
    popq %rcx
    popq %rax
    cmpq %rcx, %rax
    setne %al
    movzbq %al, %rax
    pushq %rax
    popq %rax
    testq %rax, %rax
    jz L_if_end_17
    movabsq $0x6, %rax
    pushq %rax
    popq %rax
    movq %rbp, %rsp
    popq %rbp
    retq
    movq $0, %rax
    pushq %rax
    popq %rax
L_if_end_17:
    subq $8, %rsp
    movabsq $0x5, %rax
    pushq %rax
    movabsq $0x4, %rax
    pushq %rax
    movabsq $0x3, %rax
    pushq %rax
    movabsq $0x2, %rax
    pushq %rax
    movabsq $0x1, %rax
    pushq %rax
    popq %rcx
    popq %rdx
    popq %r8
    popq %r9
    subq $32, %rsp
    callq ro_horner_wrong
    addq $32, %rsp
    addq $8, %rsp
    addq $8, %rsp
    movl %eax, %eax
    pushq %rax
    movabsq $0x5, %rax
    pushq %rax
    movabsq $0x4, %rax
    pushq %rax
    movabsq $0x3, %rax
    pushq %rax
    movabsq $0x2, %rax
    pushq %rax
    movabsq $0x1, %rax
    pushq %rax
    popq %rcx
    popq %rdx
    popq %r8
    popq %r9
    subq $32, %rsp
    callq ro_naive
    addq $32, %rsp
    addq $8, %rsp
    movl %eax, %eax
    pushq %rax
    popq %rcx
    popq %rax
    cmpq %rcx, %rax
    sete %al
    movzbq %al, %rax
    pushq %rax
    popq %rax
    testq %rax, %rax
    jz L_if_end_19
    movabsq $0x7, %rax
    pushq %rax
    popq %rax
    movq %rbp, %rsp
    popq %rbp
    retq
    movq $0, %rax
    pushq %rax
    popq %rax
L_if_end_19:
    movabsq $0x63, %rax
    pushq %rax
    popq %rax
    movq %rbp, %rsp
    popq %rbp
    retq
    movq $0, %rax
    pushq %rax
    movq $0, %rax
    movq %rbp, %rsp
    popq %rbp
    retq
    .seh_endproc
