# III Stage-0 Ring-3 codegen output
# Microsoft x64 ABI; gas syntax (AT&T); PE/COFF target
    .att_syntax
    .file 1 "<iii-source>"
    .section .rodata
L_str_0:
    .ascii "identifier.iiiidentifier.iiiidentifier.iiikeccak256.iiicad.iii\0"
L_str_1:
    .ascii "identifier.iiiidentifier.iiikeccak256.iiicad.iii\0"
L_str_2:
    .ascii "identifier.iiikeccak256.iiicad.iii\0"
L_str_3:
    .ascii "keccak256.iiicad.iii\0"
L_str_4:
    .ascii "cad.iii\0"
    .section .rodata
L_SHEAF_OK:
    .quad 0x0
L_SHEAF_E_FULL:
    .quad 0xffffffffffffffff
L_SHEAF_E_BAD_SLOT:
    .quad 0xfffffffffffffffe
L_SHEAF_E_NO_RESTRICT:
    .quad 0xfffffffffffffffd
L_SHEAF_E_NO_INTERSECT:
    .quad 0xfffffffffffffffc
L_SHEAF_E_GLUE_FAIL:
    .quad 0xfffffffffffffffb
L_SHEAF_MAX_OPEN:
    .quad 0x800
L_SHEAF_MAX_SECTION:
    .quad 0x2000
L_SHEAF_MAX_RESTRICT:
    .quad 0x2000
L_SHEAF_MAX_INTER:
    .quad 0x1000
L_SHEAF_MAX_COVER:
    .quad 0x400
L_SHEAF_IDBYTES:
    .quad 0x20
L_SHEAF_SENT:
    .quad 0xffffffff
    .section .bss
    .global L_SH_OPEN_LIVE
L_SH_OPEN_LIVE:
    .zero 16384
    .global L_SH_OPEN_ID
L_SH_OPEN_ID:
    .zero 524288
    .global L_SH_OPEN_PARENT
L_SH_OPEN_PARENT:
    .zero 16384
    .global L_SH_SEC_LIVE
L_SH_SEC_LIVE:
    .zero 65536
    .global L_SH_SEC_PRESHF
L_SH_SEC_PRESHF:
    .zero 2097152
    .global L_SH_SEC_OPEN
L_SH_SEC_OPEN:
    .zero 65536
    .global L_SH_SEC_ID
L_SH_SEC_ID:
    .zero 2097152
    .global L_SH_RES_LIVE
L_SH_RES_LIVE:
    .zero 65536
    .global L_SH_RES_PARENT
L_SH_RES_PARENT:
    .zero 65536
    .global L_SH_RES_CHILD
L_SH_RES_CHILD:
    .zero 65536
    .global L_SH_RES_XFORM
L_SH_RES_XFORM:
    .zero 2097152
    .global L_SH_INT_LIVE
L_SH_INT_LIVE:
    .zero 32768
    .global L_SH_INT_A
L_SH_INT_A:
    .zero 32768
    .global L_SH_INT_B
L_SH_INT_B:
    .zero 32768
    .global L_SH_INT_INTER
L_SH_INT_INTER:
    .zero 32768
    .global L_SH_IDS_BUF
L_SH_IDS_BUF:
    .zero 262144
    .global L_SH_SWAP_BUF
L_SH_SWAP_BUF:
    .zero 256
    .global L_SH_R_I
L_SH_R_I:
    .zero 256
    .global L_SH_R_J
L_SH_R_J:
    .zero 256
    .global L_SH_HASH_BUF
L_SH_HASH_BUF:
    .zero 768
    .global L_SH_ST_O0
L_SH_ST_O0:
    .zero 256
    .global L_SH_ST_O1
L_SH_ST_O1:
    .zero 256
    .global L_SH_ST_O2
L_SH_ST_O2:
    .zero 256
    .global L_SH_ST_O01
L_SH_ST_O01:
    .zero 256
    .global L_SH_ST_P
L_SH_ST_P:
    .zero 256
    .global L_SH_ST_T
L_SH_ST_T:
    .zero 256
    .global L_SH_ST_T2
L_SH_ST_T2:
    .zero 256
    .global L_SH_ST_SA
L_SH_ST_SA:
    .zero 256
    .global L_SH_ST_SB
L_SH_ST_SB:
    .zero 256
    .global L_SH_ST_OUT
L_SH_ST_OUT:
    .zero 256
    .global L_SH_ST_OUT2
L_SH_ST_OUT2:
    .zero 256
    .global L_SH_ST_REF
L_SH_ST_REF:
    .zero 256
    .global L_SH_ST_HBUF
L_SH_ST_HBUF:
    .zero 768
    .global L_SH_ST_RBUF
L_SH_ST_RBUF:
    .zero 512
    .global L_SH_ST_COVER
L_SH_ST_COVER:
    .zero 33024
    .section .iii.ring3,"n"
    .asciz "sh_open_id_ptr"
    .text
    .global L_sh_open_id_ptr
    .seh_proc L_sh_open_id_ptr
L_sh_open_id_ptr:
    pushq %rbp
    .seh_pushreg %rbp
    movq %rsp, %rbp
    .seh_setframe %rbp, 0
    subq $1024, %rsp
    .seh_stackalloc 1024
    .seh_endprologue
    movq %rcx, -8(%rbp)
    leaq L_SH_OPEN_ID(%rip), %rax
    pushq %rax
    popq %rax
    pushq %rax
    movl -8(%rbp), %eax
    pushq %rax
    popq %rax
    pushq %rax
    movabsq $0x20, %rax
    pushq %rax
    popq %rcx
    popq %rax
    imulq %rcx, %rax
    pushq %rax
    popq %rcx
    popq %rax
    addq %rcx, %rax
    pushq %rax
    popq %rax
    pushq %rax
    popq %rax
    movq %rbp, %rsp
    popq %rbp
    retq
    movq $0, %rax
    pushq %rax
    movq $0, %rax
    movq %rbp, %rsp
    popq %rbp
    retq
    .seh_endproc
    .section .iii.ring3,"n"
    .asciz "sh_sec_presheaf_ptr"
    .text
    .global L_sh_sec_presheaf_ptr
    .seh_proc L_sh_sec_presheaf_ptr
L_sh_sec_presheaf_ptr:
    pushq %rbp
    .seh_pushreg %rbp
    movq %rsp, %rbp
    .seh_setframe %rbp, 0
    subq $1024, %rsp
    .seh_stackalloc 1024
    .seh_endprologue
    movq %rcx, -8(%rbp)
    leaq L_SH_SEC_PRESHF(%rip), %rax
    pushq %rax
    popq %rax
    pushq %rax
    movl -8(%rbp), %eax
    pushq %rax
    popq %rax
    pushq %rax
    movabsq $0x20, %rax
    pushq %rax
    popq %rcx
    popq %rax
    imulq %rcx, %rax
    pushq %rax
    popq %rcx
    popq %rax
    addq %rcx, %rax
    pushq %rax
    popq %rax
    pushq %rax
    popq %rax
    movq %rbp, %rsp
    popq %rbp
    retq
    movq $0, %rax
    pushq %rax
    movq $0, %rax
    movq %rbp, %rsp
    popq %rbp
    retq
    .seh_endproc
    .section .iii.ring3,"n"
    .asciz "sh_sec_id_ptr"
    .text
    .global L_sh_sec_id_ptr
    .seh_proc L_sh_sec_id_ptr
L_sh_sec_id_ptr:
    pushq %rbp
    .seh_pushreg %rbp
    movq %rsp, %rbp
    .seh_setframe %rbp, 0
    subq $1024, %rsp
    .seh_stackalloc 1024
    .seh_endprologue
    movq %rcx, -8(%rbp)
    leaq L_SH_SEC_ID(%rip), %rax
    pushq %rax
    popq %rax
    pushq %rax
    movl -8(%rbp), %eax
    pushq %rax
    popq %rax
    pushq %rax
    movabsq $0x20, %rax
    pushq %rax
    popq %rcx
    popq %rax
    imulq %rcx, %rax
    pushq %rax
    popq %rcx
    popq %rax
    addq %rcx, %rax
    pushq %rax
    popq %rax
    pushq %rax
    popq %rax
    movq %rbp, %rsp
    popq %rbp
    retq
    movq $0, %rax
    pushq %rax
    movq $0, %rax
    movq %rbp, %rsp
    popq %rbp
    retq
    .seh_endproc
    .section .iii.ring3,"n"
    .asciz "sh_res_xform_ptr"
    .text
    .global L_sh_res_xform_ptr
    .seh_proc L_sh_res_xform_ptr
L_sh_res_xform_ptr:
    pushq %rbp
    .seh_pushreg %rbp
    movq %rsp, %rbp
    .seh_setframe %rbp, 0
    subq $1024, %rsp
    .seh_stackalloc 1024
    .seh_endprologue
    movq %rcx, -8(%rbp)
    leaq L_SH_RES_XFORM(%rip), %rax
    pushq %rax
    popq %rax
    pushq %rax
    movl -8(%rbp), %eax
    pushq %rax
    popq %rax
    pushq %rax
    movabsq $0x20, %rax
    pushq %rax
    popq %rcx
    popq %rax
    imulq %rcx, %rax
    pushq %rax
    popq %rcx
    popq %rax
    addq %rcx, %rax
    pushq %rax
    popq %rax
    pushq %rax
    popq %rax
    movq %rbp, %rsp
    popq %rbp
    retq
    movq $0, %rax
    pushq %rax
    movq $0, %rax
    movq %rbp, %rsp
    popq %rbp
    retq
    .seh_endproc
    .section .iii.ring3,"n"
    .asciz "sh_init"
    .text
    .global sh_init
    .seh_proc sh_init
sh_init:
    pushq %rbp
    .seh_pushreg %rbp
    movq %rsp, %rbp
    .seh_setframe %rbp, 0
    subq $1024, %rsp
    .seh_stackalloc 1024
    .seh_endprologue
    movabsq $0x0, %rax
    pushq %rax
    popq %rax
    movq %rax, -8(%rbp)
L_loop_top_0:
    movl -8(%rbp), %eax
    pushq %rax
    movl L_SHEAF_MAX_OPEN(%rip), %eax
    pushq %rax
    popq %rcx
    popq %rax
    cmpq %rcx, %rax
    setb %al
    movzbq %al, %rax
    pushq %rax
    popq %rax
    testq %rax, %rax
    jz L_loop_end_1
    leaq L_SH_OPEN_LIVE(%rip), %rax
    pushq %rax
    movl -8(%rbp), %eax
    pushq %rax
    movabsq $0x0, %rax
    pushq %rax
    popq %rdx
    popq %rcx
    popq %rax
    movb %dl, (%rax,%rcx,1)
    movl -8(%rbp), %eax
    pushq %rax
    movabsq $0x1, %rax
    pushq %rax
    popq %rcx
    popq %rax
    addq %rcx, %rax
    movl %eax, %eax
    pushq %rax
    popq %rax
    movq %rax, -8(%rbp)
    movq $0, %rax
    pushq %rax
    popq %rax
    jmp L_loop_top_0
L_loop_end_1:
    movabsq $0x0, %rax
    pushq %rax
    popq %rax
    movq %rax, -8(%rbp)
L_loop_top_2:
    movl -8(%rbp), %eax
    pushq %rax
    movl L_SHEAF_MAX_SECTION(%rip), %eax
    pushq %rax
    popq %rcx
    popq %rax
    cmpq %rcx, %rax
    setb %al
    movzbq %al, %rax
    pushq %rax
    popq %rax
    testq %rax, %rax
    jz L_loop_end_3
    leaq L_SH_SEC_LIVE(%rip), %rax
    pushq %rax
    movl -8(%rbp), %eax
    pushq %rax
    movabsq $0x0, %rax
    pushq %rax
    popq %rdx
    popq %rcx
    popq %rax
    movb %dl, (%rax,%rcx,1)
    movl -8(%rbp), %eax
    pushq %rax
    movabsq $0x1, %rax
    pushq %rax
    popq %rcx
    popq %rax
    addq %rcx, %rax
    movl %eax, %eax
    pushq %rax
    popq %rax
    movq %rax, -8(%rbp)
    movq $0, %rax
    pushq %rax
    popq %rax
    jmp L_loop_top_2
L_loop_end_3:
    movabsq $0x0, %rax
    pushq %rax
    popq %rax
    movq %rax, -8(%rbp)
L_loop_top_4:
    movl -8(%rbp), %eax
    pushq %rax
    movl L_SHEAF_MAX_RESTRICT(%rip), %eax
    pushq %rax
    popq %rcx
    popq %rax
    cmpq %rcx, %rax
    setb %al
    movzbq %al, %rax
    pushq %rax
    popq %rax
    testq %rax, %rax
    jz L_loop_end_5
    leaq L_SH_RES_LIVE(%rip), %rax
    pushq %rax
    movl -8(%rbp), %eax
    pushq %rax
    movabsq $0x0, %rax
    pushq %rax
    popq %rdx
    popq %rcx
    popq %rax
    movb %dl, (%rax,%rcx,1)
    movl -8(%rbp), %eax
    pushq %rax
    movabsq $0x1, %rax
    pushq %rax
    popq %rcx
    popq %rax
    addq %rcx, %rax
    movl %eax, %eax
    pushq %rax
    popq %rax
    movq %rax, -8(%rbp)
    movq $0, %rax
    pushq %rax
    popq %rax
    jmp L_loop_top_4
L_loop_end_5:
    movabsq $0x0, %rax
    pushq %rax
    popq %rax
    movq %rax, -8(%rbp)
L_loop_top_6:
    movl -8(%rbp), %eax
    pushq %rax
    movl L_SHEAF_MAX_INTER(%rip), %eax
    pushq %rax
    popq %rcx
    popq %rax
    cmpq %rcx, %rax
    setb %al
    movzbq %al, %rax
    pushq %rax
    popq %rax
    testq %rax, %rax
    jz L_loop_end_7
    leaq L_SH_INT_LIVE(%rip), %rax
    pushq %rax
    movl -8(%rbp), %eax
    pushq %rax
    movabsq $0x0, %rax
    pushq %rax
    popq %rdx
    popq %rcx
    popq %rax
    movb %dl, (%rax,%rcx,1)
    movl -8(%rbp), %eax
    pushq %rax
    movabsq $0x1, %rax
    pushq %rax
    popq %rcx
    popq %rax
    addq %rcx, %rax
    movl %eax, %eax
    pushq %rax
    popq %rax
    movq %rax, -8(%rbp)
    movq $0, %rax
    pushq %rax
    popq %rax
    jmp L_loop_top_6
L_loop_end_7:
    movslq L_SHEAF_OK(%rip), %rax
    pushq %rax
    popq %rax
    movq %rbp, %rsp
    popq %rbp
    retq
    movq $0, %rax
    pushq %rax
    movq $0, %rax
    movq %rbp, %rsp
    popq %rbp
    retq
    .seh_endproc
    .section .iii.ring3,"n"
    .asciz "sh_find_open"
    .text
    .global sh_find_open
    .seh_proc sh_find_open
sh_find_open:
    pushq %rbp
    .seh_pushreg %rbp
    movq %rsp, %rbp
    .seh_setframe %rbp, 0
    subq $1024, %rsp
    .seh_stackalloc 1024
    .seh_endprologue
    movq %rcx, -8(%rbp)
    movl L_SHEAF_SENT(%rip), %eax
    pushq %rax
    popq %rax
    movq %rax, -16(%rbp)
    movabsq $0x0, %rax
    pushq %rax
    popq %rax
    movq %rax, -24(%rbp)
L_loop_top_8:
    movl -24(%rbp), %eax
    pushq %rax
    movl L_SHEAF_MAX_OPEN(%rip), %eax
    pushq %rax
    popq %rcx
    popq %rax
    cmpq %rcx, %rax
    setb %al
    movzbq %al, %rax
    pushq %rax
    popq %rax
    testq %rax, %rax
    jz L_loop_end_9
    leaq L_SH_OPEN_LIVE(%rip), %rax
    pushq %rax
    movl -24(%rbp), %eax
    pushq %rax
    popq %rcx
    popq %rax
    movzbq (%rax,%rcx,1), %rax
    pushq %rax
    movabsq $0x1, %rax
    pushq %rax
    popq %rcx
    popq %rax
    cmpq %rcx, %rax
    sete %al
    movzbq %al, %rax
    pushq %rax
    popq %rax
    testq %rax, %rax
    jz L_if_end_11
    movl -16(%rbp), %eax
    pushq %rax
    movl L_SHEAF_SENT(%rip), %eax
    pushq %rax
    popq %rcx
    popq %rax
    cmpq %rcx, %rax
    sete %al
    movzbq %al, %rax
    pushq %rax
    popq %rax
    testq %rax, %rax
    jz L_if_end_13
    movq -8(%rbp), %rax
    pushq %rax
    subq $8, %rsp
    movl -24(%rbp), %eax
    pushq %rax
    popq %rcx
    subq $32, %rsp
    callq L_sh_open_id_ptr
    addq $32, %rsp
    addq $8, %rsp
    pushq %rax
    popq %rcx
    popq %rdx
    subq $32, %rsp
    callq ident_eq
    addq $32, %rsp
    movzbq %al, %rax
    pushq %rax
    movabsq $0x1, %rax
    pushq %rax
    popq %rcx
    popq %rax
    cmpq %rcx, %rax
    sete %al
    movzbq %al, %rax
    pushq %rax
    popq %rax
    testq %rax, %rax
    jz L_if_end_15
    movl -24(%rbp), %eax
    pushq %rax
    popq %rax
    movq %rax, -16(%rbp)
    movq $0, %rax
    pushq %rax
    popq %rax
L_if_end_15:
    movq $0, %rax
    pushq %rax
    popq %rax
L_if_end_13:
    movq $0, %rax
    pushq %rax
    popq %rax
L_if_end_11:
    movl -24(%rbp), %eax
    pushq %rax
    movabsq $0x1, %rax
    pushq %rax
    popq %rcx
    popq %rax
    addq %rcx, %rax
    movl %eax, %eax
    pushq %rax
    popq %rax
    movq %rax, -24(%rbp)
    movq $0, %rax
    pushq %rax
    popq %rax
    jmp L_loop_top_8
L_loop_end_9:
    movl -16(%rbp), %eax
    pushq %rax
    popq %rax
    movq %rbp, %rsp
    popq %rbp
    retq
    movq $0, %rax
    pushq %rax
    movq $0, %rax
    movq %rbp, %rsp
    popq %rbp
    retq
    .seh_endproc
    .section .iii.ring3,"n"
    .asciz "sh_add_open"
    .text
    .global sh_add_open
    .seh_proc sh_add_open
sh_add_open:
    pushq %rbp
    .seh_pushreg %rbp
    movq %rsp, %rbp
    .seh_setframe %rbp, 0
    subq $1024, %rsp
    .seh_stackalloc 1024
    .seh_endprologue
    movq %rcx, -8(%rbp)
    movq %rdx, -16(%rbp)
    movq -8(%rbp), %rax
    pushq %rax
    popq %rcx
    subq $32, %rsp
    callq sh_find_open
    addq $32, %rsp
    movl %eax, %eax
    pushq %rax
    popq %rax
    movq %rax, -24(%rbp)
    movl -24(%rbp), %eax
    pushq %rax
    movl L_SHEAF_SENT(%rip), %eax
    pushq %rax
    popq %rcx
    popq %rax
    cmpq %rcx, %rax
    setne %al
    movzbq %al, %rax
    pushq %rax
    popq %rax
    testq %rax, %rax
    jz L_if_end_17
    movl -24(%rbp), %eax
    pushq %rax
    popq %rax
    movq %rbp, %rsp
    popq %rbp
    retq
    movq $0, %rax
    pushq %rax
    popq %rax
L_if_end_17:
    movl L_SHEAF_SENT(%rip), %eax
    pushq %rax
    popq %rax
    movq %rax, -32(%rbp)
    movabsq $0x0, %rax
    pushq %rax
    popq %rax
    movq %rax, -40(%rbp)
L_loop_top_18:
    movl -40(%rbp), %eax
    pushq %rax
    movl L_SHEAF_MAX_OPEN(%rip), %eax
    pushq %rax
    popq %rcx
    popq %rax
    cmpq %rcx, %rax
    setb %al
    movzbq %al, %rax
    pushq %rax
    popq %rax
    testq %rax, %rax
    jz L_loop_end_19
    movl -32(%rbp), %eax
    pushq %rax
    movl L_SHEAF_SENT(%rip), %eax
    pushq %rax
    popq %rcx
    popq %rax
    cmpq %rcx, %rax
    sete %al
    movzbq %al, %rax
    pushq %rax
    popq %rax
    testq %rax, %rax
    jz L_if_end_21
    leaq L_SH_OPEN_LIVE(%rip), %rax
    pushq %rax
    movl -40(%rbp), %eax
    pushq %rax
    popq %rcx
    popq %rax
    movzbq (%rax,%rcx,1), %rax
    pushq %rax
    movabsq $0x0, %rax
    pushq %rax
    popq %rcx
    popq %rax
    cmpq %rcx, %rax
    sete %al
    movzbq %al, %rax
    pushq %rax
    popq %rax
    testq %rax, %rax
    jz L_if_end_23
    movl -40(%rbp), %eax
    pushq %rax
    popq %rax
    movq %rax, -32(%rbp)
    movq $0, %rax
    pushq %rax
    popq %rax
L_if_end_23:
    movq $0, %rax
    pushq %rax
    popq %rax
L_if_end_21:
    movl -40(%rbp), %eax
    pushq %rax
    movabsq $0x1, %rax
    pushq %rax
    popq %rcx
    popq %rax
    addq %rcx, %rax
    movl %eax, %eax
    pushq %rax
    popq %rax
    movq %rax, -40(%rbp)
    movq $0, %rax
    pushq %rax
    popq %rax
    jmp L_loop_top_18
L_loop_end_19:
    movl -32(%rbp), %eax
    pushq %rax
    movl L_SHEAF_SENT(%rip), %eax
    pushq %rax
    popq %rcx
    popq %rax
    cmpq %rcx, %rax
    sete %al
    movzbq %al, %rax
    pushq %rax
    popq %rax
    testq %rax, %rax
    jz L_if_end_25
    movl L_SHEAF_SENT(%rip), %eax
    pushq %rax
    popq %rax
    movq %rbp, %rsp
    popq %rbp
    retq
    movq $0, %rax
    pushq %rax
    popq %rax
L_if_end_25:
    movl -32(%rbp), %eax
    pushq %rax
    popq %rcx
    subq $32, %rsp
    callq L_sh_open_id_ptr
    addq $32, %rsp
    pushq %rax
    movq -8(%rbp), %rax
    pushq %rax
    popq %rcx
    popq %rdx
    subq $32, %rsp
    callq ident_copy
    addq $32, %rsp
    movslq %eax, %rax
    pushq %rax
    popq %rax
    leaq L_SH_OPEN_PARENT(%rip), %rax
    pushq %rax
    movl -32(%rbp), %eax
    pushq %rax
    movl -16(%rbp), %eax
    pushq %rax
    popq %rdx
    popq %rcx
    popq %rax
    movl %edx, (%rax,%rcx,4)
    leaq L_SH_OPEN_LIVE(%rip), %rax
    pushq %rax
    movl -32(%rbp), %eax
    pushq %rax
    movabsq $0x1, %rax
    pushq %rax
    popq %rdx
    popq %rcx
    popq %rax
    movb %dl, (%rax,%rcx,1)
    movl -32(%rbp), %eax
    pushq %rax
    popq %rax
    movq %rbp, %rsp
    popq %rbp
    retq
    movq $0, %rax
    pushq %rax
    movq $0, %rax
    movq %rbp, %rsp
    popq %rbp
    retq
    .seh_endproc
    .section .iii.ring3,"n"
    .asciz "sh_find_section"
    .text
    .global sh_find_section
    .seh_proc sh_find_section
sh_find_section:
    pushq %rbp
    .seh_pushreg %rbp
    movq %rsp, %rbp
    .seh_setframe %rbp, 0
    subq $1024, %rsp
    .seh_stackalloc 1024
    .seh_endprologue
    movq %rcx, -8(%rbp)
    movq %rdx, -16(%rbp)
    movl L_SHEAF_SENT(%rip), %eax
    pushq %rax
    popq %rax
    movq %rax, -24(%rbp)
    movabsq $0x0, %rax
    pushq %rax
    popq %rax
    movq %rax, -32(%rbp)
L_loop_top_26:
    movl -32(%rbp), %eax
    pushq %rax
    movl L_SHEAF_MAX_SECTION(%rip), %eax
    pushq %rax
    popq %rcx
    popq %rax
    cmpq %rcx, %rax
    setb %al
    movzbq %al, %rax
    pushq %rax
    popq %rax
    testq %rax, %rax
    jz L_loop_end_27
    leaq L_SH_SEC_LIVE(%rip), %rax
    pushq %rax
    movl -32(%rbp), %eax
    pushq %rax
    popq %rcx
    popq %rax
    movzbq (%rax,%rcx,1), %rax
    pushq %rax
    movabsq $0x1, %rax
    pushq %rax
    popq %rcx
    popq %rax
    cmpq %rcx, %rax
    sete %al
    movzbq %al, %rax
    pushq %rax
    popq %rax
    testq %rax, %rax
    jz L_if_end_29
    movl -24(%rbp), %eax
    pushq %rax
    movl L_SHEAF_SENT(%rip), %eax
    pushq %rax
    popq %rcx
    popq %rax
    cmpq %rcx, %rax
    sete %al
    movzbq %al, %rax
    pushq %rax
    popq %rax
    testq %rax, %rax
    jz L_if_end_31
    leaq L_SH_SEC_OPEN(%rip), %rax
    pushq %rax
    movl -32(%rbp), %eax
    pushq %rax
    popq %rcx
    popq %rax
    movl (%rax,%rcx,4), %eax
    pushq %rax
    movl -16(%rbp), %eax
    pushq %rax
    popq %rcx
    popq %rax
    cmpq %rcx, %rax
    sete %al
    movzbq %al, %rax
    pushq %rax
    popq %rax
    testq %rax, %rax
    jz L_if_end_33
    movq -8(%rbp), %rax
    pushq %rax
    subq $8, %rsp
    movl -32(%rbp), %eax
    pushq %rax
    popq %rcx
    subq $32, %rsp
    callq L_sh_sec_presheaf_ptr
    addq $32, %rsp
    addq $8, %rsp
    pushq %rax
    popq %rcx
    popq %rdx
    subq $32, %rsp
    callq ident_eq
    addq $32, %rsp
    movzbq %al, %rax
    pushq %rax
    movabsq $0x1, %rax
    pushq %rax
    popq %rcx
    popq %rax
    cmpq %rcx, %rax
    sete %al
    movzbq %al, %rax
    pushq %rax
    popq %rax
    testq %rax, %rax
    jz L_if_end_35
    movl -32(%rbp), %eax
    pushq %rax
    popq %rax
    movq %rax, -24(%rbp)
    movq $0, %rax
    pushq %rax
    popq %rax
L_if_end_35:
    movq $0, %rax
    pushq %rax
    popq %rax
L_if_end_33:
    movq $0, %rax
    pushq %rax
    popq %rax
L_if_end_31:
    movq $0, %rax
    pushq %rax
    popq %rax
L_if_end_29:
    movl -32(%rbp), %eax
    pushq %rax
    movabsq $0x1, %rax
    pushq %rax
    popq %rcx
    popq %rax
    addq %rcx, %rax
    movl %eax, %eax
    pushq %rax
    popq %rax
    movq %rax, -32(%rbp)
    movq $0, %rax
    pushq %rax
    popq %rax
    jmp L_loop_top_26
L_loop_end_27:
    movl -24(%rbp), %eax
    pushq %rax
    popq %rax
    movq %rbp, %rsp
    popq %rbp
    retq
    movq $0, %rax
    pushq %rax
    movq $0, %rax
    movq %rbp, %rsp
    popq %rbp
    retq
    .seh_endproc
    .section .iii.ring3,"n"
    .asciz "sh_add_section"
    .text
    .global sh_add_section
    .seh_proc sh_add_section
sh_add_section:
    pushq %rbp
    .seh_pushreg %rbp
    movq %rsp, %rbp
    .seh_setframe %rbp, 0
    subq $1024, %rsp
    .seh_stackalloc 1024
    .seh_endprologue
    movq %rcx, -8(%rbp)
    movq %rdx, -16(%rbp)
    movq %r8, -24(%rbp)
    movl -16(%rbp), %eax
    pushq %rax
    movq -8(%rbp), %rax
    pushq %rax
    popq %rcx
    popq %rdx
    subq $32, %rsp
    callq sh_find_section
    addq $32, %rsp
    movl %eax, %eax
    pushq %rax
    popq %rax
    movq %rax, -32(%rbp)
    movl -32(%rbp), %eax
    pushq %rax
    movl L_SHEAF_SENT(%rip), %eax
    pushq %rax
    popq %rcx
    popq %rax
    cmpq %rcx, %rax
    setne %al
    movzbq %al, %rax
    pushq %rax
    popq %rax
    testq %rax, %rax
    jz L_if_end_37
    movl -32(%rbp), %eax
    pushq %rax
    popq %rcx
    subq $32, %rsp
    callq L_sh_sec_id_ptr
    addq $32, %rsp
    pushq %rax
    movq -24(%rbp), %rax
    pushq %rax
    popq %rcx
    popq %rdx
    subq $32, %rsp
    callq ident_copy
    addq $32, %rsp
    movslq %eax, %rax
    pushq %rax
    popq %rax
    movl -32(%rbp), %eax
    pushq %rax
    popq %rax
    movq %rbp, %rsp
    popq %rbp
    retq
    movq $0, %rax
    pushq %rax
    popq %rax
L_if_end_37:
    movl L_SHEAF_SENT(%rip), %eax
    pushq %rax
    popq %rax
    movq %rax, -40(%rbp)
    movabsq $0x0, %rax
    pushq %rax
    popq %rax
    movq %rax, -48(%rbp)
L_loop_top_38:
    movl -48(%rbp), %eax
    pushq %rax
    movl L_SHEAF_MAX_SECTION(%rip), %eax
    pushq %rax
    popq %rcx
    popq %rax
    cmpq %rcx, %rax
    setb %al
    movzbq %al, %rax
    pushq %rax
    popq %rax
    testq %rax, %rax
    jz L_loop_end_39
    movl -40(%rbp), %eax
    pushq %rax
    movl L_SHEAF_SENT(%rip), %eax
    pushq %rax
    popq %rcx
    popq %rax
    cmpq %rcx, %rax
    sete %al
    movzbq %al, %rax
    pushq %rax
    popq %rax
    testq %rax, %rax
    jz L_if_end_41
    leaq L_SH_SEC_LIVE(%rip), %rax
    pushq %rax
    movl -48(%rbp), %eax
    pushq %rax
    popq %rcx
    popq %rax
    movzbq (%rax,%rcx,1), %rax
    pushq %rax
    movabsq $0x0, %rax
    pushq %rax
    popq %rcx
    popq %rax
    cmpq %rcx, %rax
    sete %al
    movzbq %al, %rax
    pushq %rax
    popq %rax
    testq %rax, %rax
    jz L_if_end_43
    movl -48(%rbp), %eax
    pushq %rax
    popq %rax
    movq %rax, -40(%rbp)
    movq $0, %rax
    pushq %rax
    popq %rax
L_if_end_43:
    movq $0, %rax
    pushq %rax
    popq %rax
L_if_end_41:
    movl -48(%rbp), %eax
    pushq %rax
    movabsq $0x1, %rax
    pushq %rax
    popq %rcx
    popq %rax
    addq %rcx, %rax
    movl %eax, %eax
    pushq %rax
    popq %rax
    movq %rax, -48(%rbp)
    movq $0, %rax
    pushq %rax
    popq %rax
    jmp L_loop_top_38
L_loop_end_39:
    movl -40(%rbp), %eax
    pushq %rax
    movl L_SHEAF_SENT(%rip), %eax
    pushq %rax
    popq %rcx
    popq %rax
    cmpq %rcx, %rax
    sete %al
    movzbq %al, %rax
    pushq %rax
    popq %rax
    testq %rax, %rax
    jz L_if_end_45
    movl L_SHEAF_SENT(%rip), %eax
    pushq %rax
    popq %rax
    movq %rbp, %rsp
    popq %rbp
    retq
    movq $0, %rax
    pushq %rax
    popq %rax
L_if_end_45:
    movl -40(%rbp), %eax
    pushq %rax
    popq %rcx
    subq $32, %rsp
    callq L_sh_sec_presheaf_ptr
    addq $32, %rsp
    pushq %rax
    movq -8(%rbp), %rax
    pushq %rax
    popq %rcx
    popq %rdx
    subq $32, %rsp
    callq ident_copy
    addq $32, %rsp
    movslq %eax, %rax
    pushq %rax
    popq %rax
    leaq L_SH_SEC_OPEN(%rip), %rax
    pushq %rax
    movl -40(%rbp), %eax
    pushq %rax
    movl -16(%rbp), %eax
    pushq %rax
    popq %rdx
    popq %rcx
    popq %rax
    movl %edx, (%rax,%rcx,4)
    movl -40(%rbp), %eax
    pushq %rax
    popq %rcx
    subq $32, %rsp
    callq L_sh_sec_id_ptr
    addq $32, %rsp
    pushq %rax
    movq -24(%rbp), %rax
    pushq %rax
    popq %rcx
    popq %rdx
    subq $32, %rsp
    callq ident_copy
    addq $32, %rsp
    movslq %eax, %rax
    pushq %rax
    popq %rax
    leaq L_SH_SEC_LIVE(%rip), %rax
    pushq %rax
    movl -40(%rbp), %eax
    pushq %rax
    movabsq $0x1, %rax
    pushq %rax
    popq %rdx
    popq %rcx
    popq %rax
    movb %dl, (%rax,%rcx,1)
    movl -40(%rbp), %eax
    pushq %rax
    popq %rax
    movq %rbp, %rsp
    popq %rbp
    retq
    movq $0, %rax
    pushq %rax
    movq $0, %rax
    movq %rbp, %rsp
    popq %rbp
    retq
    .seh_endproc
    .section .iii.ring3,"n"
    .asciz "sh_section_id"
    .text
    .global sh_section_id
    .seh_proc sh_section_id
sh_section_id:
    pushq %rbp
    .seh_pushreg %rbp
    movq %rsp, %rbp
    .seh_setframe %rbp, 0
    subq $1024, %rsp
    .seh_stackalloc 1024
    .seh_endprologue
    movq %rcx, -8(%rbp)
    movq %rdx, -16(%rbp)
    movl -8(%rbp), %eax
    pushq %rax
    movl L_SHEAF_MAX_SECTION(%rip), %eax
    pushq %rax
    popq %rcx
    popq %rax
    cmpq %rcx, %rax
    setae %al
    movzbq %al, %rax
    pushq %rax
    popq %rax
    testq %rax, %rax
    jz L_if_end_47
    movslq L_SHEAF_E_BAD_SLOT(%rip), %rax
    pushq %rax
    popq %rax
    movq %rbp, %rsp
    popq %rbp
    retq
    movq $0, %rax
    pushq %rax
    popq %rax
L_if_end_47:
    leaq L_SH_SEC_LIVE(%rip), %rax
    pushq %rax
    movl -8(%rbp), %eax
    pushq %rax
    popq %rcx
    popq %rax
    movzbq (%rax,%rcx,1), %rax
    pushq %rax
    movabsq $0x0, %rax
    pushq %rax
    popq %rcx
    popq %rax
    cmpq %rcx, %rax
    sete %al
    movzbq %al, %rax
    pushq %rax
    popq %rax
    testq %rax, %rax
    jz L_if_end_49
    movslq L_SHEAF_E_BAD_SLOT(%rip), %rax
    pushq %rax
    popq %rax
    movq %rbp, %rsp
    popq %rbp
    retq
    movq $0, %rax
    pushq %rax
    popq %rax
L_if_end_49:
    movq -16(%rbp), %rax
    pushq %rax
    subq $8, %rsp
    movl -8(%rbp), %eax
    pushq %rax
    popq %rcx
    subq $32, %rsp
    callq L_sh_sec_id_ptr
    addq $32, %rsp
    addq $8, %rsp
    pushq %rax
    popq %rcx
    popq %rdx
    subq $32, %rsp
    callq ident_copy
    addq $32, %rsp
    movslq %eax, %rax
    pushq %rax
    popq %rax
    movslq L_SHEAF_OK(%rip), %rax
    pushq %rax
    popq %rax
    movq %rbp, %rsp
    popq %rbp
    retq
    movq $0, %rax
    pushq %rax
    movq $0, %rax
    movq %rbp, %rsp
    popq %rbp
    retq
    .seh_endproc
    .section .iii.ring3,"n"
    .asciz "sh_find_restriction"
    .text
    .global sh_find_restriction
    .seh_proc sh_find_restriction
sh_find_restriction:
    pushq %rbp
    .seh_pushreg %rbp
    movq %rsp, %rbp
    .seh_setframe %rbp, 0
    subq $1024, %rsp
    .seh_stackalloc 1024
    .seh_endprologue
    movq %rcx, -8(%rbp)
    movq %rdx, -16(%rbp)
    movl L_SHEAF_SENT(%rip), %eax
    pushq %rax
    popq %rax
    movq %rax, -24(%rbp)
    movabsq $0x0, %rax
    pushq %rax
    popq %rax
    movq %rax, -32(%rbp)
L_loop_top_50:
    movl -32(%rbp), %eax
    pushq %rax
    movl L_SHEAF_MAX_RESTRICT(%rip), %eax
    pushq %rax
    popq %rcx
    popq %rax
    cmpq %rcx, %rax
    setb %al
    movzbq %al, %rax
    pushq %rax
    popq %rax
    testq %rax, %rax
    jz L_loop_end_51
    leaq L_SH_RES_LIVE(%rip), %rax
    pushq %rax
    movl -32(%rbp), %eax
    pushq %rax
    popq %rcx
    popq %rax
    movzbq (%rax,%rcx,1), %rax
    pushq %rax
    movabsq $0x1, %rax
    pushq %rax
    popq %rcx
    popq %rax
    cmpq %rcx, %rax
    sete %al
    movzbq %al, %rax
    pushq %rax
    popq %rax
    testq %rax, %rax
    jz L_if_end_53
    movl -24(%rbp), %eax
    pushq %rax
    movl L_SHEAF_SENT(%rip), %eax
    pushq %rax
    popq %rcx
    popq %rax
    cmpq %rcx, %rax
    sete %al
    movzbq %al, %rax
    pushq %rax
    popq %rax
    testq %rax, %rax
    jz L_if_end_55
    leaq L_SH_RES_PARENT(%rip), %rax
    pushq %rax
    movl -32(%rbp), %eax
    pushq %rax
    popq %rcx
    popq %rax
    movl (%rax,%rcx,4), %eax
    pushq %rax
    movl -8(%rbp), %eax
    pushq %rax
    popq %rcx
    popq %rax
    cmpq %rcx, %rax
    sete %al
    movzbq %al, %rax
    pushq %rax
    popq %rax
    testq %rax, %rax
    jz L_if_end_57
    leaq L_SH_RES_CHILD(%rip), %rax
    pushq %rax
    movl -32(%rbp), %eax
    pushq %rax
    popq %rcx
    popq %rax
    movl (%rax,%rcx,4), %eax
    pushq %rax
    movl -16(%rbp), %eax
    pushq %rax
    popq %rcx
    popq %rax
    cmpq %rcx, %rax
    sete %al
    movzbq %al, %rax
    pushq %rax
    popq %rax
    testq %rax, %rax
    jz L_if_end_59
    movl -32(%rbp), %eax
    pushq %rax
    popq %rax
    movq %rax, -24(%rbp)
    movq $0, %rax
    pushq %rax
    popq %rax
L_if_end_59:
    movq $0, %rax
    pushq %rax
    popq %rax
L_if_end_57:
    movq $0, %rax
    pushq %rax
    popq %rax
L_if_end_55:
    movq $0, %rax
    pushq %rax
    popq %rax
L_if_end_53:
    movl -32(%rbp), %eax
    pushq %rax
    movabsq $0x1, %rax
    pushq %rax
    popq %rcx
    popq %rax
    addq %rcx, %rax
    movl %eax, %eax
    pushq %rax
    popq %rax
    movq %rax, -32(%rbp)
    movq $0, %rax
    pushq %rax
    popq %rax
    jmp L_loop_top_50
L_loop_end_51:
    movl -24(%rbp), %eax
    pushq %rax
    popq %rax
    movq %rbp, %rsp
    popq %rbp
    retq
    movq $0, %rax
    pushq %rax
    movq $0, %rax
    movq %rbp, %rsp
    popq %rbp
    retq
    .seh_endproc
    .section .iii.ring3,"n"
    .asciz "sh_add_restriction"
    .text
    .global sh_add_restriction
    .seh_proc sh_add_restriction
sh_add_restriction:
    pushq %rbp
    .seh_pushreg %rbp
    movq %rsp, %rbp
    .seh_setframe %rbp, 0
    subq $1024, %rsp
    .seh_stackalloc 1024
    .seh_endprologue
    movq %rcx, -8(%rbp)
    movq %rdx, -16(%rbp)
    movq %r8, -24(%rbp)
    movl -16(%rbp), %eax
    pushq %rax
    movl -8(%rbp), %eax
    pushq %rax
    popq %rcx
    popq %rdx
    subq $32, %rsp
    callq sh_find_restriction
    addq $32, %rsp
    movl %eax, %eax
    pushq %rax
    popq %rax
    movq %rax, -32(%rbp)
    movl -32(%rbp), %eax
    pushq %rax
    movl L_SHEAF_SENT(%rip), %eax
    pushq %rax
    popq %rcx
    popq %rax
    cmpq %rcx, %rax
    setne %al
    movzbq %al, %rax
    pushq %rax
    popq %rax
    testq %rax, %rax
    jz L_if_end_61
    movl -32(%rbp), %eax
    pushq %rax
    popq %rcx
    subq $32, %rsp
    callq L_sh_res_xform_ptr
    addq $32, %rsp
    pushq %rax
    movq -24(%rbp), %rax
    pushq %rax
    popq %rcx
    popq %rdx
    subq $32, %rsp
    callq ident_copy
    addq $32, %rsp
    movslq %eax, %rax
    pushq %rax
    popq %rax
    movl -32(%rbp), %eax
    pushq %rax
    popq %rax
    movq %rbp, %rsp
    popq %rbp
    retq
    movq $0, %rax
    pushq %rax
    popq %rax
L_if_end_61:
    movl L_SHEAF_SENT(%rip), %eax
    pushq %rax
    popq %rax
    movq %rax, -40(%rbp)
    movabsq $0x0, %rax
    pushq %rax
    popq %rax
    movq %rax, -48(%rbp)
L_loop_top_62:
    movl -48(%rbp), %eax
    pushq %rax
    movl L_SHEAF_MAX_RESTRICT(%rip), %eax
    pushq %rax
    popq %rcx
    popq %rax
    cmpq %rcx, %rax
    setb %al
    movzbq %al, %rax
    pushq %rax
    popq %rax
    testq %rax, %rax
    jz L_loop_end_63
    movl -40(%rbp), %eax
    pushq %rax
    movl L_SHEAF_SENT(%rip), %eax
    pushq %rax
    popq %rcx
    popq %rax
    cmpq %rcx, %rax
    sete %al
    movzbq %al, %rax
    pushq %rax
    popq %rax
    testq %rax, %rax
    jz L_if_end_65
    leaq L_SH_RES_LIVE(%rip), %rax
    pushq %rax
    movl -48(%rbp), %eax
    pushq %rax
    popq %rcx
    popq %rax
    movzbq (%rax,%rcx,1), %rax
    pushq %rax
    movabsq $0x0, %rax
    pushq %rax
    popq %rcx
    popq %rax
    cmpq %rcx, %rax
    sete %al
    movzbq %al, %rax
    pushq %rax
    popq %rax
    testq %rax, %rax
    jz L_if_end_67
    movl -48(%rbp), %eax
    pushq %rax
    popq %rax
    movq %rax, -40(%rbp)
    movq $0, %rax
    pushq %rax
    popq %rax
L_if_end_67:
    movq $0, %rax
    pushq %rax
    popq %rax
L_if_end_65:
    movl -48(%rbp), %eax
    pushq %rax
    movabsq $0x1, %rax
    pushq %rax
    popq %rcx
    popq %rax
    addq %rcx, %rax
    movl %eax, %eax
    pushq %rax
    popq %rax
    movq %rax, -48(%rbp)
    movq $0, %rax
    pushq %rax
    popq %rax
    jmp L_loop_top_62
L_loop_end_63:
    movl -40(%rbp), %eax
    pushq %rax
    movl L_SHEAF_SENT(%rip), %eax
    pushq %rax
    popq %rcx
    popq %rax
    cmpq %rcx, %rax
    sete %al
    movzbq %al, %rax
    pushq %rax
    popq %rax
    testq %rax, %rax
    jz L_if_end_69
    movl L_SHEAF_SENT(%rip), %eax
    pushq %rax
    popq %rax
    movq %rbp, %rsp
    popq %rbp
    retq
    movq $0, %rax
    pushq %rax
    popq %rax
L_if_end_69:
    leaq L_SH_RES_PARENT(%rip), %rax
    pushq %rax
    movl -40(%rbp), %eax
    pushq %rax
    movl -8(%rbp), %eax
    pushq %rax
    popq %rdx
    popq %rcx
    popq %rax
    movl %edx, (%rax,%rcx,4)
    leaq L_SH_RES_CHILD(%rip), %rax
    pushq %rax
    movl -40(%rbp), %eax
    pushq %rax
    movl -16(%rbp), %eax
    pushq %rax
    popq %rdx
    popq %rcx
    popq %rax
    movl %edx, (%rax,%rcx,4)
    movl -40(%rbp), %eax
    pushq %rax
    popq %rcx
    subq $32, %rsp
    callq L_sh_res_xform_ptr
    addq $32, %rsp
    pushq %rax
    movq -24(%rbp), %rax
    pushq %rax
    popq %rcx
    popq %rdx
    subq $32, %rsp
    callq ident_copy
    addq $32, %rsp
    movslq %eax, %rax
    pushq %rax
    popq %rax
    leaq L_SH_RES_LIVE(%rip), %rax
    pushq %rax
    movl -40(%rbp), %eax
    pushq %rax
    movabsq $0x1, %rax
    pushq %rax
    popq %rdx
    popq %rcx
    popq %rax
    movb %dl, (%rax,%rcx,1)
    movl -40(%rbp), %eax
    pushq %rax
    popq %rax
    movq %rbp, %rsp
    popq %rbp
    retq
    movq $0, %rax
    pushq %rax
    movq $0, %rax
    movq %rbp, %rsp
    popq %rbp
    retq
    .seh_endproc
    .section .iii.ring3,"n"
    .asciz "sh_find_intersection"
    .text
    .global sh_find_intersection
    .seh_proc sh_find_intersection
sh_find_intersection:
    pushq %rbp
    .seh_pushreg %rbp
    movq %rsp, %rbp
    .seh_setframe %rbp, 0
    subq $1024, %rsp
    .seh_stackalloc 1024
    .seh_endprologue
    movq %rcx, -8(%rbp)
    movq %rdx, -16(%rbp)
    movl L_SHEAF_SENT(%rip), %eax
    pushq %rax
    popq %rax
    movq %rax, -24(%rbp)
    movabsq $0x0, %rax
    pushq %rax
    popq %rax
    movq %rax, -32(%rbp)
L_loop_top_70:
    movl -32(%rbp), %eax
    pushq %rax
    movl L_SHEAF_MAX_INTER(%rip), %eax
    pushq %rax
    popq %rcx
    popq %rax
    cmpq %rcx, %rax
    setb %al
    movzbq %al, %rax
    pushq %rax
    popq %rax
    testq %rax, %rax
    jz L_loop_end_71
    leaq L_SH_INT_LIVE(%rip), %rax
    pushq %rax
    movl -32(%rbp), %eax
    pushq %rax
    popq %rcx
    popq %rax
    movzbq (%rax,%rcx,1), %rax
    pushq %rax
    movabsq $0x1, %rax
    pushq %rax
    popq %rcx
    popq %rax
    cmpq %rcx, %rax
    sete %al
    movzbq %al, %rax
    pushq %rax
    popq %rax
    testq %rax, %rax
    jz L_if_end_73
    movl -24(%rbp), %eax
    pushq %rax
    movl L_SHEAF_SENT(%rip), %eax
    pushq %rax
    popq %rcx
    popq %rax
    cmpq %rcx, %rax
    sete %al
    movzbq %al, %rax
    pushq %rax
    popq %rax
    testq %rax, %rax
    jz L_if_end_75
    leaq L_SH_INT_A(%rip), %rax
    pushq %rax
    movl -32(%rbp), %eax
    pushq %rax
    popq %rcx
    popq %rax
    movl (%rax,%rcx,4), %eax
    pushq %rax
    popq %rax
    movq %rax, -40(%rbp)
    leaq L_SH_INT_B(%rip), %rax
    pushq %rax
    movl -32(%rbp), %eax
    pushq %rax
    popq %rcx
    popq %rax
    movl (%rax,%rcx,4), %eax
    pushq %rax
    popq %rax
    movq %rax, -48(%rbp)
    movl -40(%rbp), %eax
    pushq %rax
    movl -8(%rbp), %eax
    pushq %rax
    popq %rcx
    popq %rax
    cmpq %rcx, %rax
    sete %al
    movzbq %al, %rax
    pushq %rax
    popq %rax
    testq %rax, %rax
    jz L_if_end_77
    movl -48(%rbp), %eax
    pushq %rax
    movl -16(%rbp), %eax
    pushq %rax
    popq %rcx
    popq %rax
    cmpq %rcx, %rax
    sete %al
    movzbq %al, %rax
    pushq %rax
    popq %rax
    testq %rax, %rax
    jz L_if_end_79
    movl -32(%rbp), %eax
    pushq %rax
    popq %rax
    movq %rax, -24(%rbp)
    movq $0, %rax
    pushq %rax
    popq %rax
L_if_end_79:
    movq $0, %rax
    pushq %rax
    popq %rax
L_if_end_77:
    movl -40(%rbp), %eax
    pushq %rax
    movl -16(%rbp), %eax
    pushq %rax
    popq %rcx
    popq %rax
    cmpq %rcx, %rax
    sete %al
    movzbq %al, %rax
    pushq %rax
    popq %rax
    testq %rax, %rax
    jz L_if_end_81
    movl -48(%rbp), %eax
    pushq %rax
    movl -8(%rbp), %eax
    pushq %rax
    popq %rcx
    popq %rax
    cmpq %rcx, %rax
    sete %al
    movzbq %al, %rax
    pushq %rax
    popq %rax
    testq %rax, %rax
    jz L_if_end_83
    movl -32(%rbp), %eax
    pushq %rax
    popq %rax
    movq %rax, -24(%rbp)
    movq $0, %rax
    pushq %rax
    popq %rax
L_if_end_83:
    movq $0, %rax
    pushq %rax
    popq %rax
L_if_end_81:
    movq $0, %rax
    pushq %rax
    popq %rax
L_if_end_75:
    movq $0, %rax
    pushq %rax
    popq %rax
L_if_end_73:
    movl -32(%rbp), %eax
    pushq %rax
    movabsq $0x1, %rax
    pushq %rax
    popq %rcx
    popq %rax
    addq %rcx, %rax
    movl %eax, %eax
    pushq %rax
    popq %rax
    movq %rax, -32(%rbp)
    movq $0, %rax
    pushq %rax
    popq %rax
    jmp L_loop_top_70
L_loop_end_71:
    movl -24(%rbp), %eax
    pushq %rax
    popq %rax
    movq %rbp, %rsp
    popq %rbp
    retq
    movq $0, %rax
    pushq %rax
    movq $0, %rax
    movq %rbp, %rsp
    popq %rbp
    retq
    .seh_endproc
    .section .iii.ring3,"n"
    .asciz "sh_add_intersection"
    .text
    .global sh_add_intersection
    .seh_proc sh_add_intersection
sh_add_intersection:
    pushq %rbp
    .seh_pushreg %rbp
    movq %rsp, %rbp
    .seh_setframe %rbp, 0
    subq $1024, %rsp
    .seh_stackalloc 1024
    .seh_endprologue
    movq %rcx, -8(%rbp)
    movq %rdx, -16(%rbp)
    movq %r8, -24(%rbp)
    movl -16(%rbp), %eax
    pushq %rax
    movl -8(%rbp), %eax
    pushq %rax
    popq %rcx
    popq %rdx
    subq $32, %rsp
    callq sh_find_intersection
    addq $32, %rsp
    movl %eax, %eax
    pushq %rax
    popq %rax
    movq %rax, -32(%rbp)
    movl -32(%rbp), %eax
    pushq %rax
    movl L_SHEAF_SENT(%rip), %eax
    pushq %rax
    popq %rcx
    popq %rax
    cmpq %rcx, %rax
    setne %al
    movzbq %al, %rax
    pushq %rax
    popq %rax
    testq %rax, %rax
    jz L_if_end_85
    leaq L_SH_INT_INTER(%rip), %rax
    pushq %rax
    movl -32(%rbp), %eax
    pushq %rax
    movl -24(%rbp), %eax
    pushq %rax
    popq %rdx
    popq %rcx
    popq %rax
    movl %edx, (%rax,%rcx,4)
    movl -32(%rbp), %eax
    pushq %rax
    popq %rax
    movq %rbp, %rsp
    popq %rbp
    retq
    movq $0, %rax
    pushq %rax
    popq %rax
L_if_end_85:
    movl -8(%rbp), %eax
    pushq %rax
    popq %rax
    movq %rax, -40(%rbp)
    movl -16(%rbp), %eax
    pushq %rax
    popq %rax
    movq %rax, -48(%rbp)
    movl -8(%rbp), %eax
    pushq %rax
    movl -16(%rbp), %eax
    pushq %rax
    popq %rcx
    popq %rax
    cmpq %rcx, %rax
    seta %al
    movzbq %al, %rax
    pushq %rax
    popq %rax
    testq %rax, %rax
    jz L_if_end_87
    movl -16(%rbp), %eax
    pushq %rax
    popq %rax
    movq %rax, -40(%rbp)
    movl -8(%rbp), %eax
    pushq %rax
    popq %rax
    movq %rax, -48(%rbp)
    movq $0, %rax
    pushq %rax
    popq %rax
L_if_end_87:
    movl L_SHEAF_SENT(%rip), %eax
    pushq %rax
    popq %rax
    movq %rax, -56(%rbp)
    movabsq $0x0, %rax
    pushq %rax
    popq %rax
    movq %rax, -64(%rbp)
L_loop_top_88:
    movl -64(%rbp), %eax
    pushq %rax
    movl L_SHEAF_MAX_INTER(%rip), %eax
    pushq %rax
    popq %rcx
    popq %rax
    cmpq %rcx, %rax
    setb %al
    movzbq %al, %rax
    pushq %rax
    popq %rax
    testq %rax, %rax
    jz L_loop_end_89
    movl -56(%rbp), %eax
    pushq %rax
    movl L_SHEAF_SENT(%rip), %eax
    pushq %rax
    popq %rcx
    popq %rax
    cmpq %rcx, %rax
    sete %al
    movzbq %al, %rax
    pushq %rax
    popq %rax
    testq %rax, %rax
    jz L_if_end_91
    leaq L_SH_INT_LIVE(%rip), %rax
    pushq %rax
    movl -64(%rbp), %eax
    pushq %rax
    popq %rcx
    popq %rax
    movzbq (%rax,%rcx,1), %rax
    pushq %rax
    movabsq $0x0, %rax
    pushq %rax
    popq %rcx
    popq %rax
    cmpq %rcx, %rax
    sete %al
    movzbq %al, %rax
    pushq %rax
    popq %rax
    testq %rax, %rax
    jz L_if_end_93
    movl -64(%rbp), %eax
    pushq %rax
    popq %rax
    movq %rax, -56(%rbp)
    movq $0, %rax
    pushq %rax
    popq %rax
L_if_end_93:
    movq $0, %rax
    pushq %rax
    popq %rax
L_if_end_91:
    movl -64(%rbp), %eax
    pushq %rax
    movabsq $0x1, %rax
    pushq %rax
    popq %rcx
    popq %rax
    addq %rcx, %rax
    movl %eax, %eax
    pushq %rax
    popq %rax
    movq %rax, -64(%rbp)
    movq $0, %rax
    pushq %rax
    popq %rax
    jmp L_loop_top_88
L_loop_end_89:
    movl -56(%rbp), %eax
    pushq %rax
    movl L_SHEAF_SENT(%rip), %eax
    pushq %rax
    popq %rcx
    popq %rax
    cmpq %rcx, %rax
    sete %al
    movzbq %al, %rax
    pushq %rax
    popq %rax
    testq %rax, %rax
    jz L_if_end_95
    movl L_SHEAF_SENT(%rip), %eax
    pushq %rax
    popq %rax
    movq %rbp, %rsp
    popq %rbp
    retq
    movq $0, %rax
    pushq %rax
    popq %rax
L_if_end_95:
    leaq L_SH_INT_A(%rip), %rax
    pushq %rax
    movl -56(%rbp), %eax
    pushq %rax
    movl -40(%rbp), %eax
    pushq %rax
    popq %rdx
    popq %rcx
    popq %rax
    movl %edx, (%rax,%rcx,4)
    leaq L_SH_INT_B(%rip), %rax
    pushq %rax
    movl -56(%rbp), %eax
    pushq %rax
    movl -48(%rbp), %eax
    pushq %rax
    popq %rdx
    popq %rcx
    popq %rax
    movl %edx, (%rax,%rcx,4)
    leaq L_SH_INT_INTER(%rip), %rax
    pushq %rax
    movl -56(%rbp), %eax
    pushq %rax
    movl -24(%rbp), %eax
    pushq %rax
    popq %rdx
    popq %rcx
    popq %rax
    movl %edx, (%rax,%rcx,4)
    leaq L_SH_INT_LIVE(%rip), %rax
    pushq %rax
    movl -56(%rbp), %eax
    pushq %rax
    movabsq $0x1, %rax
    pushq %rax
    popq %rdx
    popq %rcx
    popq %rax
    movb %dl, (%rax,%rcx,1)
    movl -56(%rbp), %eax
    pushq %rax
    popq %rax
    movq %rbp, %rsp
    popq %rbp
    retq
    movq $0, %rax
    pushq %rax
    movq $0, %rax
    movq %rbp, %rsp
    popq %rbp
    retq
    .seh_endproc
    .section .iii.ring3,"n"
    .asciz "sh_restrict"
    .text
    .global sh_restrict
    .seh_proc sh_restrict
sh_restrict:
    pushq %rbp
    .seh_pushreg %rbp
    movq %rsp, %rbp
    .seh_setframe %rbp, 0
    subq $1024, %rsp
    .seh_stackalloc 1024
    .seh_endprologue
    movq %rcx, -8(%rbp)
    movq %rdx, -16(%rbp)
    movq %r8, -24(%rbp)
    movq %r9, -32(%rbp)
    movl -8(%rbp), %eax
    pushq %rax
    movl L_SHEAF_MAX_SECTION(%rip), %eax
    pushq %rax
    popq %rcx
    popq %rax
    cmpq %rcx, %rax
    setae %al
    movzbq %al, %rax
    pushq %rax
    popq %rax
    testq %rax, %rax
    jz L_if_end_97
    movslq L_SHEAF_E_BAD_SLOT(%rip), %rax
    pushq %rax
    popq %rax
    movq %rbp, %rsp
    popq %rbp
    retq
    movq $0, %rax
    pushq %rax
    popq %rax
L_if_end_97:
    leaq L_SH_SEC_LIVE(%rip), %rax
    pushq %rax
    movl -8(%rbp), %eax
    pushq %rax
    popq %rcx
    popq %rax
    movzbq (%rax,%rcx,1), %rax
    pushq %rax
    movabsq $0x0, %rax
    pushq %rax
    popq %rcx
    popq %rax
    cmpq %rcx, %rax
    sete %al
    movzbq %al, %rax
    pushq %rax
    popq %rax
    testq %rax, %rax
    jz L_if_end_99
    movslq L_SHEAF_E_BAD_SLOT(%rip), %rax
    pushq %rax
    popq %rax
    movq %rbp, %rsp
    popq %rbp
    retq
    movq $0, %rax
    pushq %rax
    popq %rax
L_if_end_99:
    movl -24(%rbp), %eax
    pushq %rax
    movl -16(%rbp), %eax
    pushq %rax
    popq %rcx
    popq %rdx
    subq $32, %rsp
    callq sh_find_restriction
    addq $32, %rsp
    movl %eax, %eax
    pushq %rax
    popq %rax
    movq %rax, -40(%rbp)
    movl -40(%rbp), %eax
    pushq %rax
    movl L_SHEAF_SENT(%rip), %eax
    pushq %rax
    popq %rcx
    popq %rax
    cmpq %rcx, %rax
    sete %al
    movzbq %al, %rax
    pushq %rax
    popq %rax
    testq %rax, %rax
    jz L_if_end_101
    movslq L_SHEAF_E_NO_RESTRICT(%rip), %rax
    pushq %rax
    popq %rax
    movq %rbp, %rsp
    popq %rbp
    retq
    movq $0, %rax
    pushq %rax
    popq %rax
L_if_end_101:
    movl -8(%rbp), %eax
    pushq %rax
    popq %rcx
    subq $32, %rsp
    callq L_sh_sec_id_ptr
    addq $32, %rsp
    pushq %rax
    popq %rax
    movq %rax, -48(%rbp)
    movl -40(%rbp), %eax
    pushq %rax
    popq %rcx
    subq $32, %rsp
    callq L_sh_res_xform_ptr
    addq $32, %rsp
    pushq %rax
    popq %rax
    movq %rax, -56(%rbp)
    movl -24(%rbp), %eax
    pushq %rax
    popq %rcx
    subq $32, %rsp
    callq L_sh_open_id_ptr
    addq $32, %rsp
    pushq %rax
    popq %rax
    movq %rax, -64(%rbp)
    movabsq $0x0, %rax
    pushq %rax
    popq %rax
    movq %rax, -72(%rbp)
L_loop_top_102:
    movq -72(%rbp), %rax
    pushq %rax
    movq L_SHEAF_IDBYTES(%rip), %rax
    pushq %rax
    popq %rcx
    popq %rax
    cmpq %rcx, %rax
    setb %al
    movzbq %al, %rax
    pushq %rax
    popq %rax
    testq %rax, %rax
    jz L_loop_end_103
    leaq L_SH_HASH_BUF(%rip), %rax
    pushq %rax
    movq -72(%rbp), %rax
    pushq %rax
    movq -48(%rbp), %rax
    pushq %rax
    movq -72(%rbp), %rax
    pushq %rax
    popq %rcx
    popq %rax
    movzbq (%rax,%rcx,1), %rax
    pushq %rax
    popq %rdx
    popq %rcx
    popq %rax
    movb %dl, (%rax,%rcx,1)
    leaq L_SH_HASH_BUF(%rip), %rax
    pushq %rax
    movq L_SHEAF_IDBYTES(%rip), %rax
    pushq %rax
    movq -72(%rbp), %rax
    pushq %rax
    popq %rcx
    popq %rax
    addq %rcx, %rax
    pushq %rax
    movq -56(%rbp), %rax
    pushq %rax
    movq -72(%rbp), %rax
    pushq %rax
    popq %rcx
    popq %rax
    movzbq (%rax,%rcx,1), %rax
    pushq %rax
    popq %rdx
    popq %rcx
    popq %rax
    movb %dl, (%rax,%rcx,1)
    leaq L_SH_HASH_BUF(%rip), %rax
    pushq %rax
    movabsq $0x2, %rax
    pushq %rax
    movq L_SHEAF_IDBYTES(%rip), %rax
    pushq %rax
    popq %rcx
    popq %rax
    imulq %rcx, %rax
    pushq %rax
    movq -72(%rbp), %rax
    pushq %rax
    popq %rcx
    popq %rax
    addq %rcx, %rax
    pushq %rax
    movq -64(%rbp), %rax
    pushq %rax
    movq -72(%rbp), %rax
    pushq %rax
    popq %rcx
    popq %rax
    movzbq (%rax,%rcx,1), %rax
    pushq %rax
    popq %rdx
    popq %rcx
    popq %rax
    movb %dl, (%rax,%rcx,1)
    movq -72(%rbp), %rax
    pushq %rax
    movabsq $0x1, %rax
    pushq %rax
    popq %rcx
    popq %rax
    addq %rcx, %rax
    pushq %rax
    popq %rax
    movq %rax, -72(%rbp)
    movq $0, %rax
    pushq %rax
    popq %rax
    jmp L_loop_top_102
L_loop_end_103:
    movq -32(%rbp), %rax
    pushq %rax
    popq %rax
    pushq %rax
    popq %rax
    pushq %rax
    movabsq $0x60, %rax
    pushq %rax
    leaq L_SH_HASH_BUF(%rip), %rax
    pushq %rax
    popq %rax
    pushq %rax
    popq %rax
    pushq %rax
    movabsq $0x1, %rax
    pushq %rax
    popq %rcx
    popq %rdx
    popq %r8
    popq %r9
    subq $32, %rsp
    callq cad_oneshot
    addq $32, %rsp
    movslq %eax, %rax
    pushq %rax
    popq %rax
    movslq L_SHEAF_OK(%rip), %rax
    pushq %rax
    popq %rax
    movq %rbp, %rsp
    popq %rbp
    retq
    movq $0, %rax
    pushq %rax
    movq $0, %rax
    movq %rbp, %rsp
    popq %rbp
    retq
    .seh_endproc
    .section .iii.ring3,"n"
    .asciz "sh_cover_n"
    .text
    .global L_sh_cover_n
    .seh_proc L_sh_cover_n
L_sh_cover_n:
    pushq %rbp
    .seh_pushreg %rbp
    movq %rsp, %rbp
    .seh_setframe %rbp, 0
    subq $1024, %rsp
    .seh_stackalloc 1024
    .seh_endprologue
    movq %rcx, -8(%rbp)
    movabsq $0x0, %rax
    pushq %rax
    popq %rax
    movq %rax, -16(%rbp)
    movq -16(%rbp), %rax
    pushq %rax
    movq -8(%rbp), %rax
    pushq %rax
    movabsq $0x20, %rax
    pushq %rax
    popq %rcx
    popq %rax
    movzbq (%rax,%rcx,1), %rax
    pushq %rax
    popq %rax
    pushq %rax
    popq %rcx
    popq %rax
    orq %rcx, %rax
    pushq %rax
    popq %rax
    movq %rax, -16(%rbp)
    movq -16(%rbp), %rax
    pushq %rax
    movq -8(%rbp), %rax
    pushq %rax
    movabsq $0x21, %rax
    pushq %rax
    popq %rcx
    popq %rax
    movzbq (%rax,%rcx,1), %rax
    pushq %rax
    popq %rax
    pushq %rax
    movabsq $0x8, %rax
    pushq %rax
    popq %rcx
    popq %rax
    shlq %cl, %rax
    pushq %rax
    popq %rcx
    popq %rax
    orq %rcx, %rax
    pushq %rax
    popq %rax
    movq %rax, -16(%rbp)
    movq -16(%rbp), %rax
    pushq %rax
    movq -8(%rbp), %rax
    pushq %rax
    movabsq $0x22, %rax
    pushq %rax
    popq %rcx
    popq %rax
    movzbq (%rax,%rcx,1), %rax
    pushq %rax
    popq %rax
    pushq %rax
    movabsq $0x10, %rax
    pushq %rax
    popq %rcx
    popq %rax
    shlq %cl, %rax
    pushq %rax
    popq %rcx
    popq %rax
    orq %rcx, %rax
    pushq %rax
    popq %rax
    movq %rax, -16(%rbp)
    movq -16(%rbp), %rax
    pushq %rax
    movq -8(%rbp), %rax
    pushq %rax
    movabsq $0x23, %rax
    pushq %rax
    popq %rcx
    popq %rax
    movzbq (%rax,%rcx,1), %rax
    pushq %rax
    popq %rax
    pushq %rax
    movabsq $0x18, %rax
    pushq %rax
    popq %rcx
    popq %rax
    shlq %cl, %rax
    pushq %rax
    popq %rcx
    popq %rax
    orq %rcx, %rax
    pushq %rax
    popq %rax
    movq %rax, -16(%rbp)
    movq -16(%rbp), %rax
    pushq %rax
    movq -8(%rbp), %rax
    pushq %rax
    movabsq $0x24, %rax
    pushq %rax
    popq %rcx
    popq %rax
    movzbq (%rax,%rcx,1), %rax
    pushq %rax
    popq %rax
    pushq %rax
    movabsq $0x20, %rax
    pushq %rax
    popq %rcx
    popq %rax
    shlq %cl, %rax
    pushq %rax
    popq %rcx
    popq %rax
    orq %rcx, %rax
    pushq %rax
    popq %rax
    movq %rax, -16(%rbp)
    movq -16(%rbp), %rax
    pushq %rax
    movq -8(%rbp), %rax
    pushq %rax
    movabsq $0x25, %rax
    pushq %rax
    popq %rcx
    popq %rax
    movzbq (%rax,%rcx,1), %rax
    pushq %rax
    popq %rax
    pushq %rax
    movabsq $0x28, %rax
    pushq %rax
    popq %rcx
    popq %rax
    shlq %cl, %rax
    pushq %rax
    popq %rcx
    popq %rax
    orq %rcx, %rax
    pushq %rax
    popq %rax
    movq %rax, -16(%rbp)
    movq -16(%rbp), %rax
    pushq %rax
    movq -8(%rbp), %rax
    pushq %rax
    movabsq $0x26, %rax
    pushq %rax
    popq %rcx
    popq %rax
    movzbq (%rax,%rcx,1), %rax
    pushq %rax
    popq %rax
    pushq %rax
    movabsq $0x30, %rax
    pushq %rax
    popq %rcx
    popq %rax
    shlq %cl, %rax
    pushq %rax
    popq %rcx
    popq %rax
    orq %rcx, %rax
    pushq %rax
    popq %rax
    movq %rax, -16(%rbp)
    movq -16(%rbp), %rax
    pushq %rax
    movq -8(%rbp), %rax
    pushq %rax
    movabsq $0x27, %rax
    pushq %rax
    popq %rcx
    popq %rax
    movzbq (%rax,%rcx,1), %rax
    pushq %rax
    popq %rax
    pushq %rax
    movabsq $0x38, %rax
    pushq %rax
    popq %rcx
    popq %rax
    shlq %cl, %rax
    pushq %rax
    popq %rcx
    popq %rax
    orq %rcx, %rax
    pushq %rax
    popq %rax
    movq %rax, -16(%rbp)
    movq -16(%rbp), %rax
    pushq %rax
    popq %rax
    movq %rbp, %rsp
    popq %rbp
    retq
    movq $0, %rax
    pushq %rax
    movq $0, %rax
    movq %rbp, %rsp
    popq %rbp
    retq
    .seh_endproc
    .section .iii.ring3,"n"
    .asciz "sh_cover_slot"
    .text
    .global L_sh_cover_slot
    .seh_proc L_sh_cover_slot
L_sh_cover_slot:
    pushq %rbp
    .seh_pushreg %rbp
    movq %rsp, %rbp
    .seh_setframe %rbp, 0
    subq $1024, %rsp
    .seh_stackalloc 1024
    .seh_endprologue
    movq %rcx, -8(%rbp)
    movq %rdx, -16(%rbp)
    movabsq $0x28, %rax
    pushq %rax
    movq -16(%rbp), %rax
    pushq %rax
    movabsq $0x4, %rax
    pushq %rax
    popq %rcx
    popq %rax
    imulq %rcx, %rax
    pushq %rax
    popq %rcx
    popq %rax
    addq %rcx, %rax
    pushq %rax
    popq %rax
    movq %rax, -24(%rbp)
    movabsq $0x0, %rax
    pushq %rax
    popq %rax
    movq %rax, -32(%rbp)
    movl -32(%rbp), %eax
    pushq %rax
    movq -8(%rbp), %rax
    pushq %rax
    movq -24(%rbp), %rax
    pushq %rax
    popq %rcx
    popq %rax
    movzbq (%rax,%rcx,1), %rax
    pushq %rax
    popq %rax
    movl %eax, %eax
    pushq %rax
    popq %rcx
    popq %rax
    orq %rcx, %rax
    pushq %rax
    popq %rax
    movq %rax, -32(%rbp)
    movl -32(%rbp), %eax
    pushq %rax
    movq -8(%rbp), %rax
    pushq %rax
    movq -24(%rbp), %rax
    pushq %rax
    movabsq $0x1, %rax
    pushq %rax
    popq %rcx
    popq %rax
    addq %rcx, %rax
    pushq %rax
    popq %rcx
    popq %rax
    movzbq (%rax,%rcx,1), %rax
    pushq %rax
    popq %rax
    movl %eax, %eax
    pushq %rax
    movabsq $0x8, %rax
    pushq %rax
    popq %rcx
    popq %rax
    shlq %cl, %rax
    movl %eax, %eax
    pushq %rax
    popq %rcx
    popq %rax
    orq %rcx, %rax
    pushq %rax
    popq %rax
    movq %rax, -32(%rbp)
    movl -32(%rbp), %eax
    pushq %rax
    movq -8(%rbp), %rax
    pushq %rax
    movq -24(%rbp), %rax
    pushq %rax
    movabsq $0x2, %rax
    pushq %rax
    popq %rcx
    popq %rax
    addq %rcx, %rax
    pushq %rax
    popq %rcx
    popq %rax
    movzbq (%rax,%rcx,1), %rax
    pushq %rax
    popq %rax
    movl %eax, %eax
    pushq %rax
    movabsq $0x10, %rax
    pushq %rax
    popq %rcx
    popq %rax
    shlq %cl, %rax
    movl %eax, %eax
    pushq %rax
    popq %rcx
    popq %rax
    orq %rcx, %rax
    pushq %rax
    popq %rax
    movq %rax, -32(%rbp)
    movl -32(%rbp), %eax
    pushq %rax
    movq -8(%rbp), %rax
    pushq %rax
    movq -24(%rbp), %rax
    pushq %rax
    movabsq $0x3, %rax
    pushq %rax
    popq %rcx
    popq %rax
    addq %rcx, %rax
    pushq %rax
    popq %rcx
    popq %rax
    movzbq (%rax,%rcx,1), %rax
    pushq %rax
    popq %rax
    movl %eax, %eax
    pushq %rax
    movabsq $0x18, %rax
    pushq %rax
    popq %rcx
    popq %rax
    shlq %cl, %rax
    movl %eax, %eax
    pushq %rax
    popq %rcx
    popq %rax
    orq %rcx, %rax
    pushq %rax
    popq %rax
    movq %rax, -32(%rbp)
    movl -32(%rbp), %eax
    pushq %rax
    popq %rax
    movq %rbp, %rsp
    popq %rbp
    retq
    movq $0, %rax
    pushq %rax
    movq $0, %rax
    movq %rbp, %rsp
    popq %rbp
    retq
    .seh_endproc
    .section .iii.ring3,"n"
    .asciz "sh_collect_ids"
    .text
    .global L_sh_collect_ids
    .seh_proc L_sh_collect_ids
L_sh_collect_ids:
    pushq %rbp
    .seh_pushreg %rbp
    movq %rsp, %rbp
    .seh_setframe %rbp, 0
    subq $1024, %rsp
    .seh_stackalloc 1024
    .seh_endprologue
    movq %rcx, -8(%rbp)
    movq %rdx, -16(%rbp)
    movq -8(%rbp), %rax
    pushq %rax
    popq %rax
    movq %rax, -24(%rbp)
    movslq L_SHEAF_OK(%rip), %rax
    pushq %rax
    popq %rax
    movq %rax, -32(%rbp)
    movabsq $0x0, %rax
    pushq %rax
    popq %rax
    movq %rax, -40(%rbp)
L_loop_top_104:
    movq -40(%rbp), %rax
    pushq %rax
    movq -16(%rbp), %rax
    pushq %rax
    popq %rcx
    popq %rax
    cmpq %rcx, %rax
    setb %al
    movzbq %al, %rax
    pushq %rax
    popq %rax
    testq %rax, %rax
    jz L_loop_end_105
    movslq -32(%rbp), %rax
    pushq %rax
    movslq L_SHEAF_OK(%rip), %rax
    pushq %rax
    popq %rcx
    popq %rax
    cmpq %rcx, %rax
    sete %al
    movzbq %al, %rax
    pushq %rax
    popq %rax
    testq %rax, %rax
    jz L_if_end_107
    movq -40(%rbp), %rax
    pushq %rax
    movq -8(%rbp), %rax
    pushq %rax
    popq %rcx
    popq %rdx
    subq $32, %rsp
    callq L_sh_cover_slot
    addq $32, %rsp
    movl %eax, %eax
    pushq %rax
    popq %rax
    movq %rax, -48(%rbp)
    movl -48(%rbp), %eax
    pushq %rax
    movq -24(%rbp), %rax
    pushq %rax
    popq %rcx
    popq %rdx
    subq $32, %rsp
    callq sh_find_section
    addq $32, %rsp
    movl %eax, %eax
    pushq %rax
    popq %rax
    movq %rax, -56(%rbp)
    movl -56(%rbp), %eax
    pushq %rax
    movl L_SHEAF_SENT(%rip), %eax
    pushq %rax
    popq %rcx
    popq %rax
    cmpq %rcx, %rax
    sete %al
    movzbq %al, %rax
    pushq %rax
    popq %rax
    testq %rax, %rax
    jz L_if_else_108
    movslq L_SHEAF_E_BAD_SLOT(%rip), %rax
    pushq %rax
    popq %rax
    movq %rax, -32(%rbp)
    movq $0, %rax
    pushq %rax
    popq %rax
    jmp L_if_end_109
L_if_else_108:
    movl -56(%rbp), %eax
    pushq %rax
    popq %rcx
    subq $32, %rsp
    callq L_sh_sec_id_ptr
    addq $32, %rsp
    pushq %rax
    popq %rax
    movq %rax, -64(%rbp)
    movq -40(%rbp), %rax
    pushq %rax
    movabsq $0x20, %rax
    pushq %rax
    popq %rcx
    popq %rax
    imulq %rcx, %rax
    pushq %rax
    popq %rax
    movq %rax, -72(%rbp)
    movabsq $0x0, %rax
    pushq %rax
    popq %rax
    movq %rax, -80(%rbp)
L_loop_top_110:
    movq -80(%rbp), %rax
    pushq %rax
    movabsq $0x20, %rax
    pushq %rax
    popq %rcx
    popq %rax
    cmpq %rcx, %rax
    setb %al
    movzbq %al, %rax
    pushq %rax
    popq %rax
    testq %rax, %rax
    jz L_loop_end_111
    leaq L_SH_IDS_BUF(%rip), %rax
    pushq %rax
    movq -72(%rbp), %rax
    pushq %rax
    movq -80(%rbp), %rax
    pushq %rax
    popq %rcx
    popq %rax
    addq %rcx, %rax
    pushq %rax
    movq -64(%rbp), %rax
    pushq %rax
    movq -80(%rbp), %rax
    pushq %rax
    popq %rcx
    popq %rax
    movzbq (%rax,%rcx,1), %rax
    pushq %rax
    popq %rdx
    popq %rcx
    popq %rax
    movb %dl, (%rax,%rcx,1)
    movq -80(%rbp), %rax
    pushq %rax
    movabsq $0x1, %rax
    pushq %rax
    popq %rcx
    popq %rax
    addq %rcx, %rax
    pushq %rax
    popq %rax
    movq %rax, -80(%rbp)
    movq $0, %rax
    pushq %rax
    popq %rax
    jmp L_loop_top_110
L_loop_end_111:
    movq $0, %rax
    pushq %rax
    popq %rax
L_if_end_109:
    movq $0, %rax
    pushq %rax
    popq %rax
L_if_end_107:
    movq -40(%rbp), %rax
    pushq %rax
    movabsq $0x1, %rax
    pushq %rax
    popq %rcx
    popq %rax
    addq %rcx, %rax
    pushq %rax
    popq %rax
    movq %rax, -40(%rbp)
    movq $0, %rax
    pushq %rax
    popq %rax
    jmp L_loop_top_104
L_loop_end_105:
    movslq -32(%rbp), %rax
    pushq %rax
    popq %rax
    movq %rbp, %rsp
    popq %rbp
    retq
    movq $0, %rax
    pushq %rax
    movq $0, %rax
    movq %rbp, %rsp
    popq %rbp
    retq
    .seh_endproc
    .section .iii.ring3,"n"
    .asciz "sh_sort_ids"
    .text
    .global L_sh_sort_ids
    .seh_proc L_sh_sort_ids
L_sh_sort_ids:
    pushq %rbp
    .seh_pushreg %rbp
    movq %rsp, %rbp
    .seh_setframe %rbp, 0
    subq $1024, %rsp
    .seh_stackalloc 1024
    .seh_endprologue
    movq %rcx, -8(%rbp)
    movabsq $0x1, %rax
    pushq %rax
    popq %rax
    movq %rax, -16(%rbp)
L_loop_top_112:
    movq -16(%rbp), %rax
    pushq %rax
    movq -8(%rbp), %rax
    pushq %rax
    popq %rcx
    popq %rax
    cmpq %rcx, %rax
    setb %al
    movzbq %al, %rax
    pushq %rax
    popq %rax
    testq %rax, %rax
    jz L_loop_end_113
    movq -16(%rbp), %rax
    pushq %rax
    popq %rax
    movq %rax, -24(%rbp)
L_loop_top_114:
    movq -24(%rbp), %rax
    pushq %rax
    movabsq $0x0, %rax
    pushq %rax
    popq %rcx
    popq %rax
    cmpq %rcx, %rax
    seta %al
    movzbq %al, %rax
    pushq %rax
    popq %rax
    testq %rax, %rax
    jz L_loop_end_115
    movq -24(%rbp), %rax
    pushq %rax
    movabsq $0x1, %rax
    pushq %rax
    popq %rcx
    popq %rax
    subq %rcx, %rax
    pushq %rax
    movabsq $0x20, %rax
    pushq %rax
    popq %rcx
    popq %rax
    imulq %rcx, %rax
    pushq %rax
    popq %rax
    movq %rax, -32(%rbp)
    movq -24(%rbp), %rax
    pushq %rax
    movabsq $0x20, %rax
    pushq %rax
    popq %rcx
    popq %rax
    imulq %rcx, %rax
    pushq %rax
    popq %rax
    movq %rax, -40(%rbp)
    leaq L_SH_IDS_BUF(%rip), %rax
    pushq %rax
    popq %rax
    pushq %rax
    movq -32(%rbp), %rax
    pushq %rax
    popq %rcx
    popq %rax
    addq %rcx, %rax
    pushq %rax
    popq %rax
    pushq %rax
    popq %rax
    movq %rax, -48(%rbp)
    leaq L_SH_IDS_BUF(%rip), %rax
    pushq %rax
    popq %rax
    pushq %rax
    movq -40(%rbp), %rax
    pushq %rax
    popq %rcx
    popq %rax
    addq %rcx, %rax
    pushq %rax
    popq %rax
    pushq %rax
    popq %rax
    movq %rax, -56(%rbp)
    movq -56(%rbp), %rax
    pushq %rax
    movq -48(%rbp), %rax
    pushq %rax
    popq %rcx
    popq %rdx
    subq $32, %rsp
    callq ident_cmp
    addq $32, %rsp
    movslq %eax, %rax
    pushq %rax
    popq %rax
    movq %rax, -64(%rbp)
    movslq -64(%rbp), %rax
    pushq %rax
    movabsq $0x1, %rax
    pushq %rax
    popq %rcx
    popq %rax
    cmpq %rcx, %rax
    sete %al
    movzbq %al, %rax
    pushq %rax
    popq %rax
    testq %rax, %rax
    jz L_if_else_116
    movabsq $0x0, %rax
    pushq %rax
    popq %rax
    movq %rax, -72(%rbp)
L_loop_top_118:
    movq -72(%rbp), %rax
    pushq %rax
    movabsq $0x20, %rax
    pushq %rax
    popq %rcx
    popq %rax
    cmpq %rcx, %rax
    setb %al
    movzbq %al, %rax
    pushq %rax
    popq %rax
    testq %rax, %rax
    jz L_loop_end_119
    leaq L_SH_SWAP_BUF(%rip), %rax
    pushq %rax
    movq -72(%rbp), %rax
    pushq %rax
    leaq L_SH_IDS_BUF(%rip), %rax
    pushq %rax
    movq -32(%rbp), %rax
    pushq %rax
    movq -72(%rbp), %rax
    pushq %rax
    popq %rcx
    popq %rax
    addq %rcx, %rax
    pushq %rax
    popq %rcx
    popq %rax
    movzbq (%rax,%rcx,1), %rax
    pushq %rax
    popq %rdx
    popq %rcx
    popq %rax
    movb %dl, (%rax,%rcx,1)
    leaq L_SH_IDS_BUF(%rip), %rax
    pushq %rax
    movq -32(%rbp), %rax
    pushq %rax
    movq -72(%rbp), %rax
    pushq %rax
    popq %rcx
    popq %rax
    addq %rcx, %rax
    pushq %rax
    leaq L_SH_IDS_BUF(%rip), %rax
    pushq %rax
    movq -40(%rbp), %rax
    pushq %rax
    movq -72(%rbp), %rax
    pushq %rax
    popq %rcx
    popq %rax
    addq %rcx, %rax
    pushq %rax
    popq %rcx
    popq %rax
    movzbq (%rax,%rcx,1), %rax
    pushq %rax
    popq %rdx
    popq %rcx
    popq %rax
    movb %dl, (%rax,%rcx,1)
    leaq L_SH_IDS_BUF(%rip), %rax
    pushq %rax
    movq -40(%rbp), %rax
    pushq %rax
    movq -72(%rbp), %rax
    pushq %rax
    popq %rcx
    popq %rax
    addq %rcx, %rax
    pushq %rax
    leaq L_SH_SWAP_BUF(%rip), %rax
    pushq %rax
    movq -72(%rbp), %rax
    pushq %rax
    popq %rcx
    popq %rax
    movzbq (%rax,%rcx,1), %rax
    pushq %rax
    popq %rdx
    popq %rcx
    popq %rax
    movb %dl, (%rax,%rcx,1)
    movq -72(%rbp), %rax
    pushq %rax
    movabsq $0x1, %rax
    pushq %rax
    popq %rcx
    popq %rax
    addq %rcx, %rax
    pushq %rax
    popq %rax
    movq %rax, -72(%rbp)
    movq $0, %rax
    pushq %rax
    popq %rax
    jmp L_loop_top_118
L_loop_end_119:
    movq -24(%rbp), %rax
    pushq %rax
    movabsq $0x1, %rax
    pushq %rax
    popq %rcx
    popq %rax
    subq %rcx, %rax
    pushq %rax
    popq %rax
    movq %rax, -24(%rbp)
    movq $0, %rax
    pushq %rax
    popq %rax
    jmp L_if_end_117
L_if_else_116:
    movabsq $0x0, %rax
    pushq %rax
    popq %rax
    movq %rax, -24(%rbp)
    movq $0, %rax
    pushq %rax
    popq %rax
L_if_end_117:
    movq $0, %rax
    pushq %rax
    popq %rax
    jmp L_loop_top_114
L_loop_end_115:
    movq -16(%rbp), %rax
    pushq %rax
    movabsq $0x1, %rax
    pushq %rax
    popq %rcx
    popq %rax
    addq %rcx, %rax
    pushq %rax
    popq %rax
    movq %rax, -16(%rbp)
    movq $0, %rax
    pushq %rax
    popq %rax
    jmp L_loop_top_112
L_loop_end_113:
    movslq L_SHEAF_OK(%rip), %rax
    pushq %rax
    popq %rax
    movq %rbp, %rsp
    popq %rbp
    retq
    movq $0, %rax
    pushq %rax
    movq $0, %rax
    movq %rbp, %rsp
    popq %rbp
    retq
    .seh_endproc
    .section .iii.ring3,"n"
    .asciz "sh_global_section"
    .text
    .global L_sh_global_section
    .seh_proc L_sh_global_section
L_sh_global_section:
    pushq %rbp
    .seh_pushreg %rbp
    movq %rsp, %rbp
    .seh_setframe %rbp, 0
    subq $1024, %rsp
    .seh_stackalloc 1024
    .seh_endprologue
    movq %rcx, -8(%rbp)
    movq %rdx, -16(%rbp)
    movq -8(%rbp), %rax
    pushq %rax
    popq %rcx
    subq $32, %rsp
    callq L_sh_cover_n
    addq $32, %rsp
    pushq %rax
    popq %rax
    movq %rax, -24(%rbp)
    movq -24(%rbp), %rax
    pushq %rax
    movl L_SHEAF_MAX_COVER(%rip), %eax
    pushq %rax
    popq %rax
    pushq %rax
    popq %rcx
    popq %rax
    cmpq %rcx, %rax
    seta %al
    movzbq %al, %rax
    pushq %rax
    popq %rax
    testq %rax, %rax
    jz L_if_end_121
    movslq L_SHEAF_E_BAD_SLOT(%rip), %rax
    pushq %rax
    popq %rax
    movq %rbp, %rsp
    popq %rbp
    retq
    movq $0, %rax
    pushq %rax
    popq %rax
L_if_end_121:
    movq -24(%rbp), %rax
    pushq %rax
    movq -8(%rbp), %rax
    pushq %rax
    popq %rcx
    popq %rdx
    subq $32, %rsp
    callq L_sh_collect_ids
    addq $32, %rsp
    movslq %eax, %rax
    pushq %rax
    popq %rax
    movq %rax, -32(%rbp)
    movslq -32(%rbp), %rax
    pushq %rax
    movslq L_SHEAF_OK(%rip), %rax
    pushq %rax
    popq %rcx
    popq %rax
    cmpq %rcx, %rax
    setne %al
    movzbq %al, %rax
    pushq %rax
    popq %rax
    testq %rax, %rax
    jz L_if_end_123
    movslq -32(%rbp), %rax
    pushq %rax
    popq %rax
    movq %rbp, %rsp
    popq %rbp
    retq
    movq $0, %rax
    pushq %rax
    popq %rax
L_if_end_123:
    movq -24(%rbp), %rax
    pushq %rax
    popq %rcx
    subq $32, %rsp
    callq L_sh_sort_ids
    addq $32, %rsp
    movslq %eax, %rax
    pushq %rax
    popq %rax
    movq -16(%rbp), %rax
    pushq %rax
    popq %rax
    pushq %rax
    popq %rax
    pushq %rax
    movq -24(%rbp), %rax
    pushq %rax
    movabsq $0x20, %rax
    pushq %rax
    popq %rcx
    popq %rax
    imulq %rcx, %rax
    pushq %rax
    leaq L_SH_IDS_BUF(%rip), %rax
    pushq %rax
    popq %rax
    pushq %rax
    popq %rax
    pushq %rax
    movabsq $0x1, %rax
    pushq %rax
    popq %rcx
    popq %rdx
    popq %r8
    popq %r9
    subq $32, %rsp
    callq cad_oneshot
    addq $32, %rsp
    movslq %eax, %rax
    pushq %rax
    popq %rax
    movslq L_SHEAF_OK(%rip), %rax
    pushq %rax
    popq %rax
    movq %rbp, %rsp
    popq %rbp
    retq
    movq $0, %rax
    pushq %rax
    movq $0, %rax
    movq %rbp, %rsp
    popq %rbp
    retq
    .seh_endproc
    .section .iii.ring3,"n"
    .asciz "sh_pair_agrees"
    .text
    .global L_sh_pair_agrees
    .seh_proc L_sh_pair_agrees
L_sh_pair_agrees:
    pushq %rbp
    .seh_pushreg %rbp
    movq %rsp, %rbp
    .seh_setframe %rbp, 0
    subq $1024, %rsp
    .seh_stackalloc 1024
    .seh_endprologue
    movq %rcx, -8(%rbp)
    movq %rdx, -16(%rbp)
    movq %r8, -24(%rbp)
    movl -24(%rbp), %eax
    pushq %rax
    movl -16(%rbp), %eax
    pushq %rax
    popq %rcx
    popq %rdx
    subq $32, %rsp
    callq sh_find_intersection
    addq $32, %rsp
    movl %eax, %eax
    pushq %rax
    popq %rax
    movq %rax, -32(%rbp)
    movl -32(%rbp), %eax
    pushq %rax
    movl L_SHEAF_SENT(%rip), %eax
    pushq %rax
    popq %rcx
    popq %rax
    cmpq %rcx, %rax
    sete %al
    movzbq %al, %rax
    pushq %rax
    popq %rax
    testq %rax, %rax
    jz L_if_end_125
    movabsq $0x0, %rax
    pushq %rax
    popq %rax
    movq %rbp, %rsp
    popq %rbp
    retq
    movq $0, %rax
    pushq %rax
    popq %rax
L_if_end_125:
    leaq L_SH_INT_INTER(%rip), %rax
    pushq %rax
    movl -32(%rbp), %eax
    pushq %rax
    popq %rcx
    popq %rax
    movl (%rax,%rcx,4), %eax
    pushq %rax
    popq %rax
    movq %rax, -40(%rbp)
    movq -8(%rbp), %rax
    pushq %rax
    popq %rax
    movq %rax, -48(%rbp)
    movl -16(%rbp), %eax
    pushq %rax
    movq -48(%rbp), %rax
    pushq %rax
    popq %rcx
    popq %rdx
    subq $32, %rsp
    callq sh_find_section
    addq $32, %rsp
    movl %eax, %eax
    pushq %rax
    popq %rax
    movq %rax, -56(%rbp)
    movl -56(%rbp), %eax
    pushq %rax
    movl L_SHEAF_SENT(%rip), %eax
    pushq %rax
    popq %rcx
    popq %rax
    cmpq %rcx, %rax
    sete %al
    movzbq %al, %rax
    pushq %rax
    popq %rax
    testq %rax, %rax
    jz L_if_end_127
    movabsq $0x0, %rax
    pushq %rax
    popq %rax
    movq %rbp, %rsp
    popq %rbp
    retq
    movq $0, %rax
    pushq %rax
    popq %rax
L_if_end_127:
    movl -24(%rbp), %eax
    pushq %rax
    movq -48(%rbp), %rax
    pushq %rax
    popq %rcx
    popq %rdx
    subq $32, %rsp
    callq sh_find_section
    addq $32, %rsp
    movl %eax, %eax
    pushq %rax
    popq %rax
    movq %rax, -64(%rbp)
    movl -64(%rbp), %eax
    pushq %rax
    movl L_SHEAF_SENT(%rip), %eax
    pushq %rax
    popq %rcx
    popq %rax
    cmpq %rcx, %rax
    sete %al
    movzbq %al, %rax
    pushq %rax
    popq %rax
    testq %rax, %rax
    jz L_if_end_129
    movabsq $0x0, %rax
    pushq %rax
    popq %rax
    movq %rbp, %rsp
    popq %rbp
    retq
    movq $0, %rax
    pushq %rax
    popq %rax
L_if_end_129:
    movabsq $0x0, %rax
    pushq %rax
    popq %rax
    pushq %rax
    popq %rax
    movq %rax, -72(%rbp)
    leaq L_SH_R_I(%rip), %rax
    pushq %rax
    popq %rax
    pushq %rax
    popq %rax
    pushq %rax
    popq %rax
    movq %rax, -80(%rbp)
    leaq L_SH_R_J(%rip), %rax
    pushq %rax
    popq %rax
    pushq %rax
    popq %rax
    pushq %rax
    popq %rax
    movq %rax, -88(%rbp)
    movq -80(%rbp), %rax
    pushq %rax
    movq -72(%rbp), %rax
    pushq %rax
    popq %rcx
    popq %rax
    cmpq %rcx, %rax
    sete %al
    movzbq %al, %rax
    pushq %rax
    popq %rax
    testq %rax, %rax
    jz L_if_end_131
    movabsq $0x0, %rax
    pushq %rax
    popq %rax
    movq %rbp, %rsp
    popq %rbp
    retq
    movq $0, %rax
    pushq %rax
    popq %rax
L_if_end_131:
    movq -88(%rbp), %rax
    pushq %rax
    movq -72(%rbp), %rax
    pushq %rax
    popq %rcx
    popq %rax
    cmpq %rcx, %rax
    sete %al
    movzbq %al, %rax
    pushq %rax
    popq %rax
    testq %rax, %rax
    jz L_if_end_133
    movabsq $0x0, %rax
    pushq %rax
    popq %rax
    movq %rbp, %rsp
    popq %rbp
    retq
    movq $0, %rax
    pushq %rax
    popq %rax
L_if_end_133:
    movq -80(%rbp), %rax
    pushq %rax
    movl -40(%rbp), %eax
    pushq %rax
    movl -16(%rbp), %eax
    pushq %rax
    movl -56(%rbp), %eax
    pushq %rax
    popq %rcx
    popq %rdx
    popq %r8
    popq %r9
    subq $32, %rsp
    callq sh_restrict
    addq $32, %rsp
    movslq %eax, %rax
    pushq %rax
    popq %rax
    movq %rax, -96(%rbp)
    movslq -96(%rbp), %rax
    pushq %rax
    movslq L_SHEAF_OK(%rip), %rax
    pushq %rax
    popq %rcx
    popq %rax
    cmpq %rcx, %rax
    setne %al
    movzbq %al, %rax
    pushq %rax
    popq %rax
    testq %rax, %rax
    jz L_if_end_135
    movabsq $0x0, %rax
    pushq %rax
    popq %rax
    movq %rbp, %rsp
    popq %rbp
    retq
    movq $0, %rax
    pushq %rax
    popq %rax
L_if_end_135:
    movq -88(%rbp), %rax
    pushq %rax
    movl -40(%rbp), %eax
    pushq %rax
    movl -24(%rbp), %eax
    pushq %rax
    movl -64(%rbp), %eax
    pushq %rax
    popq %rcx
    popq %rdx
    popq %r8
    popq %r9
    subq $32, %rsp
    callq sh_restrict
    addq $32, %rsp
    movslq %eax, %rax
    pushq %rax
    popq %rax
    movq %rax, -104(%rbp)
    movslq -104(%rbp), %rax
    pushq %rax
    movslq L_SHEAF_OK(%rip), %rax
    pushq %rax
    popq %rcx
    popq %rax
    cmpq %rcx, %rax
    setne %al
    movzbq %al, %rax
    pushq %rax
    popq %rax
    testq %rax, %rax
    jz L_if_end_137
    movabsq $0x0, %rax
    pushq %rax
    popq %rax
    movq %rbp, %rsp
    popq %rbp
    retq
    movq $0, %rax
    pushq %rax
    popq %rax
L_if_end_137:
    movq -88(%rbp), %rax
    pushq %rax
    movq -80(%rbp), %rax
    pushq %rax
    popq %rcx
    popq %rdx
    subq $32, %rsp
    callq ident_eq
    addq $32, %rsp
    movzbq %al, %rax
    pushq %rax
    movabsq $0x0, %rax
    pushq %rax
    popq %rcx
    popq %rax
    cmpq %rcx, %rax
    sete %al
    movzbq %al, %rax
    pushq %rax
    popq %rax
    testq %rax, %rax
    jz L_if_end_139
    movabsq $0x0, %rax
    pushq %rax
    popq %rax
    movq %rbp, %rsp
    popq %rbp
    retq
    movq $0, %rax
    pushq %rax
    popq %rax
L_if_end_139:
    movabsq $0x1, %rax
    pushq %rax
    popq %rax
    movq %rbp, %rsp
    popq %rbp
    retq
    movq $0, %rax
    pushq %rax
    movq $0, %rax
    movq %rbp, %rsp
    popq %rbp
    retq
    .seh_endproc
    .section .iii.ring3,"n"
    .asciz "sh_check_glue"
    .text
    .global sh_check_glue
    .seh_proc sh_check_glue
sh_check_glue:
    pushq %rbp
    .seh_pushreg %rbp
    movq %rsp, %rbp
    .seh_setframe %rbp, 0
    subq $1024, %rsp
    .seh_stackalloc 1024
    .seh_endprologue
    movq %rcx, -8(%rbp)
    movq %rdx, -16(%rbp)
    movq %r8, -24(%rbp)
    movq -8(%rbp), %rax
    pushq %rax
    popq %rcx
    subq $32, %rsp
    callq L_sh_cover_n
    addq $32, %rsp
    pushq %rax
    popq %rax
    movq %rax, -32(%rbp)
    movq -32(%rbp), %rax
    pushq %rax
    movl L_SHEAF_MAX_COVER(%rip), %eax
    pushq %rax
    popq %rax
    pushq %rax
    popq %rcx
    popq %rax
    cmpq %rcx, %rax
    seta %al
    movzbq %al, %rax
    pushq %rax
    popq %rax
    testq %rax, %rax
    jz L_if_end_141
    movabsq $0x0, %rax
    pushq %rax
    popq %rax
    movq %rbp, %rsp
    popq %rbp
    retq
    movq $0, %rax
    pushq %rax
    popq %rax
L_if_end_141:
    movabsq $0x1, %rax
    pushq %rax
    popq %rax
    movq %rax, -40(%rbp)
    movabsq $0x0, %rax
    pushq %rax
    popq %rax
    movq %rax, -48(%rbp)
L_loop_top_142:
    movq -48(%rbp), %rax
    pushq %rax
    movq -32(%rbp), %rax
    pushq %rax
    popq %rcx
    popq %rax
    cmpq %rcx, %rax
    setb %al
    movzbq %al, %rax
    pushq %rax
    popq %rax
    testq %rax, %rax
    jz L_loop_end_143
    movq -48(%rbp), %rax
    pushq %rax
    movabsq $0x1, %rax
    pushq %rax
    popq %rcx
    popq %rax
    addq %rcx, %rax
    pushq %rax
    popq %rax
    movq %rax, -56(%rbp)
L_loop_top_144:
    movq -56(%rbp), %rax
    pushq %rax
    movq -32(%rbp), %rax
    pushq %rax
    popq %rcx
    popq %rax
    cmpq %rcx, %rax
    setb %al
    movzbq %al, %rax
    pushq %rax
    popq %rax
    testq %rax, %rax
    jz L_loop_end_145
    movzbq -40(%rbp), %rax
    pushq %rax
    movabsq $0x1, %rax
    pushq %rax
    popq %rcx
    popq %rax
    cmpq %rcx, %rax
    sete %al
    movzbq %al, %rax
    pushq %rax
    popq %rax
    testq %rax, %rax
    jz L_if_end_147
    movq -48(%rbp), %rax
    pushq %rax
    movq -8(%rbp), %rax
    pushq %rax
    popq %rcx
    popq %rdx
    subq $32, %rsp
    callq L_sh_cover_slot
    addq $32, %rsp
    movl %eax, %eax
    pushq %rax
    popq %rax
    movq %rax, -64(%rbp)
    movq -56(%rbp), %rax
    pushq %rax
    movq -8(%rbp), %rax
    pushq %rax
    popq %rcx
    popq %rdx
    subq $32, %rsp
    callq L_sh_cover_slot
    addq $32, %rsp
    movl %eax, %eax
    pushq %rax
    popq %rax
    movq %rax, -72(%rbp)
    movl -72(%rbp), %eax
    pushq %rax
    movl -64(%rbp), %eax
    pushq %rax
    movq -8(%rbp), %rax
    pushq %rax
    popq %rcx
    popq %rdx
    popq %r8
    subq $32, %rsp
    callq L_sh_pair_agrees
    addq $32, %rsp
    movzbq %al, %rax
    pushq %rax
    movabsq $0x0, %rax
    pushq %rax
    popq %rcx
    popq %rax
    cmpq %rcx, %rax
    sete %al
    movzbq %al, %rax
    pushq %rax
    popq %rax
    testq %rax, %rax
    jz L_if_end_149
    movabsq $0x0, %rax
    pushq %rax
    popq %rax
    movq %rax, -40(%rbp)
    movq $0, %rax
    pushq %rax
    popq %rax
L_if_end_149:
    movq $0, %rax
    pushq %rax
    popq %rax
L_if_end_147:
    movq -56(%rbp), %rax
    pushq %rax
    movabsq $0x1, %rax
    pushq %rax
    popq %rcx
    popq %rax
    addq %rcx, %rax
    pushq %rax
    popq %rax
    movq %rax, -56(%rbp)
    movq $0, %rax
    pushq %rax
    popq %rax
    jmp L_loop_top_144
L_loop_end_145:
    movq -48(%rbp), %rax
    pushq %rax
    movabsq $0x1, %rax
    pushq %rax
    popq %rcx
    popq %rax
    addq %rcx, %rax
    pushq %rax
    popq %rax
    movq %rax, -48(%rbp)
    movq $0, %rax
    pushq %rax
    popq %rax
    jmp L_loop_top_142
L_loop_end_143:
    movzbq -40(%rbp), %rax
    pushq %rax
    movabsq $0x1, %rax
    pushq %rax
    popq %rcx
    popq %rax
    cmpq %rcx, %rax
    sete %al
    movzbq %al, %rax
    pushq %rax
    popq %rax
    testq %rax, %rax
    jz L_if_end_151
    movq -24(%rbp), %rax
    pushq %rax
    movq -8(%rbp), %rax
    pushq %rax
    popq %rcx
    popq %rdx
    subq $32, %rsp
    callq L_sh_global_section
    addq $32, %rsp
    movslq %eax, %rax
    pushq %rax
    popq %rax
    movq %rax, -56(%rbp)
    movslq -56(%rbp), %rax
    pushq %rax
    movslq L_SHEAF_OK(%rip), %rax
    pushq %rax
    popq %rcx
    popq %rax
    cmpq %rcx, %rax
    setne %al
    movzbq %al, %rax
    pushq %rax
    popq %rax
    testq %rax, %rax
    jz L_if_end_153
    movabsq $0x0, %rax
    pushq %rax
    popq %rax
    movq %rax, -40(%rbp)
    movq $0, %rax
    pushq %rax
    popq %rax
L_if_end_153:
    movq $0, %rax
    pushq %rax
    popq %rax
L_if_end_151:
    movzbq -40(%rbp), %rax
    pushq %rax
    popq %rax
    movq %rbp, %rsp
    popq %rbp
    retq
    movq $0, %rax
    pushq %rax
    movq $0, %rax
    movq %rbp, %rsp
    popq %rbp
    retq
    .seh_endproc
    .section .iii.ring3,"n"
    .asciz "sh_st_fill"
    .text
    .global L_sh_st_fill
    .seh_proc L_sh_st_fill
L_sh_st_fill:
    pushq %rbp
    .seh_pushreg %rbp
    movq %rsp, %rbp
    .seh_setframe %rbp, 0
    subq $1024, %rsp
    .seh_stackalloc 1024
    .seh_endprologue
    movq %rcx, -8(%rbp)
    movq %rdx, -16(%rbp)
    movabsq $0x0, %rax
    pushq %rax
    popq %rax
    movq %rax, -24(%rbp)
L_loop_top_154:
    movq -24(%rbp), %rax
    pushq %rax
    movabsq $0x20, %rax
    pushq %rax
    popq %rcx
    popq %rax
    cmpq %rcx, %rax
    setb %al
    movzbq %al, %rax
    pushq %rax
    popq %rax
    testq %rax, %rax
    jz L_loop_end_155
    movq -8(%rbp), %rax
    pushq %rax
    movq -24(%rbp), %rax
    pushq %rax
    movzbq -16(%rbp), %rax
    pushq %rax
    popq %rdx
    popq %rcx
    popq %rax
    movb %dl, (%rax,%rcx,1)
    movq -24(%rbp), %rax
    pushq %rax
    movabsq $0x1, %rax
    pushq %rax
    popq %rcx
    popq %rax
    addq %rcx, %rax
    pushq %rax
    popq %rax
    movq %rax, -24(%rbp)
    movq $0, %rax
    pushq %rax
    popq %rax
    jmp L_loop_top_154
L_loop_end_155:
    movslq L_SHEAF_OK(%rip), %rax
    pushq %rax
    popq %rax
    movq %rbp, %rsp
    popq %rbp
    retq
    movq $0, %rax
    pushq %rax
    movq $0, %rax
    movq %rbp, %rsp
    popq %rbp
    retq
    .seh_endproc
    .section .iii.ring3,"n"
    .asciz "sh_st_cover2"
    .text
    .global L_sh_st_cover2
    .seh_proc L_sh_st_cover2
L_sh_st_cover2:
    pushq %rbp
    .seh_pushreg %rbp
    movq %rsp, %rbp
    .seh_setframe %rbp, 0
    subq $1024, %rsp
    .seh_stackalloc 1024
    .seh_endprologue
    movq %rcx, -8(%rbp)
    movq %rdx, -16(%rbp)
    movq %r8, -24(%rbp)
    movq %r9, -32(%rbp)
    movabsq $0x0, %rax
    pushq %rax
    popq %rax
    movq %rax, -40(%rbp)
L_loop_top_156:
    movq -40(%rbp), %rax
    pushq %rax
    movabsq $0x20, %rax
    pushq %rax
    popq %rcx
    popq %rax
    cmpq %rcx, %rax
    setb %al
    movzbq %al, %rax
    pushq %rax
    popq %rax
    testq %rax, %rax
    jz L_loop_end_157
    leaq L_SH_ST_COVER(%rip), %rax
    pushq %rax
    movq -40(%rbp), %rax
    pushq %rax
    movq -8(%rbp), %rax
    pushq %rax
    movq -40(%rbp), %rax
    pushq %rax
    popq %rcx
    popq %rax
    movzbq (%rax,%rcx,1), %rax
    pushq %rax
    popq %rdx
    popq %rcx
    popq %rax
    movb %dl, (%rax,%rcx,1)
    movq -40(%rbp), %rax
    pushq %rax
    movabsq $0x1, %rax
    pushq %rax
    popq %rcx
    popq %rax
    addq %rcx, %rax
    pushq %rax
    popq %rax
    movq %rax, -40(%rbp)
    movq $0, %rax
    pushq %rax
    popq %rax
    jmp L_loop_top_156
L_loop_end_157:
    leaq L_SH_ST_COVER(%rip), %rax
    pushq %rax
    movabsq $0x20, %rax
    pushq %rax
    movq -16(%rbp), %rax
    pushq %rax
    movabsq $0xff, %rax
    pushq %rax
    popq %rcx
    popq %rax
    andq %rcx, %rax
    pushq %rax
    popq %rax
    movzbq %al, %rax
    pushq %rax
    popq %rdx
    popq %rcx
    popq %rax
    movb %dl, (%rax,%rcx,1)
    leaq L_SH_ST_COVER(%rip), %rax
    pushq %rax
    movabsq $0x21, %rax
    pushq %rax
    movq -16(%rbp), %rax
    pushq %rax
    movabsq $0x8, %rax
    pushq %rax
    popq %rcx
    popq %rax
    shrq %cl, %rax
    pushq %rax
    movabsq $0xff, %rax
    pushq %rax
    popq %rcx
    popq %rax
    andq %rcx, %rax
    pushq %rax
    popq %rax
    movzbq %al, %rax
    pushq %rax
    popq %rdx
    popq %rcx
    popq %rax
    movb %dl, (%rax,%rcx,1)
    leaq L_SH_ST_COVER(%rip), %rax
    pushq %rax
    movabsq $0x22, %rax
    pushq %rax
    movq -16(%rbp), %rax
    pushq %rax
    movabsq $0x10, %rax
    pushq %rax
    popq %rcx
    popq %rax
    shrq %cl, %rax
    pushq %rax
    movabsq $0xff, %rax
    pushq %rax
    popq %rcx
    popq %rax
    andq %rcx, %rax
    pushq %rax
    popq %rax
    movzbq %al, %rax
    pushq %rax
    popq %rdx
    popq %rcx
    popq %rax
    movb %dl, (%rax,%rcx,1)
    leaq L_SH_ST_COVER(%rip), %rax
    pushq %rax
    movabsq $0x23, %rax
    pushq %rax
    movq -16(%rbp), %rax
    pushq %rax
    movabsq $0x18, %rax
    pushq %rax
    popq %rcx
    popq %rax
    shrq %cl, %rax
    pushq %rax
    movabsq $0xff, %rax
    pushq %rax
    popq %rcx
    popq %rax
    andq %rcx, %rax
    pushq %rax
    popq %rax
    movzbq %al, %rax
    pushq %rax
    popq %rdx
    popq %rcx
    popq %rax
    movb %dl, (%rax,%rcx,1)
    leaq L_SH_ST_COVER(%rip), %rax
    pushq %rax
    movabsq $0x24, %rax
    pushq %rax
    movq -16(%rbp), %rax
    pushq %rax
    movabsq $0x20, %rax
    pushq %rax
    popq %rcx
    popq %rax
    shrq %cl, %rax
    pushq %rax
    movabsq $0xff, %rax
    pushq %rax
    popq %rcx
    popq %rax
    andq %rcx, %rax
    pushq %rax
    popq %rax
    movzbq %al, %rax
    pushq %rax
    popq %rdx
    popq %rcx
    popq %rax
    movb %dl, (%rax,%rcx,1)
    leaq L_SH_ST_COVER(%rip), %rax
    pushq %rax
    movabsq $0x25, %rax
    pushq %rax
    movq -16(%rbp), %rax
    pushq %rax
    movabsq $0x28, %rax
    pushq %rax
    popq %rcx
    popq %rax
    shrq %cl, %rax
    pushq %rax
    movabsq $0xff, %rax
    pushq %rax
    popq %rcx
    popq %rax
    andq %rcx, %rax
    pushq %rax
    popq %rax
    movzbq %al, %rax
    pushq %rax
    popq %rdx
    popq %rcx
    popq %rax
    movb %dl, (%rax,%rcx,1)
    leaq L_SH_ST_COVER(%rip), %rax
    pushq %rax
    movabsq $0x26, %rax
    pushq %rax
    movq -16(%rbp), %rax
    pushq %rax
    movabsq $0x30, %rax
    pushq %rax
    popq %rcx
    popq %rax
    shrq %cl, %rax
    pushq %rax
    movabsq $0xff, %rax
    pushq %rax
    popq %rcx
    popq %rax
    andq %rcx, %rax
    pushq %rax
    popq %rax
    movzbq %al, %rax
    pushq %rax
    popq %rdx
    popq %rcx
    popq %rax
    movb %dl, (%rax,%rcx,1)
    leaq L_SH_ST_COVER(%rip), %rax
    pushq %rax
    movabsq $0x27, %rax
    pushq %rax
    movq -16(%rbp), %rax
    pushq %rax
    movabsq $0x38, %rax
    pushq %rax
    popq %rcx
    popq %rax
    shrq %cl, %rax
    pushq %rax
    movabsq $0xff, %rax
    pushq %rax
    popq %rcx
    popq %rax
    andq %rcx, %rax
    pushq %rax
    popq %rax
    movzbq %al, %rax
    pushq %rax
    popq %rdx
    popq %rcx
    popq %rax
    movb %dl, (%rax,%rcx,1)
    leaq L_SH_ST_COVER(%rip), %rax
    pushq %rax
    movabsq $0x28, %rax
    pushq %rax
    movl -24(%rbp), %eax
    pushq %rax
    movabsq $0xff, %rax
    pushq %rax
    popq %rcx
    popq %rax
    andq %rcx, %rax
    pushq %rax
    popq %rax
    movzbq %al, %rax
    pushq %rax
    popq %rdx
    popq %rcx
    popq %rax
    movb %dl, (%rax,%rcx,1)
    leaq L_SH_ST_COVER(%rip), %rax
    pushq %rax
    movabsq $0x29, %rax
    pushq %rax
    movl -24(%rbp), %eax
    pushq %rax
    movabsq $0x8, %rax
    pushq %rax
    popq %rcx
    popq %rax
    shrq %cl, %rax
    pushq %rax
    movabsq $0xff, %rax
    pushq %rax
    popq %rcx
    popq %rax
    andq %rcx, %rax
    pushq %rax
    popq %rax
    movzbq %al, %rax
    pushq %rax
    popq %rdx
    popq %rcx
    popq %rax
    movb %dl, (%rax,%rcx,1)
    leaq L_SH_ST_COVER(%rip), %rax
    pushq %rax
    movabsq $0x2a, %rax
    pushq %rax
    movl -24(%rbp), %eax
    pushq %rax
    movabsq $0x10, %rax
    pushq %rax
    popq %rcx
    popq %rax
    shrq %cl, %rax
    pushq %rax
    movabsq $0xff, %rax
    pushq %rax
    popq %rcx
    popq %rax
    andq %rcx, %rax
    pushq %rax
    popq %rax
    movzbq %al, %rax
    pushq %rax
    popq %rdx
    popq %rcx
    popq %rax
    movb %dl, (%rax,%rcx,1)
    leaq L_SH_ST_COVER(%rip), %rax
    pushq %rax
    movabsq $0x2b, %rax
    pushq %rax
    movl -24(%rbp), %eax
    pushq %rax
    movabsq $0x18, %rax
    pushq %rax
    popq %rcx
    popq %rax
    shrq %cl, %rax
    pushq %rax
    movabsq $0xff, %rax
    pushq %rax
    popq %rcx
    popq %rax
    andq %rcx, %rax
    pushq %rax
    popq %rax
    movzbq %al, %rax
    pushq %rax
    popq %rdx
    popq %rcx
    popq %rax
    movb %dl, (%rax,%rcx,1)
    leaq L_SH_ST_COVER(%rip), %rax
    pushq %rax
    movabsq $0x2c, %rax
    pushq %rax
    movl -32(%rbp), %eax
    pushq %rax
    movabsq $0xff, %rax
    pushq %rax
    popq %rcx
    popq %rax
    andq %rcx, %rax
    pushq %rax
    popq %rax
    movzbq %al, %rax
    pushq %rax
    popq %rdx
    popq %rcx
    popq %rax
    movb %dl, (%rax,%rcx,1)
    leaq L_SH_ST_COVER(%rip), %rax
    pushq %rax
    movabsq $0x2d, %rax
    pushq %rax
    movl -32(%rbp), %eax
    pushq %rax
    movabsq $0x8, %rax
    pushq %rax
    popq %rcx
    popq %rax
    shrq %cl, %rax
    pushq %rax
    movabsq $0xff, %rax
    pushq %rax
    popq %rcx
    popq %rax
    andq %rcx, %rax
    pushq %rax
    popq %rax
    movzbq %al, %rax
    pushq %rax
    popq %rdx
    popq %rcx
    popq %rax
    movb %dl, (%rax,%rcx,1)
    leaq L_SH_ST_COVER(%rip), %rax
    pushq %rax
    movabsq $0x2e, %rax
    pushq %rax
    movl -32(%rbp), %eax
    pushq %rax
    movabsq $0x10, %rax
    pushq %rax
    popq %rcx
    popq %rax
    shrq %cl, %rax
    pushq %rax
    movabsq $0xff, %rax
    pushq %rax
    popq %rcx
    popq %rax
    andq %rcx, %rax
    pushq %rax
    popq %rax
    movzbq %al, %rax
    pushq %rax
    popq %rdx
    popq %rcx
    popq %rax
    movb %dl, (%rax,%rcx,1)
    leaq L_SH_ST_COVER(%rip), %rax
    pushq %rax
    movabsq $0x2f, %rax
    pushq %rax
    movl -32(%rbp), %eax
    pushq %rax
    movabsq $0x18, %rax
    pushq %rax
    popq %rcx
    popq %rax
    shrq %cl, %rax
    pushq %rax
    movabsq $0xff, %rax
    pushq %rax
    popq %rcx
    popq %rax
    andq %rcx, %rax
    pushq %rax
    popq %rax
    movzbq %al, %rax
    pushq %rax
    popq %rdx
    popq %rcx
    popq %rax
    movb %dl, (%rax,%rcx,1)
    movslq L_SHEAF_OK(%rip), %rax
    pushq %rax
    popq %rax
    movq %rbp, %rsp
    popq %rbp
    retq
    movq $0, %rax
    pushq %rax
    movq $0, %rax
    movq %rbp, %rsp
    popq %rbp
    retq
    .seh_endproc
    .section .iii.ring3,"n"
    .asciz "sh_selftest"
    .text
    .global sh_selftest
    .seh_proc sh_selftest
sh_selftest:
    pushq %rbp
    .seh_pushreg %rbp
    movq %rsp, %rbp
    .seh_setframe %rbp, 0
    subq $1024, %rsp
    .seh_stackalloc 1024
    .seh_endprologue
    leaq L_SH_ST_P(%rip), %rax
    pushq %rax
    popq %rax
    pushq %rax
    popq %rax
    pushq %rax
    popq %rax
    movq %rax, -8(%rbp)
    leaq L_SH_ST_T(%rip), %rax
    pushq %rax
    popq %rax
    pushq %rax
    popq %rax
    pushq %rax
    popq %rax
    movq %rax, -16(%rbp)
    leaq L_SH_ST_T2(%rip), %rax
    pushq %rax
    popq %rax
    pushq %rax
    popq %rax
    pushq %rax
    popq %rax
    movq %rax, -24(%rbp)
    leaq L_SH_ST_SA(%rip), %rax
    pushq %rax
    popq %rax
    pushq %rax
    popq %rax
    pushq %rax
    popq %rax
    movq %rax, -32(%rbp)
    leaq L_SH_ST_SB(%rip), %rax
    pushq %rax
    popq %rax
    pushq %rax
    popq %rax
    pushq %rax
    popq %rax
    movq %rax, -40(%rbp)
    leaq L_SH_ST_O0(%rip), %rax
    pushq %rax
    popq %rax
    pushq %rax
    popq %rax
    pushq %rax
    popq %rax
    movq %rax, -48(%rbp)
    leaq L_SH_ST_O1(%rip), %rax
    pushq %rax
    popq %rax
    pushq %rax
    popq %rax
    pushq %rax
    popq %rax
    movq %rax, -56(%rbp)
    leaq L_SH_ST_O2(%rip), %rax
    pushq %rax
    popq %rax
    pushq %rax
    popq %rax
    pushq %rax
    popq %rax
    movq %rax, -64(%rbp)
    leaq L_SH_ST_O01(%rip), %rax
    pushq %rax
    popq %rax
    pushq %rax
    popq %rax
    pushq %rax
    popq %rax
    movq %rax, -72(%rbp)
    leaq L_SH_ST_OUT(%rip), %rax
    pushq %rax
    popq %rax
    pushq %rax
    popq %rax
    pushq %rax
    popq %rax
    movq %rax, -80(%rbp)
    leaq L_SH_ST_OUT2(%rip), %rax
    pushq %rax
    popq %rax
    pushq %rax
    popq %rax
    pushq %rax
    popq %rax
    movq %rax, -88(%rbp)
    leaq L_SH_ST_REF(%rip), %rax
    pushq %rax
    popq %rax
    pushq %rax
    popq %rax
    pushq %rax
    popq %rax
    movq %rax, -96(%rbp)
    leaq L_SH_ST_COVER(%rip), %rax
    pushq %rax
    popq %rax
    pushq %rax
    popq %rax
    pushq %rax
    popq %rax
    movq %rax, -104(%rbp)
    movabsq $0x0, %rax
    pushq %rax
    movq -48(%rbp), %rax
    pushq %rax
    popq %rcx
    popq %rdx
    subq $32, %rsp
    callq L_sh_st_fill
    addq $32, %rsp
    movslq %eax, %rax
    pushq %rax
    popq %rax
    movabsq $0x1, %rax
    pushq %rax
    movq -56(%rbp), %rax
    pushq %rax
    popq %rcx
    popq %rdx
    subq $32, %rsp
    callq L_sh_st_fill
    addq $32, %rsp
    movslq %eax, %rax
    pushq %rax
    popq %rax
    movabsq $0x2, %rax
    pushq %rax
    movq -64(%rbp), %rax
    pushq %rax
    popq %rcx
    popq %rdx
    subq $32, %rsp
    callq L_sh_st_fill
    addq $32, %rsp
    movslq %eax, %rax
    pushq %rax
    popq %rax
    movabsq $0x33, %rax
    pushq %rax
    movq -72(%rbp), %rax
    pushq %rax
    popq %rcx
    popq %rdx
    subq $32, %rsp
    callq L_sh_st_fill
    addq $32, %rsp
    movslq %eax, %rax
    pushq %rax
    popq %rax
    movabsq $0x50, %rax
    pushq %rax
    movq -8(%rbp), %rax
    pushq %rax
    popq %rcx
    popq %rdx
    subq $32, %rsp
    callq L_sh_st_fill
    addq $32, %rsp
    movslq %eax, %rax
    pushq %rax
    popq %rax
    movabsq $0x77, %rax
    pushq %rax
    movq -16(%rbp), %rax
    pushq %rax
    popq %rcx
    popq %rdx
    subq $32, %rsp
    callq L_sh_st_fill
    addq $32, %rsp
    movslq %eax, %rax
    pushq %rax
    popq %rax
    movabsq $0x88, %rax
    pushq %rax
    movq -24(%rbp), %rax
    pushq %rax
    popq %rcx
    popq %rdx
    subq $32, %rsp
    callq L_sh_st_fill
    addq $32, %rsp
    movslq %eax, %rax
    pushq %rax
    popq %rax
    movabsq $0xa1, %rax
    pushq %rax
    movq -32(%rbp), %rax
    pushq %rax
    popq %rcx
    popq %rdx
    subq $32, %rsp
    callq L_sh_st_fill
    addq $32, %rsp
    movslq %eax, %rax
    pushq %rax
    popq %rax
    movabsq $0xb2, %rax
    pushq %rax
    movq -40(%rbp), %rax
    pushq %rax
    popq %rcx
    popq %rdx
    subq $32, %rsp
    callq L_sh_st_fill
    addq $32, %rsp
    movslq %eax, %rax
    pushq %rax
    popq %rax
    subq $32, %rsp
    callq sh_init
    addq $32, %rsp
    movslq %eax, %rax
    pushq %rax
    popq %rax
    movl L_SHEAF_SENT(%rip), %eax
    pushq %rax
    movq -48(%rbp), %rax
    pushq %rax
    popq %rcx
    popq %rdx
    subq $32, %rsp
    callq sh_add_open
    addq $32, %rsp
    movl %eax, %eax
    pushq %rax
    popq %rax
    movq %rax, -112(%rbp)
    movl -112(%rbp), %eax
    pushq %rax
    movl L_SHEAF_SENT(%rip), %eax
    pushq %rax
    popq %rcx
    popq %rax
    cmpq %rcx, %rax
    sete %al
    movzbq %al, %rax
    pushq %rax
    popq %rax
    testq %rax, %rax
    jz L_if_end_159
    movabsq $0x1, %rax
    pushq %rax
    popq %rax
    movq %rbp, %rsp
    popq %rbp
    retq
    movq $0, %rax
    pushq %rax
    popq %rax
L_if_end_159:
    movl -112(%rbp), %eax
    pushq %rax
    movq -56(%rbp), %rax
    pushq %rax
    popq %rcx
    popq %rdx
    subq $32, %rsp
    callq sh_add_open
    addq $32, %rsp
    movl %eax, %eax
    pushq %rax
    popq %rax
    movq %rax, -120(%rbp)
    movl -120(%rbp), %eax
    pushq %rax
    movl L_SHEAF_SENT(%rip), %eax
    pushq %rax
    popq %rcx
    popq %rax
    cmpq %rcx, %rax
    sete %al
    movzbq %al, %rax
    pushq %rax
    popq %rax
    testq %rax, %rax
    jz L_if_end_161
    movabsq $0x2, %rax
    pushq %rax
    popq %rax
    movq %rbp, %rsp
    popq %rbp
    retq
    movq $0, %rax
    pushq %rax
    popq %rax
L_if_end_161:
    movq -32(%rbp), %rax
    pushq %rax
    movl -112(%rbp), %eax
    pushq %rax
    movq -8(%rbp), %rax
    pushq %rax
    popq %rcx
    popq %rdx
    popq %r8
    subq $32, %rsp
    callq sh_add_section
    addq $32, %rsp
    movl %eax, %eax
    pushq %rax
    popq %rax
    movq %rax, -128(%rbp)
    movl -128(%rbp), %eax
    pushq %rax
    movl L_SHEAF_SENT(%rip), %eax
    pushq %rax
    popq %rcx
    popq %rax
    cmpq %rcx, %rax
    sete %al
    movzbq %al, %rax
    pushq %rax
    popq %rax
    testq %rax, %rax
    jz L_if_end_163
    movabsq $0x3, %rax
    pushq %rax
    popq %rax
    movq %rbp, %rsp
    popq %rbp
    retq
    movq $0, %rax
    pushq %rax
    popq %rax
L_if_end_163:
    movq -16(%rbp), %rax
    pushq %rax
    movl -120(%rbp), %eax
    pushq %rax
    movl -112(%rbp), %eax
    pushq %rax
    popq %rcx
    popq %rdx
    popq %r8
    subq $32, %rsp
    callq sh_add_restriction
    addq $32, %rsp
    movl %eax, %eax
    pushq %rax
    popq %rax
    movq -80(%rbp), %rax
    pushq %rax
    movl -120(%rbp), %eax
    pushq %rax
    movl -112(%rbp), %eax
    pushq %rax
    movl -128(%rbp), %eax
    pushq %rax
    popq %rcx
    popq %rdx
    popq %r8
    popq %r9
    subq $32, %rsp
    callq sh_restrict
    addq $32, %rsp
    movslq %eax, %rax
    pushq %rax
    movslq L_SHEAF_OK(%rip), %rax
    pushq %rax
    popq %rcx
    popq %rax
    cmpq %rcx, %rax
    setne %al
    movzbq %al, %rax
    pushq %rax
    popq %rax
    testq %rax, %rax
    jz L_if_end_165
    movabsq $0x4, %rax
    pushq %rax
    popq %rax
    movq %rbp, %rsp
    popq %rbp
    retq
    movq $0, %rax
    pushq %rax
    popq %rax
L_if_end_165:
    movabsq $0x0, %rax
    pushq %rax
    popq %rax
    movq %rax, -136(%rbp)
L_loop_top_166:
    movq -136(%rbp), %rax
    pushq %rax
    movabsq $0x20, %rax
    pushq %rax
    popq %rcx
    popq %rax
    cmpq %rcx, %rax
    setb %al
    movzbq %al, %rax
    pushq %rax
    popq %rax
    testq %rax, %rax
    jz L_loop_end_167
    leaq L_SH_ST_HBUF(%rip), %rax
    pushq %rax
    movq -136(%rbp), %rax
    pushq %rax
    movq -32(%rbp), %rax
    pushq %rax
    movq -136(%rbp), %rax
    pushq %rax
    popq %rcx
    popq %rax
    movzbq (%rax,%rcx,1), %rax
    pushq %rax
    popq %rdx
    popq %rcx
    popq %rax
    movb %dl, (%rax,%rcx,1)
    leaq L_SH_ST_HBUF(%rip), %rax
    pushq %rax
    movabsq $0x20, %rax
    pushq %rax
    movq -136(%rbp), %rax
    pushq %rax
    popq %rcx
    popq %rax
    addq %rcx, %rax
    pushq %rax
    movq -16(%rbp), %rax
    pushq %rax
    movq -136(%rbp), %rax
    pushq %rax
    popq %rcx
    popq %rax
    movzbq (%rax,%rcx,1), %rax
    pushq %rax
    popq %rdx
    popq %rcx
    popq %rax
    movb %dl, (%rax,%rcx,1)
    leaq L_SH_ST_HBUF(%rip), %rax
    pushq %rax
    movabsq $0x40, %rax
    pushq %rax
    movq -136(%rbp), %rax
    pushq %rax
    popq %rcx
    popq %rax
    addq %rcx, %rax
    pushq %rax
    movq -56(%rbp), %rax
    pushq %rax
    movq -136(%rbp), %rax
    pushq %rax
    popq %rcx
    popq %rax
    movzbq (%rax,%rcx,1), %rax
    pushq %rax
    popq %rdx
    popq %rcx
    popq %rax
    movb %dl, (%rax,%rcx,1)
    movq -136(%rbp), %rax
    pushq %rax
    movabsq $0x1, %rax
    pushq %rax
    popq %rcx
    popq %rax
    addq %rcx, %rax
    pushq %rax
    popq %rax
    movq %rax, -136(%rbp)
    movq $0, %rax
    pushq %rax
    popq %rax
    jmp L_loop_top_166
L_loop_end_167:
    movq -96(%rbp), %rax
    pushq %rax
    popq %rax
    pushq %rax
    movabsq $0x60, %rax
    pushq %rax
    leaq L_SH_ST_HBUF(%rip), %rax
    pushq %rax
    popq %rax
    pushq %rax
    popq %rcx
    popq %rdx
    popq %r8
    subq $32, %rsp
    callq keccak256_oneshot
    addq $32, %rsp
    movslq %eax, %rax
    pushq %rax
    popq %rax
    movabsq $0x0, %rax
    pushq %rax
    popq %rax
    movq %rax, -136(%rbp)
L_loop_top_168:
    movq -136(%rbp), %rax
    pushq %rax
    movabsq $0x20, %rax
    pushq %rax
    popq %rcx
    popq %rax
    cmpq %rcx, %rax
    setb %al
    movzbq %al, %rax
    pushq %rax
    popq %rax
    testq %rax, %rax
    jz L_loop_end_169
    leaq L_SH_ST_OUT(%rip), %rax
    pushq %rax
    movq -136(%rbp), %rax
    pushq %rax
    popq %rcx
    popq %rax
    movzbq (%rax,%rcx,1), %rax
    pushq %rax
    leaq L_SH_ST_REF(%rip), %rax
    pushq %rax
    movq -136(%rbp), %rax
    pushq %rax
    popq %rcx
    popq %rax
    movzbq (%rax,%rcx,1), %rax
    pushq %rax
    popq %rcx
    popq %rax
    cmpq %rcx, %rax
    setne %al
    movzbq %al, %rax
    pushq %rax
    popq %rax
    testq %rax, %rax
    jz L_if_end_171
    movabsq $0x5, %rax
    pushq %rax
    popq %rax
    movq %rbp, %rsp
    popq %rbp
    retq
    movq $0, %rax
    pushq %rax
    popq %rax
L_if_end_171:
    movq -136(%rbp), %rax
    pushq %rax
    movabsq $0x1, %rax
    pushq %rax
    popq %rcx
    popq %rax
    addq %rcx, %rax
    pushq %rax
    popq %rax
    movq %rax, -136(%rbp)
    movq $0, %rax
    pushq %rax
    popq %rax
    jmp L_loop_top_168
L_loop_end_169:
    leaq L_SH_ST_OUT(%rip), %rax
    pushq %rax
    movabsq $0x0, %rax
    pushq %rax
    popq %rcx
    popq %rax
    movzbq (%rax,%rcx,1), %rax
    pushq %rax
    movabsq $0x0, %rax
    pushq %rax
    popq %rcx
    popq %rax
    cmpq %rcx, %rax
    sete %al
    movzbq %al, %rax
    pushq %rax
    popq %rax
    testq %rax, %rax
    jz L_if_end_173
    movabsq $0x6, %rax
    pushq %rax
    popq %rax
    movq %rbp, %rsp
    popq %rbp
    retq
    movq $0, %rax
    pushq %rax
    popq %rax
L_if_end_173:
    movq -88(%rbp), %rax
    pushq %rax
    movl -120(%rbp), %eax
    pushq %rax
    movl -112(%rbp), %eax
    pushq %rax
    movl -128(%rbp), %eax
    pushq %rax
    popq %rcx
    popq %rdx
    popq %r8
    popq %r9
    subq $32, %rsp
    callq sh_restrict
    addq $32, %rsp
    movslq %eax, %rax
    pushq %rax
    movslq L_SHEAF_OK(%rip), %rax
    pushq %rax
    popq %rcx
    popq %rax
    cmpq %rcx, %rax
    setne %al
    movzbq %al, %rax
    pushq %rax
    popq %rax
    testq %rax, %rax
    jz L_if_end_175
    movabsq $0x7, %rax
    pushq %rax
    popq %rax
    movq %rbp, %rsp
    popq %rbp
    retq
    movq $0, %rax
    pushq %rax
    popq %rax
L_if_end_175:
    movabsq $0x0, %rax
    pushq %rax
    popq %rax
    movq %rax, -136(%rbp)
L_loop_top_176:
    movq -136(%rbp), %rax
    pushq %rax
    movabsq $0x20, %rax
    pushq %rax
    popq %rcx
    popq %rax
    cmpq %rcx, %rax
    setb %al
    movzbq %al, %rax
    pushq %rax
    popq %rax
    testq %rax, %rax
    jz L_loop_end_177
    leaq L_SH_ST_OUT(%rip), %rax
    pushq %rax
    movq -136(%rbp), %rax
    pushq %rax
    popq %rcx
    popq %rax
    movzbq (%rax,%rcx,1), %rax
    pushq %rax
    leaq L_SH_ST_OUT2(%rip), %rax
    pushq %rax
    movq -136(%rbp), %rax
    pushq %rax
    popq %rcx
    popq %rax
    movzbq (%rax,%rcx,1), %rax
    pushq %rax
    popq %rcx
    popq %rax
    cmpq %rcx, %rax
    setne %al
    movzbq %al, %rax
    pushq %rax
    popq %rax
    testq %rax, %rax
    jz L_if_end_179
    movabsq $0x8, %rax
    pushq %rax
    popq %rax
    movq %rbp, %rsp
    popq %rbp
    retq
    movq $0, %rax
    pushq %rax
    popq %rax
L_if_end_179:
    movq -136(%rbp), %rax
    pushq %rax
    movabsq $0x1, %rax
    pushq %rax
    popq %rcx
    popq %rax
    addq %rcx, %rax
    pushq %rax
    popq %rax
    movq %rax, -136(%rbp)
    movq $0, %rax
    pushq %rax
    popq %rax
    jmp L_loop_top_176
L_loop_end_177:
    movl -112(%rbp), %eax
    pushq %rax
    movq -64(%rbp), %rax
    pushq %rax
    popq %rcx
    popq %rdx
    subq $32, %rsp
    callq sh_add_open
    addq $32, %rsp
    movl %eax, %eax
    pushq %rax
    popq %rax
    movq %rax, -144(%rbp)
    movl -144(%rbp), %eax
    pushq %rax
    movl L_SHEAF_SENT(%rip), %eax
    pushq %rax
    popq %rcx
    popq %rax
    cmpq %rcx, %rax
    sete %al
    movzbq %al, %rax
    pushq %rax
    popq %rax
    testq %rax, %rax
    jz L_if_end_181
    movabsq $0x1b, %rax
    pushq %rax
    popq %rax
    movq %rbp, %rsp
    popq %rbp
    retq
    movq $0, %rax
    pushq %rax
    popq %rax
L_if_end_181:
    movq -88(%rbp), %rax
    pushq %rax
    movl -144(%rbp), %eax
    pushq %rax
    movl -112(%rbp), %eax
    pushq %rax
    movl -128(%rbp), %eax
    pushq %rax
    popq %rcx
    popq %rdx
    popq %r8
    popq %r9
    subq $32, %rsp
    callq sh_restrict
    addq $32, %rsp
    movslq %eax, %rax
    pushq %rax
    movslq L_SHEAF_E_NO_RESTRICT(%rip), %rax
    pushq %rax
    popq %rcx
    popq %rax
    cmpq %rcx, %rax
    setne %al
    movzbq %al, %rax
    pushq %rax
    popq %rax
    testq %rax, %rax
    jz L_if_end_183
    movabsq $0x9, %rax
    pushq %rax
    popq %rax
    movq %rbp, %rsp
    popq %rbp
    retq
    movq $0, %rax
    pushq %rax
    popq %rax
L_if_end_183:
    movq -88(%rbp), %rax
    pushq %rax
    movl -120(%rbp), %eax
    pushq %rax
    movl -112(%rbp), %eax
    pushq %rax
    movl L_SHEAF_MAX_SECTION(%rip), %eax
    pushq %rax
    popq %rcx
    popq %rdx
    popq %r8
    popq %r9
    subq $32, %rsp
    callq sh_restrict
    addq $32, %rsp
    movslq %eax, %rax
    pushq %rax
    movslq L_SHEAF_E_BAD_SLOT(%rip), %rax
    pushq %rax
    popq %rcx
    popq %rax
    cmpq %rcx, %rax
    setne %al
    movzbq %al, %rax
    pushq %rax
    popq %rax
    testq %rax, %rax
    jz L_if_end_185
    movabsq $0xa, %rax
    pushq %rax
    popq %rax
    movq %rbp, %rsp
    popq %rbp
    retq
    movq $0, %rax
    pushq %rax
    popq %rax
L_if_end_185:
    subq $32, %rsp
    callq sh_init
    addq $32, %rsp
    movslq %eax, %rax
    pushq %rax
    popq %rax
    movl L_SHEAF_SENT(%rip), %eax
    pushq %rax
    movq -48(%rbp), %rax
    pushq %rax
    popq %rcx
    popq %rdx
    subq $32, %rsp
    callq sh_add_open
    addq $32, %rsp
    movl %eax, %eax
    pushq %rax
    popq %rax
    movq %rax, -152(%rbp)
    movl L_SHEAF_SENT(%rip), %eax
    pushq %rax
    movq -56(%rbp), %rax
    pushq %rax
    popq %rcx
    popq %rdx
    subq $32, %rsp
    callq sh_add_open
    addq $32, %rsp
    movl %eax, %eax
    pushq %rax
    popq %rax
    movq %rax, -160(%rbp)
    movl L_SHEAF_SENT(%rip), %eax
    pushq %rax
    movq -72(%rbp), %rax
    pushq %rax
    popq %rcx
    popq %rdx
    subq $32, %rsp
    callq sh_add_open
    addq $32, %rsp
    movl %eax, %eax
    pushq %rax
    popq %rax
    movq %rax, -168(%rbp)
    movl -168(%rbp), %eax
    pushq %rax
    movl L_SHEAF_SENT(%rip), %eax
    pushq %rax
    popq %rcx
    popq %rax
    cmpq %rcx, %rax
    sete %al
    movzbq %al, %rax
    pushq %rax
    popq %rax
    testq %rax, %rax
    jz L_if_end_187
    movabsq $0xb, %rax
    pushq %rax
    popq %rax
    movq %rbp, %rsp
    popq %rbp
    retq
    movq $0, %rax
    pushq %rax
    popq %rax
L_if_end_187:
    movl -168(%rbp), %eax
    pushq %rax
    movl -160(%rbp), %eax
    pushq %rax
    movl -152(%rbp), %eax
    pushq %rax
    popq %rcx
    popq %rdx
    popq %r8
    subq $32, %rsp
    callq sh_add_intersection
    addq $32, %rsp
    movl %eax, %eax
    pushq %rax
    popq %rax
    movq -16(%rbp), %rax
    pushq %rax
    movl -168(%rbp), %eax
    pushq %rax
    movl -152(%rbp), %eax
    pushq %rax
    popq %rcx
    popq %rdx
    popq %r8
    subq $32, %rsp
    callq sh_add_restriction
    addq $32, %rsp
    movl %eax, %eax
    pushq %rax
    popq %rax
    movq -16(%rbp), %rax
    pushq %rax
    movl -168(%rbp), %eax
    pushq %rax
    movl -160(%rbp), %eax
    pushq %rax
    popq %rcx
    popq %rdx
    popq %r8
    subq $32, %rsp
    callq sh_add_restriction
    addq $32, %rsp
    movl %eax, %eax
    pushq %rax
    popq %rax
    movq -32(%rbp), %rax
    pushq %rax
    movl -152(%rbp), %eax
    pushq %rax
    movq -8(%rbp), %rax
    pushq %rax
    popq %rcx
    popq %rdx
    popq %r8
    subq $32, %rsp
    callq sh_add_section
    addq $32, %rsp
    movl %eax, %eax
    pushq %rax
    popq %rax
    movq -32(%rbp), %rax
    pushq %rax
    movl -160(%rbp), %eax
    pushq %rax
    movq -8(%rbp), %rax
    pushq %rax
    popq %rcx
    popq %rdx
    popq %r8
    subq $32, %rsp
    callq sh_add_section
    addq $32, %rsp
    movl %eax, %eax
    pushq %rax
    popq %rax
    movl -160(%rbp), %eax
    pushq %rax
    movl -152(%rbp), %eax
    pushq %rax
    movabsq $0x2, %rax
    pushq %rax
    movq -8(%rbp), %rax
    pushq %rax
    popq %rcx
    popq %rdx
    popq %r8
    popq %r9
    subq $32, %rsp
    callq L_sh_st_cover2
    addq $32, %rsp
    movslq %eax, %rax
    pushq %rax
    popq %rax
    movq -80(%rbp), %rax
    pushq %rax
    movl L_SHEAF_SENT(%rip), %eax
    pushq %rax
    movq -104(%rbp), %rax
    pushq %rax
    popq %rcx
    popq %rdx
    popq %r8
    subq $32, %rsp
    callq sh_check_glue
    addq $32, %rsp
    movzbq %al, %rax
    pushq %rax
    movabsq $0x1, %rax
    pushq %rax
    popq %rcx
    popq %rax
    cmpq %rcx, %rax
    setne %al
    movzbq %al, %rax
    pushq %rax
    popq %rax
    testq %rax, %rax
    jz L_if_end_189
    movabsq $0xc, %rax
    pushq %rax
    popq %rax
    movq %rbp, %rsp
    popq %rbp
    retq
    movq $0, %rax
    pushq %rax
    popq %rax
L_if_end_189:
    movl -152(%rbp), %eax
    pushq %rax
    movl -160(%rbp), %eax
    pushq %rax
    movabsq $0x2, %rax
    pushq %rax
    movq -8(%rbp), %rax
    pushq %rax
    popq %rcx
    popq %rdx
    popq %r8
    popq %r9
    subq $32, %rsp
    callq L_sh_st_cover2
    addq $32, %rsp
    movslq %eax, %rax
    pushq %rax
    popq %rax
    movq -88(%rbp), %rax
    pushq %rax
    movl L_SHEAF_SENT(%rip), %eax
    pushq %rax
    movq -104(%rbp), %rax
    pushq %rax
    popq %rcx
    popq %rdx
    popq %r8
    subq $32, %rsp
    callq sh_check_glue
    addq $32, %rsp
    movzbq %al, %rax
    pushq %rax
    movabsq $0x1, %rax
    pushq %rax
    popq %rcx
    popq %rax
    cmpq %rcx, %rax
    setne %al
    movzbq %al, %rax
    pushq %rax
    popq %rax
    testq %rax, %rax
    jz L_if_end_191
    movabsq $0xd, %rax
    pushq %rax
    popq %rax
    movq %rbp, %rsp
    popq %rbp
    retq
    movq $0, %rax
    pushq %rax
    popq %rax
L_if_end_191:
    movabsq $0x0, %rax
    pushq %rax
    popq %rax
    movq %rax, -136(%rbp)
L_loop_top_192:
    movq -136(%rbp), %rax
    pushq %rax
    movabsq $0x20, %rax
    pushq %rax
    popq %rcx
    popq %rax
    cmpq %rcx, %rax
    setb %al
    movzbq %al, %rax
    pushq %rax
    popq %rax
    testq %rax, %rax
    jz L_loop_end_193
    leaq L_SH_ST_OUT(%rip), %rax
    pushq %rax
    movq -136(%rbp), %rax
    pushq %rax
    popq %rcx
    popq %rax
    movzbq (%rax,%rcx,1), %rax
    pushq %rax
    leaq L_SH_ST_OUT2(%rip), %rax
    pushq %rax
    movq -136(%rbp), %rax
    pushq %rax
    popq %rcx
    popq %rax
    movzbq (%rax,%rcx,1), %rax
    pushq %rax
    popq %rcx
    popq %rax
    cmpq %rcx, %rax
    setne %al
    movzbq %al, %rax
    pushq %rax
    popq %rax
    testq %rax, %rax
    jz L_if_end_195
    movabsq $0xe, %rax
    pushq %rax
    popq %rax
    movq %rbp, %rsp
    popq %rbp
    retq
    movq $0, %rax
    pushq %rax
    popq %rax
L_if_end_195:
    movq -136(%rbp), %rax
    pushq %rax
    movabsq $0x1, %rax
    pushq %rax
    popq %rcx
    popq %rax
    addq %rcx, %rax
    pushq %rax
    popq %rax
    movq %rax, -136(%rbp)
    movq $0, %rax
    pushq %rax
    popq %rax
    jmp L_loop_top_192
L_loop_end_193:
    movabsq $0x0, %rax
    pushq %rax
    popq %rax
    movq %rax, -136(%rbp)
L_loop_top_196:
    movq -136(%rbp), %rax
    pushq %rax
    movabsq $0x20, %rax
    pushq %rax
    popq %rcx
    popq %rax
    cmpq %rcx, %rax
    setb %al
    movzbq %al, %rax
    pushq %rax
    popq %rax
    testq %rax, %rax
    jz L_loop_end_197
    leaq L_SH_ST_RBUF(%rip), %rax
    pushq %rax
    movq -136(%rbp), %rax
    pushq %rax
    movq -32(%rbp), %rax
    pushq %rax
    movq -136(%rbp), %rax
    pushq %rax
    popq %rcx
    popq %rax
    movzbq (%rax,%rcx,1), %rax
    pushq %rax
    popq %rdx
    popq %rcx
    popq %rax
    movb %dl, (%rax,%rcx,1)
    leaq L_SH_ST_RBUF(%rip), %rax
    pushq %rax
    movabsq $0x20, %rax
    pushq %rax
    movq -136(%rbp), %rax
    pushq %rax
    popq %rcx
    popq %rax
    addq %rcx, %rax
    pushq %rax
    movq -32(%rbp), %rax
    pushq %rax
    movq -136(%rbp), %rax
    pushq %rax
    popq %rcx
    popq %rax
    movzbq (%rax,%rcx,1), %rax
    pushq %rax
    popq %rdx
    popq %rcx
    popq %rax
    movb %dl, (%rax,%rcx,1)
    movq -136(%rbp), %rax
    pushq %rax
    movabsq $0x1, %rax
    pushq %rax
    popq %rcx
    popq %rax
    addq %rcx, %rax
    pushq %rax
    popq %rax
    movq %rax, -136(%rbp)
    movq $0, %rax
    pushq %rax
    popq %rax
    jmp L_loop_top_196
L_loop_end_197:
    movq -96(%rbp), %rax
    pushq %rax
    popq %rax
    pushq %rax
    movabsq $0x40, %rax
    pushq %rax
    leaq L_SH_ST_RBUF(%rip), %rax
    pushq %rax
    popq %rax
    pushq %rax
    popq %rcx
    popq %rdx
    popq %r8
    subq $32, %rsp
    callq keccak256_oneshot
    addq $32, %rsp
    movslq %eax, %rax
    pushq %rax
    popq %rax
    movabsq $0x0, %rax
    pushq %rax
    popq %rax
    movq %rax, -136(%rbp)
L_loop_top_198:
    movq -136(%rbp), %rax
    pushq %rax
    movabsq $0x20, %rax
    pushq %rax
    popq %rcx
    popq %rax
    cmpq %rcx, %rax
    setb %al
    movzbq %al, %rax
    pushq %rax
    popq %rax
    testq %rax, %rax
    jz L_loop_end_199
    leaq L_SH_ST_OUT(%rip), %rax
    pushq %rax
    movq -136(%rbp), %rax
    pushq %rax
    popq %rcx
    popq %rax
    movzbq (%rax,%rcx,1), %rax
    pushq %rax
    leaq L_SH_ST_REF(%rip), %rax
    pushq %rax
    movq -136(%rbp), %rax
    pushq %rax
    popq %rcx
    popq %rax
    movzbq (%rax,%rcx,1), %rax
    pushq %rax
    popq %rcx
    popq %rax
    cmpq %rcx, %rax
    setne %al
    movzbq %al, %rax
    pushq %rax
    popq %rax
    testq %rax, %rax
    jz L_if_end_201
    movabsq $0xf, %rax
    pushq %rax
    popq %rax
    movq %rbp, %rsp
    popq %rbp
    retq
    movq $0, %rax
    pushq %rax
    popq %rax
L_if_end_201:
    movq -136(%rbp), %rax
    pushq %rax
    movabsq $0x1, %rax
    pushq %rax
    popq %rcx
    popq %rax
    addq %rcx, %rax
    pushq %rax
    popq %rax
    movq %rax, -136(%rbp)
    movq $0, %rax
    pushq %rax
    popq %rax
    jmp L_loop_top_198
L_loop_end_199:
    subq $32, %rsp
    callq sh_init
    addq $32, %rsp
    movslq %eax, %rax
    pushq %rax
    popq %rax
    movl L_SHEAF_SENT(%rip), %eax
    pushq %rax
    movq -48(%rbp), %rax
    pushq %rax
    popq %rcx
    popq %rdx
    subq $32, %rsp
    callq sh_add_open
    addq $32, %rsp
    movl %eax, %eax
    pushq %rax
    popq %rax
    movq %rax, -176(%rbp)
    movl L_SHEAF_SENT(%rip), %eax
    pushq %rax
    movq -56(%rbp), %rax
    pushq %rax
    popq %rcx
    popq %rdx
    subq $32, %rsp
    callq sh_add_open
    addq $32, %rsp
    movl %eax, %eax
    pushq %rax
    popq %rax
    movq %rax, -184(%rbp)
    movl L_SHEAF_SENT(%rip), %eax
    pushq %rax
    movq -72(%rbp), %rax
    pushq %rax
    popq %rcx
    popq %rdx
    subq $32, %rsp
    callq sh_add_open
    addq $32, %rsp
    movl %eax, %eax
    pushq %rax
    popq %rax
    movq %rax, -192(%rbp)
    movl -192(%rbp), %eax
    pushq %rax
    movl -184(%rbp), %eax
    pushq %rax
    movl -176(%rbp), %eax
    pushq %rax
    popq %rcx
    popq %rdx
    popq %r8
    subq $32, %rsp
    callq sh_add_intersection
    addq $32, %rsp
    movl %eax, %eax
    pushq %rax
    popq %rax
    movq -16(%rbp), %rax
    pushq %rax
    movl -192(%rbp), %eax
    pushq %rax
    movl -176(%rbp), %eax
    pushq %rax
    popq %rcx
    popq %rdx
    popq %r8
    subq $32, %rsp
    callq sh_add_restriction
    addq $32, %rsp
    movl %eax, %eax
    pushq %rax
    popq %rax
    movq -16(%rbp), %rax
    pushq %rax
    movl -192(%rbp), %eax
    pushq %rax
    movl -184(%rbp), %eax
    pushq %rax
    popq %rcx
    popq %rdx
    popq %r8
    subq $32, %rsp
    callq sh_add_restriction
    addq $32, %rsp
    movl %eax, %eax
    pushq %rax
    popq %rax
    movq -32(%rbp), %rax
    pushq %rax
    movl -176(%rbp), %eax
    pushq %rax
    movq -8(%rbp), %rax
    pushq %rax
    popq %rcx
    popq %rdx
    popq %r8
    subq $32, %rsp
    callq sh_add_section
    addq $32, %rsp
    movl %eax, %eax
    pushq %rax
    popq %rax
    movq -40(%rbp), %rax
    pushq %rax
    movl -184(%rbp), %eax
    pushq %rax
    movq -8(%rbp), %rax
    pushq %rax
    popq %rcx
    popq %rdx
    popq %r8
    subq $32, %rsp
    callq sh_add_section
    addq $32, %rsp
    movl %eax, %eax
    pushq %rax
    popq %rax
    movabsq $0xee, %rax
    pushq %rax
    movq -80(%rbp), %rax
    pushq %rax
    popq %rcx
    popq %rdx
    subq $32, %rsp
    callq L_sh_st_fill
    addq $32, %rsp
    movslq %eax, %rax
    pushq %rax
    popq %rax
    movl -184(%rbp), %eax
    pushq %rax
    movl -176(%rbp), %eax
    pushq %rax
    movabsq $0x2, %rax
    pushq %rax
    movq -8(%rbp), %rax
    pushq %rax
    popq %rcx
    popq %rdx
    popq %r8
    popq %r9
    subq $32, %rsp
    callq L_sh_st_cover2
    addq $32, %rsp
    movslq %eax, %rax
    pushq %rax
    popq %rax
    movq -80(%rbp), %rax
    pushq %rax
    movl L_SHEAF_SENT(%rip), %eax
    pushq %rax
    movq -104(%rbp), %rax
    pushq %rax
    popq %rcx
    popq %rdx
    popq %r8
    subq $32, %rsp
    callq sh_check_glue
    addq $32, %rsp
    movzbq %al, %rax
    pushq %rax
    movabsq $0x0, %rax
    pushq %rax
    popq %rcx
    popq %rax
    cmpq %rcx, %rax
    setne %al
    movzbq %al, %rax
    pushq %rax
    popq %rax
    testq %rax, %rax
    jz L_if_end_203
    movabsq $0x10, %rax
    pushq %rax
    popq %rax
    movq %rbp, %rsp
    popq %rbp
    retq
    movq $0, %rax
    pushq %rax
    popq %rax
L_if_end_203:
    movabsq $0x0, %rax
    pushq %rax
    popq %rax
    movq %rax, -136(%rbp)
L_loop_top_204:
    movq -136(%rbp), %rax
    pushq %rax
    movabsq $0x20, %rax
    pushq %rax
    popq %rcx
    popq %rax
    cmpq %rcx, %rax
    setb %al
    movzbq %al, %rax
    pushq %rax
    popq %rax
    testq %rax, %rax
    jz L_loop_end_205
    leaq L_SH_ST_OUT(%rip), %rax
    pushq %rax
    movq -136(%rbp), %rax
    pushq %rax
    popq %rcx
    popq %rax
    movzbq (%rax,%rcx,1), %rax
    pushq %rax
    movabsq $0xee, %rax
    pushq %rax
    popq %rcx
    popq %rax
    cmpq %rcx, %rax
    setne %al
    movzbq %al, %rax
    pushq %rax
    popq %rax
    testq %rax, %rax
    jz L_if_end_207
    movabsq $0x11, %rax
    pushq %rax
    popq %rax
    movq %rbp, %rsp
    popq %rbp
    retq
    movq $0, %rax
    pushq %rax
    popq %rax
L_if_end_207:
    movq -136(%rbp), %rax
    pushq %rax
    movabsq $0x1, %rax
    pushq %rax
    popq %rcx
    popq %rax
    addq %rcx, %rax
    pushq %rax
    popq %rax
    movq %rax, -136(%rbp)
    movq $0, %rax
    pushq %rax
    popq %rax
    jmp L_loop_top_204
L_loop_end_205:
    subq $32, %rsp
    callq sh_init
    addq $32, %rsp
    movslq %eax, %rax
    pushq %rax
    popq %rax
    movl L_SHEAF_SENT(%rip), %eax
    pushq %rax
    movq -48(%rbp), %rax
    pushq %rax
    popq %rcx
    popq %rdx
    subq $32, %rsp
    callq sh_add_open
    addq $32, %rsp
    movl %eax, %eax
    pushq %rax
    popq %rax
    movq %rax, -200(%rbp)
    movl L_SHEAF_SENT(%rip), %eax
    pushq %rax
    movq -56(%rbp), %rax
    pushq %rax
    popq %rcx
    popq %rdx
    subq $32, %rsp
    callq sh_add_open
    addq $32, %rsp
    movl %eax, %eax
    pushq %rax
    popq %rax
    movq %rax, -208(%rbp)
    movq -32(%rbp), %rax
    pushq %rax
    movl -200(%rbp), %eax
    pushq %rax
    movq -8(%rbp), %rax
    pushq %rax
    popq %rcx
    popq %rdx
    popq %r8
    subq $32, %rsp
    callq sh_add_section
    addq $32, %rsp
    movl %eax, %eax
    pushq %rax
    popq %rax
    movq -32(%rbp), %rax
    pushq %rax
    movl -208(%rbp), %eax
    pushq %rax
    movq -8(%rbp), %rax
    pushq %rax
    popq %rcx
    popq %rdx
    popq %r8
    subq $32, %rsp
    callq sh_add_section
    addq $32, %rsp
    movl %eax, %eax
    pushq %rax
    popq %rax
    movabsq $0xee, %rax
    pushq %rax
    movq -80(%rbp), %rax
    pushq %rax
    popq %rcx
    popq %rdx
    subq $32, %rsp
    callq L_sh_st_fill
    addq $32, %rsp
    movslq %eax, %rax
    pushq %rax
    popq %rax
    movl -208(%rbp), %eax
    pushq %rax
    movl -200(%rbp), %eax
    pushq %rax
    movabsq $0x2, %rax
    pushq %rax
    movq -8(%rbp), %rax
    pushq %rax
    popq %rcx
    popq %rdx
    popq %r8
    popq %r9
    subq $32, %rsp
    callq L_sh_st_cover2
    addq $32, %rsp
    movslq %eax, %rax
    pushq %rax
    popq %rax
    movq -80(%rbp), %rax
    pushq %rax
    movl L_SHEAF_SENT(%rip), %eax
    pushq %rax
    movq -104(%rbp), %rax
    pushq %rax
    popq %rcx
    popq %rdx
    popq %r8
    subq $32, %rsp
    callq sh_check_glue
    addq $32, %rsp
    movzbq %al, %rax
    pushq %rax
    movabsq $0x0, %rax
    pushq %rax
    popq %rcx
    popq %rax
    cmpq %rcx, %rax
    setne %al
    movzbq %al, %rax
    pushq %rax
    popq %rax
    testq %rax, %rax
    jz L_if_end_209
    movabsq $0x12, %rax
    pushq %rax
    popq %rax
    movq %rbp, %rsp
    popq %rbp
    retq
    movq $0, %rax
    pushq %rax
    popq %rax
L_if_end_209:
    movabsq $0x0, %rax
    pushq %rax
    popq %rax
    movq %rax, -136(%rbp)
L_loop_top_210:
    movq -136(%rbp), %rax
    pushq %rax
    movabsq $0x20, %rax
    pushq %rax
    popq %rcx
    popq %rax
    cmpq %rcx, %rax
    setb %al
    movzbq %al, %rax
    pushq %rax
    popq %rax
    testq %rax, %rax
    jz L_loop_end_211
    leaq L_SH_ST_OUT(%rip), %rax
    pushq %rax
    movq -136(%rbp), %rax
    pushq %rax
    popq %rcx
    popq %rax
    movzbq (%rax,%rcx,1), %rax
    pushq %rax
    movabsq $0xee, %rax
    pushq %rax
    popq %rcx
    popq %rax
    cmpq %rcx, %rax
    setne %al
    movzbq %al, %rax
    pushq %rax
    popq %rax
    testq %rax, %rax
    jz L_if_end_213
    movabsq $0x13, %rax
    pushq %rax
    popq %rax
    movq %rbp, %rsp
    popq %rbp
    retq
    movq $0, %rax
    pushq %rax
    popq %rax
L_if_end_213:
    movq -136(%rbp), %rax
    pushq %rax
    movabsq $0x1, %rax
    pushq %rax
    popq %rcx
    popq %rax
    addq %rcx, %rax
    pushq %rax
    popq %rax
    movq %rax, -136(%rbp)
    movq $0, %rax
    pushq %rax
    popq %rax
    jmp L_loop_top_210
L_loop_end_211:
    subq $32, %rsp
    callq sh_init
    addq $32, %rsp
    movslq %eax, %rax
    pushq %rax
    popq %rax
    movl L_SHEAF_SENT(%rip), %eax
    pushq %rax
    movq -48(%rbp), %rax
    pushq %rax
    popq %rcx
    popq %rdx
    subq $32, %rsp
    callq sh_add_open
    addq $32, %rsp
    movl %eax, %eax
    pushq %rax
    popq %rax
    movq %rax, -216(%rbp)
    movl L_SHEAF_SENT(%rip), %eax
    pushq %rax
    movq -48(%rbp), %rax
    pushq %rax
    popq %rcx
    popq %rdx
    subq $32, %rsp
    callq sh_add_open
    addq $32, %rsp
    movl %eax, %eax
    pushq %rax
    popq %rax
    movq %rax, -224(%rbp)
    movl -216(%rbp), %eax
    pushq %rax
    movl -224(%rbp), %eax
    pushq %rax
    popq %rcx
    popq %rax
    cmpq %rcx, %rax
    setne %al
    movzbq %al, %rax
    pushq %rax
    popq %rax
    testq %rax, %rax
    jz L_if_end_215
    movabsq $0x14, %rax
    pushq %rax
    popq %rax
    movq %rbp, %rsp
    popq %rbp
    retq
    movq $0, %rax
    pushq %rax
    popq %rax
L_if_end_215:
    movl L_SHEAF_SENT(%rip), %eax
    pushq %rax
    movq -56(%rbp), %rax
    pushq %rax
    popq %rcx
    popq %rdx
    subq $32, %rsp
    callq sh_add_open
    addq $32, %rsp
    movl %eax, %eax
    pushq %rax
    popq %rax
    movq %rax, -232(%rbp)
    movq -32(%rbp), %rax
    pushq %rax
    movl -216(%rbp), %eax
    pushq %rax
    movq -8(%rbp), %rax
    pushq %rax
    popq %rcx
    popq %rdx
    popq %r8
    subq $32, %rsp
    callq sh_add_section
    addq $32, %rsp
    movl %eax, %eax
    pushq %rax
    popq %rax
    movq %rax, -240(%rbp)
    movq -16(%rbp), %rax
    pushq %rax
    movl -232(%rbp), %eax
    pushq %rax
    movl -216(%rbp), %eax
    pushq %rax
    popq %rcx
    popq %rdx
    popq %r8
    subq $32, %rsp
    callq sh_add_restriction
    addq $32, %rsp
    movl %eax, %eax
    pushq %rax
    popq %rax
    movq %rax, -248(%rbp)
    movq -24(%rbp), %rax
    pushq %rax
    movl -232(%rbp), %eax
    pushq %rax
    movl -216(%rbp), %eax
    pushq %rax
    popq %rcx
    popq %rdx
    popq %r8
    subq $32, %rsp
    callq sh_add_restriction
    addq $32, %rsp
    movl %eax, %eax
    pushq %rax
    popq %rax
    movq %rax, -256(%rbp)
    movl -248(%rbp), %eax
    pushq %rax
    movl -256(%rbp), %eax
    pushq %rax
    popq %rcx
    popq %rax
    cmpq %rcx, %rax
    setne %al
    movzbq %al, %rax
    pushq %rax
    popq %rax
    testq %rax, %rax
    jz L_if_end_217
    movabsq $0x15, %rax
    pushq %rax
    popq %rax
    movq %rbp, %rsp
    popq %rbp
    retq
    movq $0, %rax
    pushq %rax
    popq %rax
L_if_end_217:
    movq -80(%rbp), %rax
    pushq %rax
    movl -232(%rbp), %eax
    pushq %rax
    movl -216(%rbp), %eax
    pushq %rax
    movl -240(%rbp), %eax
    pushq %rax
    popq %rcx
    popq %rdx
    popq %r8
    popq %r9
    subq $32, %rsp
    callq sh_restrict
    addq $32, %rsp
    movslq %eax, %rax
    pushq %rax
    movslq L_SHEAF_OK(%rip), %rax
    pushq %rax
    popq %rcx
    popq %rax
    cmpq %rcx, %rax
    setne %al
    movzbq %al, %rax
    pushq %rax
    popq %rax
    testq %rax, %rax
    jz L_if_end_219
    movabsq $0x16, %rax
    pushq %rax
    popq %rax
    movq %rbp, %rsp
    popq %rbp
    retq
    movq $0, %rax
    pushq %rax
    popq %rax
L_if_end_219:
    movabsq $0x0, %rax
    pushq %rax
    popq %rax
    movq %rax, -136(%rbp)
L_loop_top_220:
    movq -136(%rbp), %rax
    pushq %rax
    movabsq $0x20, %rax
    pushq %rax
    popq %rcx
    popq %rax
    cmpq %rcx, %rax
    setb %al
    movzbq %al, %rax
    pushq %rax
    popq %rax
    testq %rax, %rax
    jz L_loop_end_221
    leaq L_SH_ST_HBUF(%rip), %rax
    pushq %rax
    movq -136(%rbp), %rax
    pushq %rax
    movq -32(%rbp), %rax
    pushq %rax
    movq -136(%rbp), %rax
    pushq %rax
    popq %rcx
    popq %rax
    movzbq (%rax,%rcx,1), %rax
    pushq %rax
    popq %rdx
    popq %rcx
    popq %rax
    movb %dl, (%rax,%rcx,1)
    leaq L_SH_ST_HBUF(%rip), %rax
    pushq %rax
    movabsq $0x20, %rax
    pushq %rax
    movq -136(%rbp), %rax
    pushq %rax
    popq %rcx
    popq %rax
    addq %rcx, %rax
    pushq %rax
    movq -24(%rbp), %rax
    pushq %rax
    movq -136(%rbp), %rax
    pushq %rax
    popq %rcx
    popq %rax
    movzbq (%rax,%rcx,1), %rax
    pushq %rax
    popq %rdx
    popq %rcx
    popq %rax
    movb %dl, (%rax,%rcx,1)
    leaq L_SH_ST_HBUF(%rip), %rax
    pushq %rax
    movabsq $0x40, %rax
    pushq %rax
    movq -136(%rbp), %rax
    pushq %rax
    popq %rcx
    popq %rax
    addq %rcx, %rax
    pushq %rax
    movq -56(%rbp), %rax
    pushq %rax
    movq -136(%rbp), %rax
    pushq %rax
    popq %rcx
    popq %rax
    movzbq (%rax,%rcx,1), %rax
    pushq %rax
    popq %rdx
    popq %rcx
    popq %rax
    movb %dl, (%rax,%rcx,1)
    movq -136(%rbp), %rax
    pushq %rax
    movabsq $0x1, %rax
    pushq %rax
    popq %rcx
    popq %rax
    addq %rcx, %rax
    pushq %rax
    popq %rax
    movq %rax, -136(%rbp)
    movq $0, %rax
    pushq %rax
    popq %rax
    jmp L_loop_top_220
L_loop_end_221:
    movq -96(%rbp), %rax
    pushq %rax
    popq %rax
    pushq %rax
    movabsq $0x60, %rax
    pushq %rax
    leaq L_SH_ST_HBUF(%rip), %rax
    pushq %rax
    popq %rax
    pushq %rax
    popq %rcx
    popq %rdx
    popq %r8
    subq $32, %rsp
    callq keccak256_oneshot
    addq $32, %rsp
    movslq %eax, %rax
    pushq %rax
    popq %rax
    movabsq $0x0, %rax
    pushq %rax
    popq %rax
    movq %rax, -136(%rbp)
L_loop_top_222:
    movq -136(%rbp), %rax
    pushq %rax
    movabsq $0x20, %rax
    pushq %rax
    popq %rcx
    popq %rax
    cmpq %rcx, %rax
    setb %al
    movzbq %al, %rax
    pushq %rax
    popq %rax
    testq %rax, %rax
    jz L_loop_end_223
    leaq L_SH_ST_OUT(%rip), %rax
    pushq %rax
    movq -136(%rbp), %rax
    pushq %rax
    popq %rcx
    popq %rax
    movzbq (%rax,%rcx,1), %rax
    pushq %rax
    leaq L_SH_ST_REF(%rip), %rax
    pushq %rax
    movq -136(%rbp), %rax
    pushq %rax
    popq %rcx
    popq %rax
    movzbq (%rax,%rcx,1), %rax
    pushq %rax
    popq %rcx
    popq %rax
    cmpq %rcx, %rax
    setne %al
    movzbq %al, %rax
    pushq %rax
    popq %rax
    testq %rax, %rax
    jz L_if_end_225
    movabsq $0x17, %rax
    pushq %rax
    popq %rax
    movq %rbp, %rsp
    popq %rbp
    retq
    movq $0, %rax
    pushq %rax
    popq %rax
L_if_end_225:
    movq -136(%rbp), %rax
    pushq %rax
    movabsq $0x1, %rax
    pushq %rax
    popq %rcx
    popq %rax
    addq %rcx, %rax
    pushq %rax
    popq %rax
    movq %rax, -136(%rbp)
    movq $0, %rax
    pushq %rax
    popq %rax
    jmp L_loop_top_222
L_loop_end_223:
    movq -40(%rbp), %rax
    pushq %rax
    movl -216(%rbp), %eax
    pushq %rax
    movq -8(%rbp), %rax
    pushq %rax
    popq %rcx
    popq %rdx
    popq %r8
    subq $32, %rsp
    callq sh_add_section
    addq $32, %rsp
    movl %eax, %eax
    pushq %rax
    popq %rax
    movq %rax, -264(%rbp)
    movl -240(%rbp), %eax
    pushq %rax
    movl -264(%rbp), %eax
    pushq %rax
    popq %rcx
    popq %rax
    cmpq %rcx, %rax
    setne %al
    movzbq %al, %rax
    pushq %rax
    popq %rax
    testq %rax, %rax
    jz L_if_end_227
    movabsq $0x18, %rax
    pushq %rax
    popq %rax
    movq %rbp, %rsp
    popq %rbp
    retq
    movq $0, %rax
    pushq %rax
    popq %rax
L_if_end_227:
    movq -88(%rbp), %rax
    pushq %rax
    movl -240(%rbp), %eax
    pushq %rax
    popq %rcx
    popq %rdx
    subq $32, %rsp
    callq sh_section_id
    addq $32, %rsp
    movslq %eax, %rax
    pushq %rax
    movslq L_SHEAF_OK(%rip), %rax
    pushq %rax
    popq %rcx
    popq %rax
    cmpq %rcx, %rax
    setne %al
    movzbq %al, %rax
    pushq %rax
    popq %rax
    testq %rax, %rax
    jz L_if_end_229
    movabsq $0x19, %rax
    pushq %rax
    popq %rax
    movq %rbp, %rsp
    popq %rbp
    retq
    movq $0, %rax
    pushq %rax
    popq %rax
L_if_end_229:
    movq -40(%rbp), %rax
    pushq %rax
    movq -88(%rbp), %rax
    pushq %rax
    popq %rcx
    popq %rdx
    subq $32, %rsp
    callq ident_eq
    addq $32, %rsp
    movzbq %al, %rax
    pushq %rax
    movabsq $0x1, %rax
    pushq %rax
    popq %rcx
    popq %rax
    cmpq %rcx, %rax
    setne %al
    movzbq %al, %rax
    pushq %rax
    popq %rax
    testq %rax, %rax
    jz L_if_end_231
    movabsq $0x1a, %rax
    pushq %rax
    popq %rax
    movq %rbp, %rsp
    popq %rbp
    retq
    movq $0, %rax
    pushq %rax
    popq %rax
L_if_end_231:
    movabsq $0x63, %rax
    pushq %rax
    popq %rax
    movq %rbp, %rsp
    popq %rbp
    retq
    movq $0, %rax
    pushq %rax
    movq $0, %rax
    movq %rbp, %rsp
    popq %rbp
    retq
    .seh_endproc
