# III Stage-0 Ring-3 codegen output
# Microsoft x64 ABI; gas syntax (AT&T); PE/COFF target
    .att_syntax
    .file 1 "<iii-source>"
    .section .rodata
L_str_0:
    .ascii "cad.iiialgebraic_time.iii\0"
L_str_1:
    .ascii "algebraic_time.iii\0"
    .section .rodata
L_ENTROPY_OK:
    .quad 0x0
L_ENTROPY_E_BAD:
    .quad 0xffffffffffffffff
L_ENTROPY_E_CAP:
    .quad 0xfffffffffffffffe
L_ENTROPY_E_NOBASE:
    .quad 0xfffffffffffffffd
L_ENTROPY_E_RANGE:
    .quad 0xfffffffffffffffc
L_ENTROPY_PRIME:
    .quad 0x3b800001
L_ENTROPY_GROOT:
    .quad 0x3
L_ENTROPY_N:
    .quad 0x40
L_ENTROPY_LOG2N:
    .quad 0x6
L_ENTROPY_MAX_PATHS:
    .quad 0x100
L_ENTROPY_ID_LEN:
    .quad 0x20
L_ENTROPY_INVALID_SLOT:
    .quad 0xffffffff
    .section .bss
    .global L_ENTROPY_LIVE
L_ENTROPY_LIVE:
    .zero 2048
    .global L_ENTROPY_PATH_ID
L_ENTROPY_PATH_ID:
    .zero 65536
    .global L_ENTROPY_BUF
L_ENTROPY_BUF:
    .zero 131072
    .global L_ENTROPY_BUF_HEAD
L_ENTROPY_BUF_HEAD:
    .zero 2048
    .global L_ENTROPY_BUF_LEN
L_ENTROPY_BUF_LEN:
    .zero 2048
    .global L_ENTROPY_BASELINE
L_ENTROPY_BASELINE:
    .zero 131072
    .global L_ENTROPY_BASE_SET
L_ENTROPY_BASE_SET:
    .zero 2048
    .global L_ENTROPY_SCRATCH_A
L_ENTROPY_SCRATCH_A:
    .zero 512
    .global L_ENTROPY_SCRATCH_B
L_ENTROPY_SCRATCH_B:
    .zero 512
    .global L_ENTROPY_WIT_SPEC
L_ENTROPY_WIT_SPEC:
    .zero 512
    .global L_ENTROPY_WIT_BUF
L_ENTROPY_WIT_BUF:
    .zero 2368
    .global L_ENTROPY_WIT_HASH
L_ENTROPY_WIT_HASH:
    .zero 256
    .section .data
    .global L_ENTROPY_OMEGA
L_ENTROPY_OMEGA:
    .quad 0x0
    .global L_ENTROPY_INITED
L_ENTROPY_INITED:
    .quad 0x0
    .section .bss
    .global L_ENTROPY_KAT_ID
L_ENTROPY_KAT_ID:
    .zero 256
    .global L_ENTROPY_KAT_SPEC
L_ENTROPY_KAT_SPEC:
    .zero 512
    .global L_ENTROPY_KAT_SPEC2
L_ENTROPY_KAT_SPEC2:
    .zero 512
    .global L_ENTROPY_KAT_H1
L_ENTROPY_KAT_H1:
    .zero 256
    .global L_ENTROPY_KAT_H2
L_ENTROPY_KAT_H2:
    .zero 256
    .section .iii.ring3,"n"
    .asciz "entropy_mulmod"
    .text
    .global L_entropy_mulmod
    .seh_proc L_entropy_mulmod
L_entropy_mulmod:
    pushq %rbp
    .seh_pushreg %rbp
    movq %rsp, %rbp
    .seh_setframe %rbp, 0
    subq $1024, %rsp
    .seh_stackalloc 1024
    .seh_endprologue
    movq %rcx, -8(%rbp)
    movq %rdx, -16(%rbp)
    movq -8(%rbp), %rax
    pushq %rax
    popq %rax
    movq %rax, -24(%rbp)
    movq -16(%rbp), %rax
    pushq %rax
    popq %rax
    movq %rax, -32(%rbp)
    movq -24(%rbp), %rax
    pushq %rax
    movq -32(%rbp), %rax
    pushq %rax
    popq %rcx
    popq %rax
    imulq %rcx, %rax
    pushq %rax
    movq L_ENTROPY_PRIME(%rip), %rax
    pushq %rax
    popq %rcx
    popq %rax
    cqto
    idivq %rcx
    movq %rdx, %rax
    pushq %rax
    popq %rax
    movq %rbp, %rsp
    popq %rbp
    retq
    movq $0, %rax
    pushq %rax
    movq $0, %rax
    movq %rbp, %rsp
    popq %rbp
    retq
    .seh_endproc
    .section .iii.ring3,"n"
    .asciz "entropy_addmod"
    .text
    .global L_entropy_addmod
    .seh_proc L_entropy_addmod
L_entropy_addmod:
    pushq %rbp
    .seh_pushreg %rbp
    movq %rsp, %rbp
    .seh_setframe %rbp, 0
    subq $1024, %rsp
    .seh_stackalloc 1024
    .seh_endprologue
    movq %rcx, -8(%rbp)
    movq %rdx, -16(%rbp)
    movq -8(%rbp), %rax
    pushq %rax
    movq -16(%rbp), %rax
    pushq %rax
    popq %rcx
    popq %rax
    addq %rcx, %rax
    pushq %rax
    popq %rax
    movq %rax, -24(%rbp)
    movq -24(%rbp), %rax
    pushq %rax
    movq L_ENTROPY_PRIME(%rip), %rax
    pushq %rax
    popq %rcx
    popq %rax
    cmpq %rcx, %rax
    setae %al
    movzbq %al, %rax
    pushq %rax
    popq %rax
    testq %rax, %rax
    jz L_if_end_1
    movq -24(%rbp), %rax
    pushq %rax
    movq L_ENTROPY_PRIME(%rip), %rax
    pushq %rax
    popq %rcx
    popq %rax
    subq %rcx, %rax
    pushq %rax
    popq %rax
    movq %rbp, %rsp
    popq %rbp
    retq
    movq $0, %rax
    pushq %rax
    popq %rax
L_if_end_1:
    movq -24(%rbp), %rax
    pushq %rax
    popq %rax
    movq %rbp, %rsp
    popq %rbp
    retq
    movq $0, %rax
    pushq %rax
    movq $0, %rax
    movq %rbp, %rsp
    popq %rbp
    retq
    .seh_endproc
    .section .iii.ring3,"n"
    .asciz "entropy_submod"
    .text
    .global L_entropy_submod
    .seh_proc L_entropy_submod
L_entropy_submod:
    pushq %rbp
    .seh_pushreg %rbp
    movq %rsp, %rbp
    .seh_setframe %rbp, 0
    subq $1024, %rsp
    .seh_stackalloc 1024
    .seh_endprologue
    movq %rcx, -8(%rbp)
    movq %rdx, -16(%rbp)
    movq -8(%rbp), %rax
    pushq %rax
    movq -16(%rbp), %rax
    pushq %rax
    popq %rcx
    popq %rax
    cmpq %rcx, %rax
    setae %al
    movzbq %al, %rax
    pushq %rax
    popq %rax
    testq %rax, %rax
    jz L_if_end_3
    movq -8(%rbp), %rax
    pushq %rax
    movq -16(%rbp), %rax
    pushq %rax
    popq %rcx
    popq %rax
    subq %rcx, %rax
    pushq %rax
    popq %rax
    movq %rbp, %rsp
    popq %rbp
    retq
    movq $0, %rax
    pushq %rax
    popq %rax
L_if_end_3:
    movq -8(%rbp), %rax
    pushq %rax
    movq L_ENTROPY_PRIME(%rip), %rax
    pushq %rax
    popq %rcx
    popq %rax
    addq %rcx, %rax
    pushq %rax
    movq -16(%rbp), %rax
    pushq %rax
    popq %rcx
    popq %rax
    subq %rcx, %rax
    pushq %rax
    popq %rax
    movq %rbp, %rsp
    popq %rbp
    retq
    movq $0, %rax
    pushq %rax
    movq $0, %rax
    movq %rbp, %rsp
    popq %rbp
    retq
    .seh_endproc
    .section .iii.ring3,"n"
    .asciz "entropy_powmod"
    .text
    .global L_entropy_powmod
    .seh_proc L_entropy_powmod
L_entropy_powmod:
    pushq %rbp
    .seh_pushreg %rbp
    movq %rsp, %rbp
    .seh_setframe %rbp, 0
    subq $1024, %rsp
    .seh_stackalloc 1024
    .seh_endprologue
    movq %rcx, -8(%rbp)
    movq %rdx, -16(%rbp)
    movabsq $0x1, %rax
    pushq %rax
    popq %rax
    movq %rax, -24(%rbp)
    movq -8(%rbp), %rax
    pushq %rax
    movq L_ENTROPY_PRIME(%rip), %rax
    pushq %rax
    popq %rcx
    popq %rax
    cqto
    idivq %rcx
    movq %rdx, %rax
    pushq %rax
    popq %rax
    movq %rax, -32(%rbp)
    movq -16(%rbp), %rax
    pushq %rax
    popq %rax
    movq %rax, -40(%rbp)
L_loop_top_4:
    movq -40(%rbp), %rax
    pushq %rax
    movabsq $0x0, %rax
    pushq %rax
    popq %rcx
    popq %rax
    cmpq %rcx, %rax
    seta %al
    movzbq %al, %rax
    pushq %rax
    popq %rax
    testq %rax, %rax
    jz L_loop_end_5
    movq -40(%rbp), %rax
    pushq %rax
    movabsq $0x1, %rax
    pushq %rax
    popq %rcx
    popq %rax
    andq %rcx, %rax
    pushq %rax
    movabsq $0x1, %rax
    pushq %rax
    popq %rcx
    popq %rax
    cmpq %rcx, %rax
    sete %al
    movzbq %al, %rax
    pushq %rax
    popq %rax
    testq %rax, %rax
    jz L_if_end_7
    movq -32(%rbp), %rax
    pushq %rax
    movq -24(%rbp), %rax
    pushq %rax
    popq %rcx
    popq %rdx
    subq $32, %rsp
    callq L_entropy_mulmod
    addq $32, %rsp
    pushq %rax
    popq %rax
    movq %rax, -24(%rbp)
    movq $0, %rax
    pushq %rax
    popq %rax
L_if_end_7:
    movq -32(%rbp), %rax
    pushq %rax
    movq -32(%rbp), %rax
    pushq %rax
    popq %rcx
    popq %rdx
    subq $32, %rsp
    callq L_entropy_mulmod
    addq $32, %rsp
    pushq %rax
    popq %rax
    movq %rax, -32(%rbp)
    movq -40(%rbp), %rax
    pushq %rax
    movabsq $0x1, %rax
    pushq %rax
    popq %rcx
    popq %rax
    shrq %cl, %rax
    pushq %rax
    popq %rax
    movq %rax, -40(%rbp)
    movq $0, %rax
    pushq %rax
    popq %rax
    jmp L_loop_top_4
L_loop_end_5:
    movq -24(%rbp), %rax
    pushq %rax
    popq %rax
    movq %rbp, %rsp
    popq %rbp
    retq
    movq $0, %rax
    pushq %rax
    movq $0, %rax
    movq %rbp, %rsp
    popq %rbp
    retq
    .seh_endproc
    .section .iii.ring3,"n"
    .asciz "entropy_bitrev"
    .text
    .global L_entropy_bitrev
    .seh_proc L_entropy_bitrev
L_entropy_bitrev:
    pushq %rbp
    .seh_pushreg %rbp
    movq %rsp, %rbp
    .seh_setframe %rbp, 0
    subq $1024, %rsp
    .seh_stackalloc 1024
    .seh_endprologue
    movq %rcx, -8(%rbp)
    movabsq $0x0, %rax
    pushq %rax
    popq %rax
    movq %rax, -16(%rbp)
    movl -8(%rbp), %eax
    pushq %rax
    popq %rax
    movq %rax, -24(%rbp)
    movabsq $0x0, %rax
    pushq %rax
    popq %rax
    movq %rax, -32(%rbp)
L_loop_top_8:
    movl -32(%rbp), %eax
    pushq %rax
    movl L_ENTROPY_LOG2N(%rip), %eax
    pushq %rax
    popq %rcx
    popq %rax
    cmpq %rcx, %rax
    setb %al
    movzbq %al, %rax
    pushq %rax
    popq %rax
    testq %rax, %rax
    jz L_loop_end_9
    movl -16(%rbp), %eax
    pushq %rax
    movabsq $0x1, %rax
    pushq %rax
    popq %rcx
    popq %rax
    shlq %cl, %rax
    movl %eax, %eax
    pushq %rax
    movl -24(%rbp), %eax
    pushq %rax
    movabsq $0x1, %rax
    pushq %rax
    popq %rcx
    popq %rax
    andq %rcx, %rax
    pushq %rax
    popq %rcx
    popq %rax
    orq %rcx, %rax
    pushq %rax
    popq %rax
    movq %rax, -16(%rbp)
    movl -24(%rbp), %eax
    pushq %rax
    movabsq $0x1, %rax
    pushq %rax
    popq %rcx
    popq %rax
    shrq %cl, %rax
    pushq %rax
    popq %rax
    movq %rax, -24(%rbp)
    movl -32(%rbp), %eax
    pushq %rax
    movabsq $0x1, %rax
    pushq %rax
    popq %rcx
    popq %rax
    addq %rcx, %rax
    movl %eax, %eax
    pushq %rax
    popq %rax
    movq %rax, -32(%rbp)
    movq $0, %rax
    pushq %rax
    popq %rax
    jmp L_loop_top_8
L_loop_end_9:
    movl -16(%rbp), %eax
    pushq %rax
    popq %rax
    movq %rbp, %rsp
    popq %rbp
    retq
    movq $0, %rax
    pushq %rax
    movq $0, %rax
    movq %rbp, %rsp
    popq %rbp
    retq
    .seh_endproc
    .section .iii.ring3,"n"
    .asciz "entropy_init"
    .text
    .global entropy_init
    .seh_proc entropy_init
entropy_init:
    pushq %rbp
    .seh_pushreg %rbp
    movq %rsp, %rbp
    .seh_setframe %rbp, 0
    subq $1024, %rsp
    .seh_stackalloc 1024
    .seh_endprologue
    movabsq $0x0, %rax
    pushq %rax
    popq %rax
    movq %rax, -8(%rbp)
L_loop_top_10:
    movl -8(%rbp), %eax
    pushq %rax
    movl L_ENTROPY_MAX_PATHS(%rip), %eax
    pushq %rax
    popq %rcx
    popq %rax
    cmpq %rcx, %rax
    setb %al
    movzbq %al, %rax
    pushq %rax
    popq %rax
    testq %rax, %rax
    jz L_loop_end_11
    leaq L_ENTROPY_LIVE(%rip), %rax
    pushq %rax
    movl -8(%rbp), %eax
    pushq %rax
    movabsq $0x0, %rax
    pushq %rax
    popq %rdx
    popq %rcx
    popq %rax
    movb %dl, (%rax,%rcx,1)
    leaq L_ENTROPY_BUF_HEAD(%rip), %rax
    pushq %rax
    movl -8(%rbp), %eax
    pushq %rax
    movabsq $0x0, %rax
    pushq %rax
    popq %rdx
    popq %rcx
    popq %rax
    movl %edx, (%rax,%rcx,4)
    leaq L_ENTROPY_BUF_LEN(%rip), %rax
    pushq %rax
    movl -8(%rbp), %eax
    pushq %rax
    movabsq $0x0, %rax
    pushq %rax
    popq %rdx
    popq %rcx
    popq %rax
    movl %edx, (%rax,%rcx,4)
    leaq L_ENTROPY_BASE_SET(%rip), %rax
    pushq %rax
    movl -8(%rbp), %eax
    pushq %rax
    movabsq $0x0, %rax
    pushq %rax
    popq %rdx
    popq %rcx
    popq %rax
    movb %dl, (%rax,%rcx,1)
    movl -8(%rbp), %eax
    pushq %rax
    movabsq $0x1, %rax
    pushq %rax
    popq %rcx
    popq %rax
    addq %rcx, %rax
    movl %eax, %eax
    pushq %rax
    popq %rax
    movq %rax, -8(%rbp)
    movq $0, %rax
    pushq %rax
    popq %rax
    jmp L_loop_top_10
L_loop_end_11:
    movq L_ENTROPY_PRIME(%rip), %rax
    pushq %rax
    movabsq $0x1, %rax
    pushq %rax
    popq %rcx
    popq %rax
    subq %rcx, %rax
    pushq %rax
    movl L_ENTROPY_N(%rip), %eax
    pushq %rax
    popq %rax
    pushq %rax
    popq %rcx
    popq %rax
    cqto
    idivq %rcx
    pushq %rax
    popq %rax
    movq %rax, -16(%rbp)
    movq -16(%rbp), %rax
    pushq %rax
    movq L_ENTROPY_GROOT(%rip), %rax
    pushq %rax
    popq %rcx
    popq %rdx
    subq $32, %rsp
    callq L_entropy_powmod
    addq $32, %rsp
    pushq %rax
    popq %rax
    movq %rax, L_ENTROPY_OMEGA(%rip)
    movabsq $0x1, %rax
    pushq %rax
    popq %rax
    movb %al, L_ENTROPY_INITED(%rip)
    movslq L_ENTROPY_OK(%rip), %rax
    pushq %rax
    popq %rax
    movq %rbp, %rsp
    popq %rbp
    retq
    movq $0, %rax
    pushq %rax
    movq $0, %rax
    movq %rbp, %rsp
    popq %rbp
    retq
    .seh_endproc
    .section .iii.ring3,"n"
    .asciz "entropy_register_path"
    .text
    .global entropy_register_path
    .seh_proc entropy_register_path
entropy_register_path:
    pushq %rbp
    .seh_pushreg %rbp
    movq %rsp, %rbp
    .seh_setframe %rbp, 0
    subq $1024, %rsp
    .seh_stackalloc 1024
    .seh_endprologue
    movq %rcx, -8(%rbp)
    movabsq $0x0, %rax
    pushq %rax
    popq %rax
    movq %rax, -16(%rbp)
L_loop_top_12:
    movl -16(%rbp), %eax
    pushq %rax
    movl L_ENTROPY_MAX_PATHS(%rip), %eax
    pushq %rax
    popq %rcx
    popq %rax
    cmpq %rcx, %rax
    setb %al
    movzbq %al, %rax
    pushq %rax
    popq %rax
    testq %rax, %rax
    jz L_loop_end_13
    leaq L_ENTROPY_LIVE(%rip), %rax
    pushq %rax
    movl -16(%rbp), %eax
    pushq %rax
    popq %rcx
    popq %rax
    movzbq (%rax,%rcx,1), %rax
    pushq %rax
    movabsq $0x0, %rax
    pushq %rax
    popq %rcx
    popq %rax
    cmpq %rcx, %rax
    sete %al
    movzbq %al, %rax
    pushq %rax
    popq %rax
    testq %rax, %rax
    jz L_if_end_15
    movl -16(%rbp), %eax
    pushq %rax
    popq %rax
    pushq %rax
    movabsq $0xffffffff, %rax
    pushq %rax
    popq %rcx
    popq %rax
    andq %rcx, %rax
    pushq %rax
    movq L_ENTROPY_ID_LEN(%rip), %rax
    pushq %rax
    popq %rcx
    popq %rax
    imulq %rcx, %rax
    pushq %rax
    popq %rax
    movq %rax, -24(%rbp)
    movabsq $0x0, %rax
    pushq %rax
    popq %rax
    movq %rax, -32(%rbp)
L_loop_top_16:
    movq -32(%rbp), %rax
    pushq %rax
    movq L_ENTROPY_ID_LEN(%rip), %rax
    pushq %rax
    popq %rcx
    popq %rax
    cmpq %rcx, %rax
    setb %al
    movzbq %al, %rax
    pushq %rax
    popq %rax
    testq %rax, %rax
    jz L_loop_end_17
    leaq L_ENTROPY_PATH_ID(%rip), %rax
    pushq %rax
    movq -24(%rbp), %rax
    pushq %rax
    movq -32(%rbp), %rax
    pushq %rax
    popq %rcx
    popq %rax
    addq %rcx, %rax
    pushq %rax
    movq -8(%rbp), %rax
    pushq %rax
    movq -32(%rbp), %rax
    pushq %rax
    popq %rcx
    popq %rax
    movzbq (%rax,%rcx,1), %rax
    pushq %rax
    popq %rdx
    popq %rcx
    popq %rax
    movb %dl, (%rax,%rcx,1)
    movq -32(%rbp), %rax
    pushq %rax
    movabsq $0x1, %rax
    pushq %rax
    popq %rcx
    popq %rax
    addq %rcx, %rax
    pushq %rax
    popq %rax
    movq %rax, -32(%rbp)
    movq $0, %rax
    pushq %rax
    popq %rax
    jmp L_loop_top_16
L_loop_end_17:
    leaq L_ENTROPY_LIVE(%rip), %rax
    pushq %rax
    movl -16(%rbp), %eax
    pushq %rax
    movabsq $0x1, %rax
    pushq %rax
    popq %rdx
    popq %rcx
    popq %rax
    movb %dl, (%rax,%rcx,1)
    leaq L_ENTROPY_BUF_HEAD(%rip), %rax
    pushq %rax
    movl -16(%rbp), %eax
    pushq %rax
    movabsq $0x0, %rax
    pushq %rax
    popq %rdx
    popq %rcx
    popq %rax
    movl %edx, (%rax,%rcx,4)
    leaq L_ENTROPY_BUF_LEN(%rip), %rax
    pushq %rax
    movl -16(%rbp), %eax
    pushq %rax
    movabsq $0x0, %rax
    pushq %rax
    popq %rdx
    popq %rcx
    popq %rax
    movl %edx, (%rax,%rcx,4)
    leaq L_ENTROPY_BASE_SET(%rip), %rax
    pushq %rax
    movl -16(%rbp), %eax
    pushq %rax
    movabsq $0x0, %rax
    pushq %rax
    popq %rdx
    popq %rcx
    popq %rax
    movb %dl, (%rax,%rcx,1)
    movl -16(%rbp), %eax
    pushq %rax
    popq %rax
    movq %rbp, %rsp
    popq %rbp
    retq
    movq $0, %rax
    pushq %rax
    popq %rax
L_if_end_15:
    movl -16(%rbp), %eax
    pushq %rax
    movabsq $0x1, %rax
    pushq %rax
    popq %rcx
    popq %rax
    addq %rcx, %rax
    movl %eax, %eax
    pushq %rax
    popq %rax
    movq %rax, -16(%rbp)
    movq $0, %rax
    pushq %rax
    popq %rax
    jmp L_loop_top_12
L_loop_end_13:
    movl L_ENTROPY_INVALID_SLOT(%rip), %eax
    pushq %rax
    popq %rax
    movq %rbp, %rsp
    popq %rbp
    retq
    movq $0, %rax
    pushq %rax
    movq $0, %rax
    movq %rbp, %rsp
    popq %rbp
    retq
    .seh_endproc
    .section .iii.ring3,"n"
    .asciz "entropy_umod_prime"
    .text
    .global L_entropy_umod_prime
    .seh_proc L_entropy_umod_prime
L_entropy_umod_prime:
    pushq %rbp
    .seh_pushreg %rbp
    movq %rsp, %rbp
    .seh_setframe %rbp, 0
    subq $1024, %rsp
    .seh_stackalloc 1024
    .seh_endprologue
    movq %rcx, -8(%rbp)
    movq -8(%rbp), %rax
    pushq %rax
    movabsq $0x20, %rax
    pushq %rax
    popq %rcx
    popq %rax
    shrq %cl, %rax
    pushq %rax
    movabsq $0xffffffff, %rax
    pushq %rax
    popq %rcx
    popq %rax
    andq %rcx, %rax
    pushq %rax
    popq %rax
    movq %rax, -16(%rbp)
    movq -8(%rbp), %rax
    pushq %rax
    movabsq $0xffffffff, %rax
    pushq %rax
    popq %rcx
    popq %rax
    andq %rcx, %rax
    pushq %rax
    popq %rax
    movq %rax, -24(%rbp)
    movabsq $0x100000000, %rax
    pushq %rax
    movq L_ENTROPY_PRIME(%rip), %rax
    pushq %rax
    popq %rcx
    popq %rax
    cqto
    idivq %rcx
    movq %rdx, %rax
    pushq %rax
    popq %rax
    movq %rax, -32(%rbp)
    movq -16(%rbp), %rax
    pushq %rax
    movq L_ENTROPY_PRIME(%rip), %rax
    pushq %rax
    popq %rcx
    popq %rax
    cqto
    idivq %rcx
    movq %rdx, %rax
    pushq %rax
    movq -32(%rbp), %rax
    pushq %rax
    popq %rcx
    popq %rax
    imulq %rcx, %rax
    pushq %rax
    popq %rax
    movq %rax, -40(%rbp)
    movq -40(%rbp), %rax
    pushq %rax
    movq L_ENTROPY_PRIME(%rip), %rax
    pushq %rax
    popq %rcx
    popq %rax
    cqto
    idivq %rcx
    movq %rdx, %rax
    pushq %rax
    movq -24(%rbp), %rax
    pushq %rax
    movq L_ENTROPY_PRIME(%rip), %rax
    pushq %rax
    popq %rcx
    popq %rax
    cqto
    idivq %rcx
    movq %rdx, %rax
    pushq %rax
    popq %rcx
    popq %rax
    addq %rcx, %rax
    pushq %rax
    popq %rax
    movq %rax, -48(%rbp)
    movq -48(%rbp), %rax
    pushq %rax
    movq L_ENTROPY_PRIME(%rip), %rax
    pushq %rax
    popq %rcx
    popq %rax
    cqto
    idivq %rcx
    movq %rdx, %rax
    pushq %rax
    popq %rax
    movq %rbp, %rsp
    popq %rbp
    retq
    movq $0, %rax
    pushq %rax
    movq $0, %rax
    movq %rbp, %rsp
    popq %rbp
    retq
    .seh_endproc
    .section .iii.ring3,"n"
    .asciz "entropy_sample"
    .text
    .global entropy_sample
    .seh_proc entropy_sample
entropy_sample:
    pushq %rbp
    .seh_pushreg %rbp
    movq %rsp, %rbp
    .seh_setframe %rbp, 0
    subq $1024, %rsp
    .seh_stackalloc 1024
    .seh_endprologue
    movq %rcx, -8(%rbp)
    movq %rdx, -16(%rbp)
    movl -8(%rbp), %eax
    pushq %rax
    popq %rax
    movq %rax, -24(%rbp)
    movq -16(%rbp), %rax
    pushq %rax
    popq %rax
    movq %rax, -32(%rbp)
    movl -24(%rbp), %eax
    pushq %rax
    movl L_ENTROPY_MAX_PATHS(%rip), %eax
    pushq %rax
    popq %rcx
    popq %rax
    cmpq %rcx, %rax
    setae %al
    movzbq %al, %rax
    pushq %rax
    popq %rax
    testq %rax, %rax
    jz L_if_end_19
    movslq L_ENTROPY_E_BAD(%rip), %rax
    pushq %rax
    popq %rax
    movq %rbp, %rsp
    popq %rbp
    retq
    movq $0, %rax
    pushq %rax
    popq %rax
L_if_end_19:
    leaq L_ENTROPY_LIVE(%rip), %rax
    pushq %rax
    movl -24(%rbp), %eax
    pushq %rax
    popq %rcx
    popq %rax
    movzbq (%rax,%rcx,1), %rax
    pushq %rax
    movabsq $0x0, %rax
    pushq %rax
    popq %rcx
    popq %rax
    cmpq %rcx, %rax
    sete %al
    movzbq %al, %rax
    pushq %rax
    popq %rax
    testq %rax, %rax
    jz L_if_end_21
    movslq L_ENTROPY_E_BAD(%rip), %rax
    pushq %rax
    popq %rax
    movq %rbp, %rsp
    popq %rbp
    retq
    movq $0, %rax
    pushq %rax
    popq %rax
L_if_end_21:
    movl -24(%rbp), %eax
    pushq %rax
    popq %rax
    pushq %rax
    movabsq $0xffffffff, %rax
    pushq %rax
    popq %rcx
    popq %rax
    andq %rcx, %rax
    pushq %rax
    movl L_ENTROPY_N(%rip), %eax
    pushq %rax
    popq %rax
    pushq %rax
    popq %rcx
    popq %rax
    imulq %rcx, %rax
    pushq %rax
    popq %rax
    movq %rax, -40(%rbp)
    leaq L_ENTROPY_BUF_HEAD(%rip), %rax
    pushq %rax
    movl -24(%rbp), %eax
    pushq %rax
    popq %rcx
    popq %rax
    movl (%rax,%rcx,4), %eax
    pushq %rax
    popq %rax
    movq %rax, -48(%rbp)
    leaq L_ENTROPY_BUF(%rip), %rax
    pushq %rax
    movq -40(%rbp), %rax
    pushq %rax
    movl -48(%rbp), %eax
    pushq %rax
    popq %rax
    pushq %rax
    popq %rcx
    popq %rax
    addq %rcx, %rax
    pushq %rax
    movq -32(%rbp), %rax
    pushq %rax
    popq %rcx
    subq $32, %rsp
    callq L_entropy_umod_prime
    addq $32, %rsp
    pushq %rax
    popq %rdx
    popq %rcx
    popq %rax
    movq %rdx, (%rax,%rcx,8)
    leaq L_ENTROPY_BUF_HEAD(%rip), %rax
    pushq %rax
    movl -24(%rbp), %eax
    pushq %rax
    movl -48(%rbp), %eax
    pushq %rax
    movabsq $0x1, %rax
    pushq %rax
    popq %rcx
    popq %rax
    addq %rcx, %rax
    movl %eax, %eax
    pushq %rax
    movabsq $0x3f, %rax
    pushq %rax
    popq %rcx
    popq %rax
    andq %rcx, %rax
    pushq %rax
    popq %rdx
    popq %rcx
    popq %rax
    movl %edx, (%rax,%rcx,4)
    leaq L_ENTROPY_BUF_LEN(%rip), %rax
    pushq %rax
    movl -24(%rbp), %eax
    pushq %rax
    popq %rcx
    popq %rax
    movl (%rax,%rcx,4), %eax
    pushq %rax
    movl L_ENTROPY_N(%rip), %eax
    pushq %rax
    popq %rcx
    popq %rax
    cmpq %rcx, %rax
    setb %al
    movzbq %al, %rax
    pushq %rax
    popq %rax
    testq %rax, %rax
    jz L_if_end_23
    leaq L_ENTROPY_BUF_LEN(%rip), %rax
    pushq %rax
    movl -24(%rbp), %eax
    pushq %rax
    leaq L_ENTROPY_BUF_LEN(%rip), %rax
    pushq %rax
    movl -24(%rbp), %eax
    pushq %rax
    popq %rcx
    popq %rax
    movl (%rax,%rcx,4), %eax
    pushq %rax
    movabsq $0x1, %rax
    pushq %rax
    popq %rcx
    popq %rax
    addq %rcx, %rax
    pushq %rax
    popq %rdx
    popq %rcx
    popq %rax
    movl %edx, (%rax,%rcx,4)
    movq $0, %rax
    pushq %rax
    popq %rax
L_if_end_23:
    movslq L_ENTROPY_OK(%rip), %rax
    pushq %rax
    popq %rax
    movq %rbp, %rsp
    popq %rbp
    retq
    movq $0, %rax
    pushq %rax
    movq $0, %rax
    movq %rbp, %rsp
    popq %rbp
    retq
    .seh_endproc
    .section .iii.ring3,"n"
    .asciz "entropy_spectrum"
    .text
    .global entropy_spectrum
    .seh_proc entropy_spectrum
entropy_spectrum:
    pushq %rbp
    .seh_pushreg %rbp
    movq %rsp, %rbp
    .seh_setframe %rbp, 0
    subq $1024, %rsp
    .seh_stackalloc 1024
    .seh_endprologue
    movq %rcx, -8(%rbp)
    movq %rdx, -16(%rbp)
    movl -8(%rbp), %eax
    pushq %rax
    popq %rax
    movq %rax, -24(%rbp)
    movl -24(%rbp), %eax
    pushq %rax
    movl L_ENTROPY_MAX_PATHS(%rip), %eax
    pushq %rax
    popq %rcx
    popq %rax
    cmpq %rcx, %rax
    setae %al
    movzbq %al, %rax
    pushq %rax
    popq %rax
    testq %rax, %rax
    jz L_if_end_25
    movslq L_ENTROPY_E_BAD(%rip), %rax
    pushq %rax
    popq %rax
    movq %rbp, %rsp
    popq %rbp
    retq
    movq $0, %rax
    pushq %rax
    popq %rax
L_if_end_25:
    leaq L_ENTROPY_LIVE(%rip), %rax
    pushq %rax
    movl -24(%rbp), %eax
    pushq %rax
    popq %rcx
    popq %rax
    movzbq (%rax,%rcx,1), %rax
    pushq %rax
    movabsq $0x0, %rax
    pushq %rax
    popq %rcx
    popq %rax
    cmpq %rcx, %rax
    sete %al
    movzbq %al, %rax
    pushq %rax
    popq %rax
    testq %rax, %rax
    jz L_if_end_27
    movslq L_ENTROPY_E_BAD(%rip), %rax
    pushq %rax
    popq %rax
    movq %rbp, %rsp
    popq %rbp
    retq
    movq $0, %rax
    pushq %rax
    popq %rax
L_if_end_27:
    movl -24(%rbp), %eax
    pushq %rax
    popq %rax
    pushq %rax
    movabsq $0xffffffff, %rax
    pushq %rax
    popq %rcx
    popq %rax
    andq %rcx, %rax
    pushq %rax
    movl L_ENTROPY_N(%rip), %eax
    pushq %rax
    popq %rax
    pushq %rax
    popq %rcx
    popq %rax
    imulq %rcx, %rax
    pushq %rax
    popq %rax
    movq %rax, -32(%rbp)
    leaq L_ENTROPY_BUF_LEN(%rip), %rax
    pushq %rax
    movl -24(%rbp), %eax
    pushq %rax
    popq %rcx
    popq %rax
    movl (%rax,%rcx,4), %eax
    pushq %rax
    popq %rax
    movq %rax, -40(%rbp)
    leaq L_ENTROPY_BUF_HEAD(%rip), %rax
    pushq %rax
    movl -24(%rbp), %eax
    pushq %rax
    popq %rcx
    popq %rax
    movl (%rax,%rcx,4), %eax
    pushq %rax
    popq %rax
    movq %rax, -48(%rbp)
    movabsq $0x0, %rax
    pushq %rax
    popq %rax
    movq %rax, -56(%rbp)
L_loop_top_28:
    movl -56(%rbp), %eax
    pushq %rax
    movl L_ENTROPY_N(%rip), %eax
    pushq %rax
    popq %rcx
    popq %rax
    cmpq %rcx, %rax
    setb %al
    movzbq %al, %rax
    pushq %rax
    popq %rax
    testq %rax, %rax
    jz L_loop_end_29
    movl -56(%rbp), %eax
    pushq %rax
    movl -40(%rbp), %eax
    pushq %rax
    popq %rcx
    popq %rax
    cmpq %rcx, %rax
    setb %al
    movzbq %al, %rax
    pushq %rax
    popq %rax
    testq %rax, %rax
    jz L_if_end_31
    movl -48(%rbp), %eax
    pushq %rax
    movl L_ENTROPY_N(%rip), %eax
    pushq %rax
    popq %rcx
    popq %rax
    addq %rcx, %rax
    movl %eax, %eax
    pushq %rax
    movl -40(%rbp), %eax
    pushq %rax
    popq %rcx
    popq %rax
    subq %rcx, %rax
    movl %eax, %eax
    pushq %rax
    movl -56(%rbp), %eax
    pushq %rax
    popq %rcx
    popq %rax
    addq %rcx, %rax
    movl %eax, %eax
    pushq %rax
    movabsq $0x3f, %rax
    pushq %rax
    popq %rcx
    popq %rax
    andq %rcx, %rax
    pushq %rax
    popq %rax
    movq %rax, -64(%rbp)
    leaq L_ENTROPY_SCRATCH_A(%rip), %rax
    pushq %rax
    movl -56(%rbp), %eax
    pushq %rax
    leaq L_ENTROPY_BUF(%rip), %rax
    pushq %rax
    movq -32(%rbp), %rax
    pushq %rax
    movl -64(%rbp), %eax
    pushq %rax
    popq %rax
    pushq %rax
    popq %rcx
    popq %rax
    addq %rcx, %rax
    pushq %rax
    popq %rcx
    popq %rax
    movq (%rax,%rcx,8), %rax
    pushq %rax
    popq %rdx
    popq %rcx
    popq %rax
    movq %rdx, (%rax,%rcx,8)
    movq $0, %rax
    pushq %rax
    popq %rax
L_if_end_31:
    movl -56(%rbp), %eax
    pushq %rax
    movl -40(%rbp), %eax
    pushq %rax
    popq %rcx
    popq %rax
    cmpq %rcx, %rax
    setae %al
    movzbq %al, %rax
    pushq %rax
    popq %rax
    testq %rax, %rax
    jz L_if_end_33
    leaq L_ENTROPY_SCRATCH_A(%rip), %rax
    pushq %rax
    movl -56(%rbp), %eax
    pushq %rax
    movabsq $0x0, %rax
    pushq %rax
    popq %rdx
    popq %rcx
    popq %rax
    movq %rdx, (%rax,%rcx,8)
    movq $0, %rax
    pushq %rax
    popq %rax
L_if_end_33:
    movl -56(%rbp), %eax
    pushq %rax
    movabsq $0x1, %rax
    pushq %rax
    popq %rcx
    popq %rax
    addq %rcx, %rax
    movl %eax, %eax
    pushq %rax
    popq %rax
    movq %rax, -56(%rbp)
    movq $0, %rax
    pushq %rax
    popq %rax
    jmp L_loop_top_28
L_loop_end_29:
    movabsq $0x0, %rax
    pushq %rax
    popq %rax
    movq %rax, -64(%rbp)
L_loop_top_34:
    movl -64(%rbp), %eax
    pushq %rax
    movl L_ENTROPY_N(%rip), %eax
    pushq %rax
    popq %rcx
    popq %rax
    cmpq %rcx, %rax
    setb %al
    movzbq %al, %rax
    pushq %rax
    popq %rax
    testq %rax, %rax
    jz L_loop_end_35
    movl -64(%rbp), %eax
    pushq %rax
    popq %rcx
    subq $32, %rsp
    callq L_entropy_bitrev
    addq $32, %rsp
    movl %eax, %eax
    pushq %rax
    popq %rax
    movq %rax, -72(%rbp)
    leaq L_ENTROPY_SCRATCH_B(%rip), %rax
    pushq %rax
    movl -72(%rbp), %eax
    pushq %rax
    leaq L_ENTROPY_SCRATCH_A(%rip), %rax
    pushq %rax
    movl -64(%rbp), %eax
    pushq %rax
    popq %rcx
    popq %rax
    movq (%rax,%rcx,8), %rax
    pushq %rax
    popq %rdx
    popq %rcx
    popq %rax
    movq %rdx, (%rax,%rcx,8)
    movl -64(%rbp), %eax
    pushq %rax
    movabsq $0x1, %rax
    pushq %rax
    popq %rcx
    popq %rax
    addq %rcx, %rax
    movl %eax, %eax
    pushq %rax
    popq %rax
    movq %rax, -64(%rbp)
    movq $0, %rax
    pushq %rax
    popq %rax
    jmp L_loop_top_34
L_loop_end_35:
    movabsq $0x2, %rax
    pushq %rax
    popq %rax
    movq %rax, -72(%rbp)
L_loop_top_36:
    movl -72(%rbp), %eax
    pushq %rax
    movl L_ENTROPY_N(%rip), %eax
    pushq %rax
    popq %rcx
    popq %rax
    cmpq %rcx, %rax
    setbe %al
    movzbq %al, %rax
    pushq %rax
    popq %rax
    testq %rax, %rax
    jz L_loop_end_37
    movl -72(%rbp), %eax
    pushq %rax
    movabsq $0x1, %rax
    pushq %rax
    popq %rcx
    popq %rax
    shrq %cl, %rax
    pushq %rax
    popq %rax
    movq %rax, -80(%rbp)
    movl L_ENTROPY_N(%rip), %eax
    pushq %rax
    movl -72(%rbp), %eax
    pushq %rax
    popq %rcx
    popq %rax
    cqto
    idivq %rcx
    pushq %rax
    popq %rax
    pushq %rax
    movq L_ENTROPY_OMEGA(%rip), %rax
    pushq %rax
    popq %rcx
    popq %rdx
    subq $32, %rsp
    callq L_entropy_powmod
    addq $32, %rsp
    pushq %rax
    popq %rax
    movq %rax, -88(%rbp)
    movabsq $0x0, %rax
    pushq %rax
    popq %rax
    movq %rax, -96(%rbp)
L_loop_top_38:
    movl -96(%rbp), %eax
    pushq %rax
    movl L_ENTROPY_N(%rip), %eax
    pushq %rax
    popq %rcx
    popq %rax
    cmpq %rcx, %rax
    setb %al
    movzbq %al, %rax
    pushq %rax
    popq %rax
    testq %rax, %rax
    jz L_loop_end_39
    movabsq $0x1, %rax
    pushq %rax
    popq %rax
    movq %rax, -104(%rbp)
    movabsq $0x0, %rax
    pushq %rax
    popq %rax
    movq %rax, -112(%rbp)
L_loop_top_40:
    movl -112(%rbp), %eax
    pushq %rax
    movl -80(%rbp), %eax
    pushq %rax
    popq %rcx
    popq %rax
    cmpq %rcx, %rax
    setb %al
    movzbq %al, %rax
    pushq %rax
    popq %rax
    testq %rax, %rax
    jz L_loop_end_41
    leaq L_ENTROPY_SCRATCH_B(%rip), %rax
    pushq %rax
    movl -96(%rbp), %eax
    pushq %rax
    movl -112(%rbp), %eax
    pushq %rax
    popq %rcx
    popq %rax
    addq %rcx, %rax
    movl %eax, %eax
    pushq %rax
    popq %rcx
    popq %rax
    movq (%rax,%rcx,8), %rax
    pushq %rax
    popq %rax
    movq %rax, -120(%rbp)
    leaq L_ENTROPY_SCRATCH_B(%rip), %rax
    pushq %rax
    movl -96(%rbp), %eax
    pushq %rax
    movl -112(%rbp), %eax
    pushq %rax
    popq %rcx
    popq %rax
    addq %rcx, %rax
    movl %eax, %eax
    pushq %rax
    movl -80(%rbp), %eax
    pushq %rax
    popq %rcx
    popq %rax
    addq %rcx, %rax
    movl %eax, %eax
    pushq %rax
    popq %rcx
    popq %rax
    movq (%rax,%rcx,8), %rax
    pushq %rax
    movq -104(%rbp), %rax
    pushq %rax
    popq %rcx
    popq %rdx
    subq $32, %rsp
    callq L_entropy_mulmod
    addq $32, %rsp
    pushq %rax
    popq %rax
    movq %rax, -128(%rbp)
    leaq L_ENTROPY_SCRATCH_B(%rip), %rax
    pushq %rax
    movl -96(%rbp), %eax
    pushq %rax
    movl -112(%rbp), %eax
    pushq %rax
    popq %rcx
    popq %rax
    addq %rcx, %rax
    movl %eax, %eax
    pushq %rax
    movq -128(%rbp), %rax
    pushq %rax
    movq -120(%rbp), %rax
    pushq %rax
    popq %rcx
    popq %rdx
    subq $32, %rsp
    callq L_entropy_addmod
    addq $32, %rsp
    pushq %rax
    popq %rdx
    popq %rcx
    popq %rax
    movq %rdx, (%rax,%rcx,8)
    leaq L_ENTROPY_SCRATCH_B(%rip), %rax
    pushq %rax
    movl -96(%rbp), %eax
    pushq %rax
    movl -112(%rbp), %eax
    pushq %rax
    popq %rcx
    popq %rax
    addq %rcx, %rax
    movl %eax, %eax
    pushq %rax
    movl -80(%rbp), %eax
    pushq %rax
    popq %rcx
    popq %rax
    addq %rcx, %rax
    movl %eax, %eax
    pushq %rax
    movq -128(%rbp), %rax
    pushq %rax
    movq -120(%rbp), %rax
    pushq %rax
    popq %rcx
    popq %rdx
    subq $32, %rsp
    callq L_entropy_submod
    addq $32, %rsp
    pushq %rax
    popq %rdx
    popq %rcx
    popq %rax
    movq %rdx, (%rax,%rcx,8)
    movq -88(%rbp), %rax
    pushq %rax
    movq -104(%rbp), %rax
    pushq %rax
    popq %rcx
    popq %rdx
    subq $32, %rsp
    callq L_entropy_mulmod
    addq $32, %rsp
    pushq %rax
    popq %rax
    movq %rax, -104(%rbp)
    movl -112(%rbp), %eax
    pushq %rax
    movabsq $0x1, %rax
    pushq %rax
    popq %rcx
    popq %rax
    addq %rcx, %rax
    movl %eax, %eax
    pushq %rax
    popq %rax
    movq %rax, -112(%rbp)
    movq $0, %rax
    pushq %rax
    popq %rax
    jmp L_loop_top_40
L_loop_end_41:
    movl -96(%rbp), %eax
    pushq %rax
    movl -72(%rbp), %eax
    pushq %rax
    popq %rcx
    popq %rax
    addq %rcx, %rax
    movl %eax, %eax
    pushq %rax
    popq %rax
    movq %rax, -96(%rbp)
    movq $0, %rax
    pushq %rax
    popq %rax
    jmp L_loop_top_38
L_loop_end_39:
    movl -72(%rbp), %eax
    pushq %rax
    movabsq $0x1, %rax
    pushq %rax
    popq %rcx
    popq %rax
    shlq %cl, %rax
    movl %eax, %eax
    pushq %rax
    popq %rax
    movq %rax, -72(%rbp)
    movq $0, %rax
    pushq %rax
    popq %rax
    jmp L_loop_top_36
L_loop_end_37:
    movabsq $0x0, %rax
    pushq %rax
    popq %rax
    movq %rax, -80(%rbp)
L_loop_top_42:
    movl -80(%rbp), %eax
    pushq %rax
    movl L_ENTROPY_N(%rip), %eax
    pushq %rax
    popq %rcx
    popq %rax
    cmpq %rcx, %rax
    setb %al
    movzbq %al, %rax
    pushq %rax
    popq %rax
    testq %rax, %rax
    jz L_loop_end_43
    movq -16(%rbp), %rax
    pushq %rax
    movl -80(%rbp), %eax
    pushq %rax
    leaq L_ENTROPY_SCRATCH_B(%rip), %rax
    pushq %rax
    movl -80(%rbp), %eax
    pushq %rax
    popq %rcx
    popq %rax
    movq (%rax,%rcx,8), %rax
    pushq %rax
    popq %rdx
    popq %rcx
    popq %rax
    movq %rdx, (%rax,%rcx,8)
    movl -80(%rbp), %eax
    pushq %rax
    movabsq $0x1, %rax
    pushq %rax
    popq %rcx
    popq %rax
    addq %rcx, %rax
    movl %eax, %eax
    pushq %rax
    popq %rax
    movq %rax, -80(%rbp)
    movq $0, %rax
    pushq %rax
    popq %rax
    jmp L_loop_top_42
L_loop_end_43:
    movslq L_ENTROPY_OK(%rip), %rax
    pushq %rax
    popq %rax
    movq %rbp, %rsp
    popq %rbp
    retq
    movq $0, %rax
    pushq %rax
    movq $0, %rax
    movq %rbp, %rsp
    popq %rbp
    retq
    .seh_endproc
    .section .iii.ring3,"n"
    .asciz "entropy_set_baseline"
    .text
    .global entropy_set_baseline
    .seh_proc entropy_set_baseline
entropy_set_baseline:
    pushq %rbp
    .seh_pushreg %rbp
    movq %rsp, %rbp
    .seh_setframe %rbp, 0
    subq $1024, %rsp
    .seh_stackalloc 1024
    .seh_endprologue
    movq %rcx, -8(%rbp)
    movq %rdx, -16(%rbp)
    movq %r8, -24(%rbp)
    movq -24(%rbp), %rax
    pushq %rax
    movabsq $0x0, %rax
    pushq %rax
    popq %rcx
    popq %rax
    cmpq %rcx, %rax
    sete %al
    movzbq %al, %rax
    pushq %rax
    popq %rax
    testq %rax, %rax
    jz L_if_end_45
    movslq L_ENTROPY_E_CAP(%rip), %rax
    pushq %rax
    popq %rax
    movq %rbp, %rsp
    popq %rbp
    retq
    movq $0, %rax
    pushq %rax
    popq %rax
L_if_end_45:
    movl -8(%rbp), %eax
    pushq %rax
    popq %rax
    movq %rax, -32(%rbp)
    movl -32(%rbp), %eax
    pushq %rax
    movl L_ENTROPY_MAX_PATHS(%rip), %eax
    pushq %rax
    popq %rcx
    popq %rax
    cmpq %rcx, %rax
    setae %al
    movzbq %al, %rax
    pushq %rax
    popq %rax
    testq %rax, %rax
    jz L_if_end_47
    movslq L_ENTROPY_E_BAD(%rip), %rax
    pushq %rax
    popq %rax
    movq %rbp, %rsp
    popq %rbp
    retq
    movq $0, %rax
    pushq %rax
    popq %rax
L_if_end_47:
    leaq L_ENTROPY_LIVE(%rip), %rax
    pushq %rax
    movl -32(%rbp), %eax
    pushq %rax
    popq %rcx
    popq %rax
    movzbq (%rax,%rcx,1), %rax
    pushq %rax
    movabsq $0x0, %rax
    pushq %rax
    popq %rcx
    popq %rax
    cmpq %rcx, %rax
    sete %al
    movzbq %al, %rax
    pushq %rax
    popq %rax
    testq %rax, %rax
    jz L_if_end_49
    movslq L_ENTROPY_E_BAD(%rip), %rax
    pushq %rax
    popq %rax
    movq %rbp, %rsp
    popq %rbp
    retq
    movq $0, %rax
    pushq %rax
    popq %rax
L_if_end_49:
    movl -32(%rbp), %eax
    pushq %rax
    popq %rax
    pushq %rax
    movabsq $0xffffffff, %rax
    pushq %rax
    popq %rcx
    popq %rax
    andq %rcx, %rax
    pushq %rax
    movl L_ENTROPY_N(%rip), %eax
    pushq %rax
    popq %rax
    pushq %rax
    popq %rcx
    popq %rax
    imulq %rcx, %rax
    pushq %rax
    popq %rax
    movq %rax, -40(%rbp)
    movabsq $0x0, %rax
    pushq %rax
    popq %rax
    movq %rax, -48(%rbp)
L_loop_top_50:
    movl -48(%rbp), %eax
    pushq %rax
    movl L_ENTROPY_N(%rip), %eax
    pushq %rax
    popq %rcx
    popq %rax
    cmpq %rcx, %rax
    setb %al
    movzbq %al, %rax
    pushq %rax
    popq %rax
    testq %rax, %rax
    jz L_loop_end_51
    leaq L_ENTROPY_BASELINE(%rip), %rax
    pushq %rax
    movq -40(%rbp), %rax
    pushq %rax
    movl -48(%rbp), %eax
    pushq %rax
    popq %rax
    pushq %rax
    popq %rcx
    popq %rax
    addq %rcx, %rax
    pushq %rax
    movq -16(%rbp), %rax
    pushq %rax
    movl -48(%rbp), %eax
    pushq %rax
    popq %rcx
    popq %rax
    movq (%rax,%rcx,8), %rax
    pushq %rax
    popq %rdx
    popq %rcx
    popq %rax
    movq %rdx, (%rax,%rcx,8)
    movl -48(%rbp), %eax
    pushq %rax
    movabsq $0x1, %rax
    pushq %rax
    popq %rcx
    popq %rax
    addq %rcx, %rax
    movl %eax, %eax
    pushq %rax
    popq %rax
    movq %rax, -48(%rbp)
    movq $0, %rax
    pushq %rax
    popq %rax
    jmp L_loop_top_50
L_loop_end_51:
    leaq L_ENTROPY_BASE_SET(%rip), %rax
    pushq %rax
    movl -32(%rbp), %eax
    pushq %rax
    movabsq $0x1, %rax
    pushq %rax
    popq %rdx
    popq %rcx
    popq %rax
    movb %dl, (%rax,%rcx,1)
    leaq L_ENTROPY_WIT_HASH(%rip), %rax
    pushq %rax
    popq %rax
    pushq %rax
    popq %rax
    pushq %rax
    movl -32(%rbp), %eax
    pushq %rax
    popq %rcx
    popq %rdx
    subq $32, %rsp
    callq entropy_witness
    addq $32, %rsp
    movslq %eax, %rax
    pushq %rax
    popq %rax
    movslq L_ENTROPY_OK(%rip), %rax
    pushq %rax
    popq %rax
    movq %rbp, %rsp
    popq %rbp
    retq
    movq $0, %rax
    pushq %rax
    movq $0, %rax
    movq %rbp, %rsp
    popq %rbp
    retq
    .seh_endproc
    .section .iii.ring3,"n"
    .asciz "entropy_distance"
    .text
    .global entropy_distance
    .seh_proc entropy_distance
entropy_distance:
    pushq %rbp
    .seh_pushreg %rbp
    movq %rsp, %rbp
    .seh_setframe %rbp, 0
    subq $1024, %rsp
    .seh_stackalloc 1024
    .seh_endprologue
    movq %rcx, -8(%rbp)
    movq %rdx, -16(%rbp)
    movl -8(%rbp), %eax
    pushq %rax
    popq %rax
    movq %rax, -24(%rbp)
    movl -24(%rbp), %eax
    pushq %rax
    movl L_ENTROPY_MAX_PATHS(%rip), %eax
    pushq %rax
    popq %rcx
    popq %rax
    cmpq %rcx, %rax
    setae %al
    movzbq %al, %rax
    pushq %rax
    popq %rax
    testq %rax, %rax
    jz L_if_end_53
    movabsq $0x0, %rax
    pushq %rax
    popq %rax
    movq %rbp, %rsp
    popq %rbp
    retq
    movq $0, %rax
    pushq %rax
    popq %rax
L_if_end_53:
    leaq L_ENTROPY_BASE_SET(%rip), %rax
    pushq %rax
    movl -24(%rbp), %eax
    pushq %rax
    popq %rcx
    popq %rax
    movzbq (%rax,%rcx,1), %rax
    pushq %rax
    movabsq $0x0, %rax
    pushq %rax
    popq %rcx
    popq %rax
    cmpq %rcx, %rax
    sete %al
    movzbq %al, %rax
    pushq %rax
    popq %rax
    testq %rax, %rax
    jz L_if_end_55
    movabsq $0x0, %rax
    pushq %rax
    popq %rax
    movq %rbp, %rsp
    popq %rbp
    retq
    movq $0, %rax
    pushq %rax
    popq %rax
L_if_end_55:
    movl -24(%rbp), %eax
    pushq %rax
    popq %rax
    pushq %rax
    movabsq $0xffffffff, %rax
    pushq %rax
    popq %rcx
    popq %rax
    andq %rcx, %rax
    pushq %rax
    movl L_ENTROPY_N(%rip), %eax
    pushq %rax
    popq %rax
    pushq %rax
    popq %rcx
    popq %rax
    imulq %rcx, %rax
    pushq %rax
    popq %rax
    movq %rax, -32(%rbp)
    movabsq $0x0, %rax
    pushq %rax
    popq %rax
    movq %rax, -40(%rbp)
    movabsq $0x0, %rax
    pushq %rax
    popq %rax
    movq %rax, -48(%rbp)
L_loop_top_56:
    movl -48(%rbp), %eax
    pushq %rax
    movl L_ENTROPY_N(%rip), %eax
    pushq %rax
    popq %rcx
    popq %rax
    cmpq %rcx, %rax
    setb %al
    movzbq %al, %rax
    pushq %rax
    popq %rax
    testq %rax, %rax
    jz L_loop_end_57
    leaq L_ENTROPY_BASELINE(%rip), %rax
    pushq %rax
    movq -32(%rbp), %rax
    pushq %rax
    movl -48(%rbp), %eax
    pushq %rax
    popq %rax
    pushq %rax
    popq %rcx
    popq %rax
    addq %rcx, %rax
    pushq %rax
    popq %rcx
    popq %rax
    movq (%rax,%rcx,8), %rax
    pushq %rax
    popq %rax
    movq %rax, -56(%rbp)
    movq -56(%rbp), %rax
    pushq %rax
    movq -16(%rbp), %rax
    pushq %rax
    movl -48(%rbp), %eax
    pushq %rax
    popq %rcx
    popq %rax
    movq (%rax,%rcx,8), %rax
    pushq %rax
    popq %rcx
    popq %rdx
    subq $32, %rsp
    callq L_entropy_submod
    addq $32, %rsp
    pushq %rax
    popq %rax
    movq %rax, -64(%rbp)
    movq -64(%rbp), %rax
    pushq %rax
    movq -64(%rbp), %rax
    pushq %rax
    popq %rcx
    popq %rdx
    subq $32, %rsp
    callq L_entropy_mulmod
    addq $32, %rsp
    pushq %rax
    movq -40(%rbp), %rax
    pushq %rax
    popq %rcx
    popq %rdx
    subq $32, %rsp
    callq L_entropy_addmod
    addq $32, %rsp
    pushq %rax
    popq %rax
    movq %rax, -40(%rbp)
    movl -48(%rbp), %eax
    pushq %rax
    movabsq $0x1, %rax
    pushq %rax
    popq %rcx
    popq %rax
    addq %rcx, %rax
    movl %eax, %eax
    pushq %rax
    popq %rax
    movq %rax, -48(%rbp)
    movq $0, %rax
    pushq %rax
    popq %rax
    jmp L_loop_top_56
L_loop_end_57:
    movq -40(%rbp), %rax
    pushq %rax
    popq %rax
    movq %rbp, %rsp
    popq %rbp
    retq
    movq $0, %rax
    pushq %rax
    movq $0, %rax
    movq %rbp, %rsp
    popq %rbp
    retq
    .seh_endproc
    .section .iii.ring3,"n"
    .asciz "entropy_witness_core"
    .text
    .global L_entropy_witness_core
    .seh_proc L_entropy_witness_core
L_entropy_witness_core:
    pushq %rbp
    .seh_pushreg %rbp
    movq %rsp, %rbp
    .seh_setframe %rbp, 0
    subq $1024, %rsp
    .seh_stackalloc 1024
    .seh_endprologue
    movq %rcx, -8(%rbp)
    movq %rdx, -16(%rbp)
    movq %r8, -24(%rbp)
    movl -8(%rbp), %eax
    pushq %rax
    movl L_ENTROPY_MAX_PATHS(%rip), %eax
    pushq %rax
    popq %rcx
    popq %rax
    cmpq %rcx, %rax
    setae %al
    movzbq %al, %rax
    pushq %rax
    popq %rax
    testq %rax, %rax
    jz L_if_end_59
    movslq L_ENTROPY_E_BAD(%rip), %rax
    pushq %rax
    popq %rax
    movq %rbp, %rsp
    popq %rbp
    retq
    movq $0, %rax
    pushq %rax
    popq %rax
L_if_end_59:
    leaq L_ENTROPY_LIVE(%rip), %rax
    pushq %rax
    movl -8(%rbp), %eax
    pushq %rax
    popq %rcx
    popq %rax
    movzbq (%rax,%rcx,1), %rax
    pushq %rax
    movabsq $0x0, %rax
    pushq %rax
    popq %rcx
    popq %rax
    cmpq %rcx, %rax
    sete %al
    movzbq %al, %rax
    pushq %rax
    popq %rax
    testq %rax, %rax
    jz L_if_end_61
    movslq L_ENTROPY_E_BAD(%rip), %rax
    pushq %rax
    popq %rax
    movq %rbp, %rsp
    popq %rbp
    retq
    movq $0, %rax
    pushq %rax
    popq %rax
L_if_end_61:
    movl -8(%rbp), %eax
    pushq %rax
    popq %rax
    pushq %rax
    movabsq $0xffffffff, %rax
    pushq %rax
    popq %rcx
    popq %rax
    andq %rcx, %rax
    pushq %rax
    movq L_ENTROPY_ID_LEN(%rip), %rax
    pushq %rax
    popq %rcx
    popq %rax
    imulq %rcx, %rax
    pushq %rax
    popq %rax
    movq %rax, -32(%rbp)
    movabsq $0x0, %rax
    pushq %rax
    popq %rax
    movq %rax, -40(%rbp)
L_loop_top_62:
    movq -40(%rbp), %rax
    pushq %rax
    movq L_ENTROPY_ID_LEN(%rip), %rax
    pushq %rax
    popq %rcx
    popq %rax
    cmpq %rcx, %rax
    setb %al
    movzbq %al, %rax
    pushq %rax
    popq %rax
    testq %rax, %rax
    jz L_loop_end_63
    leaq L_ENTROPY_WIT_BUF(%rip), %rax
    pushq %rax
    movq -40(%rbp), %rax
    pushq %rax
    leaq L_ENTROPY_PATH_ID(%rip), %rax
    pushq %rax
    movq -32(%rbp), %rax
    pushq %rax
    movq -40(%rbp), %rax
    pushq %rax
    popq %rcx
    popq %rax
    addq %rcx, %rax
    pushq %rax
    popq %rcx
    popq %rax
    movzbq (%rax,%rcx,1), %rax
    pushq %rax
    popq %rdx
    popq %rcx
    popq %rax
    movb %dl, (%rax,%rcx,1)
    movq -40(%rbp), %rax
    pushq %rax
    movabsq $0x1, %rax
    pushq %rax
    popq %rcx
    popq %rax
    addq %rcx, %rax
    pushq %rax
    popq %rax
    movq %rax, -40(%rbp)
    movq $0, %rax
    pushq %rax
    popq %rax
    jmp L_loop_top_62
L_loop_end_63:
    movq -16(%rbp), %rax
    pushq %rax
    popq %rax
    movq %rax, -48(%rbp)
    movabsq $0x0, %rax
    pushq %rax
    popq %rax
    movq %rax, -56(%rbp)
L_loop_top_64:
    movq -56(%rbp), %rax
    pushq %rax
    movabsq $0x8, %rax
    pushq %rax
    popq %rcx
    popq %rax
    cmpq %rcx, %rax
    setb %al
    movzbq %al, %rax
    pushq %rax
    popq %rax
    testq %rax, %rax
    jz L_loop_end_65
    leaq L_ENTROPY_WIT_BUF(%rip), %rax
    pushq %rax
    movabsq $0x20, %rax
    pushq %rax
    movq -56(%rbp), %rax
    pushq %rax
    popq %rcx
    popq %rax
    addq %rcx, %rax
    pushq %rax
    movq -48(%rbp), %rax
    pushq %rax
    movq -56(%rbp), %rax
    pushq %rax
    movabsq $0x8, %rax
    pushq %rax
    popq %rcx
    popq %rax
    imulq %rcx, %rax
    pushq %rax
    popq %rcx
    popq %rax
    shrq %cl, %rax
    pushq %rax
    movabsq $0xff, %rax
    pushq %rax
    popq %rcx
    popq %rax
    andq %rcx, %rax
    pushq %rax
    popq %rax
    movzbq %al, %rax
    pushq %rax
    popq %rdx
    popq %rcx
    popq %rax
    movb %dl, (%rax,%rcx,1)
    movq -56(%rbp), %rax
    pushq %rax
    movabsq $0x1, %rax
    pushq %rax
    popq %rcx
    popq %rax
    addq %rcx, %rax
    pushq %rax
    popq %rax
    movq %rax, -56(%rbp)
    movq $0, %rax
    pushq %rax
    popq %rax
    jmp L_loop_top_64
L_loop_end_65:
    leaq L_ENTROPY_WIT_SPEC(%rip), %rax
    pushq %rax
    popq %rax
    pushq %rax
    popq %rax
    pushq %rax
    movl -8(%rbp), %eax
    pushq %rax
    popq %rcx
    popq %rdx
    subq $32, %rsp
    callq entropy_spectrum
    addq $32, %rsp
    movslq %eax, %rax
    pushq %rax
    popq %rax
    movabsq $0x0, %rax
    pushq %rax
    popq %rax
    movq %rax, -64(%rbp)
L_loop_top_66:
    movq -64(%rbp), %rax
    pushq %rax
    movl L_ENTROPY_N(%rip), %eax
    pushq %rax
    popq %rax
    pushq %rax
    popq %rcx
    popq %rax
    cmpq %rcx, %rax
    setb %al
    movzbq %al, %rax
    pushq %rax
    popq %rax
    testq %rax, %rax
    jz L_loop_end_67
    leaq L_ENTROPY_WIT_SPEC(%rip), %rax
    pushq %rax
    movq -64(%rbp), %rax
    pushq %rax
    popq %rcx
    popq %rax
    movq (%rax,%rcx,8), %rax
    pushq %rax
    popq %rax
    movq %rax, -72(%rbp)
    movabsq $0x28, %rax
    pushq %rax
    movq -64(%rbp), %rax
    pushq %rax
    movabsq $0x4, %rax
    pushq %rax
    popq %rcx
    popq %rax
    imulq %rcx, %rax
    pushq %rax
    popq %rcx
    popq %rax
    addq %rcx, %rax
    pushq %rax
    popq %rax
    movq %rax, -80(%rbp)
    leaq L_ENTROPY_WIT_BUF(%rip), %rax
    pushq %rax
    movq -80(%rbp), %rax
    pushq %rax
    movabsq $0x0, %rax
    pushq %rax
    popq %rcx
    popq %rax
    addq %rcx, %rax
    pushq %rax
    movq -72(%rbp), %rax
    pushq %rax
    movabsq $0xff, %rax
    pushq %rax
    popq %rcx
    popq %rax
    andq %rcx, %rax
    pushq %rax
    popq %rax
    movzbq %al, %rax
    pushq %rax
    popq %rdx
    popq %rcx
    popq %rax
    movb %dl, (%rax,%rcx,1)
    leaq L_ENTROPY_WIT_BUF(%rip), %rax
    pushq %rax
    movq -80(%rbp), %rax
    pushq %rax
    movabsq $0x1, %rax
    pushq %rax
    popq %rcx
    popq %rax
    addq %rcx, %rax
    pushq %rax
    movq -72(%rbp), %rax
    pushq %rax
    movabsq $0x8, %rax
    pushq %rax
    popq %rcx
    popq %rax
    shrq %cl, %rax
    pushq %rax
    movabsq $0xff, %rax
    pushq %rax
    popq %rcx
    popq %rax
    andq %rcx, %rax
    pushq %rax
    popq %rax
    movzbq %al, %rax
    pushq %rax
    popq %rdx
    popq %rcx
    popq %rax
    movb %dl, (%rax,%rcx,1)
    leaq L_ENTROPY_WIT_BUF(%rip), %rax
    pushq %rax
    movq -80(%rbp), %rax
    pushq %rax
    movabsq $0x2, %rax
    pushq %rax
    popq %rcx
    popq %rax
    addq %rcx, %rax
    pushq %rax
    movq -72(%rbp), %rax
    pushq %rax
    movabsq $0x10, %rax
    pushq %rax
    popq %rcx
    popq %rax
    shrq %cl, %rax
    pushq %rax
    movabsq $0xff, %rax
    pushq %rax
    popq %rcx
    popq %rax
    andq %rcx, %rax
    pushq %rax
    popq %rax
    movzbq %al, %rax
    pushq %rax
    popq %rdx
    popq %rcx
    popq %rax
    movb %dl, (%rax,%rcx,1)
    leaq L_ENTROPY_WIT_BUF(%rip), %rax
    pushq %rax
    movq -80(%rbp), %rax
    pushq %rax
    movabsq $0x3, %rax
    pushq %rax
    popq %rcx
    popq %rax
    addq %rcx, %rax
    pushq %rax
    movq -72(%rbp), %rax
    pushq %rax
    movabsq $0x18, %rax
    pushq %rax
    popq %rcx
    popq %rax
    shrq %cl, %rax
    pushq %rax
    movabsq $0xff, %rax
    pushq %rax
    popq %rcx
    popq %rax
    andq %rcx, %rax
    pushq %rax
    popq %rax
    movzbq %al, %rax
    pushq %rax
    popq %rdx
    popq %rcx
    popq %rax
    movb %dl, (%rax,%rcx,1)
    movq -64(%rbp), %rax
    pushq %rax
    movabsq $0x1, %rax
    pushq %rax
    popq %rcx
    popq %rax
    addq %rcx, %rax
    pushq %rax
    popq %rax
    movq %rax, -64(%rbp)
    movq $0, %rax
    pushq %rax
    popq %rax
    jmp L_loop_top_66
L_loop_end_67:
    movq -24(%rbp), %rax
    pushq %rax
    popq %rax
    pushq %rax
    popq %rax
    pushq %rax
    movabsq $0x128, %rax
    pushq %rax
    leaq L_ENTROPY_WIT_BUF(%rip), %rax
    pushq %rax
    popq %rax
    pushq %rax
    popq %rax
    pushq %rax
    movabsq $0x1, %rax
    pushq %rax
    popq %rcx
    popq %rdx
    popq %r8
    popq %r9
    subq $32, %rsp
    callq cad_oneshot
    addq $32, %rsp
    movslq %eax, %rax
    pushq %rax
    popq %rax
    movslq L_ENTROPY_OK(%rip), %rax
    pushq %rax
    popq %rax
    movq %rbp, %rsp
    popq %rbp
    retq
    movq $0, %rax
    pushq %rax
    movq $0, %rax
    movq %rbp, %rsp
    popq %rbp
    retq
    .seh_endproc
    .section .iii.ring3,"n"
    .asciz "entropy_witness"
    .text
    .global entropy_witness
    .seh_proc entropy_witness
entropy_witness:
    pushq %rbp
    .seh_pushreg %rbp
    movq %rsp, %rbp
    .seh_setframe %rbp, 0
    subq $1024, %rsp
    .seh_stackalloc 1024
    .seh_endprologue
    movq %rcx, -8(%rbp)
    movq %rdx, -16(%rbp)
    movl -8(%rbp), %eax
    pushq %rax
    popq %rax
    movq %rax, -24(%rbp)
    movl -24(%rbp), %eax
    pushq %rax
    movl L_ENTROPY_MAX_PATHS(%rip), %eax
    pushq %rax
    popq %rcx
    popq %rax
    cmpq %rcx, %rax
    setae %al
    movzbq %al, %rax
    pushq %rax
    popq %rax
    testq %rax, %rax
    jz L_if_end_69
    movslq L_ENTROPY_E_BAD(%rip), %rax
    pushq %rax
    popq %rax
    movq %rbp, %rsp
    popq %rbp
    retq
    movq $0, %rax
    pushq %rax
    popq %rax
L_if_end_69:
    leaq L_ENTROPY_LIVE(%rip), %rax
    pushq %rax
    movl -24(%rbp), %eax
    pushq %rax
    popq %rcx
    popq %rax
    movzbq (%rax,%rcx,1), %rax
    pushq %rax
    movabsq $0x0, %rax
    pushq %rax
    popq %rcx
    popq %rax
    cmpq %rcx, %rax
    sete %al
    movzbq %al, %rax
    pushq %rax
    popq %rax
    testq %rax, %rax
    jz L_if_end_71
    movslq L_ENTROPY_E_BAD(%rip), %rax
    pushq %rax
    popq %rax
    movq %rbp, %rsp
    popq %rbp
    retq
    movq $0, %rax
    pushq %rax
    popq %rax
L_if_end_71:
    subq $32, %rsp
    callq at_advance
    addq $32, %rsp
    pushq %rax
    popq %rax
    movq %rax, -32(%rbp)
    movq -16(%rbp), %rax
    pushq %rax
    movq -32(%rbp), %rax
    pushq %rax
    movl -24(%rbp), %eax
    pushq %rax
    popq %rcx
    popq %rdx
    popq %r8
    subq $32, %rsp
    callq L_entropy_witness_core
    addq $32, %rsp
    movslq %eax, %rax
    pushq %rax
    popq %rax
    movq %rbp, %rsp
    popq %rbp
    retq
    movq $0, %rax
    pushq %rax
    movq $0, %rax
    movq %rbp, %rsp
    popq %rbp
    retq
    .seh_endproc
    .section .iii.ring3,"n"
    .asciz "entropy_selftest"
    .text
    .global entropy_selftest
    .seh_proc entropy_selftest
entropy_selftest:
    pushq %rbp
    .seh_pushreg %rbp
    movq %rsp, %rbp
    .seh_setframe %rbp, 0
    subq $1024, %rsp
    .seh_stackalloc 1024
    .seh_endprologue
    subq $32, %rsp
    callq entropy_init
    addq $32, %rsp
    movslq %eax, %rax
    pushq %rax
    popq %rax
    movq L_ENTROPY_OMEGA(%rip), %rax
    pushq %rax
    movabsq $0x3700cccc, %rax
    pushq %rax
    popq %rcx
    popq %rax
    cmpq %rcx, %rax
    setne %al
    movzbq %al, %rax
    pushq %rax
    popq %rax
    testq %rax, %rax
    jz L_if_end_73
    movabsq $0x1, %rax
    pushq %rax
    popq %rax
    movq %rbp, %rsp
    popq %rbp
    retq
    movq $0, %rax
    pushq %rax
    popq %rax
L_if_end_73:
    movabsq $0x40, %rax
    pushq %rax
    movq L_ENTROPY_OMEGA(%rip), %rax
    pushq %rax
    popq %rcx
    popq %rdx
    subq $32, %rsp
    callq L_entropy_powmod
    addq $32, %rsp
    pushq %rax
    movabsq $0x1, %rax
    pushq %rax
    popq %rcx
    popq %rax
    cmpq %rcx, %rax
    setne %al
    movzbq %al, %rax
    pushq %rax
    popq %rax
    testq %rax, %rax
    jz L_if_end_75
    movabsq $0x2, %rax
    pushq %rax
    popq %rax
    movq %rbp, %rsp
    popq %rbp
    retq
    movq $0, %rax
    pushq %rax
    popq %rax
L_if_end_75:
    movabsq $0x20, %rax
    pushq %rax
    movq L_ENTROPY_OMEGA(%rip), %rax
    pushq %rax
    popq %rcx
    popq %rdx
    subq $32, %rsp
    callq L_entropy_powmod
    addq $32, %rsp
    pushq %rax
    movabsq $0x3b800000, %rax
    pushq %rax
    popq %rcx
    popq %rax
    cmpq %rcx, %rax
    setne %al
    movzbq %al, %rax
    pushq %rax
    popq %rax
    testq %rax, %rax
    jz L_if_end_77
    movabsq $0x3, %rax
    pushq %rax
    popq %rax
    movq %rbp, %rsp
    popq %rbp
    retq
    movq $0, %rax
    pushq %rax
    popq %rax
L_if_end_77:
    movabsq $0x3b800000, %rax
    pushq %rax
    movabsq $0x3b800000, %rax
    pushq %rax
    popq %rcx
    popq %rdx
    subq $32, %rsp
    callq L_entropy_mulmod
    addq $32, %rsp
    pushq %rax
    movabsq $0x1, %rax
    pushq %rax
    popq %rcx
    popq %rax
    cmpq %rcx, %rax
    setne %al
    movzbq %al, %rax
    pushq %rax
    popq %rax
    testq %rax, %rax
    jz L_if_end_79
    movabsq $0x4, %rax
    pushq %rax
    popq %rax
    movq %rbp, %rsp
    popq %rbp
    retq
    movq $0, %rax
    pushq %rax
    popq %rax
L_if_end_79:
    movabsq $0x3b800000, %rax
    pushq %rax
    movabsq $0x2, %rax
    pushq %rax
    popq %rcx
    popq %rdx
    subq $32, %rsp
    callq L_entropy_mulmod
    addq $32, %rsp
    pushq %rax
    movabsq $0x3b7fffff, %rax
    pushq %rax
    popq %rcx
    popq %rax
    cmpq %rcx, %rax
    setne %al
    movzbq %al, %rax
    pushq %rax
    popq %rax
    testq %rax, %rax
    jz L_if_end_81
    movabsq $0x5, %rax
    pushq %rax
    popq %rax
    movq %rbp, %rsp
    popq %rbp
    retq
    movq $0, %rax
    pushq %rax
    popq %rax
L_if_end_81:
    movabsq $0x0, %rax
    pushq %rax
    popq %rax
    movq %rax, -8(%rbp)
L_loop_top_82:
    movq -8(%rbp), %rax
    pushq %rax
    movabsq $0x20, %rax
    pushq %rax
    popq %rcx
    popq %rax
    cmpq %rcx, %rax
    setb %al
    movzbq %al, %rax
    pushq %rax
    popq %rax
    testq %rax, %rax
    jz L_loop_end_83
    leaq L_ENTROPY_KAT_ID(%rip), %rax
    pushq %rax
    movq -8(%rbp), %rax
    pushq %rax
    movq -8(%rbp), %rax
    pushq %rax
    movabsq $0x1, %rax
    pushq %rax
    popq %rcx
    popq %rax
    addq %rcx, %rax
    pushq %rax
    popq %rax
    movzbq %al, %rax
    pushq %rax
    popq %rdx
    popq %rcx
    popq %rax
    movb %dl, (%rax,%rcx,1)
    movq -8(%rbp), %rax
    pushq %rax
    movabsq $0x1, %rax
    pushq %rax
    popq %rcx
    popq %rax
    addq %rcx, %rax
    pushq %rax
    popq %rax
    movq %rax, -8(%rbp)
    movq $0, %rax
    pushq %rax
    popq %rax
    jmp L_loop_top_82
L_loop_end_83:
    leaq L_ENTROPY_KAT_ID(%rip), %rax
    pushq %rax
    popq %rax
    pushq %rax
    popq %rax
    pushq %rax
    popq %rcx
    subq $32, %rsp
    callq entropy_register_path
    addq $32, %rsp
    movl %eax, %eax
    pushq %rax
    popq %rax
    movq %rax, -16(%rbp)
    movl -16(%rbp), %eax
    pushq %rax
    movl L_ENTROPY_INVALID_SLOT(%rip), %eax
    pushq %rax
    popq %rcx
    popq %rax
    cmpq %rcx, %rax
    sete %al
    movzbq %al, %rax
    pushq %rax
    popq %rax
    testq %rax, %rax
    jz L_if_end_85
    movabsq $0x6, %rax
    pushq %rax
    popq %rax
    movq %rbp, %rsp
    popq %rbp
    retq
    movq $0, %rax
    pushq %rax
    popq %rax
L_if_end_85:
    movabsq $0x5, %rax
    pushq %rax
    movl -16(%rbp), %eax
    pushq %rax
    popq %rcx
    popq %rdx
    subq $32, %rsp
    callq entropy_sample
    addq $32, %rsp
    movslq %eax, %rax
    pushq %rax
    popq %rax
    leaq L_ENTROPY_KAT_SPEC(%rip), %rax
    pushq %rax
    popq %rax
    pushq %rax
    popq %rax
    pushq %rax
    movl -16(%rbp), %eax
    pushq %rax
    popq %rcx
    popq %rdx
    subq $32, %rsp
    callq entropy_spectrum
    addq $32, %rsp
    movslq %eax, %rax
    pushq %rax
    movslq L_ENTROPY_OK(%rip), %rax
    pushq %rax
    popq %rcx
    popq %rax
    cmpq %rcx, %rax
    setne %al
    movzbq %al, %rax
    pushq %rax
    popq %rax
    testq %rax, %rax
    jz L_if_end_87
    movabsq $0x7, %rax
    pushq %rax
    popq %rax
    movq %rbp, %rsp
    popq %rbp
    retq
    movq $0, %rax
    pushq %rax
    popq %rax
L_if_end_87:
    movabsq $0x0, %rax
    pushq %rax
    popq %rax
    movq %rax, -24(%rbp)
L_loop_top_88:
    movl -24(%rbp), %eax
    pushq %rax
    movabsq $0x40, %rax
    pushq %rax
    popq %rcx
    popq %rax
    cmpq %rcx, %rax
    setb %al
    movzbq %al, %rax
    pushq %rax
    popq %rax
    testq %rax, %rax
    jz L_loop_end_89
    leaq L_ENTROPY_KAT_SPEC(%rip), %rax
    pushq %rax
    movl -24(%rbp), %eax
    pushq %rax
    popq %rcx
    popq %rax
    movq (%rax,%rcx,8), %rax
    pushq %rax
    movabsq $0x5, %rax
    pushq %rax
    popq %rcx
    popq %rax
    cmpq %rcx, %rax
    setne %al
    movzbq %al, %rax
    pushq %rax
    popq %rax
    testq %rax, %rax
    jz L_if_end_91
    movabsq $0x8, %rax
    pushq %rax
    popq %rax
    movq %rbp, %rsp
    popq %rbp
    retq
    movq $0, %rax
    pushq %rax
    popq %rax
L_if_end_91:
    movl -24(%rbp), %eax
    pushq %rax
    movabsq $0x1, %rax
    pushq %rax
    popq %rcx
    popq %rax
    addq %rcx, %rax
    movl %eax, %eax
    pushq %rax
    popq %rax
    movq %rax, -24(%rbp)
    movq $0, %rax
    pushq %rax
    popq %rax
    jmp L_loop_top_88
L_loop_end_89:
    leaq L_ENTROPY_KAT_ID(%rip), %rax
    pushq %rax
    popq %rax
    pushq %rax
    popq %rax
    pushq %rax
    popq %rcx
    subq $32, %rsp
    callq entropy_register_path
    addq $32, %rsp
    movl %eax, %eax
    pushq %rax
    popq %rax
    movq %rax, -32(%rbp)
    movl -32(%rbp), %eax
    pushq %rax
    movl L_ENTROPY_INVALID_SLOT(%rip), %eax
    pushq %rax
    popq %rcx
    popq %rax
    cmpq %rcx, %rax
    sete %al
    movzbq %al, %rax
    pushq %rax
    popq %rax
    testq %rax, %rax
    jz L_if_end_93
    movabsq $0x9, %rax
    pushq %rax
    popq %rax
    movq %rbp, %rsp
    popq %rbp
    retq
    movq $0, %rax
    pushq %rax
    popq %rax
L_if_end_93:
    movabsq $0x0, %rax
    pushq %rax
    popq %rax
    movq %rax, -40(%rbp)
L_loop_top_94:
    movl -40(%rbp), %eax
    pushq %rax
    movabsq $0x40, %rax
    pushq %rax
    popq %rcx
    popq %rax
    cmpq %rcx, %rax
    setb %al
    movzbq %al, %rax
    pushq %rax
    popq %rax
    testq %rax, %rax
    jz L_loop_end_95
    movabsq $0x7, %rax
    pushq %rax
    movl -32(%rbp), %eax
    pushq %rax
    popq %rcx
    popq %rdx
    subq $32, %rsp
    callq entropy_sample
    addq $32, %rsp
    movslq %eax, %rax
    pushq %rax
    popq %rax
    movl -40(%rbp), %eax
    pushq %rax
    movabsq $0x1, %rax
    pushq %rax
    popq %rcx
    popq %rax
    addq %rcx, %rax
    movl %eax, %eax
    pushq %rax
    popq %rax
    movq %rax, -40(%rbp)
    movq $0, %rax
    pushq %rax
    popq %rax
    jmp L_loop_top_94
L_loop_end_95:
    leaq L_ENTROPY_KAT_SPEC(%rip), %rax
    pushq %rax
    popq %rax
    pushq %rax
    popq %rax
    pushq %rax
    movl -32(%rbp), %eax
    pushq %rax
    popq %rcx
    popq %rdx
    subq $32, %rsp
    callq entropy_spectrum
    addq $32, %rsp
    movslq %eax, %rax
    pushq %rax
    movslq L_ENTROPY_OK(%rip), %rax
    pushq %rax
    popq %rcx
    popq %rax
    cmpq %rcx, %rax
    setne %al
    movzbq %al, %rax
    pushq %rax
    popq %rax
    testq %rax, %rax
    jz L_if_end_97
    movabsq $0xa, %rax
    pushq %rax
    popq %rax
    movq %rbp, %rsp
    popq %rbp
    retq
    movq $0, %rax
    pushq %rax
    popq %rax
L_if_end_97:
    leaq L_ENTROPY_KAT_SPEC(%rip), %rax
    pushq %rax
    movabsq $0x0, %rax
    pushq %rax
    popq %rcx
    popq %rax
    movq (%rax,%rcx,8), %rax
    pushq %rax
    movabsq $0x1c0, %rax
    pushq %rax
    popq %rcx
    popq %rax
    cmpq %rcx, %rax
    setne %al
    movzbq %al, %rax
    pushq %rax
    popq %rax
    testq %rax, %rax
    jz L_if_end_99
    movabsq $0xb, %rax
    pushq %rax
    popq %rax
    movq %rbp, %rsp
    popq %rbp
    retq
    movq $0, %rax
    pushq %rax
    popq %rax
L_if_end_99:
    movabsq $0x1, %rax
    pushq %rax
    popq %rax
    movq %rax, -48(%rbp)
L_loop_top_100:
    movl -48(%rbp), %eax
    pushq %rax
    movabsq $0x40, %rax
    pushq %rax
    popq %rcx
    popq %rax
    cmpq %rcx, %rax
    setb %al
    movzbq %al, %rax
    pushq %rax
    popq %rax
    testq %rax, %rax
    jz L_loop_end_101
    leaq L_ENTROPY_KAT_SPEC(%rip), %rax
    pushq %rax
    movl -48(%rbp), %eax
    pushq %rax
    popq %rcx
    popq %rax
    movq (%rax,%rcx,8), %rax
    pushq %rax
    movabsq $0x0, %rax
    pushq %rax
    popq %rcx
    popq %rax
    cmpq %rcx, %rax
    setne %al
    movzbq %al, %rax
    pushq %rax
    popq %rax
    testq %rax, %rax
    jz L_if_end_103
    movabsq $0xc, %rax
    pushq %rax
    popq %rax
    movq %rbp, %rsp
    popq %rbp
    retq
    movq $0, %rax
    pushq %rax
    popq %rax
L_if_end_103:
    movl -48(%rbp), %eax
    pushq %rax
    movabsq $0x1, %rax
    pushq %rax
    popq %rcx
    popq %rax
    addq %rcx, %rax
    movl %eax, %eax
    pushq %rax
    popq %rax
    movq %rax, -48(%rbp)
    movq $0, %rax
    pushq %rax
    popq %rax
    jmp L_loop_top_100
L_loop_end_101:
    leaq L_ENTROPY_KAT_ID(%rip), %rax
    pushq %rax
    popq %rax
    pushq %rax
    popq %rax
    pushq %rax
    popq %rcx
    subq $32, %rsp
    callq entropy_register_path
    addq $32, %rsp
    movl %eax, %eax
    pushq %rax
    popq %rax
    movq %rax, -56(%rbp)
    movl -56(%rbp), %eax
    pushq %rax
    movl L_ENTROPY_INVALID_SLOT(%rip), %eax
    pushq %rax
    popq %rcx
    popq %rax
    cmpq %rcx, %rax
    sete %al
    movzbq %al, %rax
    pushq %rax
    popq %rax
    testq %rax, %rax
    jz L_if_end_105
    movabsq $0xd, %rax
    pushq %rax
    popq %rax
    movq %rbp, %rsp
    popq %rbp
    retq
    movq $0, %rax
    pushq %rax
    popq %rax
L_if_end_105:
    movabsq $0x0, %rax
    pushq %rax
    movl -56(%rbp), %eax
    pushq %rax
    popq %rcx
    popq %rdx
    subq $32, %rsp
    callq entropy_sample
    addq $32, %rsp
    movslq %eax, %rax
    pushq %rax
    popq %rax
    movabsq $0x1, %rax
    pushq %rax
    movl -56(%rbp), %eax
    pushq %rax
    popq %rcx
    popq %rdx
    subq $32, %rsp
    callq entropy_sample
    addq $32, %rsp
    movslq %eax, %rax
    pushq %rax
    popq %rax
    leaq L_ENTROPY_KAT_SPEC(%rip), %rax
    pushq %rax
    popq %rax
    pushq %rax
    popq %rax
    pushq %rax
    movl -56(%rbp), %eax
    pushq %rax
    popq %rcx
    popq %rdx
    subq $32, %rsp
    callq entropy_spectrum
    addq $32, %rsp
    movslq %eax, %rax
    pushq %rax
    movslq L_ENTROPY_OK(%rip), %rax
    pushq %rax
    popq %rcx
    popq %rax
    cmpq %rcx, %rax
    setne %al
    movzbq %al, %rax
    pushq %rax
    popq %rax
    testq %rax, %rax
    jz L_if_end_107
    movabsq $0xe, %rax
    pushq %rax
    popq %rax
    movq %rbp, %rsp
    popq %rbp
    retq
    movq $0, %rax
    pushq %rax
    popq %rax
L_if_end_107:
    leaq L_ENTROPY_KAT_SPEC(%rip), %rax
    pushq %rax
    movabsq $0x1, %rax
    pushq %rax
    popq %rcx
    popq %rax
    movq (%rax,%rcx,8), %rax
    pushq %rax
    movabsq $0x3700cccc, %rax
    pushq %rax
    popq %rcx
    popq %rax
    cmpq %rcx, %rax
    setne %al
    movzbq %al, %rax
    pushq %rax
    popq %rax
    testq %rax, %rax
    jz L_if_end_109
    movabsq $0xf, %rax
    pushq %rax
    popq %rax
    movq %rbp, %rsp
    popq %rbp
    retq
    movq $0, %rax
    pushq %rax
    popq %rax
L_if_end_109:
    leaq L_ENTROPY_KAT_SPEC(%rip), %rax
    pushq %rax
    movabsq $0x2, %rax
    pushq %rax
    popq %rcx
    popq %rax
    movq (%rax,%rcx,8), %rax
    pushq %rax
    movabsq $0x1afd27ac, %rax
    pushq %rax
    popq %rcx
    popq %rax
    cmpq %rcx, %rax
    setne %al
    movzbq %al, %rax
    pushq %rax
    popq %rax
    testq %rax, %rax
    jz L_if_end_111
    movabsq $0x10, %rax
    pushq %rax
    popq %rax
    movq %rbp, %rsp
    popq %rbp
    retq
    movq $0, %rax
    pushq %rax
    popq %rax
L_if_end_111:
    leaq L_ENTROPY_KAT_SPEC(%rip), %rax
    pushq %rax
    popq %rax
    pushq %rax
    popq %rax
    pushq %rax
    movl -32(%rbp), %eax
    pushq %rax
    popq %rcx
    popq %rdx
    subq $32, %rsp
    callq entropy_spectrum
    addq $32, %rsp
    movslq %eax, %rax
    pushq %rax
    movslq L_ENTROPY_OK(%rip), %rax
    pushq %rax
    popq %rcx
    popq %rax
    cmpq %rcx, %rax
    setne %al
    movzbq %al, %rax
    pushq %rax
    popq %rax
    testq %rax, %rax
    jz L_if_end_113
    movabsq $0x11, %rax
    pushq %rax
    popq %rax
    movq %rbp, %rsp
    popq %rbp
    retq
    movq $0, %rax
    pushq %rax
    popq %rax
L_if_end_113:
    movabsq $0x1, %rax
    pushq %rax
    leaq L_ENTROPY_KAT_SPEC(%rip), %rax
    pushq %rax
    popq %rax
    pushq %rax
    popq %rax
    pushq %rax
    movl -32(%rbp), %eax
    pushq %rax
    popq %rcx
    popq %rdx
    popq %r8
    subq $32, %rsp
    callq entropy_set_baseline
    addq $32, %rsp
    movslq %eax, %rax
    pushq %rax
    movslq L_ENTROPY_OK(%rip), %rax
    pushq %rax
    popq %rcx
    popq %rax
    cmpq %rcx, %rax
    setne %al
    movzbq %al, %rax
    pushq %rax
    popq %rax
    testq %rax, %rax
    jz L_if_end_115
    movabsq $0x12, %rax
    pushq %rax
    popq %rax
    movq %rbp, %rsp
    popq %rbp
    retq
    movq $0, %rax
    pushq %rax
    popq %rax
L_if_end_115:
    leaq L_ENTROPY_KAT_SPEC(%rip), %rax
    pushq %rax
    popq %rax
    pushq %rax
    popq %rax
    pushq %rax
    movl -32(%rbp), %eax
    pushq %rax
    popq %rcx
    popq %rdx
    subq $32, %rsp
    callq entropy_distance
    addq $32, %rsp
    pushq %rax
    movabsq $0x0, %rax
    pushq %rax
    popq %rcx
    popq %rax
    cmpq %rcx, %rax
    setne %al
    movzbq %al, %rax
    pushq %rax
    popq %rax
    testq %rax, %rax
    jz L_if_end_117
    movabsq $0x13, %rax
    pushq %rax
    popq %rax
    movq %rbp, %rsp
    popq %rbp
    retq
    movq $0, %rax
    pushq %rax
    popq %rax
L_if_end_117:
    movabsq $0x0, %rax
    pushq %rax
    popq %rax
    movq %rax, -64(%rbp)
L_loop_top_118:
    movl -64(%rbp), %eax
    pushq %rax
    movabsq $0x40, %rax
    pushq %rax
    popq %rcx
    popq %rax
    cmpq %rcx, %rax
    setb %al
    movzbq %al, %rax
    pushq %rax
    popq %rax
    testq %rax, %rax
    jz L_loop_end_119
    leaq L_ENTROPY_KAT_SPEC2(%rip), %rax
    pushq %rax
    movl -64(%rbp), %eax
    pushq %rax
    leaq L_ENTROPY_KAT_SPEC(%rip), %rax
    pushq %rax
    movl -64(%rbp), %eax
    pushq %rax
    popq %rcx
    popq %rax
    movq (%rax,%rcx,8), %rax
    pushq %rax
    popq %rdx
    popq %rcx
    popq %rax
    movq %rdx, (%rax,%rcx,8)
    movl -64(%rbp), %eax
    pushq %rax
    movabsq $0x1, %rax
    pushq %rax
    popq %rcx
    popq %rax
    addq %rcx, %rax
    movl %eax, %eax
    pushq %rax
    popq %rax
    movq %rax, -64(%rbp)
    movq $0, %rax
    pushq %rax
    popq %rax
    jmp L_loop_top_118
L_loop_end_119:
    leaq L_ENTROPY_KAT_SPEC2(%rip), %rax
    pushq %rax
    movabsq $0x0, %rax
    pushq %rax
    leaq L_ENTROPY_KAT_SPEC(%rip), %rax
    pushq %rax
    movabsq $0x0, %rax
    pushq %rax
    popq %rcx
    popq %rax
    movq (%rax,%rcx,8), %rax
    pushq %rax
    movabsq $0x1, %rax
    pushq %rax
    popq %rcx
    popq %rax
    addq %rcx, %rax
    pushq %rax
    popq %rdx
    popq %rcx
    popq %rax
    movq %rdx, (%rax,%rcx,8)
    leaq L_ENTROPY_KAT_SPEC2(%rip), %rax
    pushq %rax
    popq %rax
    pushq %rax
    popq %rax
    pushq %rax
    movl -32(%rbp), %eax
    pushq %rax
    popq %rcx
    popq %rdx
    subq $32, %rsp
    callq entropy_distance
    addq $32, %rsp
    pushq %rax
    movabsq $0x1, %rax
    pushq %rax
    popq %rcx
    popq %rax
    cmpq %rcx, %rax
    setne %al
    movzbq %al, %rax
    pushq %rax
    popq %rax
    testq %rax, %rax
    jz L_if_end_121
    movabsq $0x14, %rax
    pushq %rax
    popq %rax
    movq %rbp, %rsp
    popq %rbp
    retq
    movq $0, %rax
    pushq %rax
    popq %rax
L_if_end_121:
    leaq L_ENTROPY_KAT_ID(%rip), %rax
    pushq %rax
    popq %rax
    pushq %rax
    popq %rax
    pushq %rax
    popq %rcx
    subq $32, %rsp
    callq entropy_register_path
    addq $32, %rsp
    movl %eax, %eax
    pushq %rax
    popq %rax
    movq %rax, -72(%rbp)
    movl -72(%rbp), %eax
    pushq %rax
    movl L_ENTROPY_INVALID_SLOT(%rip), %eax
    pushq %rax
    popq %rcx
    popq %rax
    cmpq %rcx, %rax
    sete %al
    movzbq %al, %rax
    pushq %rax
    popq %rax
    testq %rax, %rax
    jz L_if_end_123
    movabsq $0x15, %rax
    pushq %rax
    popq %rax
    movq %rbp, %rsp
    popq %rbp
    retq
    movq $0, %rax
    pushq %rax
    popq %rax
L_if_end_123:
    leaq L_ENTROPY_BASE_SET(%rip), %rax
    pushq %rax
    movl -72(%rbp), %eax
    pushq %rax
    popq %rcx
    popq %rax
    movzbq (%rax,%rcx,1), %rax
    pushq %rax
    popq %rax
    movq %rax, -80(%rbp)
    movabsq $0x0, %rax
    pushq %rax
    leaq L_ENTROPY_KAT_SPEC(%rip), %rax
    pushq %rax
    popq %rax
    pushq %rax
    popq %rax
    pushq %rax
    movl -72(%rbp), %eax
    pushq %rax
    popq %rcx
    popq %rdx
    popq %r8
    subq $32, %rsp
    callq entropy_set_baseline
    addq $32, %rsp
    movslq %eax, %rax
    pushq %rax
    movslq L_ENTROPY_E_CAP(%rip), %rax
    pushq %rax
    popq %rcx
    popq %rax
    cmpq %rcx, %rax
    setne %al
    movzbq %al, %rax
    pushq %rax
    popq %rax
    testq %rax, %rax
    jz L_if_end_125
    movabsq $0x16, %rax
    pushq %rax
    popq %rax
    movq %rbp, %rsp
    popq %rbp
    retq
    movq $0, %rax
    pushq %rax
    popq %rax
L_if_end_125:
    leaq L_ENTROPY_BASE_SET(%rip), %rax
    pushq %rax
    movl -72(%rbp), %eax
    pushq %rax
    popq %rcx
    popq %rax
    movzbq (%rax,%rcx,1), %rax
    pushq %rax
    movzbq -80(%rbp), %rax
    pushq %rax
    popq %rcx
    popq %rax
    cmpq %rcx, %rax
    setne %al
    movzbq %al, %rax
    pushq %rax
    popq %rax
    testq %rax, %rax
    jz L_if_end_127
    movabsq $0x17, %rax
    pushq %rax
    popq %rax
    movq %rbp, %rsp
    popq %rbp
    retq
    movq $0, %rax
    pushq %rax
    popq %rax
L_if_end_127:
    leaq L_ENTROPY_KAT_H1(%rip), %rax
    pushq %rax
    popq %rax
    pushq %rax
    popq %rax
    pushq %rax
    movabsq $0x7, %rax
    pushq %rax
    movl -32(%rbp), %eax
    pushq %rax
    popq %rcx
    popq %rdx
    popq %r8
    subq $32, %rsp
    callq L_entropy_witness_core
    addq $32, %rsp
    movslq %eax, %rax
    pushq %rax
    popq %rax
    leaq L_ENTROPY_KAT_H2(%rip), %rax
    pushq %rax
    popq %rax
    pushq %rax
    popq %rax
    pushq %rax
    movabsq $0x7, %rax
    pushq %rax
    movl -32(%rbp), %eax
    pushq %rax
    popq %rcx
    popq %rdx
    popq %r8
    subq $32, %rsp
    callq L_entropy_witness_core
    addq $32, %rsp
    movslq %eax, %rax
    pushq %rax
    popq %rax
    movabsq $0x0, %rax
    pushq %rax
    popq %rax
    movq %rax, -88(%rbp)
L_loop_top_128:
    movl -88(%rbp), %eax
    pushq %rax
    movabsq $0x20, %rax
    pushq %rax
    popq %rcx
    popq %rax
    cmpq %rcx, %rax
    setb %al
    movzbq %al, %rax
    pushq %rax
    popq %rax
    testq %rax, %rax
    jz L_loop_end_129
    leaq L_ENTROPY_KAT_H1(%rip), %rax
    pushq %rax
    movl -88(%rbp), %eax
    pushq %rax
    popq %rcx
    popq %rax
    movzbq (%rax,%rcx,1), %rax
    pushq %rax
    leaq L_ENTROPY_KAT_H2(%rip), %rax
    pushq %rax
    movl -88(%rbp), %eax
    pushq %rax
    popq %rcx
    popq %rax
    movzbq (%rax,%rcx,1), %rax
    pushq %rax
    popq %rcx
    popq %rax
    cmpq %rcx, %rax
    setne %al
    movzbq %al, %rax
    pushq %rax
    popq %rax
    testq %rax, %rax
    jz L_if_end_131
    movabsq $0x18, %rax
    pushq %rax
    popq %rax
    movq %rbp, %rsp
    popq %rbp
    retq
    movq $0, %rax
    pushq %rax
    popq %rax
L_if_end_131:
    movl -88(%rbp), %eax
    pushq %rax
    movabsq $0x1, %rax
    pushq %rax
    popq %rcx
    popq %rax
    addq %rcx, %rax
    movl %eax, %eax
    pushq %rax
    popq %rax
    movq %rax, -88(%rbp)
    movq $0, %rax
    pushq %rax
    popq %rax
    jmp L_loop_top_128
L_loop_end_129:
    movabsq $0x2a, %rax
    pushq %rax
    movl -32(%rbp), %eax
    pushq %rax
    popq %rcx
    popq %rdx
    subq $32, %rsp
    callq entropy_sample
    addq $32, %rsp
    movslq %eax, %rax
    pushq %rax
    popq %rax
    leaq L_ENTROPY_KAT_H2(%rip), %rax
    pushq %rax
    popq %rax
    pushq %rax
    popq %rax
    pushq %rax
    movabsq $0x7, %rax
    pushq %rax
    movl -32(%rbp), %eax
    pushq %rax
    popq %rcx
    popq %rdx
    popq %r8
    subq $32, %rsp
    callq L_entropy_witness_core
    addq $32, %rsp
    movslq %eax, %rax
    pushq %rax
    popq %rax
    movabsq $0x0, %rax
    pushq %rax
    popq %rax
    movq %rax, -96(%rbp)
    movabsq $0x0, %rax
    pushq %rax
    popq %rax
    movq %rax, -104(%rbp)
L_loop_top_132:
    movl -104(%rbp), %eax
    pushq %rax
    movabsq $0x20, %rax
    pushq %rax
    popq %rcx
    popq %rax
    cmpq %rcx, %rax
    setb %al
    movzbq %al, %rax
    pushq %rax
    popq %rax
    testq %rax, %rax
    jz L_loop_end_133
    leaq L_ENTROPY_KAT_H1(%rip), %rax
    pushq %rax
    movl -104(%rbp), %eax
    pushq %rax
    popq %rcx
    popq %rax
    movzbq (%rax,%rcx,1), %rax
    pushq %rax
    leaq L_ENTROPY_KAT_H2(%rip), %rax
    pushq %rax
    movl -104(%rbp), %eax
    pushq %rax
    popq %rcx
    popq %rax
    movzbq (%rax,%rcx,1), %rax
    pushq %rax
    popq %rcx
    popq %rax
    cmpq %rcx, %rax
    setne %al
    movzbq %al, %rax
    pushq %rax
    popq %rax
    testq %rax, %rax
    jz L_if_end_135
    movabsq $0x1, %rax
    pushq %rax
    popq %rax
    movq %rax, -96(%rbp)
    movq $0, %rax
    pushq %rax
    popq %rax
L_if_end_135:
    movl -104(%rbp), %eax
    pushq %rax
    movabsq $0x1, %rax
    pushq %rax
    popq %rcx
    popq %rax
    addq %rcx, %rax
    movl %eax, %eax
    pushq %rax
    popq %rax
    movq %rax, -104(%rbp)
    movq $0, %rax
    pushq %rax
    popq %rax
    jmp L_loop_top_132
L_loop_end_133:
    movzbq -96(%rbp), %rax
    pushq %rax
    movabsq $0x0, %rax
    pushq %rax
    popq %rcx
    popq %rax
    cmpq %rcx, %rax
    sete %al
    movzbq %al, %rax
    pushq %rax
    popq %rax
    testq %rax, %rax
    jz L_if_end_137
    movabsq $0x19, %rax
    pushq %rax
    popq %rax
    movq %rbp, %rsp
    popq %rbp
    retq
    movq $0, %rax
    pushq %rax
    popq %rax
L_if_end_137:
    movabsq $0x63, %rax
    pushq %rax
    popq %rax
    movq %rbp, %rsp
    popq %rbp
    retq
    movq $0, %rax
    pushq %rax
    movq $0, %rax
    movq %rbp, %rsp
    popq %rbp
    retq
    .seh_endproc
