# III Stage-0 Ring-3 codegen output
# Microsoft x64 ABI; gas syntax (AT&T); PE/COFF target
    .att_syntax
    .file 1 "<iii-source>"
    .section .rodata
L_str_0:
    .ascii "identifier.iii\0"
L_str_1:
    .ascii "identifier.iii\0"
L_str_2:
    .ascii "identifier.iii\0"
L_str_3:
    .ascii "identifier.iii\0"
L_str_4:
    .ascii "identifier.iii\0"
L_str_5:
    .ascii "algebraic_time.iii\0"
L_str_6:
    .ascii "witness_hook.iii\0"
L_str_7:
    .ascii "computation_graph.iii\0"
L_str_8:
    .ascii "computation_graph.iii\0"
L_str_9:
    .ascii "constitution.iii\0"
L_str_10:
    .ascii "witness_hook.iii\0"
L_str_11:
    .ascii "algebraic_time.iii\0"
L_str_12:
    .ascii "witness_spine.iii\0"
L_str_13:
    .ascii "witness_spine.iii\0"
L_str_14:
    .ascii "constitution.iii\0"
L_str_15:
    .ascii "computation_graph.iii\0"
L_str_16:
    .ascii "computation_graph.iii\0"
    .section .rodata
L_BANCHOR_OK:
    .quad 0x0
L_BANCHOR_E_NULL:
    .quad 0xffffffffffffffff
L_BANCHOR_E_NOT_ANCHOR:
    .quad 0xfffffffffffffffe
L_BANCHOR_E_BRANCH_ABSENT:
    .quad 0xfffffffffffffffd
L_BANCHOR_E_BRANCH_RETIRED:
    .quad 0xfffffffffffffffc
L_BANCHOR_E_NOT_BISIMILAR:
    .quad 0xfffffffffffffffb
L_BANCHOR_E_CLAUSE_ABSENT:
    .quad 0xfffffffffffffffa
L_BANCHOR_E_INDEX_FULL:
    .quad 0xfffffffffffffff9
L_BANCHOR_E_NOT_INITED:
    .quad 0xfffffffffffffff8
L_BANCHOR_E_EMIT:
    .quad 0xfffffffffffffff7
L_BANCHOR_BRANCH_SLOTS:
    .quad 0x100
L_BANCHOR_PROPOSAL_SLOTS:
    .quad 0x100
L_BANCHOR_IDENT_BYTES:
    .quad 0x20
L_BANCHOR_U64_SENT:
    .quad 0xffffffffffffffff
L_BANCHOR_CONS_SENT:
    .quad 0xffffffff
L_BANCHOR_KIND_E3:
    .quad 0xe3
L_BANCHOR_KIND_CONTINUATION:
    .quad 0x3
L_BANCHOR_KIND_MERGE:
    .quad 0x10
L_BANCHOR_PILLAR_BRANCH:
    .quad 0x1
    .section .data
    .global L_BANCHOR_INITED
L_BANCHOR_INITED:
    .quad 0x0
    .section .bss
    .global L_BANCHOR_BRANCH_IDS
L_BANCHOR_BRANCH_IDS:
    .zero 65536
    .global L_BANCHOR_BRANCH_ANCHORS
L_BANCHOR_BRANCH_ANCHORS:
    .zero 65536
    .global L_BANCHOR_BRANCH_HEADS
L_BANCHOR_BRANCH_HEADS:
    .zero 65536
    .global L_BANCHOR_BRANCH_LIVE
L_BANCHOR_BRANCH_LIVE:
    .zero 2048
    .global L_BANCHOR_BRANCH_RETIRED
L_BANCHOR_BRANCH_RETIRED:
    .zero 2048
    .section .data
    .global L_BANCHOR_BRANCH_COUNT
L_BANCHOR_BRANCH_COUNT:
    .quad 0x0
    .section .bss
    .global L_BANCHOR_PROPOSAL_BRANCH
L_BANCHOR_PROPOSAL_BRANCH:
    .zero 65536
    .global L_BANCHOR_PROPOSAL_TARGET
L_BANCHOR_PROPOSAL_TARGET:
    .zero 65536
    .global L_BANCHOR_PROPOSAL_WITNESS
L_BANCHOR_PROPOSAL_WITNESS:
    .zero 65536
    .global L_BANCHOR_PROPOSAL_VERIFIED
L_BANCHOR_PROPOSAL_VERIFIED:
    .zero 2048
    .global L_BANCHOR_PROPOSAL_LIVE
L_BANCHOR_PROPOSAL_LIVE:
    .zero 2048
    .global L_BANCHOR_SEED_BUF
L_BANCHOR_SEED_BUF:
    .zero 512
    .global L_BANCHOR_TIME_BUF
L_BANCHOR_TIME_BUF:
    .zero 256
    .global L_BANCHOR_PAYLOAD
L_BANCHOR_PAYLOAD:
    .zero 576
    .global L_BANCHOR_MERGE_PAYLOAD
L_BANCHOR_MERGE_PAYLOAD:
    .zero 320
    .global L_BANCHOR_ZERO_ID
L_BANCHOR_ZERO_ID:
    .zero 256
    .global L_BANCHOR_RETIRE_LABEL
L_BANCHOR_RETIRE_LABEL:
    .zero 128
    .global L_BANCHOR_RETIRE_CID
L_BANCHOR_RETIRE_CID:
    .zero 256
    .global L_BANCHOR_MERGE_LABEL
L_BANCHOR_MERGE_LABEL:
    .zero 128
    .global L_BANCHOR_MERGE_CID
L_BANCHOR_MERGE_CID:
    .zero 256
    .global L_BANCHOR_WITNESS_FID
L_BANCHOR_WITNESS_FID:
    .zero 256
    .global L_BANCHOR_CLAUSE_SCRATCH
L_BANCHOR_CLAUSE_SCRATCH:
    .zero 256
    .global L_BANCHOR_BRANCHID_TAG
L_BANCHOR_BRANCHID_TAG:
    .zero 256
    .global L_BANCHOR_T_REQ
L_BANCHOR_T_REQ:
    .zero 1280
    .global L_BANCHOR_T_BID
L_BANCHOR_T_BID:
    .zero 256
    .global L_BANCHOR_T_PID
L_BANCHOR_T_PID:
    .zero 256
    .global L_BANCHOR_T_ANC
L_BANCHOR_T_ANC:
    .zero 256
    .global L_BANCHOR_KAT_PL
L_BANCHOR_KAT_PL:
    .zero 192
    .global L_BANCHOR_KAT_OC
L_BANCHOR_KAT_OC:
    .zero 256
    .global L_BANCHOR_KAT_Z
L_BANCHOR_KAT_Z:
    .zero 256
    .global L_BANCHOR_KAT_REQ
L_BANCHOR_KAT_REQ:
    .zero 128
    .global L_BANCHOR_KAT_TGT
L_BANCHOR_KAT_TGT:
    .zero 256
    .global L_BANCHOR_KAT_TGTN
L_BANCHOR_KAT_TGTN:
    .zero 256
    .section .iii.ring3,"n"
    .asciz "ba_branch_ptr"
    .text
    .seh_proc L_ba_branch_ptr
L_ba_branch_ptr:
    pushq %rbp
    .seh_pushreg %rbp
    movq %rsp, %rbp
    .seh_setframe %rbp, 0
    subq $1024, %rsp
    .seh_stackalloc 1024
    .seh_endprologue
    movq %rcx, -8(%rbp)
    leaq L_BANCHOR_BRANCH_IDS(%rip), %rax
    pushq %rax
    popq %rax
    pushq %rax
    movq -8(%rbp), %rax
    pushq %rax
    popq %rax
    shlq $5, %rax
    pushq %rax
    popq %rcx
    popq %rax
    addq %rcx, %rax
    pushq %rax
    popq %rax
    movq %rbp, %rsp
    popq %rbp
    retq
    movq $0, %rax
    pushq %rax
    movq $0, %rax
    movq %rbp, %rsp
    popq %rbp
    retq
    .seh_endproc
    .section .iii.ring3,"n"
    .asciz "ba_branch_head_ptr"
    .text
    .seh_proc L_ba_branch_head_ptr
L_ba_branch_head_ptr:
    pushq %rbp
    .seh_pushreg %rbp
    movq %rsp, %rbp
    .seh_setframe %rbp, 0
    subq $1024, %rsp
    .seh_stackalloc 1024
    .seh_endprologue
    movq %rcx, -8(%rbp)
    leaq L_BANCHOR_BRANCH_HEADS(%rip), %rax
    pushq %rax
    popq %rax
    pushq %rax
    movq -8(%rbp), %rax
    pushq %rax
    popq %rax
    shlq $5, %rax
    pushq %rax
    popq %rcx
    popq %rax
    addq %rcx, %rax
    pushq %rax
    popq %rax
    movq %rbp, %rsp
    popq %rbp
    retq
    movq $0, %rax
    pushq %rax
    movq $0, %rax
    movq %rbp, %rsp
    popq %rbp
    retq
    .seh_endproc
    .section .iii.ring3,"n"
    .asciz "ba_branch_anchor_ptr"
    .text
    .seh_proc L_ba_branch_anchor_ptr
L_ba_branch_anchor_ptr:
    pushq %rbp
    .seh_pushreg %rbp
    movq %rsp, %rbp
    .seh_setframe %rbp, 0
    subq $1024, %rsp
    .seh_stackalloc 1024
    .seh_endprologue
    movq %rcx, -8(%rbp)
    leaq L_BANCHOR_BRANCH_ANCHORS(%rip), %rax
    pushq %rax
    popq %rax
    pushq %rax
    movq -8(%rbp), %rax
    pushq %rax
    popq %rax
    shlq $5, %rax
    pushq %rax
    popq %rcx
    popq %rax
    addq %rcx, %rax
    pushq %rax
    popq %rax
    movq %rbp, %rsp
    popq %rbp
    retq
    movq $0, %rax
    pushq %rax
    movq $0, %rax
    movq %rbp, %rsp
    popq %rbp
    retq
    .seh_endproc
    .section .iii.ring3,"n"
    .asciz "ba_prop_branch_ptr"
    .text
    .seh_proc L_ba_prop_branch_ptr
L_ba_prop_branch_ptr:
    pushq %rbp
    .seh_pushreg %rbp
    movq %rsp, %rbp
    .seh_setframe %rbp, 0
    subq $1024, %rsp
    .seh_stackalloc 1024
    .seh_endprologue
    movq %rcx, -8(%rbp)
    leaq L_BANCHOR_PROPOSAL_BRANCH(%rip), %rax
    pushq %rax
    popq %rax
    pushq %rax
    movq -8(%rbp), %rax
    pushq %rax
    popq %rax
    shlq $5, %rax
    pushq %rax
    popq %rcx
    popq %rax
    addq %rcx, %rax
    pushq %rax
    popq %rax
    movq %rbp, %rsp
    popq %rbp
    retq
    movq $0, %rax
    pushq %rax
    movq $0, %rax
    movq %rbp, %rsp
    popq %rbp
    retq
    .seh_endproc
    .section .iii.ring3,"n"
    .asciz "ba_prop_target_ptr"
    .text
    .seh_proc L_ba_prop_target_ptr
L_ba_prop_target_ptr:
    pushq %rbp
    .seh_pushreg %rbp
    movq %rsp, %rbp
    .seh_setframe %rbp, 0
    subq $1024, %rsp
    .seh_stackalloc 1024
    .seh_endprologue
    movq %rcx, -8(%rbp)
    leaq L_BANCHOR_PROPOSAL_TARGET(%rip), %rax
    pushq %rax
    popq %rax
    pushq %rax
    movq -8(%rbp), %rax
    pushq %rax
    popq %rax
    shlq $5, %rax
    pushq %rax
    popq %rcx
    popq %rax
    addq %rcx, %rax
    pushq %rax
    popq %rax
    movq %rbp, %rsp
    popq %rbp
    retq
    movq $0, %rax
    pushq %rax
    movq $0, %rax
    movq %rbp, %rsp
    popq %rbp
    retq
    .seh_endproc
    .section .iii.ring3,"n"
    .asciz "ba_prop_witness_ptr"
    .text
    .seh_proc L_ba_prop_witness_ptr
L_ba_prop_witness_ptr:
    pushq %rbp
    .seh_pushreg %rbp
    movq %rsp, %rbp
    .seh_setframe %rbp, 0
    subq $1024, %rsp
    .seh_stackalloc 1024
    .seh_endprologue
    movq %rcx, -8(%rbp)
    leaq L_BANCHOR_PROPOSAL_WITNESS(%rip), %rax
    pushq %rax
    popq %rax
    pushq %rax
    movq -8(%rbp), %rax
    pushq %rax
    popq %rax
    shlq $5, %rax
    pushq %rax
    popq %rcx
    popq %rax
    addq %rcx, %rax
    pushq %rax
    popq %rax
    movq %rbp, %rsp
    popq %rbp
    retq
    movq $0, %rax
    pushq %rax
    movq $0, %rax
    movq %rbp, %rsp
    popq %rbp
    retq
    .seh_endproc
    .section .iii.ring3,"n"
    .asciz "ba_branch_slot"
    .text
    .seh_proc L_ba_branch_slot
L_ba_branch_slot:
    pushq %rbp
    .seh_pushreg %rbp
    movq %rsp, %rbp
    .seh_setframe %rbp, 0
    subq $1024, %rsp
    .seh_stackalloc 1024
    .seh_endprologue
    movq %rcx, -8(%rbp)
    movabsq $0x0, %rax
    pushq %rax
    popq %rax
    movq %rax, -16(%rbp)
    movabsq $0x1, %rax
    pushq %rax
    popq %rax
    negq %rax
    pushq %rax
    popq %rax
    movq %rax, -24(%rbp)
    movabsq $0x0, %rax
    pushq %rax
    popq %rax
    movq %rax, -32(%rbp)
L_loop_top_0:
    movq -16(%rbp), %rax
    pushq %rax
    movq L_BANCHOR_BRANCH_SLOTS(%rip), %rax
    pushq %rax
    popq %rcx
    popq %rax
    cmpq %rcx, %rax
    setb %al
    movzbq %al, %rax
    pushq %rax
    popq %rax
    testq %rax, %rax
    jz L_loop_end_1
    movzbq -32(%rbp), %rax
    pushq %rax
    movabsq $0x0, %rax
    pushq %rax
    popq %rcx
    popq %rax
    cmpq %rcx, %rax
    sete %al
    movzbq %al, %rax
    pushq %rax
    popq %rax
    testq %rax, %rax
    jz L_if_end_3
    leaq L_BANCHOR_BRANCH_LIVE(%rip), %rax
    pushq %rax
    movq -16(%rbp), %rax
    pushq %rax
    popq %rcx
    popq %rax
    movzbq (%rax,%rcx,1), %rax
    pushq %rax
    movabsq $0x1, %rax
    pushq %rax
    popq %rcx
    popq %rax
    cmpq %rcx, %rax
    sete %al
    movzbq %al, %rax
    pushq %rax
    popq %rax
    testq %rax, %rax
    jz L_if_end_5
    movq -16(%rbp), %rax
    pushq %rax
    popq %rcx
    subq $32, %rsp
    callq L_ba_branch_ptr
    addq $32, %rsp
    pushq %rax
    popq %rax
    pushq %rax
    popq %rax
    movq %rax, -40(%rbp)
    movq -8(%rbp), %rax
    pushq %rax
    movq -40(%rbp), %rax
    pushq %rax
    popq %rcx
    popq %rdx
    subq $32, %rsp
    callq ident_eq
    addq $32, %rsp
    movzbq %al, %rax
    pushq %rax
    movabsq $0x1, %rax
    pushq %rax
    popq %rcx
    popq %rax
    cmpq %rcx, %rax
    sete %al
    movzbq %al, %rax
    pushq %rax
    popq %rax
    testq %rax, %rax
    jz L_if_end_7
    movq -16(%rbp), %rax
    pushq %rax
    popq %rax
    pushq %rax
    popq %rax
    movq %rax, -24(%rbp)
    movabsq $0x1, %rax
    pushq %rax
    popq %rax
    movq %rax, -32(%rbp)
    movq $0, %rax
    pushq %rax
    popq %rax
L_if_end_7:
    movq $0, %rax
    pushq %rax
    popq %rax
L_if_end_5:
    movq $0, %rax
    pushq %rax
    popq %rax
L_if_end_3:
    movq -16(%rbp), %rax
    pushq %rax
    movabsq $0x1, %rax
    pushq %rax
    popq %rcx
    popq %rax
    addq %rcx, %rax
    pushq %rax
    popq %rax
    movq %rax, -16(%rbp)
    movq $0, %rax
    pushq %rax
    popq %rax
    jmp L_loop_top_0
L_loop_end_1:
    movq -24(%rbp), %rax
    pushq %rax
    popq %rax
    movq %rbp, %rsp
    popq %rbp
    retq
    movq $0, %rax
    pushq %rax
    movq $0, %rax
    movq %rbp, %rsp
    popq %rbp
    retq
    .seh_endproc
    .section .iii.ring3,"n"
    .asciz "ba_proposal_slot"
    .text
    .seh_proc L_ba_proposal_slot
L_ba_proposal_slot:
    pushq %rbp
    .seh_pushreg %rbp
    movq %rsp, %rbp
    .seh_setframe %rbp, 0
    subq $1024, %rsp
    .seh_stackalloc 1024
    .seh_endprologue
    movq %rcx, -8(%rbp)
    movabsq $0x0, %rax
    pushq %rax
    popq %rax
    movq %rax, -16(%rbp)
    movabsq $0x1, %rax
    pushq %rax
    popq %rax
    negq %rax
    pushq %rax
    popq %rax
    movq %rax, -24(%rbp)
    movabsq $0x0, %rax
    pushq %rax
    popq %rax
    movq %rax, -32(%rbp)
L_loop_top_8:
    movq -16(%rbp), %rax
    pushq %rax
    movq L_BANCHOR_PROPOSAL_SLOTS(%rip), %rax
    pushq %rax
    popq %rcx
    popq %rax
    cmpq %rcx, %rax
    setb %al
    movzbq %al, %rax
    pushq %rax
    popq %rax
    testq %rax, %rax
    jz L_loop_end_9
    movzbq -32(%rbp), %rax
    pushq %rax
    movabsq $0x0, %rax
    pushq %rax
    popq %rcx
    popq %rax
    cmpq %rcx, %rax
    sete %al
    movzbq %al, %rax
    pushq %rax
    popq %rax
    testq %rax, %rax
    jz L_if_end_11
    leaq L_BANCHOR_PROPOSAL_LIVE(%rip), %rax
    pushq %rax
    movq -16(%rbp), %rax
    pushq %rax
    popq %rcx
    popq %rax
    movzbq (%rax,%rcx,1), %rax
    pushq %rax
    movabsq $0x1, %rax
    pushq %rax
    popq %rcx
    popq %rax
    cmpq %rcx, %rax
    sete %al
    movzbq %al, %rax
    pushq %rax
    popq %rax
    testq %rax, %rax
    jz L_if_end_13
    movq -16(%rbp), %rax
    pushq %rax
    popq %rcx
    subq $32, %rsp
    callq L_ba_prop_witness_ptr
    addq $32, %rsp
    pushq %rax
    popq %rax
    pushq %rax
    popq %rax
    movq %rax, -40(%rbp)
    movq -8(%rbp), %rax
    pushq %rax
    movq -40(%rbp), %rax
    pushq %rax
    popq %rcx
    popq %rdx
    subq $32, %rsp
    callq ident_eq
    addq $32, %rsp
    movzbq %al, %rax
    pushq %rax
    movabsq $0x1, %rax
    pushq %rax
    popq %rcx
    popq %rax
    cmpq %rcx, %rax
    sete %al
    movzbq %al, %rax
    pushq %rax
    popq %rax
    testq %rax, %rax
    jz L_if_end_15
    movq -16(%rbp), %rax
    pushq %rax
    popq %rax
    pushq %rax
    popq %rax
    movq %rax, -24(%rbp)
    movabsq $0x1, %rax
    pushq %rax
    popq %rax
    movq %rax, -32(%rbp)
    movq $0, %rax
    pushq %rax
    popq %rax
L_if_end_15:
    movq $0, %rax
    pushq %rax
    popq %rax
L_if_end_13:
    movq $0, %rax
    pushq %rax
    popq %rax
L_if_end_11:
    movq -16(%rbp), %rax
    pushq %rax
    movabsq $0x1, %rax
    pushq %rax
    popq %rcx
    popq %rax
    addq %rcx, %rax
    pushq %rax
    popq %rax
    movq %rax, -16(%rbp)
    movq $0, %rax
    pushq %rax
    popq %rax
    jmp L_loop_top_8
L_loop_end_9:
    movq -24(%rbp), %rax
    pushq %rax
    popq %rax
    movq %rbp, %rsp
    popq %rbp
    retq
    movq $0, %rax
    pushq %rax
    movq $0, %rax
    movq %rbp, %rsp
    popq %rbp
    retq
    .seh_endproc
    .section .iii.ring3,"n"
    .asciz "ba_emit_branch_fragment"
    .text
    .seh_proc L_ba_emit_branch_fragment
L_ba_emit_branch_fragment:
    pushq %rbp
    .seh_pushreg %rbp
    movq %rsp, %rbp
    .seh_setframe %rbp, 0
    subq $1024, %rsp
    .seh_stackalloc 1024
    .seh_endprologue
    movq %rcx, -8(%rbp)
    movq %rdx, -16(%rbp)
    movq -8(%rbp), %rax
    pushq %rax
    popq %rax
    pushq %rax
    popq %rax
    pushq %rax
    popq %rax
    movq %rax, -24(%rbp)
    movq -8(%rbp), %rax
    pushq %rax
    popq %rax
    pushq %rax
    movabsq $0x20, %rax
    pushq %rax
    popq %rcx
    popq %rax
    addq %rcx, %rax
    pushq %rax
    popq %rax
    pushq %rax
    popq %rax
    movq %rax, -32(%rbp)
    movq -8(%rbp), %rax
    pushq %rax
    popq %rax
    pushq %rax
    movabsq $0x40, %rax
    pushq %rax
    popq %rcx
    popq %rax
    addq %rcx, %rax
    pushq %rax
    popq %rax
    pushq %rax
    popq %rax
    movq %rax, -40(%rbp)
    movq -8(%rbp), %rax
    pushq %rax
    popq %rax
    pushq %rax
    movabsq $0x60, %rax
    pushq %rax
    popq %rcx
    popq %rax
    addq %rcx, %rax
    pushq %rax
    popq %rax
    pushq %rax
    popq %rax
    movq %rax, -48(%rbp)
    movq -8(%rbp), %rax
    pushq %rax
    popq %rax
    pushq %rax
    movabsq $0x80, %rax
    pushq %rax
    popq %rcx
    popq %rax
    addq %rcx, %rax
    pushq %rax
    popq %rax
    pushq %rax
    popq %rax
    movq %rax, -56(%rbp)
    leaq L_BANCHOR_PAYLOAD(%rip), %rax
    pushq %rax
    movabsq $0x0, %rax
    pushq %rax
    movzbq L_BANCHOR_KIND_E3(%rip), %rax
    pushq %rax
    popq %rdx
    popq %rcx
    popq %rax
    movb %dl, (%rax,%rcx,1)
    leaq L_BANCHOR_PAYLOAD(%rip), %rax
    pushq %rax
    movabsq $0x1, %rax
    pushq %rax
    movzbq L_BANCHOR_KIND_CONTINUATION(%rip), %rax
    pushq %rax
    popq %rdx
    popq %rcx
    popq %rax
    movb %dl, (%rax,%rcx,1)
    leaq L_BANCHOR_PAYLOAD(%rip), %rax
    pushq %rax
    movabsq $0x2, %rax
    pushq %rax
    movabsq $0x0, %rax
    pushq %rax
    popq %rdx
    popq %rcx
    popq %rax
    movb %dl, (%rax,%rcx,1)
    leaq L_BANCHOR_PAYLOAD(%rip), %rax
    pushq %rax
    movabsq $0x3, %rax
    pushq %rax
    movabsq $0x0, %rax
    pushq %rax
    popq %rdx
    popq %rcx
    popq %rax
    movb %dl, (%rax,%rcx,1)
    leaq L_BANCHOR_PAYLOAD(%rip), %rax
    pushq %rax
    movabsq $0x4, %rax
    pushq %rax
    movabsq $0x0, %rax
    pushq %rax
    popq %rdx
    popq %rcx
    popq %rax
    movb %dl, (%rax,%rcx,1)
    leaq L_BANCHOR_PAYLOAD(%rip), %rax
    pushq %rax
    movabsq $0x5, %rax
    pushq %rax
    movabsq $0x0, %rax
    pushq %rax
    popq %rdx
    popq %rcx
    popq %rax
    movb %dl, (%rax,%rcx,1)
    leaq L_BANCHOR_PAYLOAD(%rip), %rax
    pushq %rax
    movabsq $0x6, %rax
    pushq %rax
    movabsq $0x0, %rax
    pushq %rax
    popq %rdx
    popq %rcx
    popq %rax
    movb %dl, (%rax,%rcx,1)
    leaq L_BANCHOR_PAYLOAD(%rip), %rax
    pushq %rax
    movabsq $0x7, %rax
    pushq %rax
    movabsq $0x0, %rax
    pushq %rax
    popq %rdx
    popq %rcx
    popq %rax
    movb %dl, (%rax,%rcx,1)
    movabsq $0x0, %rax
    pushq %rax
    popq %rax
    movq %rax, -64(%rbp)
L_loop_top_16:
    movq -64(%rbp), %rax
    pushq %rax
    movabsq $0x20, %rax
    pushq %rax
    popq %rcx
    popq %rax
    cmpq %rcx, %rax
    setb %al
    movzbq %al, %rax
    pushq %rax
    popq %rax
    testq %rax, %rax
    jz L_loop_end_17
    leaq L_BANCHOR_PAYLOAD(%rip), %rax
    pushq %rax
    movabsq $0x8, %rax
    pushq %rax
    movq -64(%rbp), %rax
    pushq %rax
    popq %rcx
    popq %rax
    addq %rcx, %rax
    pushq %rax
    movq -40(%rbp), %rax
    pushq %rax
    movq -64(%rbp), %rax
    pushq %rax
    popq %rcx
    popq %rax
    movzbq (%rax,%rcx,1), %rax
    pushq %rax
    popq %rdx
    popq %rcx
    popq %rax
    movb %dl, (%rax,%rcx,1)
    leaq L_BANCHOR_PAYLOAD(%rip), %rax
    pushq %rax
    movabsq $0x28, %rax
    pushq %rax
    movq -64(%rbp), %rax
    pushq %rax
    popq %rcx
    popq %rax
    addq %rcx, %rax
    pushq %rax
    movq -24(%rbp), %rax
    pushq %rax
    movq -64(%rbp), %rax
    pushq %rax
    popq %rcx
    popq %rax
    movzbq (%rax,%rcx,1), %rax
    pushq %rax
    popq %rdx
    popq %rcx
    popq %rax
    movb %dl, (%rax,%rcx,1)
    movq -64(%rbp), %rax
    pushq %rax
    movabsq $0x1, %rax
    pushq %rax
    popq %rcx
    popq %rax
    addq %rcx, %rax
    pushq %rax
    popq %rax
    movq %rax, -64(%rbp)
    movq $0, %rax
    pushq %rax
    popq %rax
    jmp L_loop_top_16
L_loop_end_17:
    movabsq $0x0, %rax
    pushq %rax
    popq %rax
    movq %rax, -72(%rbp)
L_loop_top_18:
    movq -72(%rbp), %rax
    pushq %rax
    movabsq $0x20, %rax
    pushq %rax
    popq %rcx
    popq %rax
    cmpq %rcx, %rax
    setb %al
    movzbq %al, %rax
    pushq %rax
    popq %rax
    testq %rax, %rax
    jz L_loop_end_19
    leaq L_BANCHOR_BRANCHID_TAG(%rip), %rax
    pushq %rax
    movq -72(%rbp), %rax
    pushq %rax
    movq -24(%rbp), %rax
    pushq %rax
    movq -72(%rbp), %rax
    pushq %rax
    popq %rcx
    popq %rax
    movzbq (%rax,%rcx,1), %rax
    pushq %rax
    popq %rdx
    popq %rcx
    popq %rax
    movb %dl, (%rax,%rcx,1)
    movq -72(%rbp), %rax
    pushq %rax
    movabsq $0x1, %rax
    pushq %rax
    popq %rcx
    popq %rax
    addq %rcx, %rax
    pushq %rax
    popq %rax
    movq %rax, -72(%rbp)
    movq $0, %rax
    pushq %rax
    popq %rax
    jmp L_loop_top_18
L_loop_end_19:
    leaq L_BANCHOR_ZERO_ID(%rip), %rax
    pushq %rax
    popq %rax
    pushq %rax
    popq %rax
    pushq %rax
    popq %rax
    movq %rax, -80(%rbp)
    leaq L_BANCHOR_PAYLOAD(%rip), %rax
    pushq %rax
    popq %rax
    pushq %rax
    popq %rax
    pushq %rax
    popq %rax
    movq %rax, -88(%rbp)
    leaq L_BANCHOR_BRANCHID_TAG(%rip), %rax
    pushq %rax
    popq %rax
    pushq %rax
    popq %rax
    pushq %rax
    popq %rax
    movq %rax, -96(%rbp)
    movq -56(%rbp), %rax
    pushq %rax
    movabsq $0x48, %rax
    pushq %rax
    movq -88(%rbp), %rax
    pushq %rax
    movabsq $0x1, %rax
    pushq %rax
    movq -96(%rbp), %rax
    pushq %rax
    movzwq L_BANCHOR_PILLAR_BRANCH(%rip), %rax
    pushq %rax
    movabsq $0x0, %rax
    pushq %rax
    movabsq $0x0, %rax
    pushq %rax
    movq -48(%rbp), %rax
    pushq %rax
    movq -40(%rbp), %rax
    pushq %rax
    movq -32(%rbp), %rax
    pushq %rax
    movq -80(%rbp), %rax
    pushq %rax
    popq %rcx
    popq %rdx
    popq %r8
    popq %r9
    subq $32, %rsp
    callq wh_publish
    addq $32, %rsp
    addq $64, %rsp
    pushq %rax
    popq %rax
    movq %rax, -104(%rbp)
    movq -104(%rbp), %rax
    pushq %rax
    movq L_BANCHOR_U64_SENT(%rip), %rax
    pushq %rax
    popq %rcx
    popq %rax
    cmpq %rcx, %rax
    sete %al
    movzbq %al, %rax
    pushq %rax
    popq %rax
    testq %rax, %rax
    jz L_if_end_21
    movslq L_BANCHOR_E_EMIT(%rip), %rax
    pushq %rax
    popq %rax
    movq %rbp, %rsp
    popq %rbp
    retq
    movq $0, %rax
    pushq %rax
    popq %rax
L_if_end_21:
    movslq L_BANCHOR_OK(%rip), %rax
    pushq %rax
    popq %rax
    movq %rbp, %rsp
    popq %rbp
    retq
    movq $0, %rax
    pushq %rax
    movq $0, %rax
    movq %rbp, %rsp
    popq %rbp
    retq
    .seh_endproc
    .section .iii.ring3,"n"
    .asciz "ba_emit_merge_fragment"
    .text
    .seh_proc L_ba_emit_merge_fragment
L_ba_emit_merge_fragment:
    pushq %rbp
    .seh_pushreg %rbp
    movq %rsp, %rbp
    .seh_setframe %rbp, 0
    subq $1024, %rsp
    .seh_stackalloc 1024
    .seh_endprologue
    movq %rcx, -8(%rbp)
    movq %rdx, -16(%rbp)
    leaq L_BANCHOR_MERGE_PAYLOAD(%rip), %rax
    pushq %rax
    movabsq $0x0, %rax
    pushq %rax
    movzbq L_BANCHOR_KIND_E3(%rip), %rax
    pushq %rax
    popq %rdx
    popq %rcx
    popq %rax
    movb %dl, (%rax,%rcx,1)
    leaq L_BANCHOR_MERGE_PAYLOAD(%rip), %rax
    pushq %rax
    movabsq $0x1, %rax
    pushq %rax
    movzbq L_BANCHOR_KIND_MERGE(%rip), %rax
    pushq %rax
    popq %rdx
    popq %rcx
    popq %rax
    movb %dl, (%rax,%rcx,1)
    leaq L_BANCHOR_MERGE_PAYLOAD(%rip), %rax
    pushq %rax
    movabsq $0x2, %rax
    pushq %rax
    movabsq $0x0, %rax
    pushq %rax
    popq %rdx
    popq %rcx
    popq %rax
    movb %dl, (%rax,%rcx,1)
    leaq L_BANCHOR_MERGE_PAYLOAD(%rip), %rax
    pushq %rax
    movabsq $0x3, %rax
    pushq %rax
    movabsq $0x0, %rax
    pushq %rax
    popq %rdx
    popq %rcx
    popq %rax
    movb %dl, (%rax,%rcx,1)
    leaq L_BANCHOR_MERGE_PAYLOAD(%rip), %rax
    pushq %rax
    movabsq $0x4, %rax
    pushq %rax
    movabsq $0x0, %rax
    pushq %rax
    popq %rdx
    popq %rcx
    popq %rax
    movb %dl, (%rax,%rcx,1)
    leaq L_BANCHOR_MERGE_PAYLOAD(%rip), %rax
    pushq %rax
    movabsq $0x5, %rax
    pushq %rax
    movabsq $0x0, %rax
    pushq %rax
    popq %rdx
    popq %rcx
    popq %rax
    movb %dl, (%rax,%rcx,1)
    leaq L_BANCHOR_MERGE_PAYLOAD(%rip), %rax
    pushq %rax
    movabsq $0x6, %rax
    pushq %rax
    movabsq $0x0, %rax
    pushq %rax
    popq %rdx
    popq %rcx
    popq %rax
    movb %dl, (%rax,%rcx,1)
    leaq L_BANCHOR_MERGE_PAYLOAD(%rip), %rax
    pushq %rax
    movabsq $0x7, %rax
    pushq %rax
    movabsq $0x0, %rax
    pushq %rax
    popq %rdx
    popq %rcx
    popq %rax
    movb %dl, (%rax,%rcx,1)
    movabsq $0x0, %rax
    pushq %rax
    popq %rax
    movq %rax, -24(%rbp)
L_loop_top_22:
    movq -24(%rbp), %rax
    pushq %rax
    movabsq $0x20, %rax
    pushq %rax
    popq %rcx
    popq %rax
    cmpq %rcx, %rax
    setb %al
    movzbq %al, %rax
    pushq %rax
    popq %rax
    testq %rax, %rax
    jz L_loop_end_23
    leaq L_BANCHOR_MERGE_PAYLOAD(%rip), %rax
    pushq %rax
    movabsq $0x8, %rax
    pushq %rax
    movq -24(%rbp), %rax
    pushq %rax
    popq %rcx
    popq %rax
    addq %rcx, %rax
    pushq %rax
    movq -8(%rbp), %rax
    pushq %rax
    movq -24(%rbp), %rax
    pushq %rax
    popq %rcx
    popq %rax
    movzbq (%rax,%rcx,1), %rax
    pushq %rax
    popq %rdx
    popq %rcx
    popq %rax
    movb %dl, (%rax,%rcx,1)
    movq -24(%rbp), %rax
    pushq %rax
    movabsq $0x1, %rax
    pushq %rax
    popq %rcx
    popq %rax
    addq %rcx, %rax
    pushq %rax
    popq %rax
    movq %rax, -24(%rbp)
    movq $0, %rax
    pushq %rax
    popq %rax
    jmp L_loop_top_22
L_loop_end_23:
    leaq L_BANCHOR_ZERO_ID(%rip), %rax
    pushq %rax
    popq %rax
    pushq %rax
    popq %rax
    pushq %rax
    popq %rax
    movq %rax, -32(%rbp)
    leaq L_BANCHOR_MERGE_PAYLOAD(%rip), %rax
    pushq %rax
    popq %rax
    pushq %rax
    popq %rax
    pushq %rax
    popq %rax
    movq %rax, -40(%rbp)
    leaq L_BANCHOR_ZERO_ID(%rip), %rax
    pushq %rax
    popq %rax
    pushq %rax
    popq %rax
    pushq %rax
    popq %rax
    movq %rax, -48(%rbp)
    movq -16(%rbp), %rax
    pushq %rax
    movabsq $0x28, %rax
    pushq %rax
    movq -40(%rbp), %rax
    pushq %rax
    movabsq $0x0, %rax
    pushq %rax
    movq -48(%rbp), %rax
    pushq %rax
    movabsq $0x0, %rax
    pushq %rax
    movabsq $0x0, %rax
    pushq %rax
    movabsq $0x0, %rax
    pushq %rax
    movq -32(%rbp), %rax
    pushq %rax
    movq -32(%rbp), %rax
    pushq %rax
    movq -32(%rbp), %rax
    pushq %rax
    movq -32(%rbp), %rax
    pushq %rax
    popq %rcx
    popq %rdx
    popq %r8
    popq %r9
    subq $32, %rsp
    callq wh_publish
    addq $32, %rsp
    addq $64, %rsp
    pushq %rax
    popq %rax
    movq %rax, -56(%rbp)
    movq -56(%rbp), %rax
    pushq %rax
    movq L_BANCHOR_U64_SENT(%rip), %rax
    pushq %rax
    popq %rcx
    popq %rax
    cmpq %rcx, %rax
    sete %al
    movzbq %al, %rax
    pushq %rax
    popq %rax
    testq %rax, %rax
    jz L_if_end_25
    movslq L_BANCHOR_E_EMIT(%rip), %rax
    pushq %rax
    popq %rax
    movq %rbp, %rsp
    popq %rbp
    retq
    movq $0, %rax
    pushq %rax
    popq %rax
L_if_end_25:
    movslq L_BANCHOR_OK(%rip), %rax
    pushq %rax
    popq %rax
    movq %rbp, %rsp
    popq %rbp
    retq
    movq $0, %rax
    pushq %rax
    movq $0, %rax
    movq %rbp, %rsp
    popq %rbp
    retq
    .seh_endproc
    .section .iii.ring3,"n"
    .asciz "ba_init"
    .text
    .global ba_init
    .seh_proc ba_init
ba_init:
    pushq %rbp
    .seh_pushreg %rbp
    movq %rsp, %rbp
    .seh_setframe %rbp, 0
    subq $1024, %rsp
    .seh_stackalloc 1024
    .seh_endprologue
    movzbq L_BANCHOR_INITED(%rip), %rax
    pushq %rax
    movabsq $0x1, %rax
    pushq %rax
    popq %rcx
    popq %rax
    cmpq %rcx, %rax
    sete %al
    movzbq %al, %rax
    pushq %rax
    popq %rax
    testq %rax, %rax
    jz L_if_end_27
    movslq L_BANCHOR_OK(%rip), %rax
    pushq %rax
    popq %rax
    movq %rbp, %rsp
    popq %rbp
    retq
    movq $0, %rax
    pushq %rax
    popq %rax
L_if_end_27:
    movabsq $0x0, %rax
    pushq %rax
    popq %rax
    movq %rax, -8(%rbp)
L_loop_top_28:
    movq -8(%rbp), %rax
    pushq %rax
    movq L_BANCHOR_BRANCH_SLOTS(%rip), %rax
    pushq %rax
    popq %rcx
    popq %rax
    cmpq %rcx, %rax
    setb %al
    movzbq %al, %rax
    pushq %rax
    popq %rax
    testq %rax, %rax
    jz L_loop_end_29
    leaq L_BANCHOR_BRANCH_LIVE(%rip), %rax
    pushq %rax
    movq -8(%rbp), %rax
    pushq %rax
    movabsq $0x0, %rax
    pushq %rax
    popq %rdx
    popq %rcx
    popq %rax
    movb %dl, (%rax,%rcx,1)
    leaq L_BANCHOR_BRANCH_RETIRED(%rip), %rax
    pushq %rax
    movq -8(%rbp), %rax
    pushq %rax
    movabsq $0x0, %rax
    pushq %rax
    popq %rdx
    popq %rcx
    popq %rax
    movb %dl, (%rax,%rcx,1)
    movq -8(%rbp), %rax
    pushq %rax
    movabsq $0x1, %rax
    pushq %rax
    popq %rcx
    popq %rax
    addq %rcx, %rax
    pushq %rax
    popq %rax
    movq %rax, -8(%rbp)
    movq $0, %rax
    pushq %rax
    popq %rax
    jmp L_loop_top_28
L_loop_end_29:
    movabsq $0x0, %rax
    pushq %rax
    popq %rax
    movq %rax, -16(%rbp)
L_loop_top_30:
    movq -16(%rbp), %rax
    pushq %rax
    movq L_BANCHOR_PROPOSAL_SLOTS(%rip), %rax
    pushq %rax
    popq %rcx
    popq %rax
    cmpq %rcx, %rax
    setb %al
    movzbq %al, %rax
    pushq %rax
    popq %rax
    testq %rax, %rax
    jz L_loop_end_31
    leaq L_BANCHOR_PROPOSAL_LIVE(%rip), %rax
    pushq %rax
    movq -16(%rbp), %rax
    pushq %rax
    movabsq $0x0, %rax
    pushq %rax
    popq %rdx
    popq %rcx
    popq %rax
    movb %dl, (%rax,%rcx,1)
    leaq L_BANCHOR_PROPOSAL_VERIFIED(%rip), %rax
    pushq %rax
    movq -16(%rbp), %rax
    pushq %rax
    movabsq $0x0, %rax
    pushq %rax
    popq %rdx
    popq %rcx
    popq %rax
    movb %dl, (%rax,%rcx,1)
    movq -16(%rbp), %rax
    pushq %rax
    movabsq $0x1, %rax
    pushq %rax
    popq %rcx
    popq %rax
    addq %rcx, %rax
    pushq %rax
    popq %rax
    movq %rax, -16(%rbp)
    movq $0, %rax
    pushq %rax
    popq %rax
    jmp L_loop_top_30
L_loop_end_31:
    movabsq $0x0, %rax
    pushq %rax
    popq %rax
    movq %rax, L_BANCHOR_BRANCH_COUNT(%rip)
    leaq L_BANCHOR_ZERO_ID(%rip), %rax
    pushq %rax
    popq %rax
    pushq %rax
    popq %rax
    pushq %rax
    popq %rcx
    subq $32, %rsp
    callq ident_zero
    addq $32, %rsp
    movslq %eax, %rax
    pushq %rax
    popq %rax
    leaq L_BANCHOR_RETIRE_LABEL(%rip), %rax
    pushq %rax
    movabsq $0x0, %rax
    pushq %rax
    movabsq $0x63, %rax
    pushq %rax
    popq %rdx
    popq %rcx
    popq %rax
    movb %dl, (%rax,%rcx,1)
    leaq L_BANCHOR_RETIRE_LABEL(%rip), %rax
    pushq %rax
    movabsq $0x1, %rax
    pushq %rax
    movabsq $0x70, %rax
    pushq %rax
    popq %rdx
    popq %rcx
    popq %rax
    movb %dl, (%rax,%rcx,1)
    leaq L_BANCHOR_RETIRE_LABEL(%rip), %rax
    pushq %rax
    movabsq $0x2, %rax
    pushq %rax
    movabsq $0x5f, %rax
    pushq %rax
    popq %rdx
    popq %rcx
    popq %rax
    movb %dl, (%rax,%rcx,1)
    leaq L_BANCHOR_RETIRE_LABEL(%rip), %rax
    pushq %rax
    movabsq $0x3, %rax
    pushq %rax
    movabsq $0x62, %rax
    pushq %rax
    popq %rdx
    popq %rcx
    popq %rax
    movb %dl, (%rax,%rcx,1)
    leaq L_BANCHOR_RETIRE_LABEL(%rip), %rax
    pushq %rax
    movabsq $0x4, %rax
    pushq %rax
    movabsq $0x72, %rax
    pushq %rax
    popq %rdx
    popq %rcx
    popq %rax
    movb %dl, (%rax,%rcx,1)
    leaq L_BANCHOR_RETIRE_LABEL(%rip), %rax
    pushq %rax
    movabsq $0x5, %rax
    pushq %rax
    movabsq $0x61, %rax
    pushq %rax
    popq %rdx
    popq %rcx
    popq %rax
    movb %dl, (%rax,%rcx,1)
    leaq L_BANCHOR_RETIRE_LABEL(%rip), %rax
    pushq %rax
    movabsq $0x6, %rax
    pushq %rax
    movabsq $0x6e, %rax
    pushq %rax
    popq %rdx
    popq %rcx
    popq %rax
    movb %dl, (%rax,%rcx,1)
    leaq L_BANCHOR_RETIRE_LABEL(%rip), %rax
    pushq %rax
    movabsq $0x7, %rax
    pushq %rax
    movabsq $0x63, %rax
    pushq %rax
    popq %rdx
    popq %rcx
    popq %rax
    movb %dl, (%rax,%rcx,1)
    leaq L_BANCHOR_RETIRE_LABEL(%rip), %rax
    pushq %rax
    movabsq $0x8, %rax
    pushq %rax
    movabsq $0x68, %rax
    pushq %rax
    popq %rdx
    popq %rcx
    popq %rax
    movb %dl, (%rax,%rcx,1)
    leaq L_BANCHOR_RETIRE_LABEL(%rip), %rax
    pushq %rax
    movabsq $0x9, %rax
    pushq %rax
    movabsq $0x5f, %rax
    pushq %rax
    popq %rdx
    popq %rcx
    popq %rax
    movb %dl, (%rax,%rcx,1)
    leaq L_BANCHOR_RETIRE_LABEL(%rip), %rax
    pushq %rax
    movabsq $0xa, %rax
    pushq %rax
    movabsq $0x72, %rax
    pushq %rax
    popq %rdx
    popq %rcx
    popq %rax
    movb %dl, (%rax,%rcx,1)
    leaq L_BANCHOR_RETIRE_LABEL(%rip), %rax
    pushq %rax
    movabsq $0xb, %rax
    pushq %rax
    movabsq $0x65, %rax
    pushq %rax
    popq %rdx
    popq %rcx
    popq %rax
    movb %dl, (%rax,%rcx,1)
    leaq L_BANCHOR_RETIRE_LABEL(%rip), %rax
    pushq %rax
    movabsq $0xc, %rax
    pushq %rax
    movabsq $0x74, %rax
    pushq %rax
    popq %rdx
    popq %rcx
    popq %rax
    movb %dl, (%rax,%rcx,1)
    leaq L_BANCHOR_RETIRE_LABEL(%rip), %rax
    pushq %rax
    movabsq $0xd, %rax
    pushq %rax
    movabsq $0x69, %rax
    pushq %rax
    popq %rdx
    popq %rcx
    popq %rax
    movb %dl, (%rax,%rcx,1)
    leaq L_BANCHOR_RETIRE_LABEL(%rip), %rax
    pushq %rax
    movabsq $0xe, %rax
    pushq %rax
    movabsq $0x72, %rax
    pushq %rax
    popq %rdx
    popq %rcx
    popq %rax
    movb %dl, (%rax,%rcx,1)
    leaq L_BANCHOR_RETIRE_LABEL(%rip), %rax
    pushq %rax
    movabsq $0xf, %rax
    pushq %rax
    movabsq $0x65, %rax
    pushq %rax
    popq %rdx
    popq %rcx
    popq %rax
    movb %dl, (%rax,%rcx,1)
    leaq L_BANCHOR_RETIRE_LABEL(%rip), %rax
    pushq %rax
    popq %rax
    pushq %rax
    popq %rax
    pushq %rax
    popq %rax
    movq %rax, -24(%rbp)
    leaq L_BANCHOR_RETIRE_CID(%rip), %rax
    pushq %rax
    popq %rax
    pushq %rax
    popq %rax
    pushq %rax
    popq %rax
    movq %rax, -32(%rbp)
    movq -32(%rbp), %rax
    pushq %rax
    movabsq $0x10, %rax
    pushq %rax
    movq -24(%rbp), %rax
    pushq %rax
    popq %rcx
    popq %rdx
    popq %r8
    subq $32, %rsp
    callq ident_from_bytes
    addq $32, %rsp
    movslq %eax, %rax
    pushq %rax
    popq %rax
    leaq L_BANCHOR_MERGE_LABEL(%rip), %rax
    pushq %rax
    movabsq $0x0, %rax
    pushq %rax
    movabsq $0x63, %rax
    pushq %rax
    popq %rdx
    popq %rcx
    popq %rax
    movb %dl, (%rax,%rcx,1)
    leaq L_BANCHOR_MERGE_LABEL(%rip), %rax
    pushq %rax
    movabsq $0x1, %rax
    pushq %rax
    movabsq $0x70, %rax
    pushq %rax
    popq %rdx
    popq %rcx
    popq %rax
    movb %dl, (%rax,%rcx,1)
    leaq L_BANCHOR_MERGE_LABEL(%rip), %rax
    pushq %rax
    movabsq $0x2, %rax
    pushq %rax
    movabsq $0x5f, %rax
    pushq %rax
    popq %rdx
    popq %rcx
    popq %rax
    movb %dl, (%rax,%rcx,1)
    leaq L_BANCHOR_MERGE_LABEL(%rip), %rax
    pushq %rax
    movabsq $0x3, %rax
    pushq %rax
    movabsq $0x62, %rax
    pushq %rax
    popq %rdx
    popq %rcx
    popq %rax
    movb %dl, (%rax,%rcx,1)
    leaq L_BANCHOR_MERGE_LABEL(%rip), %rax
    pushq %rax
    movabsq $0x4, %rax
    pushq %rax
    movabsq $0x72, %rax
    pushq %rax
    popq %rdx
    popq %rcx
    popq %rax
    movb %dl, (%rax,%rcx,1)
    leaq L_BANCHOR_MERGE_LABEL(%rip), %rax
    pushq %rax
    movabsq $0x5, %rax
    pushq %rax
    movabsq $0x61, %rax
    pushq %rax
    popq %rdx
    popq %rcx
    popq %rax
    movb %dl, (%rax,%rcx,1)
    leaq L_BANCHOR_MERGE_LABEL(%rip), %rax
    pushq %rax
    movabsq $0x6, %rax
    pushq %rax
    movabsq $0x6e, %rax
    pushq %rax
    popq %rdx
    popq %rcx
    popq %rax
    movb %dl, (%rax,%rcx,1)
    leaq L_BANCHOR_MERGE_LABEL(%rip), %rax
    pushq %rax
    movabsq $0x7, %rax
    pushq %rax
    movabsq $0x63, %rax
    pushq %rax
    popq %rdx
    popq %rcx
    popq %rax
    movb %dl, (%rax,%rcx,1)
    leaq L_BANCHOR_MERGE_LABEL(%rip), %rax
    pushq %rax
    movabsq $0x8, %rax
    pushq %rax
    movabsq $0x68, %rax
    pushq %rax
    popq %rdx
    popq %rcx
    popq %rax
    movb %dl, (%rax,%rcx,1)
    leaq L_BANCHOR_MERGE_LABEL(%rip), %rax
    pushq %rax
    movabsq $0x9, %rax
    pushq %rax
    movabsq $0x5f, %rax
    pushq %rax
    popq %rdx
    popq %rcx
    popq %rax
    movb %dl, (%rax,%rcx,1)
    leaq L_BANCHOR_MERGE_LABEL(%rip), %rax
    pushq %rax
    movabsq $0xa, %rax
    pushq %rax
    movabsq $0x6d, %rax
    pushq %rax
    popq %rdx
    popq %rcx
    popq %rax
    movb %dl, (%rax,%rcx,1)
    leaq L_BANCHOR_MERGE_LABEL(%rip), %rax
    pushq %rax
    movabsq $0xb, %rax
    pushq %rax
    movabsq $0x65, %rax
    pushq %rax
    popq %rdx
    popq %rcx
    popq %rax
    movb %dl, (%rax,%rcx,1)
    leaq L_BANCHOR_MERGE_LABEL(%rip), %rax
    pushq %rax
    movabsq $0xc, %rax
    pushq %rax
    movabsq $0x72, %rax
    pushq %rax
    popq %rdx
    popq %rcx
    popq %rax
    movb %dl, (%rax,%rcx,1)
    leaq L_BANCHOR_MERGE_LABEL(%rip), %rax
    pushq %rax
    movabsq $0xd, %rax
    pushq %rax
    movabsq $0x67, %rax
    pushq %rax
    popq %rdx
    popq %rcx
    popq %rax
    movb %dl, (%rax,%rcx,1)
    leaq L_BANCHOR_MERGE_LABEL(%rip), %rax
    pushq %rax
    movabsq $0xe, %rax
    pushq %rax
    movabsq $0x65, %rax
    pushq %rax
    popq %rdx
    popq %rcx
    popq %rax
    movb %dl, (%rax,%rcx,1)
    leaq L_BANCHOR_MERGE_LABEL(%rip), %rax
    pushq %rax
    movabsq $0xf, %rax
    pushq %rax
    movabsq $0x5f, %rax
    pushq %rax
    popq %rdx
    popq %rcx
    popq %rax
    movb %dl, (%rax,%rcx,1)
    leaq L_BANCHOR_MERGE_LABEL(%rip), %rax
    pushq %rax
    popq %rax
    pushq %rax
    popq %rax
    pushq %rax
    popq %rax
    movq %rax, -40(%rbp)
    leaq L_BANCHOR_MERGE_CID(%rip), %rax
    pushq %rax
    popq %rax
    pushq %rax
    popq %rax
    pushq %rax
    popq %rax
    movq %rax, -48(%rbp)
    movq -48(%rbp), %rax
    pushq %rax
    movabsq $0x10, %rax
    pushq %rax
    movq -40(%rbp), %rax
    pushq %rax
    popq %rcx
    popq %rdx
    popq %r8
    subq $32, %rsp
    callq ident_from_bytes
    addq $32, %rsp
    movslq %eax, %rax
    pushq %rax
    popq %rax
    movabsq $0x1, %rax
    pushq %rax
    popq %rax
    movb %al, L_BANCHOR_INITED(%rip)
    movslq L_BANCHOR_OK(%rip), %rax
    pushq %rax
    popq %rax
    movq %rbp, %rsp
    popq %rbp
    retq
    movq $0, %rax
    pushq %rax
    movq $0, %rax
    movq %rbp, %rsp
    popq %rbp
    retq
    .seh_endproc
    .section .iii.ring3,"n"
    .asciz "ba_construct"
    .text
    .global ba_construct
    .seh_proc ba_construct
ba_construct:
    pushq %rbp
    .seh_pushreg %rbp
    movq %rsp, %rbp
    .seh_setframe %rbp, 0
    subq $1024, %rsp
    .seh_stackalloc 1024
    .seh_endprologue
    movq %rcx, -8(%rbp)
    movq %rdx, -16(%rbp)
    movzbq L_BANCHOR_INITED(%rip), %rax
    pushq %rax
    movabsq $0x0, %rax
    pushq %rax
    popq %rcx
    popq %rax
    cmpq %rcx, %rax
    sete %al
    movzbq %al, %rax
    pushq %rax
    popq %rax
    testq %rax, %rax
    jz L_if_end_33
    movslq L_BANCHOR_E_NOT_INITED(%rip), %rax
    pushq %rax
    popq %rax
    movq %rbp, %rsp
    popq %rbp
    retq
    movq $0, %rax
    pushq %rax
    popq %rax
L_if_end_33:
    movq -8(%rbp), %rax
    pushq %rax
    popq %rax
    pushq %rax
    movabsq $0x0, %rax
    pushq %rax
    popq %rcx
    popq %rax
    cmpq %rcx, %rax
    sete %al
    movzbq %al, %rax
    pushq %rax
    popq %rax
    testq %rax, %rax
    jz L_if_end_35
    movslq L_BANCHOR_E_NULL(%rip), %rax
    pushq %rax
    popq %rax
    movq %rbp, %rsp
    popq %rbp
    retq
    movq $0, %rax
    pushq %rax
    popq %rax
L_if_end_35:
    movq -16(%rbp), %rax
    pushq %rax
    popq %rax
    pushq %rax
    movabsq $0x0, %rax
    pushq %rax
    popq %rcx
    popq %rax
    cmpq %rcx, %rax
    sete %al
    movzbq %al, %rax
    pushq %rax
    popq %rax
    testq %rax, %rax
    jz L_if_end_37
    movslq L_BANCHOR_E_NULL(%rip), %rax
    pushq %rax
    popq %rax
    movq %rbp, %rsp
    popq %rbp
    retq
    movq $0, %rax
    pushq %rax
    popq %rax
L_if_end_37:
    leaq L_BANCHOR_CLAUSE_SCRATCH(%rip), %rax
    pushq %rax
    popq %rax
    pushq %rax
    popq %rax
    pushq %rax
    popq %rax
    movq %rax, -24(%rbp)
    movq -24(%rbp), %rax
    pushq %rax
    movq -8(%rbp), %rax
    pushq %rax
    popq %rcx
    popq %rdx
    subq $32, %rsp
    callq cg_anchor_query
    addq $32, %rsp
    movslq %eax, %rax
    pushq %rax
    popq %rax
    movq %rax, -32(%rbp)
    movslq -32(%rbp), %rax
    pushq %rax
    movabsq $0x0, %rax
    pushq %rax
    popq %rcx
    popq %rax
    cmpq %rcx, %rax
    setne %al
    movzbq %al, %rax
    pushq %rax
    popq %rax
    testq %rax, %rax
    jz L_if_end_39
    movslq L_BANCHOR_E_NOT_ANCHOR(%rip), %rax
    pushq %rax
    popq %rax
    movq %rbp, %rsp
    popq %rbp
    retq
    movq $0, %rax
    pushq %rax
    popq %rax
L_if_end_39:
    movabsq $0x0, %rax
    pushq %rax
    popq %rax
    movq %rax, -40(%rbp)
    movabsq $0x1, %rax
    pushq %rax
    popq %rax
    negq %rax
    pushq %rax
    popq %rax
    movq %rax, -48(%rbp)
    movabsq $0x0, %rax
    pushq %rax
    popq %rax
    movq %rax, -56(%rbp)
L_loop_top_40:
    movq -40(%rbp), %rax
    pushq %rax
    movq L_BANCHOR_BRANCH_SLOTS(%rip), %rax
    pushq %rax
    popq %rcx
    popq %rax
    cmpq %rcx, %rax
    setb %al
    movzbq %al, %rax
    pushq %rax
    popq %rax
    testq %rax, %rax
    jz L_loop_end_41
    movzbq -56(%rbp), %rax
    pushq %rax
    movabsq $0x0, %rax
    pushq %rax
    popq %rcx
    popq %rax
    cmpq %rcx, %rax
    sete %al
    movzbq %al, %rax
    pushq %rax
    popq %rax
    testq %rax, %rax
    jz L_if_end_43
    leaq L_BANCHOR_BRANCH_LIVE(%rip), %rax
    pushq %rax
    movq -40(%rbp), %rax
    pushq %rax
    popq %rcx
    popq %rax
    movzbq (%rax,%rcx,1), %rax
    pushq %rax
    movabsq $0x0, %rax
    pushq %rax
    popq %rcx
    popq %rax
    cmpq %rcx, %rax
    sete %al
    movzbq %al, %rax
    pushq %rax
    popq %rax
    testq %rax, %rax
    jz L_if_end_45
    movq -40(%rbp), %rax
    pushq %rax
    popq %rax
    pushq %rax
    popq %rax
    movq %rax, -48(%rbp)
    movabsq $0x1, %rax
    pushq %rax
    popq %rax
    movq %rax, -56(%rbp)
    movq $0, %rax
    pushq %rax
    popq %rax
L_if_end_45:
    movq $0, %rax
    pushq %rax
    popq %rax
L_if_end_43:
    movq -40(%rbp), %rax
    pushq %rax
    movabsq $0x1, %rax
    pushq %rax
    popq %rcx
    popq %rax
    addq %rcx, %rax
    pushq %rax
    popq %rax
    movq %rax, -40(%rbp)
    movq $0, %rax
    pushq %rax
    popq %rax
    jmp L_loop_top_40
L_loop_end_41:
    movq -48(%rbp), %rax
    pushq %rax
    movabsq $0x1, %rax
    pushq %rax
    popq %rax
    negq %rax
    pushq %rax
    popq %rcx
    popq %rax
    cmpq %rcx, %rax
    sete %al
    movzbq %al, %rax
    pushq %rax
    popq %rax
    testq %rax, %rax
    jz L_if_end_47
    movslq L_BANCHOR_E_INDEX_FULL(%rip), %rax
    pushq %rax
    popq %rax
    movq %rbp, %rsp
    popq %rbp
    retq
    movq $0, %rax
    pushq %rax
    popq %rax
L_if_end_47:
    subq $32, %rsp
    callq at_current
    addq $32, %rsp
    pushq %rax
    popq %rax
    movq %rax, -64(%rbp)
    leaq L_BANCHOR_TIME_BUF(%rip), %rax
    pushq %rax
    popq %rax
    pushq %rax
    popq %rax
    pushq %rax
    popq %rax
    movq %rax, -72(%rbp)
    movq -72(%rbp), %rax
    pushq %rax
    movq -64(%rbp), %rax
    pushq %rax
    popq %rcx
    popq %rdx
    subq $32, %rsp
    callq ident_encode_u64
    addq $32, %rsp
    movslq %eax, %rax
    pushq %rax
    popq %rax
    movabsq $0x0, %rax
    pushq %rax
    popq %rax
    movq %rax, -80(%rbp)
L_loop_top_48:
    movq -80(%rbp), %rax
    pushq %rax
    movabsq $0x20, %rax
    pushq %rax
    popq %rcx
    popq %rax
    cmpq %rcx, %rax
    setb %al
    movzbq %al, %rax
    pushq %rax
    popq %rax
    testq %rax, %rax
    jz L_loop_end_49
    leaq L_BANCHOR_SEED_BUF(%rip), %rax
    pushq %rax
    movq -80(%rbp), %rax
    pushq %rax
    movq -8(%rbp), %rax
    pushq %rax
    movq -80(%rbp), %rax
    pushq %rax
    popq %rcx
    popq %rax
    movzbq (%rax,%rcx,1), %rax
    pushq %rax
    popq %rdx
    popq %rcx
    popq %rax
    movb %dl, (%rax,%rcx,1)
    leaq L_BANCHOR_SEED_BUF(%rip), %rax
    pushq %rax
    movabsq $0x20, %rax
    pushq %rax
    movq -80(%rbp), %rax
    pushq %rax
    popq %rcx
    popq %rax
    addq %rcx, %rax
    pushq %rax
    leaq L_BANCHOR_TIME_BUF(%rip), %rax
    pushq %rax
    movq -80(%rbp), %rax
    pushq %rax
    popq %rcx
    popq %rax
    movzbq (%rax,%rcx,1), %rax
    pushq %rax
    popq %rdx
    popq %rcx
    popq %rax
    movb %dl, (%rax,%rcx,1)
    movq -80(%rbp), %rax
    pushq %rax
    movabsq $0x1, %rax
    pushq %rax
    popq %rcx
    popq %rax
    addq %rcx, %rax
    pushq %rax
    popq %rax
    movq %rax, -80(%rbp)
    movq $0, %rax
    pushq %rax
    popq %rax
    jmp L_loop_top_48
L_loop_end_49:
    leaq L_BANCHOR_SEED_BUF(%rip), %rax
    pushq %rax
    popq %rax
    pushq %rax
    popq %rax
    pushq %rax
    popq %rax
    movq %rax, -88(%rbp)
    movq -16(%rbp), %rax
    pushq %rax
    movabsq $0x40, %rax
    pushq %rax
    movq -88(%rbp), %rax
    pushq %rax
    popq %rcx
    popq %rdx
    popq %r8
    subq $32, %rsp
    callq ident_from_bytes
    addq $32, %rsp
    movslq %eax, %rax
    pushq %rax
    popq %rax
    movq -48(%rbp), %rax
    pushq %rax
    popq %rax
    pushq %rax
    popq %rax
    movq %rax, -96(%rbp)
    movq -96(%rbp), %rax
    pushq %rax
    popq %rcx
    subq $32, %rsp
    callq L_ba_branch_ptr
    addq $32, %rsp
    pushq %rax
    popq %rax
    pushq %rax
    movq -16(%rbp), %rax
    pushq %rax
    popq %rcx
    popq %rdx
    subq $32, %rsp
    callq ident_copy
    addq $32, %rsp
    movslq %eax, %rax
    pushq %rax
    popq %rax
    movq -96(%rbp), %rax
    pushq %rax
    popq %rcx
    subq $32, %rsp
    callq L_ba_branch_anchor_ptr
    addq $32, %rsp
    pushq %rax
    popq %rax
    pushq %rax
    movq -8(%rbp), %rax
    pushq %rax
    popq %rcx
    popq %rdx
    subq $32, %rsp
    callq ident_copy
    addq $32, %rsp
    movslq %eax, %rax
    pushq %rax
    popq %rax
    movq -96(%rbp), %rax
    pushq %rax
    popq %rcx
    subq $32, %rsp
    callq L_ba_branch_head_ptr
    addq $32, %rsp
    pushq %rax
    popq %rax
    pushq %rax
    movq -8(%rbp), %rax
    pushq %rax
    popq %rcx
    popq %rdx
    subq $32, %rsp
    callq ident_copy
    addq $32, %rsp
    movslq %eax, %rax
    pushq %rax
    popq %rax
    leaq L_BANCHOR_BRANCH_LIVE(%rip), %rax
    pushq %rax
    movq -96(%rbp), %rax
    pushq %rax
    movabsq $0x1, %rax
    pushq %rax
    popq %rdx
    popq %rcx
    popq %rax
    movb %dl, (%rax,%rcx,1)
    leaq L_BANCHOR_BRANCH_RETIRED(%rip), %rax
    pushq %rax
    movq -96(%rbp), %rax
    pushq %rax
    movabsq $0x0, %rax
    pushq %rax
    popq %rdx
    popq %rcx
    popq %rax
    movb %dl, (%rax,%rcx,1)
    movq L_BANCHOR_BRANCH_COUNT(%rip), %rax
    pushq %rax
    movabsq $0x1, %rax
    pushq %rax
    popq %rcx
    popq %rax
    addq %rcx, %rax
    pushq %rax
    popq %rax
    movq %rax, L_BANCHOR_BRANCH_COUNT(%rip)
    movslq L_BANCHOR_OK(%rip), %rax
    pushq %rax
    popq %rax
    movq %rbp, %rsp
    popq %rbp
    retq
    movq $0, %rax
    pushq %rax
    movq $0, %rax
    movq %rbp, %rsp
    popq %rbp
    retq
    .seh_endproc
    .section .iii.ring3,"n"
    .asciz "ba_append"
    .text
    .global ba_append
    .seh_proc ba_append
ba_append:
    pushq %rbp
    .seh_pushreg %rbp
    movq %rsp, %rbp
    .seh_setframe %rbp, 0
    subq $1024, %rsp
    .seh_stackalloc 1024
    .seh_endprologue
    movq %rcx, -8(%rbp)
    movzbq L_BANCHOR_INITED(%rip), %rax
    pushq %rax
    movabsq $0x0, %rax
    pushq %rax
    popq %rcx
    popq %rax
    cmpq %rcx, %rax
    sete %al
    movzbq %al, %rax
    pushq %rax
    popq %rax
    testq %rax, %rax
    jz L_if_end_51
    movslq L_BANCHOR_E_NOT_INITED(%rip), %rax
    pushq %rax
    popq %rax
    movq %rbp, %rsp
    popq %rbp
    retq
    movq $0, %rax
    pushq %rax
    popq %rax
L_if_end_51:
    movq -8(%rbp), %rax
    pushq %rax
    popq %rax
    pushq %rax
    movabsq $0x0, %rax
    pushq %rax
    popq %rcx
    popq %rax
    cmpq %rcx, %rax
    sete %al
    movzbq %al, %rax
    pushq %rax
    popq %rax
    testq %rax, %rax
    jz L_if_end_53
    movslq L_BANCHOR_E_NULL(%rip), %rax
    pushq %rax
    popq %rax
    movq %rbp, %rsp
    popq %rbp
    retq
    movq $0, %rax
    pushq %rax
    popq %rax
L_if_end_53:
    movq -8(%rbp), %rax
    pushq %rax
    popq %rax
    pushq %rax
    popq %rax
    pushq %rax
    popq %rax
    movq %rax, -16(%rbp)
    movq -16(%rbp), %rax
    pushq %rax
    popq %rcx
    subq $32, %rsp
    callq L_ba_branch_slot
    addq $32, %rsp
    pushq %rax
    popq %rax
    movq %rax, -24(%rbp)
    movq -24(%rbp), %rax
    pushq %rax
    movabsq $0x1, %rax
    pushq %rax
    popq %rax
    negq %rax
    pushq %rax
    popq %rcx
    popq %rax
    cmpq %rcx, %rax
    sete %al
    movzbq %al, %rax
    pushq %rax
    popq %rax
    testq %rax, %rax
    jz L_if_end_55
    movslq L_BANCHOR_E_BRANCH_ABSENT(%rip), %rax
    pushq %rax
    popq %rax
    movq %rbp, %rsp
    popq %rbp
    retq
    movq $0, %rax
    pushq %rax
    popq %rax
L_if_end_55:
    movq -24(%rbp), %rax
    pushq %rax
    popq %rax
    pushq %rax
    popq %rax
    movq %rax, -32(%rbp)
    leaq L_BANCHOR_BRANCH_RETIRED(%rip), %rax
    pushq %rax
    movq -32(%rbp), %rax
    pushq %rax
    popq %rcx
    popq %rax
    movzbq (%rax,%rcx,1), %rax
    pushq %rax
    movabsq $0x1, %rax
    pushq %rax
    popq %rcx
    popq %rax
    cmpq %rcx, %rax
    sete %al
    movzbq %al, %rax
    pushq %rax
    popq %rax
    testq %rax, %rax
    jz L_if_end_57
    movslq L_BANCHOR_E_BRANCH_RETIRED(%rip), %rax
    pushq %rax
    popq %rax
    movq %rbp, %rsp
    popq %rbp
    retq
    movq $0, %rax
    pushq %rax
    popq %rax
L_if_end_57:
    movq -32(%rbp), %rax
    pushq %rax
    movq -8(%rbp), %rax
    pushq %rax
    popq %rcx
    popq %rdx
    subq $32, %rsp
    callq L_ba_emit_branch_fragment
    addq $32, %rsp
    movslq %eax, %rax
    pushq %rax
    popq %rax
    movq %rax, -40(%rbp)
    movslq -40(%rbp), %rax
    pushq %rax
    movabsq $0x0, %rax
    pushq %rax
    popq %rcx
    popq %rax
    cmpq %rcx, %rax
    setne %al
    movzbq %al, %rax
    pushq %rax
    popq %rax
    testq %rax, %rax
    jz L_if_end_59
    movslq -40(%rbp), %rax
    pushq %rax
    popq %rax
    movq %rbp, %rsp
    popq %rbp
    retq
    movq $0, %rax
    pushq %rax
    popq %rax
L_if_end_59:
    movq -8(%rbp), %rax
    pushq %rax
    popq %rax
    pushq %rax
    movabsq $0x80, %rax
    pushq %rax
    popq %rcx
    popq %rax
    addq %rcx, %rax
    pushq %rax
    popq %rax
    pushq %rax
    popq %rax
    movq %rax, -48(%rbp)
    movq -32(%rbp), %rax
    pushq %rax
    popq %rcx
    subq $32, %rsp
    callq L_ba_branch_head_ptr
    addq $32, %rsp
    pushq %rax
    popq %rax
    pushq %rax
    movq -48(%rbp), %rax
    pushq %rax
    popq %rcx
    popq %rdx
    subq $32, %rsp
    callq ident_copy
    addq $32, %rsp
    movslq %eax, %rax
    pushq %rax
    popq %rax
    movslq L_BANCHOR_OK(%rip), %rax
    pushq %rax
    popq %rax
    movq %rbp, %rsp
    popq %rbp
    retq
    movq $0, %rax
    pushq %rax
    movq $0, %rax
    movq %rbp, %rsp
    popq %rbp
    retq
    .seh_endproc
    .section .iii.ring3,"n"
    .asciz "ba_retire"
    .text
    .global ba_retire
    .seh_proc ba_retire
ba_retire:
    pushq %rbp
    .seh_pushreg %rbp
    movq %rsp, %rbp
    .seh_setframe %rbp, 0
    subq $1024, %rsp
    .seh_stackalloc 1024
    .seh_endprologue
    movq %rcx, -8(%rbp)
    movzbq L_BANCHOR_INITED(%rip), %rax
    pushq %rax
    movabsq $0x0, %rax
    pushq %rax
    popq %rcx
    popq %rax
    cmpq %rcx, %rax
    sete %al
    movzbq %al, %rax
    pushq %rax
    popq %rax
    testq %rax, %rax
    jz L_if_end_61
    movslq L_BANCHOR_E_NOT_INITED(%rip), %rax
    pushq %rax
    popq %rax
    movq %rbp, %rsp
    popq %rbp
    retq
    movq $0, %rax
    pushq %rax
    popq %rax
L_if_end_61:
    movq -8(%rbp), %rax
    pushq %rax
    popq %rax
    pushq %rax
    movabsq $0x0, %rax
    pushq %rax
    popq %rcx
    popq %rax
    cmpq %rcx, %rax
    sete %al
    movzbq %al, %rax
    pushq %rax
    popq %rax
    testq %rax, %rax
    jz L_if_end_63
    movslq L_BANCHOR_E_NULL(%rip), %rax
    pushq %rax
    popq %rax
    movq %rbp, %rsp
    popq %rbp
    retq
    movq $0, %rax
    pushq %rax
    popq %rax
L_if_end_63:
    movq -8(%rbp), %rax
    pushq %rax
    popq %rcx
    subq $32, %rsp
    callq L_ba_branch_slot
    addq $32, %rsp
    pushq %rax
    popq %rax
    movq %rax, -16(%rbp)
    movq -16(%rbp), %rax
    pushq %rax
    movabsq $0x1, %rax
    pushq %rax
    popq %rax
    negq %rax
    pushq %rax
    popq %rcx
    popq %rax
    cmpq %rcx, %rax
    sete %al
    movzbq %al, %rax
    pushq %rax
    popq %rax
    testq %rax, %rax
    jz L_if_end_65
    movslq L_BANCHOR_E_BRANCH_ABSENT(%rip), %rax
    pushq %rax
    popq %rax
    movq %rbp, %rsp
    popq %rbp
    retq
    movq $0, %rax
    pushq %rax
    popq %rax
L_if_end_65:
    movq -16(%rbp), %rax
    pushq %rax
    popq %rax
    pushq %rax
    popq %rax
    movq %rax, -24(%rbp)
    leaq L_BANCHOR_RETIRE_CID(%rip), %rax
    pushq %rax
    popq %rax
    pushq %rax
    popq %rax
    pushq %rax
    popq %rax
    movq %rax, -32(%rbp)
    movq -32(%rbp), %rax
    pushq %rax
    popq %rcx
    subq $32, %rsp
    callq cons_find
    addq $32, %rsp
    movl %eax, %eax
    pushq %rax
    popq %rax
    movq %rax, -40(%rbp)
    movl -40(%rbp), %eax
    pushq %rax
    movl L_BANCHOR_CONS_SENT(%rip), %eax
    pushq %rax
    popq %rcx
    popq %rax
    cmpq %rcx, %rax
    sete %al
    movzbq %al, %rax
    pushq %rax
    popq %rax
    testq %rax, %rax
    jz L_if_end_67
    movslq L_BANCHOR_E_CLAUSE_ABSENT(%rip), %rax
    pushq %rax
    popq %rax
    movq %rbp, %rsp
    popq %rbp
    retq
    movq $0, %rax
    pushq %rax
    popq %rax
L_if_end_67:
    leaq L_BANCHOR_BRANCH_RETIRED(%rip), %rax
    pushq %rax
    movq -24(%rbp), %rax
    pushq %rax
    movabsq $0x1, %rax
    pushq %rax
    popq %rdx
    popq %rcx
    popq %rax
    movb %dl, (%rax,%rcx,1)
    movslq L_BANCHOR_OK(%rip), %rax
    pushq %rax
    popq %rax
    movq %rbp, %rsp
    popq %rbp
    retq
    movq $0, %rax
    pushq %rax
    movq $0, %rax
    movq %rbp, %rsp
    popq %rbp
    retq
    .seh_endproc
    .section .iii.ring3,"n"
    .asciz "ba_merge_propose"
    .text
    .global ba_merge_propose
    .seh_proc ba_merge_propose
ba_merge_propose:
    pushq %rbp
    .seh_pushreg %rbp
    movq %rsp, %rbp
    .seh_setframe %rbp, 0
    subq $1024, %rsp
    .seh_stackalloc 1024
    .seh_endprologue
    movq %rcx, -8(%rbp)
    movq %rdx, -16(%rbp)
    movq %r8, -24(%rbp)
    movzbq L_BANCHOR_INITED(%rip), %rax
    pushq %rax
    movabsq $0x0, %rax
    pushq %rax
    popq %rcx
    popq %rax
    cmpq %rcx, %rax
    sete %al
    movzbq %al, %rax
    pushq %rax
    popq %rax
    testq %rax, %rax
    jz L_if_end_69
    movslq L_BANCHOR_E_NOT_INITED(%rip), %rax
    pushq %rax
    popq %rax
    movq %rbp, %rsp
    popq %rbp
    retq
    movq $0, %rax
    pushq %rax
    popq %rax
L_if_end_69:
    movq -8(%rbp), %rax
    pushq %rax
    popq %rax
    pushq %rax
    movabsq $0x0, %rax
    pushq %rax
    popq %rcx
    popq %rax
    cmpq %rcx, %rax
    sete %al
    movzbq %al, %rax
    pushq %rax
    popq %rax
    testq %rax, %rax
    jz L_if_end_71
    movslq L_BANCHOR_E_NULL(%rip), %rax
    pushq %rax
    popq %rax
    movq %rbp, %rsp
    popq %rbp
    retq
    movq $0, %rax
    pushq %rax
    popq %rax
L_if_end_71:
    movq -16(%rbp), %rax
    pushq %rax
    popq %rax
    pushq %rax
    movabsq $0x0, %rax
    pushq %rax
    popq %rcx
    popq %rax
    cmpq %rcx, %rax
    sete %al
    movzbq %al, %rax
    pushq %rax
    popq %rax
    testq %rax, %rax
    jz L_if_end_73
    movslq L_BANCHOR_E_NULL(%rip), %rax
    pushq %rax
    popq %rax
    movq %rbp, %rsp
    popq %rbp
    retq
    movq $0, %rax
    pushq %rax
    popq %rax
L_if_end_73:
    movq -24(%rbp), %rax
    pushq %rax
    popq %rax
    pushq %rax
    movabsq $0x0, %rax
    pushq %rax
    popq %rcx
    popq %rax
    cmpq %rcx, %rax
    sete %al
    movzbq %al, %rax
    pushq %rax
    popq %rax
    testq %rax, %rax
    jz L_if_end_75
    movslq L_BANCHOR_E_NULL(%rip), %rax
    pushq %rax
    popq %rax
    movq %rbp, %rsp
    popq %rbp
    retq
    movq $0, %rax
    pushq %rax
    popq %rax
L_if_end_75:
    movq -8(%rbp), %rax
    pushq %rax
    popq %rcx
    subq $32, %rsp
    callq L_ba_branch_slot
    addq $32, %rsp
    pushq %rax
    popq %rax
    movq %rax, -32(%rbp)
    movq -32(%rbp), %rax
    pushq %rax
    movabsq $0x1, %rax
    pushq %rax
    popq %rax
    negq %rax
    pushq %rax
    popq %rcx
    popq %rax
    cmpq %rcx, %rax
    sete %al
    movzbq %al, %rax
    pushq %rax
    popq %rax
    testq %rax, %rax
    jz L_if_end_77
    movslq L_BANCHOR_E_BRANCH_ABSENT(%rip), %rax
    pushq %rax
    popq %rax
    movq %rbp, %rsp
    popq %rbp
    retq
    movq $0, %rax
    pushq %rax
    popq %rax
L_if_end_77:
    movq -32(%rbp), %rax
    pushq %rax
    popq %rax
    pushq %rax
    popq %rax
    movq %rax, -40(%rbp)
    movabsq $0x0, %rax
    pushq %rax
    popq %rax
    movq %rax, -48(%rbp)
    movabsq $0x1, %rax
    pushq %rax
    popq %rax
    negq %rax
    pushq %rax
    popq %rax
    movq %rax, -56(%rbp)
    movabsq $0x0, %rax
    pushq %rax
    popq %rax
    movq %rax, -64(%rbp)
L_loop_top_78:
    movq -48(%rbp), %rax
    pushq %rax
    movq L_BANCHOR_PROPOSAL_SLOTS(%rip), %rax
    pushq %rax
    popq %rcx
    popq %rax
    cmpq %rcx, %rax
    setb %al
    movzbq %al, %rax
    pushq %rax
    popq %rax
    testq %rax, %rax
    jz L_loop_end_79
    movzbq -64(%rbp), %rax
    pushq %rax
    movabsq $0x0, %rax
    pushq %rax
    popq %rcx
    popq %rax
    cmpq %rcx, %rax
    sete %al
    movzbq %al, %rax
    pushq %rax
    popq %rax
    testq %rax, %rax
    jz L_if_end_81
    leaq L_BANCHOR_PROPOSAL_LIVE(%rip), %rax
    pushq %rax
    movq -48(%rbp), %rax
    pushq %rax
    popq %rcx
    popq %rax
    movzbq (%rax,%rcx,1), %rax
    pushq %rax
    movabsq $0x0, %rax
    pushq %rax
    popq %rcx
    popq %rax
    cmpq %rcx, %rax
    sete %al
    movzbq %al, %rax
    pushq %rax
    popq %rax
    testq %rax, %rax
    jz L_if_end_83
    movq -48(%rbp), %rax
    pushq %rax
    popq %rax
    pushq %rax
    popq %rax
    movq %rax, -56(%rbp)
    movabsq $0x1, %rax
    pushq %rax
    popq %rax
    movq %rax, -64(%rbp)
    movq $0, %rax
    pushq %rax
    popq %rax
L_if_end_83:
    movq $0, %rax
    pushq %rax
    popq %rax
L_if_end_81:
    movq -48(%rbp), %rax
    pushq %rax
    movabsq $0x1, %rax
    pushq %rax
    popq %rcx
    popq %rax
    addq %rcx, %rax
    pushq %rax
    popq %rax
    movq %rax, -48(%rbp)
    movq $0, %rax
    pushq %rax
    popq %rax
    jmp L_loop_top_78
L_loop_end_79:
    movq -56(%rbp), %rax
    pushq %rax
    movabsq $0x1, %rax
    pushq %rax
    popq %rax
    negq %rax
    pushq %rax
    popq %rcx
    popq %rax
    cmpq %rcx, %rax
    sete %al
    movzbq %al, %rax
    pushq %rax
    popq %rax
    testq %rax, %rax
    jz L_if_end_85
    movslq L_BANCHOR_E_INDEX_FULL(%rip), %rax
    pushq %rax
    popq %rax
    movq %rbp, %rsp
    popq %rbp
    retq
    movq $0, %rax
    pushq %rax
    popq %rax
L_if_end_85:
    movq -56(%rbp), %rax
    pushq %rax
    popq %rax
    pushq %rax
    popq %rax
    movq %rax, -72(%rbp)
    movq -40(%rbp), %rax
    pushq %rax
    popq %rcx
    subq $32, %rsp
    callq L_ba_branch_head_ptr
    addq $32, %rsp
    pushq %rax
    popq %rax
    pushq %rax
    popq %rax
    movq %rax, -80(%rbp)
    leaq L_BANCHOR_WITNESS_FID(%rip), %rax
    pushq %rax
    popq %rax
    pushq %rax
    popq %rax
    pushq %rax
    popq %rax
    movq %rax, -88(%rbp)
    movq -88(%rbp), %rax
    pushq %rax
    movq -16(%rbp), %rax
    pushq %rax
    movq -80(%rbp), %rax
    pushq %rax
    popq %rcx
    popq %rdx
    popq %r8
    subq $32, %rsp
    callq cg_bisimulate
    addq $32, %rsp
    movslq %eax, %rax
    pushq %rax
    popq %rax
    movq %rax, -96(%rbp)
    movslq -96(%rbp), %rax
    pushq %rax
    movabsq $0x0, %rax
    pushq %rax
    popq %rcx
    popq %rax
    cmpq %rcx, %rax
    setne %al
    movzbq %al, %rax
    pushq %rax
    popq %rax
    testq %rax, %rax
    jz L_if_end_87
    movslq L_BANCHOR_E_NOT_BISIMILAR(%rip), %rax
    pushq %rax
    popq %rax
    movq %rbp, %rsp
    popq %rbp
    retq
    movq $0, %rax
    pushq %rax
    popq %rax
L_if_end_87:
    movq -72(%rbp), %rax
    pushq %rax
    popq %rcx
    subq $32, %rsp
    callq L_ba_prop_branch_ptr
    addq $32, %rsp
    pushq %rax
    popq %rax
    pushq %rax
    movq -8(%rbp), %rax
    pushq %rax
    popq %rcx
    popq %rdx
    subq $32, %rsp
    callq ident_copy
    addq $32, %rsp
    movslq %eax, %rax
    pushq %rax
    popq %rax
    movq -72(%rbp), %rax
    pushq %rax
    popq %rcx
    subq $32, %rsp
    callq L_ba_prop_target_ptr
    addq $32, %rsp
    pushq %rax
    popq %rax
    pushq %rax
    movq -16(%rbp), %rax
    pushq %rax
    popq %rcx
    popq %rdx
    subq $32, %rsp
    callq ident_copy
    addq $32, %rsp
    movslq %eax, %rax
    pushq %rax
    popq %rax
    movq -72(%rbp), %rax
    pushq %rax
    popq %rcx
    subq $32, %rsp
    callq L_ba_prop_witness_ptr
    addq $32, %rsp
    pushq %rax
    popq %rax
    pushq %rax
    movq -88(%rbp), %rax
    pushq %rax
    popq %rcx
    popq %rdx
    subq $32, %rsp
    callq ident_copy
    addq $32, %rsp
    movslq %eax, %rax
    pushq %rax
    popq %rax
    leaq L_BANCHOR_PROPOSAL_LIVE(%rip), %rax
    pushq %rax
    movq -72(%rbp), %rax
    pushq %rax
    movabsq $0x1, %rax
    pushq %rax
    popq %rdx
    popq %rcx
    popq %rax
    movb %dl, (%rax,%rcx,1)
    leaq L_BANCHOR_PROPOSAL_VERIFIED(%rip), %rax
    pushq %rax
    movq -72(%rbp), %rax
    pushq %rax
    movabsq $0x0, %rax
    pushq %rax
    popq %rdx
    popq %rcx
    popq %rax
    movb %dl, (%rax,%rcx,1)
    movq -24(%rbp), %rax
    pushq %rax
    movq -88(%rbp), %rax
    pushq %rax
    popq %rcx
    popq %rdx
    subq $32, %rsp
    callq ident_copy
    addq $32, %rsp
    movslq %eax, %rax
    pushq %rax
    popq %rax
    movslq L_BANCHOR_OK(%rip), %rax
    pushq %rax
    popq %rax
    movq %rbp, %rsp
    popq %rbp
    retq
    movq $0, %rax
    pushq %rax
    movq $0, %rax
    movq %rbp, %rsp
    popq %rbp
    retq
    .seh_endproc
    .section .iii.ring3,"n"
    .asciz "ba_verify_bisimulation"
    .text
    .global ba_verify_bisimulation
    .seh_proc ba_verify_bisimulation
ba_verify_bisimulation:
    pushq %rbp
    .seh_pushreg %rbp
    movq %rsp, %rbp
    .seh_setframe %rbp, 0
    subq $1024, %rsp
    .seh_stackalloc 1024
    .seh_endprologue
    movq %rcx, -8(%rbp)
    movzbq L_BANCHOR_INITED(%rip), %rax
    pushq %rax
    movabsq $0x0, %rax
    pushq %rax
    popq %rcx
    popq %rax
    cmpq %rcx, %rax
    sete %al
    movzbq %al, %rax
    pushq %rax
    popq %rax
    testq %rax, %rax
    jz L_if_end_89
    movslq L_BANCHOR_E_NOT_INITED(%rip), %rax
    pushq %rax
    popq %rax
    movq %rbp, %rsp
    popq %rbp
    retq
    movq $0, %rax
    pushq %rax
    popq %rax
L_if_end_89:
    movq -8(%rbp), %rax
    pushq %rax
    popq %rax
    pushq %rax
    movabsq $0x0, %rax
    pushq %rax
    popq %rcx
    popq %rax
    cmpq %rcx, %rax
    sete %al
    movzbq %al, %rax
    pushq %rax
    popq %rax
    testq %rax, %rax
    jz L_if_end_91
    movslq L_BANCHOR_E_NULL(%rip), %rax
    pushq %rax
    popq %rax
    movq %rbp, %rsp
    popq %rbp
    retq
    movq $0, %rax
    pushq %rax
    popq %rax
L_if_end_91:
    movq -8(%rbp), %rax
    pushq %rax
    popq %rcx
    subq $32, %rsp
    callq L_ba_proposal_slot
    addq $32, %rsp
    pushq %rax
    popq %rax
    movq %rax, -16(%rbp)
    movq -16(%rbp), %rax
    pushq %rax
    movabsq $0x1, %rax
    pushq %rax
    popq %rax
    negq %rax
    pushq %rax
    popq %rcx
    popq %rax
    cmpq %rcx, %rax
    sete %al
    movzbq %al, %rax
    pushq %rax
    popq %rax
    testq %rax, %rax
    jz L_if_end_93
    movslq L_BANCHOR_E_NOT_BISIMILAR(%rip), %rax
    pushq %rax
    popq %rax
    movq %rbp, %rsp
    popq %rbp
    retq
    movq $0, %rax
    pushq %rax
    popq %rax
L_if_end_93:
    movq -16(%rbp), %rax
    pushq %rax
    popq %rax
    pushq %rax
    popq %rax
    movq %rax, -24(%rbp)
    movq -24(%rbp), %rax
    pushq %rax
    popq %rcx
    subq $32, %rsp
    callq L_ba_prop_branch_ptr
    addq $32, %rsp
    pushq %rax
    popq %rax
    pushq %rax
    popq %rax
    movq %rax, -32(%rbp)
    movq -32(%rbp), %rax
    pushq %rax
    popq %rcx
    subq $32, %rsp
    callq L_ba_branch_slot
    addq $32, %rsp
    pushq %rax
    popq %rax
    movq %rax, -40(%rbp)
    movq -40(%rbp), %rax
    pushq %rax
    movabsq $0x1, %rax
    pushq %rax
    popq %rax
    negq %rax
    pushq %rax
    popq %rcx
    popq %rax
    cmpq %rcx, %rax
    sete %al
    movzbq %al, %rax
    pushq %rax
    popq %rax
    testq %rax, %rax
    jz L_if_end_95
    movslq L_BANCHOR_E_BRANCH_ABSENT(%rip), %rax
    pushq %rax
    popq %rax
    movq %rbp, %rsp
    popq %rbp
    retq
    movq $0, %rax
    pushq %rax
    popq %rax
L_if_end_95:
    movq -40(%rbp), %rax
    pushq %rax
    popq %rax
    pushq %rax
    popq %rax
    movq %rax, -48(%rbp)
    movq -48(%rbp), %rax
    pushq %rax
    popq %rcx
    subq $32, %rsp
    callq L_ba_branch_head_ptr
    addq $32, %rsp
    pushq %rax
    popq %rax
    pushq %rax
    popq %rax
    movq %rax, -56(%rbp)
    movq -24(%rbp), %rax
    pushq %rax
    popq %rcx
    subq $32, %rsp
    callq L_ba_prop_target_ptr
    addq $32, %rsp
    pushq %rax
    popq %rax
    pushq %rax
    popq %rax
    movq %rax, -64(%rbp)
    leaq L_BANCHOR_WITNESS_FID(%rip), %rax
    pushq %rax
    popq %rax
    pushq %rax
    popq %rax
    pushq %rax
    popq %rax
    movq %rax, -72(%rbp)
    movq -72(%rbp), %rax
    pushq %rax
    movq -64(%rbp), %rax
    pushq %rax
    movq -56(%rbp), %rax
    pushq %rax
    popq %rcx
    popq %rdx
    popq %r8
    subq $32, %rsp
    callq cg_bisimulate
    addq $32, %rsp
    movslq %eax, %rax
    pushq %rax
    popq %rax
    movq %rax, -80(%rbp)
    movslq -80(%rbp), %rax
    pushq %rax
    movabsq $0x0, %rax
    pushq %rax
    popq %rcx
    popq %rax
    cmpq %rcx, %rax
    setne %al
    movzbq %al, %rax
    pushq %rax
    popq %rax
    testq %rax, %rax
    jz L_if_end_97
    movslq L_BANCHOR_E_NOT_BISIMILAR(%rip), %rax
    pushq %rax
    popq %rax
    movq %rbp, %rsp
    popq %rbp
    retq
    movq $0, %rax
    pushq %rax
    popq %rax
L_if_end_97:
    movq -24(%rbp), %rax
    pushq %rax
    popq %rcx
    subq $32, %rsp
    callq L_ba_prop_witness_ptr
    addq $32, %rsp
    pushq %rax
    popq %rax
    pushq %rax
    popq %rax
    movq %rax, -88(%rbp)
    movq -88(%rbp), %rax
    pushq %rax
    movq -72(%rbp), %rax
    pushq %rax
    popq %rcx
    popq %rdx
    subq $32, %rsp
    callq ident_eq
    addq $32, %rsp
    movzbq %al, %rax
    pushq %rax
    movabsq $0x0, %rax
    pushq %rax
    popq %rcx
    popq %rax
    cmpq %rcx, %rax
    sete %al
    movzbq %al, %rax
    pushq %rax
    popq %rax
    testq %rax, %rax
    jz L_if_end_99
    movslq L_BANCHOR_E_NOT_BISIMILAR(%rip), %rax
    pushq %rax
    popq %rax
    movq %rbp, %rsp
    popq %rbp
    retq
    movq $0, %rax
    pushq %rax
    popq %rax
L_if_end_99:
    leaq L_BANCHOR_PROPOSAL_VERIFIED(%rip), %rax
    pushq %rax
    movq -24(%rbp), %rax
    pushq %rax
    movabsq $0x1, %rax
    pushq %rax
    popq %rdx
    popq %rcx
    popq %rax
    movb %dl, (%rax,%rcx,1)
    movslq L_BANCHOR_OK(%rip), %rax
    pushq %rax
    popq %rax
    movq %rbp, %rsp
    popq %rbp
    retq
    movq $0, %rax
    pushq %rax
    movq $0, %rax
    movq %rbp, %rsp
    popq %rbp
    retq
    .seh_endproc
    .section .iii.ring3,"n"
    .asciz "ba_merge_commit"
    .text
    .global ba_merge_commit
    .seh_proc ba_merge_commit
ba_merge_commit:
    pushq %rbp
    .seh_pushreg %rbp
    movq %rsp, %rbp
    .seh_setframe %rbp, 0
    subq $1024, %rsp
    .seh_stackalloc 1024
    .seh_endprologue
    movq %rcx, -8(%rbp)
    movzbq L_BANCHOR_INITED(%rip), %rax
    pushq %rax
    movabsq $0x0, %rax
    pushq %rax
    popq %rcx
    popq %rax
    cmpq %rcx, %rax
    sete %al
    movzbq %al, %rax
    pushq %rax
    popq %rax
    testq %rax, %rax
    jz L_if_end_101
    movslq L_BANCHOR_E_NOT_INITED(%rip), %rax
    pushq %rax
    popq %rax
    movq %rbp, %rsp
    popq %rbp
    retq
    movq $0, %rax
    pushq %rax
    popq %rax
L_if_end_101:
    movq -8(%rbp), %rax
    pushq %rax
    popq %rax
    pushq %rax
    movabsq $0x0, %rax
    pushq %rax
    popq %rcx
    popq %rax
    cmpq %rcx, %rax
    sete %al
    movzbq %al, %rax
    pushq %rax
    popq %rax
    testq %rax, %rax
    jz L_if_end_103
    movslq L_BANCHOR_E_NULL(%rip), %rax
    pushq %rax
    popq %rax
    movq %rbp, %rsp
    popq %rbp
    retq
    movq $0, %rax
    pushq %rax
    popq %rax
L_if_end_103:
    leaq L_BANCHOR_MERGE_CID(%rip), %rax
    pushq %rax
    popq %rax
    pushq %rax
    popq %rax
    pushq %rax
    popq %rax
    movq %rax, -16(%rbp)
    movq -16(%rbp), %rax
    pushq %rax
    popq %rcx
    subq $32, %rsp
    callq cons_find
    addq $32, %rsp
    movl %eax, %eax
    pushq %rax
    popq %rax
    movq %rax, -24(%rbp)
    movl -24(%rbp), %eax
    pushq %rax
    movl L_BANCHOR_CONS_SENT(%rip), %eax
    pushq %rax
    popq %rcx
    popq %rax
    cmpq %rcx, %rax
    sete %al
    movzbq %al, %rax
    pushq %rax
    popq %rax
    testq %rax, %rax
    jz L_if_end_105
    movslq L_BANCHOR_E_CLAUSE_ABSENT(%rip), %rax
    pushq %rax
    popq %rax
    movq %rbp, %rsp
    popq %rbp
    retq
    movq $0, %rax
    pushq %rax
    popq %rax
L_if_end_105:
    movq -8(%rbp), %rax
    pushq %rax
    popq %rcx
    subq $32, %rsp
    callq ba_verify_bisimulation
    addq $32, %rsp
    movslq %eax, %rax
    pushq %rax
    popq %rax
    movq %rax, -32(%rbp)
    movslq -32(%rbp), %rax
    pushq %rax
    movabsq $0x0, %rax
    pushq %rax
    popq %rcx
    popq %rax
    cmpq %rcx, %rax
    setne %al
    movzbq %al, %rax
    pushq %rax
    popq %rax
    testq %rax, %rax
    jz L_if_end_107
    movslq -32(%rbp), %rax
    pushq %rax
    popq %rax
    movq %rbp, %rsp
    popq %rbp
    retq
    movq $0, %rax
    pushq %rax
    popq %rax
L_if_end_107:
    leaq L_BANCHOR_WITNESS_FID(%rip), %rax
    pushq %rax
    popq %rax
    pushq %rax
    popq %rax
    pushq %rax
    popq %rax
    movq %rax, -40(%rbp)
    movq -40(%rbp), %rax
    pushq %rax
    movq -8(%rbp), %rax
    pushq %rax
    popq %rcx
    popq %rdx
    subq $32, %rsp
    callq L_ba_emit_merge_fragment
    addq $32, %rsp
    movslq %eax, %rax
    pushq %rax
    popq %rax
    movq %rax, -48(%rbp)
    movslq -48(%rbp), %rax
    pushq %rax
    popq %rax
    movq %rbp, %rsp
    popq %rbp
    retq
    movq $0, %rax
    pushq %rax
    movq $0, %rax
    movq %rbp, %rsp
    popq %rbp
    retq
    .seh_endproc
    .section .iii.ring3,"n"
    .asciz "ba_kat_emit"
    .text
    .seh_proc L_ba_kat_emit
L_ba_kat_emit:
    pushq %rbp
    .seh_pushreg %rbp
    movq %rsp, %rbp
    .seh_setframe %rbp, 0
    subq $1024, %rsp
    .seh_stackalloc 1024
    .seh_endprologue
    movq %rcx, -8(%rbp)
    movq %rdx, -16(%rbp)
    leaq L_BANCHOR_KAT_Z(%rip), %rax
    pushq %rax
    popq %rax
    pushq %rax
    popq %rax
    pushq %rax
    popq %rax
    movq %rax, -24(%rbp)
    leaq L_BANCHOR_KAT_PL(%rip), %rax
    pushq %rax
    popq %rax
    pushq %rax
    popq %rax
    pushq %rax
    popq %rax
    movq %rax, -32(%rbp)
    movq -16(%rbp), %rax
    pushq %rax
    movabsq $0xa0, %rax
    pushq %rax
    movq -32(%rbp), %rax
    pushq %rax
    movabsq $0x0, %rax
    pushq %rax
    movq -24(%rbp), %rax
    pushq %rax
    movzwq L_BANCHOR_PILLAR_BRANCH(%rip), %rax
    pushq %rax
    movabsq $0x0, %rax
    pushq %rax
    movabsq $0x0, %rax
    pushq %rax
    movq -8(%rbp), %rax
    pushq %rax
    movq -24(%rbp), %rax
    pushq %rax
    movq -24(%rbp), %rax
    pushq %rax
    movq -24(%rbp), %rax
    pushq %rax
    popq %rcx
    popq %rdx
    popq %r8
    popq %r9
    subq $32, %rsp
    callq wh_publish
    addq $32, %rsp
    addq $64, %rsp
    pushq %rax
    popq %rax
    movq %rax, -40(%rbp)
    movq -40(%rbp), %rax
    pushq %rax
    movabsq $0xffffffffffffffff, %rax
    pushq %rax
    popq %rcx
    popq %rax
    cmpq %rcx, %rax
    sete %al
    movzbq %al, %rax
    pushq %rax
    popq %rax
    testq %rax, %rax
    jz L_if_end_109
    movabsq $0x1, %rax
    pushq %rax
    popq %rax
    negq %rax
    pushq %rax
    popq %rax
    movq %rbp, %rsp
    popq %rbp
    retq
    movq $0, %rax
    pushq %rax
    popq %rax
L_if_end_109:
    movq -40(%rbp), %rax
    pushq %rax
    popq %rcx
    subq $32, %rsp
    callq ws_register
    addq $32, %rsp
    movslq %eax, %rax
    pushq %rax
    popq %rax
    movq %rbp, %rsp
    popq %rbp
    retq
    movq $0, %rax
    pushq %rax
    movq $0, %rax
    movq %rbp, %rsp
    popq %rbp
    retq
    .seh_endproc
    .section .iii.ring3,"n"
    .asciz "ba_kat_merge"
    .text
    .seh_proc L_ba_kat_merge
L_ba_kat_merge:
    pushq %rbp
    .seh_pushreg %rbp
    movq %rsp, %rbp
    .seh_setframe %rbp, 0
    subq $1024, %rsp
    .seh_stackalloc 1024
    .seh_endprologue
    movabsq $0x0, %rax
    pushq %rax
    popq %rcx
    subq $32, %rsp
    callq wh_init
    addq $32, %rsp
    movslq %eax, %rax
    pushq %rax
    popq %rax
    movabsq $0x0, %rax
    pushq %rax
    popq %rcx
    subq $32, %rsp
    callq at_init
    addq $32, %rsp
    movslq %eax, %rax
    pushq %rax
    popq %rax
    subq $32, %rsp
    callq ws_init
    addq $32, %rsp
    movslq %eax, %rax
    pushq %rax
    popq %rax
    subq $32, %rsp
    callq cg_init
    addq $32, %rsp
    movslq %eax, %rax
    pushq %rax
    popq %rax
    movabsq $0x0, %rax
    pushq %rax
    popq %rax
    movb %al, L_BANCHOR_INITED(%rip)
    subq $32, %rsp
    callq ba_init
    addq $32, %rsp
    movslq %eax, %rax
    pushq %rax
    popq %rax
    leaq L_BANCHOR_KAT_REQ(%rip), %rax
    pushq %rax
    popq %rax
    pushq %rax
    popq %rax
    movq %rax, -8(%rbp)
    leaq L_BANCHOR_MERGE_LABEL(%rip), %rax
    pushq %rax
    popq %rax
    pushq %rax
    popq %rax
    movq %rax, -16(%rbp)
    movq -8(%rbp), %rax
    pushq %rax
    popq %rax
    pushq %rax
    popq %rax
    movq %rax, -24(%rbp)
    movq -24(%rbp), %rax
    pushq %rax
    movabsq $0x0, %rax
    pushq %rax
    movq -8(%rbp), %rax
    pushq %rax
    movabsq $0x40, %rax
    pushq %rax
    popq %rcx
    popq %rax
    addq %rcx, %rax
    pushq %rax
    popq %rdx
    popq %rcx
    popq %rax
    movq %rdx, (%rax,%rcx,8)
    movq -24(%rbp), %rax
    pushq %rax
    movabsq $0x1, %rax
    pushq %rax
    movq -16(%rbp), %rax
    pushq %rax
    popq %rdx
    popq %rcx
    popq %rax
    movq %rdx, (%rax,%rcx,8)
    movq -24(%rbp), %rax
    pushq %rax
    movabsq $0x2, %rax
    pushq %rax
    movabsq $0x10, %rax
    pushq %rax
    popq %rdx
    popq %rcx
    popq %rax
    movq %rdx, (%rax,%rcx,8)
    movq -24(%rbp), %rax
    pushq %rax
    movabsq $0x3, %rax
    pushq %rax
    movq -16(%rbp), %rax
    pushq %rax
    popq %rdx
    popq %rcx
    popq %rax
    movq %rdx, (%rax,%rcx,8)
    movq -24(%rbp), %rax
    pushq %rax
    movabsq $0x4, %rax
    pushq %rax
    movabsq $0x0, %rax
    pushq %rax
    popq %rdx
    popq %rcx
    popq %rax
    movq %rdx, (%rax,%rcx,8)
    movq -24(%rbp), %rax
    pushq %rax
    movabsq $0x5, %rax
    pushq %rax
    movq -16(%rbp), %rax
    pushq %rax
    popq %rdx
    popq %rcx
    popq %rax
    movq %rdx, (%rax,%rcx,8)
    movq -24(%rbp), %rax
    pushq %rax
    movabsq $0x6, %rax
    pushq %rax
    movabsq $0x0, %rax
    pushq %rax
    popq %rdx
    popq %rcx
    popq %rax
    movq %rdx, (%rax,%rcx,8)
    movq -8(%rbp), %rax
    pushq %rax
    popq %rax
    pushq %rax
    popq %rcx
    subq $32, %rsp
    callq cons_ratify
    addq $32, %rsp
    pushq %rax
    movabsq $0xffffffffffffffff, %rax
    pushq %rax
    popq %rcx
    popq %rax
    cmpq %rcx, %rax
    sete %al
    movzbq %al, %rax
    pushq %rax
    popq %rax
    testq %rax, %rax
    jz L_if_end_111
    movabsq $0x50, %rax
    pushq %rax
    popq %rax
    movq %rbp, %rsp
    popq %rbp
    retq
    movq $0, %rax
    pushq %rax
    popq %rax
L_if_end_111:
    leaq L_BANCHOR_KAT_Z(%rip), %rax
    pushq %rax
    popq %rax
    pushq %rax
    popq %rax
    pushq %rax
    popq %rcx
    subq $32, %rsp
    callq ident_zero
    addq $32, %rsp
    movslq %eax, %rax
    pushq %rax
    popq %rax
    leaq L_BANCHOR_KAT_PL(%rip), %rax
    pushq %rax
    popq %rax
    pushq %rax
    popq %rax
    pushq %rax
    popq %rax
    movq %rax, -32(%rbp)
    movabsq $0x0, %rax
    pushq %rax
    popq %rax
    movq %rax, -40(%rbp)
L_loop_top_112:
    movq -40(%rbp), %rax
    pushq %rax
    movabsq $0xc0, %rax
    pushq %rax
    popq %rcx
    popq %rax
    cmpq %rcx, %rax
    setb %al
    movzbq %al, %rax
    pushq %rax
    popq %rax
    testq %rax, %rax
    jz L_loop_end_113
    movq -32(%rbp), %rax
    pushq %rax
    movq -40(%rbp), %rax
    pushq %rax
    movabsq $0x0, %rax
    pushq %rax
    popq %rdx
    popq %rcx
    popq %rax
    movb %dl, (%rax,%rcx,1)
    movq -40(%rbp), %rax
    pushq %rax
    movabsq $0x1, %rax
    pushq %rax
    popq %rcx
    popq %rax
    addq %rcx, %rax
    pushq %rax
    popq %rax
    movq %rax, -40(%rbp)
    movq $0, %rax
    pushq %rax
    popq %rax
    jmp L_loop_top_112
L_loop_end_113:
    movabsq $0x40, %rax
    pushq %rax
    popq %rax
    movq %rax, -48(%rbp)
L_loop_top_114:
    movq -48(%rbp), %rax
    pushq %rax
    movabsq $0xa0, %rax
    pushq %rax
    popq %rcx
    popq %rax
    cmpq %rcx, %rax
    setb %al
    movzbq %al, %rax
    pushq %rax
    popq %rax
    testq %rax, %rax
    jz L_loop_end_115
    movq -32(%rbp), %rax
    pushq %rax
    movq -48(%rbp), %rax
    pushq %rax
    movabsq $0xaa, %rax
    pushq %rax
    popq %rdx
    popq %rcx
    popq %rax
    movb %dl, (%rax,%rcx,1)
    movq -48(%rbp), %rax
    pushq %rax
    movabsq $0x1, %rax
    pushq %rax
    popq %rcx
    popq %rax
    addq %rcx, %rax
    pushq %rax
    popq %rax
    movq %rax, -48(%rbp)
    movq $0, %rax
    pushq %rax
    popq %rax
    jmp L_loop_top_114
L_loop_end_115:
    leaq L_BANCHOR_KAT_OC(%rip), %rax
    pushq %rax
    popq %rax
    pushq %rax
    popq %rax
    pushq %rax
    popq %rax
    movq %rax, -56(%rbp)
    movq -56(%rbp), %rax
    pushq %rax
    popq %rcx
    subq $32, %rsp
    callq ident_zero
    addq $32, %rsp
    movslq %eax, %rax
    pushq %rax
    popq %rax
    movq -56(%rbp), %rax
    pushq %rax
    movabsq $0x0, %rax
    pushq %rax
    movabsq $0xa0, %rax
    pushq %rax
    popq %rdx
    popq %rcx
    popq %rax
    movb %dl, (%rax,%rcx,1)
    leaq L_BANCHOR_T_ANC(%rip), %rax
    pushq %rax
    popq %rax
    pushq %rax
    popq %rax
    pushq %rax
    movq -56(%rbp), %rax
    pushq %rax
    popq %rcx
    popq %rdx
    subq $32, %rsp
    callq L_ba_kat_emit
    addq $32, %rsp
    movslq %eax, %rax
    pushq %rax
    movabsq $0x0, %rax
    pushq %rax
    popq %rcx
    popq %rax
    cmpq %rcx, %rax
    setne %al
    movzbq %al, %rax
    pushq %rax
    popq %rax
    testq %rax, %rax
    jz L_if_end_117
    movabsq $0x51, %rax
    pushq %rax
    popq %rax
    movq %rbp, %rsp
    popq %rbp
    retq
    movq $0, %rax
    pushq %rax
    popq %rax
L_if_end_117:
    leaq L_BANCHOR_MERGE_CID(%rip), %rax
    pushq %rax
    popq %rax
    pushq %rax
    popq %rax
    pushq %rax
    leaq L_BANCHOR_T_ANC(%rip), %rax
    pushq %rax
    popq %rax
    pushq %rax
    popq %rax
    pushq %rax
    popq %rcx
    popq %rdx
    subq $32, %rsp
    callq cg_anchor_declare
    addq $32, %rsp
    movslq %eax, %rax
    pushq %rax
    movabsq $0x0, %rax
    pushq %rax
    popq %rcx
    popq %rax
    cmpq %rcx, %rax
    setne %al
    movzbq %al, %rax
    pushq %rax
    popq %rax
    testq %rax, %rax
    jz L_if_end_119
    movabsq $0x52, %rax
    pushq %rax
    popq %rax
    movq %rbp, %rsp
    popq %rbp
    retq
    movq $0, %rax
    pushq %rax
    popq %rax
L_if_end_119:
    leaq L_BANCHOR_T_BID(%rip), %rax
    pushq %rax
    popq %rax
    pushq %rax
    popq %rax
    pushq %rax
    leaq L_BANCHOR_T_ANC(%rip), %rax
    pushq %rax
    popq %rax
    pushq %rax
    popq %rax
    pushq %rax
    popq %rcx
    popq %rdx
    subq $32, %rsp
    callq ba_construct
    addq $32, %rsp
    movslq %eax, %rax
    pushq %rax
    movslq L_BANCHOR_OK(%rip), %rax
    pushq %rax
    popq %rcx
    popq %rax
    cmpq %rcx, %rax
    setne %al
    movzbq %al, %rax
    pushq %rax
    popq %rax
    testq %rax, %rax
    jz L_if_end_121
    movabsq $0x53, %rax
    pushq %rax
    popq %rax
    movq %rbp, %rsp
    popq %rbp
    retq
    movq $0, %rax
    pushq %rax
    popq %rax
L_if_end_121:
    movq -56(%rbp), %rax
    pushq %rax
    popq %rcx
    subq $32, %rsp
    callq ident_zero
    addq $32, %rsp
    movslq %eax, %rax
    pushq %rax
    popq %rax
    movq -56(%rbp), %rax
    pushq %rax
    movabsq $0x0, %rax
    pushq %rax
    movabsq $0xb0, %rax
    pushq %rax
    popq %rdx
    popq %rcx
    popq %rax
    movb %dl, (%rax,%rcx,1)
    leaq L_BANCHOR_KAT_TGT(%rip), %rax
    pushq %rax
    popq %rax
    pushq %rax
    popq %rax
    pushq %rax
    movq -56(%rbp), %rax
    pushq %rax
    popq %rcx
    popq %rdx
    subq $32, %rsp
    callq L_ba_kat_emit
    addq $32, %rsp
    movslq %eax, %rax
    pushq %rax
    movabsq $0x0, %rax
    pushq %rax
    popq %rcx
    popq %rax
    cmpq %rcx, %rax
    setne %al
    movzbq %al, %rax
    pushq %rax
    popq %rax
    testq %rax, %rax
    jz L_if_end_123
    movabsq $0x54, %rax
    pushq %rax
    popq %rax
    movq %rbp, %rsp
    popq %rbp
    retq
    movq $0, %rax
    pushq %rax
    popq %rax
L_if_end_123:
    leaq L_BANCHOR_T_PID(%rip), %rax
    pushq %rax
    popq %rax
    pushq %rax
    popq %rax
    pushq %rax
    leaq L_BANCHOR_KAT_TGT(%rip), %rax
    pushq %rax
    popq %rax
    pushq %rax
    popq %rax
    pushq %rax
    leaq L_BANCHOR_T_BID(%rip), %rax
    pushq %rax
    popq %rax
    pushq %rax
    popq %rax
    pushq %rax
    popq %rcx
    popq %rdx
    popq %r8
    subq $32, %rsp
    callq ba_merge_propose
    addq $32, %rsp
    movslq %eax, %rax
    pushq %rax
    movslq L_BANCHOR_OK(%rip), %rax
    pushq %rax
    popq %rcx
    popq %rax
    cmpq %rcx, %rax
    setne %al
    movzbq %al, %rax
    pushq %rax
    popq %rax
    testq %rax, %rax
    jz L_if_end_125
    movabsq $0x55, %rax
    pushq %rax
    popq %rax
    movq %rbp, %rsp
    popq %rbp
    retq
    movq $0, %rax
    pushq %rax
    popq %rax
L_if_end_125:
    leaq L_BANCHOR_T_PID(%rip), %rax
    pushq %rax
    popq %rax
    pushq %rax
    popq %rax
    pushq %rax
    popq %rcx
    subq $32, %rsp
    callq ba_verify_bisimulation
    addq $32, %rsp
    movslq %eax, %rax
    pushq %rax
    movslq L_BANCHOR_OK(%rip), %rax
    pushq %rax
    popq %rcx
    popq %rax
    cmpq %rcx, %rax
    setne %al
    movzbq %al, %rax
    pushq %rax
    popq %rax
    testq %rax, %rax
    jz L_if_end_127
    movabsq $0x56, %rax
    pushq %rax
    popq %rax
    movq %rbp, %rsp
    popq %rbp
    retq
    movq $0, %rax
    pushq %rax
    popq %rax
L_if_end_127:
    leaq L_BANCHOR_T_PID(%rip), %rax
    pushq %rax
    popq %rax
    pushq %rax
    popq %rax
    pushq %rax
    popq %rcx
    subq $32, %rsp
    callq ba_merge_commit
    addq $32, %rsp
    movslq %eax, %rax
    pushq %rax
    movslq L_BANCHOR_OK(%rip), %rax
    pushq %rax
    popq %rcx
    popq %rax
    cmpq %rcx, %rax
    setne %al
    movzbq %al, %rax
    pushq %rax
    popq %rax
    testq %rax, %rax
    jz L_if_end_129
    movabsq $0x57, %rax
    pushq %rax
    popq %rax
    movq %rbp, %rsp
    popq %rbp
    retq
    movq $0, %rax
    pushq %rax
    popq %rax
L_if_end_129:
    movq -32(%rbp), %rax
    pushq %rax
    movabsq $0x64, %rax
    pushq %rax
    movabsq $0x55, %rax
    pushq %rax
    popq %rdx
    popq %rcx
    popq %rax
    movb %dl, (%rax,%rcx,1)
    movq -56(%rbp), %rax
    pushq %rax
    popq %rcx
    subq $32, %rsp
    callq ident_zero
    addq $32, %rsp
    movslq %eax, %rax
    pushq %rax
    popq %rax
    movq -56(%rbp), %rax
    pushq %rax
    movabsq $0x0, %rax
    pushq %rax
    movabsq $0xc0, %rax
    pushq %rax
    popq %rdx
    popq %rcx
    popq %rax
    movb %dl, (%rax,%rcx,1)
    leaq L_BANCHOR_KAT_TGTN(%rip), %rax
    pushq %rax
    popq %rax
    pushq %rax
    popq %rax
    pushq %rax
    movq -56(%rbp), %rax
    pushq %rax
    popq %rcx
    popq %rdx
    subq $32, %rsp
    callq L_ba_kat_emit
    addq $32, %rsp
    movslq %eax, %rax
    pushq %rax
    movabsq $0x0, %rax
    pushq %rax
    popq %rcx
    popq %rax
    cmpq %rcx, %rax
    setne %al
    movzbq %al, %rax
    pushq %rax
    popq %rax
    testq %rax, %rax
    jz L_if_end_131
    movabsq $0x58, %rax
    pushq %rax
    popq %rax
    movq %rbp, %rsp
    popq %rbp
    retq
    movq $0, %rax
    pushq %rax
    popq %rax
L_if_end_131:
    leaq L_BANCHOR_T_PID(%rip), %rax
    pushq %rax
    popq %rax
    pushq %rax
    popq %rax
    pushq %rax
    leaq L_BANCHOR_KAT_TGTN(%rip), %rax
    pushq %rax
    popq %rax
    pushq %rax
    popq %rax
    pushq %rax
    leaq L_BANCHOR_T_BID(%rip), %rax
    pushq %rax
    popq %rax
    pushq %rax
    popq %rax
    pushq %rax
    popq %rcx
    popq %rdx
    popq %r8
    subq $32, %rsp
    callq ba_merge_propose
    addq $32, %rsp
    movslq %eax, %rax
    pushq %rax
    movslq L_BANCHOR_E_NOT_BISIMILAR(%rip), %rax
    pushq %rax
    popq %rcx
    popq %rax
    cmpq %rcx, %rax
    setne %al
    movzbq %al, %rax
    pushq %rax
    popq %rax
    testq %rax, %rax
    jz L_if_end_133
    movabsq $0x59, %rax
    pushq %rax
    popq %rax
    movq %rbp, %rsp
    popq %rbp
    retq
    movq $0, %rax
    pushq %rax
    popq %rax
L_if_end_133:
    movabsq $0x0, %rax
    pushq %rax
    popq %rax
    movq %rbp, %rsp
    popq %rbp
    retq
    movq $0, %rax
    pushq %rax
    movq $0, %rax
    movq %rbp, %rsp
    popq %rbp
    retq
    .seh_endproc
    .section .iii.ring3,"n"
    .asciz "ba_selftest"
    .text
    .global ba_selftest
    .seh_proc ba_selftest
ba_selftest:
    pushq %rbp
    .seh_pushreg %rbp
    movq %rsp, %rbp
    .seh_setframe %rbp, 0
    subq $1024, %rsp
    .seh_stackalloc 1024
    .seh_endprologue
    movabsq $0x0, %rax
    pushq %rax
    popq %rax
    movb %al, L_BANCHOR_INITED(%rip)
    movabsq $0x0, %rax
    pushq %rax
    popq %rax
    pushq %rax
    popq %rax
    movq %rax, -8(%rbp)
    leaq L_BANCHOR_T_BID(%rip), %rax
    pushq %rax
    popq %rax
    pushq %rax
    popq %rax
    pushq %rax
    popq %rax
    movq %rax, -16(%rbp)
    leaq L_BANCHOR_T_ANC(%rip), %rax
    pushq %rax
    popq %rax
    pushq %rax
    popq %rax
    pushq %rax
    popq %rax
    movq %rax, -24(%rbp)
    leaq L_BANCHOR_T_PID(%rip), %rax
    pushq %rax
    popq %rax
    pushq %rax
    popq %rax
    pushq %rax
    popq %rax
    movq %rax, -32(%rbp)
    leaq L_BANCHOR_T_REQ(%rip), %rax
    pushq %rax
    popq %rax
    pushq %rax
    popq %rax
    pushq %rax
    popq %rax
    movq %rax, -40(%rbp)
    movq -16(%rbp), %rax
    pushq %rax
    movq -24(%rbp), %rax
    pushq %rax
    popq %rcx
    popq %rdx
    subq $32, %rsp
    callq ba_construct
    addq $32, %rsp
    movslq %eax, %rax
    pushq %rax
    movslq L_BANCHOR_E_NOT_INITED(%rip), %rax
    pushq %rax
    popq %rcx
    popq %rax
    cmpq %rcx, %rax
    setne %al
    movzbq %al, %rax
    pushq %rax
    popq %rax
    testq %rax, %rax
    jz L_if_end_135
    movabsq $0x1, %rax
    pushq %rax
    popq %rax
    movq %rbp, %rsp
    popq %rbp
    retq
    movq $0, %rax
    pushq %rax
    popq %rax
L_if_end_135:
    movq -40(%rbp), %rax
    pushq %rax
    popq %rcx
    subq $32, %rsp
    callq ba_append
    addq $32, %rsp
    movslq %eax, %rax
    pushq %rax
    movslq L_BANCHOR_E_NOT_INITED(%rip), %rax
    pushq %rax
    popq %rcx
    popq %rax
    cmpq %rcx, %rax
    setne %al
    movzbq %al, %rax
    pushq %rax
    popq %rax
    testq %rax, %rax
    jz L_if_end_137
    movabsq $0x2, %rax
    pushq %rax
    popq %rax
    movq %rbp, %rsp
    popq %rbp
    retq
    movq $0, %rax
    pushq %rax
    popq %rax
L_if_end_137:
    movq -16(%rbp), %rax
    pushq %rax
    popq %rcx
    subq $32, %rsp
    callq ba_retire
    addq $32, %rsp
    movslq %eax, %rax
    pushq %rax
    movslq L_BANCHOR_E_NOT_INITED(%rip), %rax
    pushq %rax
    popq %rcx
    popq %rax
    cmpq %rcx, %rax
    setne %al
    movzbq %al, %rax
    pushq %rax
    popq %rax
    testq %rax, %rax
    jz L_if_end_139
    movabsq $0x3, %rax
    pushq %rax
    popq %rax
    movq %rbp, %rsp
    popq %rbp
    retq
    movq $0, %rax
    pushq %rax
    popq %rax
L_if_end_139:
    movq -32(%rbp), %rax
    pushq %rax
    movq -24(%rbp), %rax
    pushq %rax
    movq -16(%rbp), %rax
    pushq %rax
    popq %rcx
    popq %rdx
    popq %r8
    subq $32, %rsp
    callq ba_merge_propose
    addq $32, %rsp
    movslq %eax, %rax
    pushq %rax
    movslq L_BANCHOR_E_NOT_INITED(%rip), %rax
    pushq %rax
    popq %rcx
    popq %rax
    cmpq %rcx, %rax
    setne %al
    movzbq %al, %rax
    pushq %rax
    popq %rax
    testq %rax, %rax
    jz L_if_end_141
    movabsq $0x4, %rax
    pushq %rax
    popq %rax
    movq %rbp, %rsp
    popq %rbp
    retq
    movq $0, %rax
    pushq %rax
    popq %rax
L_if_end_141:
    movq -32(%rbp), %rax
    pushq %rax
    popq %rcx
    subq $32, %rsp
    callq ba_verify_bisimulation
    addq $32, %rsp
    movslq %eax, %rax
    pushq %rax
    movslq L_BANCHOR_E_NOT_INITED(%rip), %rax
    pushq %rax
    popq %rcx
    popq %rax
    cmpq %rcx, %rax
    setne %al
    movzbq %al, %rax
    pushq %rax
    popq %rax
    testq %rax, %rax
    jz L_if_end_143
    movabsq $0x5, %rax
    pushq %rax
    popq %rax
    movq %rbp, %rsp
    popq %rbp
    retq
    movq $0, %rax
    pushq %rax
    popq %rax
L_if_end_143:
    movq -32(%rbp), %rax
    pushq %rax
    popq %rcx
    subq $32, %rsp
    callq ba_merge_commit
    addq $32, %rsp
    movslq %eax, %rax
    pushq %rax
    movslq L_BANCHOR_E_NOT_INITED(%rip), %rax
    pushq %rax
    popq %rcx
    popq %rax
    cmpq %rcx, %rax
    setne %al
    movzbq %al, %rax
    pushq %rax
    popq %rax
    testq %rax, %rax
    jz L_if_end_145
    movabsq $0x6, %rax
    pushq %rax
    popq %rax
    movq %rbp, %rsp
    popq %rbp
    retq
    movq $0, %rax
    pushq %rax
    popq %rax
L_if_end_145:
    subq $32, %rsp
    callq ba_init
    addq $32, %rsp
    movslq %eax, %rax
    pushq %rax
    movslq L_BANCHOR_OK(%rip), %rax
    pushq %rax
    popq %rcx
    popq %rax
    cmpq %rcx, %rax
    setne %al
    movzbq %al, %rax
    pushq %rax
    popq %rax
    testq %rax, %rax
    jz L_if_end_147
    movabsq $0xa, %rax
    pushq %rax
    popq %rax
    movq %rbp, %rsp
    popq %rbp
    retq
    movq $0, %rax
    pushq %rax
    popq %rax
L_if_end_147:
    subq $32, %rsp
    callq ba_init
    addq $32, %rsp
    movslq %eax, %rax
    pushq %rax
    movslq L_BANCHOR_OK(%rip), %rax
    pushq %rax
    popq %rcx
    popq %rax
    cmpq %rcx, %rax
    setne %al
    movzbq %al, %rax
    pushq %rax
    popq %rax
    testq %rax, %rax
    jz L_if_end_149
    movabsq $0xb, %rax
    pushq %rax
    popq %rax
    movq %rbp, %rsp
    popq %rbp
    retq
    movq $0, %rax
    pushq %rax
    popq %rax
L_if_end_149:
    movq -16(%rbp), %rax
    pushq %rax
    movq -8(%rbp), %rax
    pushq %rax
    popq %rcx
    popq %rdx
    subq $32, %rsp
    callq ba_construct
    addq $32, %rsp
    movslq %eax, %rax
    pushq %rax
    movslq L_BANCHOR_E_NULL(%rip), %rax
    pushq %rax
    popq %rcx
    popq %rax
    cmpq %rcx, %rax
    setne %al
    movzbq %al, %rax
    pushq %rax
    popq %rax
    testq %rax, %rax
    jz L_if_end_151
    movabsq $0x14, %rax
    pushq %rax
    popq %rax
    movq %rbp, %rsp
    popq %rbp
    retq
    movq $0, %rax
    pushq %rax
    popq %rax
L_if_end_151:
    movq -8(%rbp), %rax
    pushq %rax
    movq -24(%rbp), %rax
    pushq %rax
    popq %rcx
    popq %rdx
    subq $32, %rsp
    callq ba_construct
    addq $32, %rsp
    movslq %eax, %rax
    pushq %rax
    movslq L_BANCHOR_E_NULL(%rip), %rax
    pushq %rax
    popq %rcx
    popq %rax
    cmpq %rcx, %rax
    setne %al
    movzbq %al, %rax
    pushq %rax
    popq %rax
    testq %rax, %rax
    jz L_if_end_153
    movabsq $0x15, %rax
    pushq %rax
    popq %rax
    movq %rbp, %rsp
    popq %rbp
    retq
    movq $0, %rax
    pushq %rax
    popq %rax
L_if_end_153:
    movq -8(%rbp), %rax
    pushq %rax
    popq %rcx
    subq $32, %rsp
    callq ba_append
    addq $32, %rsp
    movslq %eax, %rax
    pushq %rax
    movslq L_BANCHOR_E_NULL(%rip), %rax
    pushq %rax
    popq %rcx
    popq %rax
    cmpq %rcx, %rax
    setne %al
    movzbq %al, %rax
    pushq %rax
    popq %rax
    testq %rax, %rax
    jz L_if_end_155
    movabsq $0x16, %rax
    pushq %rax
    popq %rax
    movq %rbp, %rsp
    popq %rbp
    retq
    movq $0, %rax
    pushq %rax
    popq %rax
L_if_end_155:
    movq -8(%rbp), %rax
    pushq %rax
    popq %rcx
    subq $32, %rsp
    callq ba_retire
    addq $32, %rsp
    movslq %eax, %rax
    pushq %rax
    movslq L_BANCHOR_E_NULL(%rip), %rax
    pushq %rax
    popq %rcx
    popq %rax
    cmpq %rcx, %rax
    setne %al
    movzbq %al, %rax
    pushq %rax
    popq %rax
    testq %rax, %rax
    jz L_if_end_157
    movabsq $0x17, %rax
    pushq %rax
    popq %rax
    movq %rbp, %rsp
    popq %rbp
    retq
    movq $0, %rax
    pushq %rax
    popq %rax
L_if_end_157:
    movq -32(%rbp), %rax
    pushq %rax
    movq -24(%rbp), %rax
    pushq %rax
    movq -8(%rbp), %rax
    pushq %rax
    popq %rcx
    popq %rdx
    popq %r8
    subq $32, %rsp
    callq ba_merge_propose
    addq $32, %rsp
    movslq %eax, %rax
    pushq %rax
    movslq L_BANCHOR_E_NULL(%rip), %rax
    pushq %rax
    popq %rcx
    popq %rax
    cmpq %rcx, %rax
    setne %al
    movzbq %al, %rax
    pushq %rax
    popq %rax
    testq %rax, %rax
    jz L_if_end_159
    movabsq $0x18, %rax
    pushq %rax
    popq %rax
    movq %rbp, %rsp
    popq %rbp
    retq
    movq $0, %rax
    pushq %rax
    popq %rax
L_if_end_159:
    movq -32(%rbp), %rax
    pushq %rax
    movq -8(%rbp), %rax
    pushq %rax
    movq -16(%rbp), %rax
    pushq %rax
    popq %rcx
    popq %rdx
    popq %r8
    subq $32, %rsp
    callq ba_merge_propose
    addq $32, %rsp
    movslq %eax, %rax
    pushq %rax
    movslq L_BANCHOR_E_NULL(%rip), %rax
    pushq %rax
    popq %rcx
    popq %rax
    cmpq %rcx, %rax
    setne %al
    movzbq %al, %rax
    pushq %rax
    popq %rax
    testq %rax, %rax
    jz L_if_end_161
    movabsq $0x19, %rax
    pushq %rax
    popq %rax
    movq %rbp, %rsp
    popq %rbp
    retq
    movq $0, %rax
    pushq %rax
    popq %rax
L_if_end_161:
    movq -8(%rbp), %rax
    pushq %rax
    movq -24(%rbp), %rax
    pushq %rax
    movq -16(%rbp), %rax
    pushq %rax
    popq %rcx
    popq %rdx
    popq %r8
    subq $32, %rsp
    callq ba_merge_propose
    addq $32, %rsp
    movslq %eax, %rax
    pushq %rax
    movslq L_BANCHOR_E_NULL(%rip), %rax
    pushq %rax
    popq %rcx
    popq %rax
    cmpq %rcx, %rax
    setne %al
    movzbq %al, %rax
    pushq %rax
    popq %rax
    testq %rax, %rax
    jz L_if_end_163
    movabsq $0x1a, %rax
    pushq %rax
    popq %rax
    movq %rbp, %rsp
    popq %rbp
    retq
    movq $0, %rax
    pushq %rax
    popq %rax
L_if_end_163:
    movq -8(%rbp), %rax
    pushq %rax
    popq %rcx
    subq $32, %rsp
    callq ba_verify_bisimulation
    addq $32, %rsp
    movslq %eax, %rax
    pushq %rax
    movslq L_BANCHOR_E_NULL(%rip), %rax
    pushq %rax
    popq %rcx
    popq %rax
    cmpq %rcx, %rax
    setne %al
    movzbq %al, %rax
    pushq %rax
    popq %rax
    testq %rax, %rax
    jz L_if_end_165
    movabsq $0x1b, %rax
    pushq %rax
    popq %rax
    movq %rbp, %rsp
    popq %rbp
    retq
    movq $0, %rax
    pushq %rax
    popq %rax
L_if_end_165:
    movq -8(%rbp), %rax
    pushq %rax
    popq %rcx
    subq $32, %rsp
    callq ba_merge_commit
    addq $32, %rsp
    movslq %eax, %rax
    pushq %rax
    movslq L_BANCHOR_E_NULL(%rip), %rax
    pushq %rax
    popq %rcx
    popq %rax
    cmpq %rcx, %rax
    setne %al
    movzbq %al, %rax
    pushq %rax
    popq %rax
    testq %rax, %rax
    jz L_if_end_167
    movabsq $0x1c, %rax
    pushq %rax
    popq %rax
    movq %rbp, %rsp
    popq %rbp
    retq
    movq $0, %rax
    pushq %rax
    popq %rax
L_if_end_167:
    movabsq $0x0, %rax
    pushq %rax
    popq %rax
    movq %rax, -48(%rbp)
L_loop_top_168:
    movq -48(%rbp), %rax
    pushq %rax
    movabsq $0x20, %rax
    pushq %rax
    popq %rcx
    popq %rax
    cmpq %rcx, %rax
    setb %al
    movzbq %al, %rax
    pushq %rax
    popq %rax
    testq %rax, %rax
    jz L_loop_end_169
    leaq L_BANCHOR_T_BID(%rip), %rax
    pushq %rax
    movq -48(%rbp), %rax
    pushq %rax
    movabsq $0x0, %rax
    pushq %rax
    popq %rdx
    popq %rcx
    popq %rax
    movb %dl, (%rax,%rcx,1)
    movq -48(%rbp), %rax
    pushq %rax
    movabsq $0x1, %rax
    pushq %rax
    popq %rcx
    popq %rax
    addq %rcx, %rax
    pushq %rax
    popq %rax
    movq %rax, -48(%rbp)
    movq $0, %rax
    pushq %rax
    popq %rax
    jmp L_loop_top_168
L_loop_end_169:
    movq -16(%rbp), %rax
    pushq %rax
    popq %rcx
    subq $32, %rsp
    callq L_ba_branch_slot
    addq $32, %rsp
    pushq %rax
    movabsq $0x1, %rax
    pushq %rax
    popq %rax
    negq %rax
    pushq %rax
    popq %rcx
    popq %rax
    cmpq %rcx, %rax
    setne %al
    movzbq %al, %rax
    pushq %rax
    popq %rax
    testq %rax, %rax
    jz L_if_end_171
    movabsq $0x1e, %rax
    pushq %rax
    popq %rax
    movq %rbp, %rsp
    popq %rbp
    retq
    movq $0, %rax
    pushq %rax
    popq %rax
L_if_end_171:
    movq -32(%rbp), %rax
    pushq %rax
    popq %rcx
    subq $32, %rsp
    callq L_ba_proposal_slot
    addq $32, %rsp
    pushq %rax
    movabsq $0x1, %rax
    pushq %rax
    popq %rax
    negq %rax
    pushq %rax
    popq %rcx
    popq %rax
    cmpq %rcx, %rax
    setne %al
    movzbq %al, %rax
    pushq %rax
    popq %rax
    testq %rax, %rax
    jz L_if_end_173
    movabsq $0x1f, %rax
    pushq %rax
    popq %rax
    movq %rbp, %rsp
    popq %rbp
    retq
    movq $0, %rax
    pushq %rax
    popq %rax
L_if_end_173:
    movq L_BANCHOR_BRANCH_COUNT(%rip), %rax
    pushq %rax
    movabsq $0x0, %rax
    pushq %rax
    popq %rcx
    popq %rax
    cmpq %rcx, %rax
    setne %al
    movzbq %al, %rax
    pushq %rax
    popq %rax
    testq %rax, %rax
    jz L_if_end_175
    movabsq $0x28, %rax
    pushq %rax
    popq %rax
    movq %rbp, %rsp
    popq %rbp
    retq
    movq $0, %rax
    pushq %rax
    popq %rax
L_if_end_175:
    leaq L_BANCHOR_PROPOSAL_VERIFIED(%rip), %rax
    pushq %rax
    movabsq $0x0, %rax
    pushq %rax
    popq %rcx
    popq %rax
    movzbq (%rax,%rcx,1), %rax
    pushq %rax
    movabsq $0x0, %rax
    pushq %rax
    popq %rcx
    popq %rax
    cmpq %rcx, %rax
    setne %al
    movzbq %al, %rax
    pushq %rax
    popq %rax
    testq %rax, %rax
    jz L_if_end_177
    movabsq $0x29, %rax
    pushq %rax
    popq %rax
    movq %rbp, %rsp
    popq %rbp
    retq
    movq $0, %rax
    pushq %rax
    popq %rax
L_if_end_177:
    leaq L_BANCHOR_RETIRE_LABEL(%rip), %rax
    pushq %rax
    movabsq $0x0, %rax
    pushq %rax
    popq %rcx
    popq %rax
    movzbq (%rax,%rcx,1), %rax
    pushq %rax
    movabsq $0x63, %rax
    pushq %rax
    popq %rcx
    popq %rax
    cmpq %rcx, %rax
    setne %al
    movzbq %al, %rax
    pushq %rax
    popq %rax
    testq %rax, %rax
    jz L_if_end_179
    movabsq $0x32, %rax
    pushq %rax
    popq %rax
    movq %rbp, %rsp
    popq %rbp
    retq
    movq $0, %rax
    pushq %rax
    popq %rax
L_if_end_179:
    leaq L_BANCHOR_MERGE_LABEL(%rip), %rax
    pushq %rax
    movabsq $0xa, %rax
    pushq %rax
    popq %rcx
    popq %rax
    movzbq (%rax,%rcx,1), %rax
    pushq %rax
    movabsq $0x6d, %rax
    pushq %rax
    popq %rcx
    popq %rax
    cmpq %rcx, %rax
    setne %al
    movzbq %al, %rax
    pushq %rax
    popq %rax
    testq %rax, %rax
    jz L_if_end_181
    movabsq $0x33, %rax
    pushq %rax
    popq %rax
    movq %rbp, %rsp
    popq %rbp
    retq
    movq $0, %rax
    pushq %rax
    popq %rax
L_if_end_181:
    movq -16(%rbp), %rax
    pushq %rax
    popq %rcx
    subq $32, %rsp
    callq ba_retire
    addq $32, %rsp
    movslq %eax, %rax
    pushq %rax
    movslq L_BANCHOR_E_BRANCH_ABSENT(%rip), %rax
    pushq %rax
    popq %rcx
    popq %rax
    cmpq %rcx, %rax
    setne %al
    movzbq %al, %rax
    pushq %rax
    popq %rax
    testq %rax, %rax
    jz L_if_end_183
    movabsq $0x3c, %rax
    pushq %rax
    popq %rax
    movq %rbp, %rsp
    popq %rbp
    retq
    movq $0, %rax
    pushq %rax
    popq %rax
L_if_end_183:
    movabsq $0x0, %rax
    pushq %rax
    popq %rax
    movq %rax, -56(%rbp)
L_loop_top_184:
    movq -56(%rbp), %rax
    pushq %rax
    movabsq $0xa0, %rax
    pushq %rax
    popq %rcx
    popq %rax
    cmpq %rcx, %rax
    setb %al
    movzbq %al, %rax
    pushq %rax
    popq %rax
    testq %rax, %rax
    jz L_loop_end_185
    leaq L_BANCHOR_T_REQ(%rip), %rax
    pushq %rax
    movq -56(%rbp), %rax
    pushq %rax
    movabsq $0x0, %rax
    pushq %rax
    popq %rdx
    popq %rcx
    popq %rax
    movb %dl, (%rax,%rcx,1)
    movq -56(%rbp), %rax
    pushq %rax
    movabsq $0x1, %rax
    pushq %rax
    popq %rcx
    popq %rax
    addq %rcx, %rax
    pushq %rax
    popq %rax
    movq %rax, -56(%rbp)
    movq $0, %rax
    pushq %rax
    popq %rax
    jmp L_loop_top_184
L_loop_end_185:
    movq -40(%rbp), %rax
    pushq %rax
    popq %rcx
    subq $32, %rsp
    callq ba_append
    addq $32, %rsp
    movslq %eax, %rax
    pushq %rax
    movslq L_BANCHOR_E_BRANCH_ABSENT(%rip), %rax
    pushq %rax
    popq %rcx
    popq %rax
    cmpq %rcx, %rax
    setne %al
    movzbq %al, %rax
    pushq %rax
    popq %rax
    testq %rax, %rax
    jz L_if_end_187
    movabsq $0x3d, %rax
    pushq %rax
    popq %rax
    movq %rbp, %rsp
    popq %rbp
    retq
    movq $0, %rax
    pushq %rax
    popq %rax
L_if_end_187:
    movq -32(%rbp), %rax
    pushq %rax
    popq %rcx
    subq $32, %rsp
    callq ba_verify_bisimulation
    addq $32, %rsp
    movslq %eax, %rax
    pushq %rax
    movslq L_BANCHOR_E_NOT_BISIMILAR(%rip), %rax
    pushq %rax
    popq %rcx
    popq %rax
    cmpq %rcx, %rax
    setne %al
    movzbq %al, %rax
    pushq %rax
    popq %rax
    testq %rax, %rax
    jz L_if_end_189
    movabsq $0x3e, %rax
    pushq %rax
    popq %rax
    movq %rbp, %rsp
    popq %rbp
    retq
    movq $0, %rax
    pushq %rax
    popq %rax
L_if_end_189:
    movq L_BANCHOR_BRANCH_COUNT(%rip), %rax
    pushq %rax
    movabsq $0x0, %rax
    pushq %rax
    popq %rcx
    popq %rax
    cmpq %rcx, %rax
    setne %al
    movzbq %al, %rax
    pushq %rax
    popq %rax
    testq %rax, %rax
    jz L_if_end_191
    movabsq $0x46, %rax
    pushq %rax
    popq %rax
    movq %rbp, %rsp
    popq %rbp
    retq
    movq $0, %rax
    pushq %rax
    popq %rax
L_if_end_191:
    subq $32, %rsp
    callq L_ba_kat_merge
    addq $32, %rsp
    pushq %rax
    popq %rax
    movq %rax, -64(%rbp)
    movq -64(%rbp), %rax
    pushq %rax
    movabsq $0x0, %rax
    pushq %rax
    popq %rcx
    popq %rax
    cmpq %rcx, %rax
    setne %al
    movzbq %al, %rax
    pushq %rax
    popq %rax
    testq %rax, %rax
    jz L_if_end_193
    movq -64(%rbp), %rax
    pushq %rax
    popq %rax
    movq %rbp, %rsp
    popq %rbp
    retq
    movq $0, %rax
    pushq %rax
    popq %rax
L_if_end_193:
    movabsq $0x63, %rax
    pushq %rax
    popq %rax
    movq %rbp, %rsp
    popq %rbp
    retq
    movq $0, %rax
    pushq %rax
    movq $0, %rax
    movq %rbp, %rsp
    popq %rbp
    retq
    .seh_endproc
