# III Stage-0 Ring-3 codegen output
# Microsoft x64 ABI; gas syntax (AT&T); PE/COFF target
    .att_syntax
    .file 1 "<iii-source>"
    .section .rodata
    .section .rodata
L_PE_DIMS:
    .quad 0x6
L_PE_MAX:
    .quad 0x100
    .section .bss
    .global L_PE_COST
L_PE_COST:
    .zero 12288
    .global L_PE_ON
L_PE_ON:
    .zero 2048
    .global L_PE_N
L_PE_N:
    .zero 8
    .section .iii.ring3,"n"
    .asciz "pe_reset"
    .text
    .global pe_reset
    .seh_proc pe_reset
pe_reset:
    pushq %rbp
    .seh_pushreg %rbp
    movq %rsp, %rbp
    .seh_setframe %rbp, 0
    subq $1024, %rsp
    .seh_stackalloc 1024
    .seh_endprologue
    leaq L_PE_N(%rip), %rax
    pushq %rax
    movabsq $0x0, %rax
    pushq %rax
    movabsq $0x0, %rax
    pushq %rax
    popq %rdx
    popq %rcx
    popq %rax
    movq %rdx, (%rax,%rcx,8)
    movabsq $0x0, %rax
    pushq %rax
    popq %rax
    movq %rbp, %rsp
    popq %rbp
    retq
    movq $0, %rax
    pushq %rax
    movq $0, %rax
    movq %rbp, %rsp
    popq %rbp
    retq
    .seh_endproc
    .section .iii.ring3,"n"
    .asciz "pe_add"
    .text
    .global pe_add
    .seh_proc pe_add
pe_add:
    pushq %rbp
    .seh_pushreg %rbp
    movq %rsp, %rbp
    .seh_setframe %rbp, 0
    subq $1024, %rsp
    .seh_stackalloc 1024
    .seh_endprologue
    movq %rcx, -8(%rbp)
    movq %rdx, -16(%rbp)
    movq %r8, -24(%rbp)
    movq %r9, -32(%rbp)
    movq 48(%rbp), %rax
    movq %rax, -40(%rbp)
    movq 56(%rbp), %rax
    movq %rax, -48(%rbp)
    movq -8(%rbp), %rax
    pushq %rax
    popq %rax
    movq %rax, -56(%rbp)
    movq -16(%rbp), %rax
    pushq %rax
    popq %rax
    movq %rax, -64(%rbp)
    movq -24(%rbp), %rax
    pushq %rax
    popq %rax
    movq %rax, -72(%rbp)
    movq -32(%rbp), %rax
    pushq %rax
    popq %rax
    movq %rax, -80(%rbp)
    movq -40(%rbp), %rax
    pushq %rax
    popq %rax
    movq %rax, -88(%rbp)
    movq -48(%rbp), %rax
    pushq %rax
    popq %rax
    movq %rax, -96(%rbp)
    leaq L_PE_N(%rip), %rax
    pushq %rax
    movabsq $0x0, %rax
    pushq %rax
    popq %rcx
    popq %rax
    movq (%rax,%rcx,8), %rax
    pushq %rax
    popq %rax
    movq %rax, -104(%rbp)
    movq -104(%rbp), %rax
    pushq %rax
    movq L_PE_MAX(%rip), %rax
    pushq %rax
    popq %rcx
    popq %rax
    cmpq %rcx, %rax
    setae %al
    movzbq %al, %rax
    pushq %rax
    popq %rax
    testq %rax, %rax
    jz L_if_end_1
    movabsq $0x0, %rax
    pushq %rax
    movabsq $0x1, %rax
    pushq %rax
    popq %rcx
    popq %rax
    subq %rcx, %rax
    pushq %rax
    popq %rax
    movq %rbp, %rsp
    popq %rbp
    retq
    movq $0, %rax
    pushq %rax
    popq %rax
L_if_end_1:
    movq -104(%rbp), %rax
    pushq %rax
    movq L_PE_DIMS(%rip), %rax
    pushq %rax
    popq %rcx
    popq %rax
    imulq %rcx, %rax
    pushq %rax
    popq %rax
    movq %rax, -112(%rbp)
    leaq L_PE_COST(%rip), %rax
    pushq %rax
    movq -112(%rbp), %rax
    pushq %rax
    movq -56(%rbp), %rax
    pushq %rax
    popq %rdx
    popq %rcx
    popq %rax
    movq %rdx, (%rax,%rcx,8)
    leaq L_PE_COST(%rip), %rax
    pushq %rax
    movq -112(%rbp), %rax
    pushq %rax
    movabsq $0x1, %rax
    pushq %rax
    popq %rcx
    popq %rax
    addq %rcx, %rax
    pushq %rax
    movq -64(%rbp), %rax
    pushq %rax
    popq %rdx
    popq %rcx
    popq %rax
    movq %rdx, (%rax,%rcx,8)
    leaq L_PE_COST(%rip), %rax
    pushq %rax
    movq -112(%rbp), %rax
    pushq %rax
    movabsq $0x2, %rax
    pushq %rax
    popq %rcx
    popq %rax
    addq %rcx, %rax
    pushq %rax
    movq -72(%rbp), %rax
    pushq %rax
    popq %rdx
    popq %rcx
    popq %rax
    movq %rdx, (%rax,%rcx,8)
    leaq L_PE_COST(%rip), %rax
    pushq %rax
    movq -112(%rbp), %rax
    pushq %rax
    movabsq $0x3, %rax
    pushq %rax
    popq %rcx
    popq %rax
    addq %rcx, %rax
    pushq %rax
    movq -80(%rbp), %rax
    pushq %rax
    popq %rdx
    popq %rcx
    popq %rax
    movq %rdx, (%rax,%rcx,8)
    leaq L_PE_COST(%rip), %rax
    pushq %rax
    movq -112(%rbp), %rax
    pushq %rax
    movabsq $0x4, %rax
    pushq %rax
    popq %rcx
    popq %rax
    addq %rcx, %rax
    pushq %rax
    movq -88(%rbp), %rax
    pushq %rax
    popq %rdx
    popq %rcx
    popq %rax
    movq %rdx, (%rax,%rcx,8)
    leaq L_PE_COST(%rip), %rax
    pushq %rax
    movq -112(%rbp), %rax
    pushq %rax
    movabsq $0x5, %rax
    pushq %rax
    popq %rcx
    popq %rax
    addq %rcx, %rax
    pushq %rax
    movq -96(%rbp), %rax
    pushq %rax
    popq %rdx
    popq %rcx
    popq %rax
    movq %rdx, (%rax,%rcx,8)
    leaq L_PE_N(%rip), %rax
    pushq %rax
    movabsq $0x0, %rax
    pushq %rax
    movq -104(%rbp), %rax
    pushq %rax
    movabsq $0x1, %rax
    pushq %rax
    popq %rcx
    popq %rax
    addq %rcx, %rax
    pushq %rax
    popq %rdx
    popq %rcx
    popq %rax
    movq %rdx, (%rax,%rcx,8)
    movq -104(%rbp), %rax
    pushq %rax
    popq %rax
    pushq %rax
    popq %rax
    movq %rbp, %rsp
    popq %rbp
    retq
    movq $0, %rax
    pushq %rax
    movq $0, %rax
    movq %rbp, %rsp
    popq %rbp
    retq
    .seh_endproc
    .section .iii.ring3,"n"
    .asciz "pe_dominates"
    .text
    .global pe_dominates
    .seh_proc pe_dominates
pe_dominates:
    pushq %rbp
    .seh_pushreg %rbp
    movq %rsp, %rbp
    .seh_setframe %rbp, 0
    subq $1024, %rsp
    .seh_stackalloc 1024
    .seh_endprologue
    movq %rcx, -8(%rbp)
    movq %rdx, -16(%rbp)
    movq -8(%rbp), %rax
    pushq %rax
    movq L_PE_DIMS(%rip), %rax
    pushq %rax
    popq %rcx
    popq %rax
    imulq %rcx, %rax
    pushq %rax
    popq %rax
    movq %rax, -24(%rbp)
    movq -16(%rbp), %rax
    pushq %rax
    movq L_PE_DIMS(%rip), %rax
    pushq %rax
    popq %rcx
    popq %rax
    imulq %rcx, %rax
    pushq %rax
    popq %rax
    movq %rax, -32(%rbp)
    movabsq $0x1, %rax
    pushq %rax
    popq %rax
    movq %rax, -40(%rbp)
    movabsq $0x0, %rax
    pushq %rax
    popq %rax
    movq %rax, -48(%rbp)
    movabsq $0x0, %rax
    pushq %rax
    popq %rax
    movq %rax, -56(%rbp)
L_loop_top_2:
    movq -56(%rbp), %rax
    pushq %rax
    movq L_PE_DIMS(%rip), %rax
    pushq %rax
    popq %rcx
    popq %rax
    cmpq %rcx, %rax
    setb %al
    movzbq %al, %rax
    pushq %rax
    popq %rax
    testq %rax, %rax
    jz L_loop_end_3
    leaq L_PE_COST(%rip), %rax
    pushq %rax
    movq -24(%rbp), %rax
    pushq %rax
    movq -56(%rbp), %rax
    pushq %rax
    popq %rcx
    popq %rax
    addq %rcx, %rax
    pushq %rax
    popq %rcx
    popq %rax
    movq (%rax,%rcx,8), %rax
    pushq %rax
    popq %rax
    movq %rax, -64(%rbp)
    leaq L_PE_COST(%rip), %rax
    pushq %rax
    movq -32(%rbp), %rax
    pushq %rax
    movq -56(%rbp), %rax
    pushq %rax
    popq %rcx
    popq %rax
    addq %rcx, %rax
    pushq %rax
    popq %rcx
    popq %rax
    movq (%rax,%rcx,8), %rax
    pushq %rax
    popq %rax
    movq %rax, -72(%rbp)
    movq -64(%rbp), %rax
    pushq %rax
    movq -72(%rbp), %rax
    pushq %rax
    popq %rcx
    popq %rax
    cmpq %rcx, %rax
    seta %al
    movzbq %al, %rax
    pushq %rax
    popq %rax
    testq %rax, %rax
    jz L_if_end_5
    movabsq $0x0, %rax
    pushq %rax
    popq %rax
    movq %rax, -40(%rbp)
    movq $0, %rax
    pushq %rax
    popq %rax
L_if_end_5:
    movq -64(%rbp), %rax
    pushq %rax
    movq -72(%rbp), %rax
    pushq %rax
    popq %rcx
    popq %rax
    cmpq %rcx, %rax
    setb %al
    movzbq %al, %rax
    pushq %rax
    popq %rax
    testq %rax, %rax
    jz L_if_end_7
    movabsq $0x1, %rax
    pushq %rax
    popq %rax
    movq %rax, -48(%rbp)
    movq $0, %rax
    pushq %rax
    popq %rax
L_if_end_7:
    movq -56(%rbp), %rax
    pushq %rax
    movabsq $0x1, %rax
    pushq %rax
    popq %rcx
    popq %rax
    addq %rcx, %rax
    pushq %rax
    popq %rax
    movq %rax, -56(%rbp)
    movq $0, %rax
    pushq %rax
    popq %rax
    jmp L_loop_top_2
L_loop_end_3:
    movzbq -40(%rbp), %rax
    pushq %rax
    movabsq $0x1, %rax
    pushq %rax
    popq %rcx
    popq %rax
    cmpq %rcx, %rax
    sete %al
    movzbq %al, %rax
    pushq %rax
    popq %rax
    testq %rax, %rax
    jz L_if_end_9
    movzbq -48(%rbp), %rax
    pushq %rax
    movabsq $0x1, %rax
    pushq %rax
    popq %rcx
    popq %rax
    cmpq %rcx, %rax
    sete %al
    movzbq %al, %rax
    pushq %rax
    popq %rax
    testq %rax, %rax
    jz L_if_end_11
    movabsq $0x1, %rax
    pushq %rax
    popq %rax
    movq %rbp, %rsp
    popq %rbp
    retq
    movq $0, %rax
    pushq %rax
    popq %rax
L_if_end_11:
    movq $0, %rax
    pushq %rax
    popq %rax
L_if_end_9:
    movabsq $0x0, %rax
    pushq %rax
    popq %rax
    movq %rbp, %rsp
    popq %rbp
    retq
    movq $0, %rax
    pushq %rax
    movq $0, %rax
    movq %rbp, %rsp
    popq %rbp
    retq
    .seh_endproc
    .section .iii.ring3,"n"
    .asciz "pe_pareto_frontier"
    .text
    .global pe_pareto_frontier
    .seh_proc pe_pareto_frontier
pe_pareto_frontier:
    pushq %rbp
    .seh_pushreg %rbp
    movq %rsp, %rbp
    .seh_setframe %rbp, 0
    subq $1024, %rsp
    .seh_stackalloc 1024
    .seh_endprologue
    leaq L_PE_N(%rip), %rax
    pushq %rax
    movabsq $0x0, %rax
    pushq %rax
    popq %rcx
    popq %rax
    movq (%rax,%rcx,8), %rax
    pushq %rax
    popq %rax
    movq %rax, -8(%rbp)
    movabsq $0x0, %rax
    pushq %rax
    popq %rax
    movq %rax, -16(%rbp)
    movabsq $0x0, %rax
    pushq %rax
    popq %rax
    movq %rax, -24(%rbp)
L_loop_top_12:
    movq -24(%rbp), %rax
    pushq %rax
    movq -8(%rbp), %rax
    pushq %rax
    popq %rcx
    popq %rax
    cmpq %rcx, %rax
    setb %al
    movzbq %al, %rax
    pushq %rax
    popq %rax
    testq %rax, %rax
    jz L_loop_end_13
    movabsq $0x0, %rax
    pushq %rax
    popq %rax
    movq %rax, -32(%rbp)
    movabsq $0x0, %rax
    pushq %rax
    popq %rax
    movq %rax, -40(%rbp)
L_loop_top_14:
    movq -40(%rbp), %rax
    pushq %rax
    movq -8(%rbp), %rax
    pushq %rax
    popq %rcx
    popq %rax
    cmpq %rcx, %rax
    setb %al
    movzbq %al, %rax
    pushq %rax
    popq %rax
    testq %rax, %rax
    jz L_loop_end_15
    movq -40(%rbp), %rax
    pushq %rax
    movq -24(%rbp), %rax
    pushq %rax
    popq %rcx
    popq %rax
    cmpq %rcx, %rax
    setne %al
    movzbq %al, %rax
    pushq %rax
    popq %rax
    testq %rax, %rax
    jz L_if_end_17
    movq -24(%rbp), %rax
    pushq %rax
    movq -40(%rbp), %rax
    pushq %rax
    popq %rcx
    popq %rdx
    subq $32, %rsp
    callq pe_dominates
    addq $32, %rsp
    movzbq %al, %rax
    pushq %rax
    movabsq $0x1, %rax
    pushq %rax
    popq %rcx
    popq %rax
    cmpq %rcx, %rax
    sete %al
    movzbq %al, %rax
    pushq %rax
    popq %rax
    testq %rax, %rax
    jz L_if_end_19
    movabsq $0x1, %rax
    pushq %rax
    popq %rax
    movq %rax, -32(%rbp)
    movq $0, %rax
    pushq %rax
    popq %rax
L_if_end_19:
    movq $0, %rax
    pushq %rax
    popq %rax
L_if_end_17:
    movq -40(%rbp), %rax
    pushq %rax
    movabsq $0x1, %rax
    pushq %rax
    popq %rcx
    popq %rax
    addq %rcx, %rax
    pushq %rax
    popq %rax
    movq %rax, -40(%rbp)
    movq $0, %rax
    pushq %rax
    popq %rax
    jmp L_loop_top_14
L_loop_end_15:
    movzbq -32(%rbp), %rax
    pushq %rax
    movabsq $0x0, %rax
    pushq %rax
    popq %rcx
    popq %rax
    cmpq %rcx, %rax
    sete %al
    movzbq %al, %rax
    pushq %rax
    popq %rax
    testq %rax, %rax
    jz L_if_else_20
    leaq L_PE_ON(%rip), %rax
    pushq %rax
    movq -24(%rbp), %rax
    pushq %rax
    movabsq $0x1, %rax
    pushq %rax
    popq %rdx
    popq %rcx
    popq %rax
    movb %dl, (%rax,%rcx,1)
    movq -16(%rbp), %rax
    pushq %rax
    movabsq $0x1, %rax
    pushq %rax
    popq %rcx
    popq %rax
    addq %rcx, %rax
    pushq %rax
    popq %rax
    movq %rax, -16(%rbp)
    movq $0, %rax
    pushq %rax
    popq %rax
    jmp L_if_end_21
L_if_else_20:
    leaq L_PE_ON(%rip), %rax
    pushq %rax
    movq -24(%rbp), %rax
    pushq %rax
    movabsq $0x0, %rax
    pushq %rax
    popq %rdx
    popq %rcx
    popq %rax
    movb %dl, (%rax,%rcx,1)
    movq $0, %rax
    pushq %rax
    popq %rax
L_if_end_21:
    movq -24(%rbp), %rax
    pushq %rax
    movabsq $0x1, %rax
    pushq %rax
    popq %rcx
    popq %rax
    addq %rcx, %rax
    pushq %rax
    popq %rax
    movq %rax, -24(%rbp)
    movq $0, %rax
    pushq %rax
    popq %rax
    jmp L_loop_top_12
L_loop_end_13:
    movq -16(%rbp), %rax
    pushq %rax
    popq %rax
    movq %rbp, %rsp
    popq %rbp
    retq
    movq $0, %rax
    pushq %rax
    movq $0, %rax
    movq %rbp, %rsp
    popq %rbp
    retq
    .seh_endproc
    .section .iii.ring3,"n"
    .asciz "pe_on_frontier"
    .text
    .global pe_on_frontier
    .seh_proc pe_on_frontier
pe_on_frontier:
    pushq %rbp
    .seh_pushreg %rbp
    movq %rsp, %rbp
    .seh_setframe %rbp, 0
    subq $1024, %rsp
    .seh_stackalloc 1024
    .seh_endprologue
    movq %rcx, -8(%rbp)
    movq -8(%rbp), %rax
    pushq %rax
    leaq L_PE_N(%rip), %rax
    pushq %rax
    movabsq $0x0, %rax
    pushq %rax
    popq %rcx
    popq %rax
    movq (%rax,%rcx,8), %rax
    pushq %rax
    popq %rcx
    popq %rax
    cmpq %rcx, %rax
    setae %al
    movzbq %al, %rax
    pushq %rax
    popq %rax
    testq %rax, %rax
    jz L_if_end_23
    movabsq $0x0, %rax
    pushq %rax
    popq %rax
    movq %rbp, %rsp
    popq %rbp
    retq
    movq $0, %rax
    pushq %rax
    popq %rax
L_if_end_23:
    leaq L_PE_ON(%rip), %rax
    pushq %rax
    movq -8(%rbp), %rax
    pushq %rax
    popq %rcx
    popq %rax
    movzbq (%rax,%rcx,1), %rax
    pushq %rax
    popq %rax
    movq %rbp, %rsp
    popq %rbp
    retq
    movq $0, %rax
    pushq %rax
    movq $0, %rax
    movq %rbp, %rsp
    popq %rbp
    retq
    .seh_endproc
    .section .iii.ring3,"n"
    .asciz "pareto_selftest"
    .text
    .global pareto_selftest
    .seh_proc pareto_selftest
pareto_selftest:
    pushq %rbp
    .seh_pushreg %rbp
    movq %rsp, %rbp
    .seh_setframe %rbp, 0
    subq $1024, %rsp
    .seh_stackalloc 1024
    .seh_endprologue
    subq $32, %rsp
    callq pe_reset
    addq $32, %rsp
    movslq %eax, %rax
    pushq %rax
    popq %rax
    movabsq $0x1, %rax
    pushq %rax
    movabsq $0x1, %rax
    pushq %rax
    movabsq $0x1, %rax
    pushq %rax
    movabsq $0x1, %rax
    pushq %rax
    movabsq $0x1, %rax
    pushq %rax
    movabsq $0x1, %rax
    pushq %rax
    popq %rcx
    popq %rdx
    popq %r8
    popq %r9
    subq $32, %rsp
    callq pe_add
    addq $32, %rsp
    addq $16, %rsp
    pushq %rax
    popq %rax
    movabsq $0x2, %rax
    pushq %rax
    movabsq $0x2, %rax
    pushq %rax
    movabsq $0x2, %rax
    pushq %rax
    movabsq $0x2, %rax
    pushq %rax
    movabsq $0x2, %rax
    pushq %rax
    movabsq $0x2, %rax
    pushq %rax
    popq %rcx
    popq %rdx
    popq %r8
    popq %r9
    subq $32, %rsp
    callq pe_add
    addq $32, %rsp
    addq $16, %rsp
    pushq %rax
    popq %rax
    movabsq $0x1, %rax
    pushq %rax
    movabsq $0x1, %rax
    pushq %rax
    movabsq $0x1, %rax
    pushq %rax
    movabsq $0x1, %rax
    pushq %rax
    movabsq $0x1, %rax
    pushq %rax
    movabsq $0x1, %rax
    pushq %rax
    popq %rcx
    popq %rdx
    popq %r8
    popq %r9
    subq $32, %rsp
    callq pe_add
    addq $32, %rsp
    addq $16, %rsp
    pushq %rax
    popq %rax
    movabsq $0x1, %rax
    pushq %rax
    movabsq $0x0, %rax
    pushq %rax
    popq %rcx
    popq %rdx
    subq $32, %rsp
    callq pe_dominates
    addq $32, %rsp
    movzbq %al, %rax
    pushq %rax
    movabsq $0x1, %rax
    pushq %rax
    popq %rcx
    popq %rax
    cmpq %rcx, %rax
    setne %al
    movzbq %al, %rax
    pushq %rax
    popq %rax
    testq %rax, %rax
    jz L_if_end_25
    movabsq $0x1, %rax
    pushq %rax
    popq %rax
    movq %rbp, %rsp
    popq %rbp
    retq
    movq $0, %rax
    pushq %rax
    popq %rax
L_if_end_25:
    movabsq $0x0, %rax
    pushq %rax
    movabsq $0x1, %rax
    pushq %rax
    popq %rcx
    popq %rdx
    subq $32, %rsp
    callq pe_dominates
    addq $32, %rsp
    movzbq %al, %rax
    pushq %rax
    movabsq $0x0, %rax
    pushq %rax
    popq %rcx
    popq %rax
    cmpq %rcx, %rax
    setne %al
    movzbq %al, %rax
    pushq %rax
    popq %rax
    testq %rax, %rax
    jz L_if_end_27
    movabsq $0x2, %rax
    pushq %rax
    popq %rax
    movq %rbp, %rsp
    popq %rbp
    retq
    movq $0, %rax
    pushq %rax
    popq %rax
L_if_end_27:
    movabsq $0x2, %rax
    pushq %rax
    movabsq $0x0, %rax
    pushq %rax
    popq %rcx
    popq %rdx
    subq $32, %rsp
    callq pe_dominates
    addq $32, %rsp
    movzbq %al, %rax
    pushq %rax
    movabsq $0x0, %rax
    pushq %rax
    popq %rcx
    popq %rax
    cmpq %rcx, %rax
    setne %al
    movzbq %al, %rax
    pushq %rax
    popq %rax
    testq %rax, %rax
    jz L_if_end_29
    movabsq $0x3, %rax
    pushq %rax
    popq %rax
    movq %rbp, %rsp
    popq %rbp
    retq
    movq $0, %rax
    pushq %rax
    popq %rax
L_if_end_29:
    subq $32, %rsp
    callq pe_reset
    addq $32, %rsp
    movslq %eax, %rax
    pushq %rax
    popq %rax
    movabsq $0x5, %rax
    pushq %rax
    movabsq $0x5, %rax
    pushq %rax
    movabsq $0x5, %rax
    pushq %rax
    movabsq $0x9, %rax
    pushq %rax
    movabsq $0x9, %rax
    pushq %rax
    movabsq $0x1, %rax
    pushq %rax
    popq %rcx
    popq %rdx
    popq %r8
    popq %r9
    subq $32, %rsp
    callq pe_add
    addq $32, %rsp
    addq $16, %rsp
    pushq %rax
    popq %rax
    movabsq $0x5, %rax
    pushq %rax
    movabsq $0x5, %rax
    pushq %rax
    movabsq $0x5, %rax
    pushq %rax
    movabsq $0x9, %rax
    pushq %rax
    movabsq $0x1, %rax
    pushq %rax
    movabsq $0x9, %rax
    pushq %rax
    popq %rcx
    popq %rdx
    popq %r8
    popq %r9
    subq $32, %rsp
    callq pe_add
    addq $32, %rsp
    addq $16, %rsp
    pushq %rax
    popq %rax
    movabsq $0x5, %rax
    pushq %rax
    movabsq $0x5, %rax
    pushq %rax
    movabsq $0x5, %rax
    pushq %rax
    movabsq $0x1, %rax
    pushq %rax
    movabsq $0x9, %rax
    pushq %rax
    movabsq $0x9, %rax
    pushq %rax
    popq %rcx
    popq %rdx
    popq %r8
    popq %r9
    subq $32, %rsp
    callq pe_add
    addq $32, %rsp
    addq $16, %rsp
    pushq %rax
    popq %rax
    movabsq $0x9, %rax
    pushq %rax
    movabsq $0x9, %rax
    pushq %rax
    movabsq $0x9, %rax
    pushq %rax
    movabsq $0x9, %rax
    pushq %rax
    movabsq $0x9, %rax
    pushq %rax
    movabsq $0x9, %rax
    pushq %rax
    popq %rcx
    popq %rdx
    popq %r8
    popq %r9
    subq $32, %rsp
    callq pe_add
    addq $32, %rsp
    addq $16, %rsp
    pushq %rax
    popq %rax
    subq $32, %rsp
    callq pe_pareto_frontier
    addq $32, %rsp
    pushq %rax
    popq %rax
    movq %rax, -8(%rbp)
    movq -8(%rbp), %rax
    pushq %rax
    movabsq $0x3, %rax
    pushq %rax
    popq %rcx
    popq %rax
    cmpq %rcx, %rax
    setne %al
    movzbq %al, %rax
    pushq %rax
    popq %rax
    testq %rax, %rax
    jz L_if_end_31
    movabsq $0x4, %rax
    pushq %rax
    popq %rax
    movq %rbp, %rsp
    popq %rbp
    retq
    movq $0, %rax
    pushq %rax
    popq %rax
L_if_end_31:
    movabsq $0x0, %rax
    pushq %rax
    popq %rcx
    subq $32, %rsp
    callq pe_on_frontier
    addq $32, %rsp
    movzbq %al, %rax
    pushq %rax
    movabsq $0x1, %rax
    pushq %rax
    popq %rcx
    popq %rax
    cmpq %rcx, %rax
    setne %al
    movzbq %al, %rax
    pushq %rax
    popq %rax
    testq %rax, %rax
    jz L_if_end_33
    movabsq $0x5, %rax
    pushq %rax
    popq %rax
    movq %rbp, %rsp
    popq %rbp
    retq
    movq $0, %rax
    pushq %rax
    popq %rax
L_if_end_33:
    movabsq $0x1, %rax
    pushq %rax
    popq %rcx
    subq $32, %rsp
    callq pe_on_frontier
    addq $32, %rsp
    movzbq %al, %rax
    pushq %rax
    movabsq $0x1, %rax
    pushq %rax
    popq %rcx
    popq %rax
    cmpq %rcx, %rax
    setne %al
    movzbq %al, %rax
    pushq %rax
    popq %rax
    testq %rax, %rax
    jz L_if_end_35
    movabsq $0x6, %rax
    pushq %rax
    popq %rax
    movq %rbp, %rsp
    popq %rbp
    retq
    movq $0, %rax
    pushq %rax
    popq %rax
L_if_end_35:
    movabsq $0x2, %rax
    pushq %rax
    popq %rcx
    subq $32, %rsp
    callq pe_on_frontier
    addq $32, %rsp
    movzbq %al, %rax
    pushq %rax
    movabsq $0x1, %rax
    pushq %rax
    popq %rcx
    popq %rax
    cmpq %rcx, %rax
    setne %al
    movzbq %al, %rax
    pushq %rax
    popq %rax
    testq %rax, %rax
    jz L_if_end_37
    movabsq $0x7, %rax
    pushq %rax
    popq %rax
    movq %rbp, %rsp
    popq %rbp
    retq
    movq $0, %rax
    pushq %rax
    popq %rax
L_if_end_37:
    movabsq $0x3, %rax
    pushq %rax
    popq %rcx
    subq $32, %rsp
    callq pe_on_frontier
    addq $32, %rsp
    movzbq %al, %rax
    pushq %rax
    movabsq $0x0, %rax
    pushq %rax
    popq %rcx
    popq %rax
    cmpq %rcx, %rax
    setne %al
    movzbq %al, %rax
    pushq %rax
    popq %rax
    testq %rax, %rax
    jz L_if_end_39
    movabsq $0x8, %rax
    pushq %rax
    popq %rax
    movq %rbp, %rsp
    popq %rbp
    retq
    movq $0, %rax
    pushq %rax
    popq %rax
L_if_end_39:
    movabsq $0x0, %rax
    pushq %rax
    popq %rax
    movq %rax, -16(%rbp)
L_loop_top_40:
    movq -16(%rbp), %rax
    pushq %rax
    movabsq $0x3, %rax
    pushq %rax
    popq %rcx
    popq %rax
    cmpq %rcx, %rax
    setb %al
    movzbq %al, %rax
    pushq %rax
    popq %rax
    testq %rax, %rax
    jz L_loop_end_41
    movabsq $0x0, %rax
    pushq %rax
    popq %rax
    movq %rax, -24(%rbp)
L_loop_top_42:
    movq -24(%rbp), %rax
    pushq %rax
    movabsq $0x3, %rax
    pushq %rax
    popq %rcx
    popq %rax
    cmpq %rcx, %rax
    setb %al
    movzbq %al, %rax
    pushq %rax
    popq %rax
    testq %rax, %rax
    jz L_loop_end_43
    movq -16(%rbp), %rax
    pushq %rax
    movq -24(%rbp), %rax
    pushq %rax
    popq %rcx
    popq %rax
    cmpq %rcx, %rax
    setne %al
    movzbq %al, %rax
    pushq %rax
    popq %rax
    testq %rax, %rax
    jz L_if_end_45
    movq -24(%rbp), %rax
    pushq %rax
    movq -16(%rbp), %rax
    pushq %rax
    popq %rcx
    popq %rdx
    subq $32, %rsp
    callq pe_dominates
    addq $32, %rsp
    movzbq %al, %rax
    pushq %rax
    movabsq $0x1, %rax
    pushq %rax
    popq %rcx
    popq %rax
    cmpq %rcx, %rax
    sete %al
    movzbq %al, %rax
    pushq %rax
    popq %rax
    testq %rax, %rax
    jz L_if_end_47
    movabsq $0x9, %rax
    pushq %rax
    popq %rax
    movq %rbp, %rsp
    popq %rbp
    retq
    movq $0, %rax
    pushq %rax
    popq %rax
L_if_end_47:
    movq $0, %rax
    pushq %rax
    popq %rax
L_if_end_45:
    movq -24(%rbp), %rax
    pushq %rax
    movabsq $0x1, %rax
    pushq %rax
    popq %rcx
    popq %rax
    addq %rcx, %rax
    pushq %rax
    popq %rax
    movq %rax, -24(%rbp)
    movq $0, %rax
    pushq %rax
    popq %rax
    jmp L_loop_top_42
L_loop_end_43:
    movq -16(%rbp), %rax
    pushq %rax
    movabsq $0x1, %rax
    pushq %rax
    popq %rcx
    popq %rax
    addq %rcx, %rax
    pushq %rax
    popq %rax
    movq %rax, -16(%rbp)
    movq $0, %rax
    pushq %rax
    popq %rax
    jmp L_loop_top_40
L_loop_end_41:
    subq $32, %rsp
    callq pe_reset
    addq $32, %rsp
    movslq %eax, %rax
    pushq %rax
    popq %rax
    movabsq $0x1, %rax
    pushq %rax
    movabsq $0x1, %rax
    pushq %rax
    movabsq $0x1, %rax
    pushq %rax
    movabsq $0x1, %rax
    pushq %rax
    movabsq $0x1, %rax
    pushq %rax
    movabsq $0x1, %rax
    pushq %rax
    popq %rcx
    popq %rdx
    popq %r8
    popq %r9
    subq $32, %rsp
    callq pe_add
    addq $32, %rsp
    addq $16, %rsp
    pushq %rax
    popq %rax
    movabsq $0x7, %rax
    pushq %rax
    movabsq $0x6, %rax
    pushq %rax
    movabsq $0x5, %rax
    pushq %rax
    movabsq $0x4, %rax
    pushq %rax
    movabsq $0x3, %rax
    pushq %rax
    movabsq $0x2, %rax
    pushq %rax
    popq %rcx
    popq %rdx
    popq %r8
    popq %r9
    subq $32, %rsp
    callq pe_add
    addq $32, %rsp
    addq $16, %rsp
    pushq %rax
    popq %rax
    movabsq $0x4, %rax
    pushq %rax
    movabsq $0x5, %rax
    pushq %rax
    movabsq $0x6, %rax
    pushq %rax
    movabsq $0x7, %rax
    pushq %rax
    movabsq $0x8, %rax
    pushq %rax
    movabsq $0x9, %rax
    pushq %rax
    popq %rcx
    popq %rdx
    popq %r8
    popq %r9
    subq $32, %rsp
    callq pe_add
    addq $32, %rsp
    addq $16, %rsp
    pushq %rax
    popq %rax
    subq $32, %rsp
    callq pe_pareto_frontier
    addq $32, %rsp
    pushq %rax
    movabsq $0x1, %rax
    pushq %rax
    popq %rcx
    popq %rax
    cmpq %rcx, %rax
    setne %al
    movzbq %al, %rax
    pushq %rax
    popq %rax
    testq %rax, %rax
    jz L_if_end_49
    movabsq $0xa, %rax
    pushq %rax
    popq %rax
    movq %rbp, %rsp
    popq %rbp
    retq
    movq $0, %rax
    pushq %rax
    popq %rax
L_if_end_49:
    movabsq $0x0, %rax
    pushq %rax
    popq %rcx
    subq $32, %rsp
    callq pe_on_frontier
    addq $32, %rsp
    movzbq %al, %rax
    pushq %rax
    movabsq $0x1, %rax
    pushq %rax
    popq %rcx
    popq %rax
    cmpq %rcx, %rax
    setne %al
    movzbq %al, %rax
    pushq %rax
    popq %rax
    testq %rax, %rax
    jz L_if_end_51
    movabsq $0xb, %rax
    pushq %rax
    popq %rax
    movq %rbp, %rsp
    popq %rbp
    retq
    movq $0, %rax
    pushq %rax
    popq %rax
L_if_end_51:
    movabsq $0x63, %rax
    pushq %rax
    popq %rax
    movq %rbp, %rsp
    popq %rbp
    retq
    movq $0, %rax
    pushq %rax
    movq $0, %rax
    movq %rbp, %rsp
    popq %rbp
    retq
    .seh_endproc
