# III Stage-0 Ring-3 codegen output
# Microsoft x64 ABI; gas syntax (AT&T); PE/COFF target
    .att_syntax
    .file 1 "<iii-source>"
    .section .rodata
L_str_0:
    .ascii "hip.iiihip.iiicall_context.iiicall_context.iiipattern_table.iiiresolver.iiikchain.iii\0"
L_str_1:
    .ascii "hip.iiicall_context.iiicall_context.iiipattern_table.iiiresolver.iiikchain.iii\0"
L_str_2:
    .ascii "call_context.iiicall_context.iiipattern_table.iiiresolver.iiikchain.iii\0"
L_str_3:
    .ascii "call_context.iiipattern_table.iiiresolver.iiikchain.iii\0"
L_str_4:
    .ascii "pattern_table.iiiresolver.iiikchain.iii\0"
L_str_5:
    .ascii "resolver.iiikchain.iii\0"
L_str_6:
    .ascii "kchain.iii\0"
    .section .rodata
L_AI_OK:
    .quad 0x0
L_AI_E_NULL:
    .quad 0xffffffffffffffff
L_AI_E_PARSE:
    .quad 0xfffffffffffffffe
L_AI_E_AMBIGUOUS:
    .quad 0xfffffffffffffffd
L_AI_E_NO_MATCH:
    .quad 0xfffffffffffffffc
L_AI_E_NO_CHAIN:
    .quad 0xfffffffffffffffb
L_AI_MAX_CANDIDATES:
    .quad 0x8
L_AI_RESULT_FAIL:
    .quad 0xffffffffffffffff
    .section .bss
    .global L_AI_CANDIDATES
L_AI_CANDIDATES:
    .zero 64
    .global L_AI_META
L_AI_META:
    .zero 128
    .section .data
    .global L_AI_LAST_CLASS
L_AI_LAST_CLASS:
    .quad 0x0
    .global L_AI_LAST_INTENT
L_AI_LAST_INTENT:
    .quad 0x0
    .global L_AI_LAST_RESULT
L_AI_LAST_RESULT:
    .quad 0x0
    .section .iii.ring3,"n"
    .asciz "ai_resolve"
    .text
    .global ai_resolve
    .seh_proc ai_resolve
ai_resolve:
    pushq %rbp
    .seh_pushreg %rbp
    movq %rsp, %rbp
    .seh_setframe %rbp, 0
    subq $1024, %rsp
    .seh_stackalloc 1024
    .seh_endprologue
    movq %rcx, -8(%rbp)
    movq %rdx, -16(%rbp)
    movq %r8, -24(%rbp)
    movq -8(%rbp), %rax
    pushq %rax
    movabsq $0x0, %rax
    pushq %rax
    popq %rcx
    popq %rax
    cmpq %rcx, %rax
    sete %al
    movzbq %al, %rax
    pushq %rax
    popq %rax
    testq %rax, %rax
    jz L_if_end_1
    movq L_AI_RESULT_FAIL(%rip), %rax
    pushq %rax
    popq %rax
    movq %rbp, %rsp
    popq %rbp
    retq
    movq $0, %rax
    pushq %rax
    popq %rax
L_if_end_1:
    movl -16(%rbp), %eax
    pushq %rax
    movabsq $0x0, %rax
    pushq %rax
    popq %rcx
    popq %rax
    cmpq %rcx, %rax
    sete %al
    movzbq %al, %rax
    pushq %rax
    popq %rax
    testq %rax, %rax
    jz L_if_end_3
    movq L_AI_RESULT_FAIL(%rip), %rax
    pushq %rax
    popq %rax
    movq %rbp, %rsp
    popq %rbp
    retq
    movq $0, %rax
    pushq %rax
    popq %rax
L_if_end_3:
    movabsq $0x0, %rax
    pushq %rax
    popq %rax
    movq %rax, L_AI_LAST_INTENT(%rip)
    movabsq $0x0, %rax
    pushq %rax
    popq %rax
    movq %rax, L_AI_LAST_RESULT(%rip)
    movabsq $0x0, %rax
    pushq %rax
    popq %rax
    movl %eax, L_AI_LAST_CLASS(%rip)
    leaq L_AI_CANDIDATES(%rip), %rax
    pushq %rax
    popq %rax
    pushq %rax
    popq %rax
    movq %rax, -32(%rbp)
    leaq L_AI_META(%rip), %rax
    pushq %rax
    popq %rax
    pushq %rax
    popq %rax
    movq %rax, -40(%rbp)
    movq -40(%rbp), %rax
    pushq %rax
    movq -32(%rbp), %rax
    pushq %rax
    movl -16(%rbp), %eax
    pushq %rax
    movq -8(%rbp), %rax
    pushq %rax
    popq %rcx
    popq %rdx
    popq %r8
    popq %r9
    subq $32, %rsp
    callq hip_resolve
    addq $32, %rsp
    movslq %eax, %rax
    pushq %rax
    popq %rax
    movq %rax, -48(%rbp)
    movslq -48(%rbp), %rax
    pushq %rax
    movabsq $0x0, %rax
    pushq %rax
    popq %rcx
    popq %rax
    cmpq %rcx, %rax
    setne %al
    movzbq %al, %rax
    pushq %rax
    popq %rax
    testq %rax, %rax
    jz L_if_end_5
    movq L_AI_RESULT_FAIL(%rip), %rax
    pushq %rax
    popq %rax
    movq %rbp, %rsp
    popq %rbp
    retq
    movq $0, %rax
    pushq %rax
    popq %rax
L_if_end_5:
    leaq L_AI_META(%rip), %rax
    pushq %rax
    movabsq $0x4, %rax
    pushq %rax
    popq %rcx
    popq %rax
    movzbq (%rax,%rcx,1), %rax
    pushq %rax
    popq %rax
    pushq %rax
    popq %rax
    movq %rax, -56(%rbp)
    leaq L_AI_META(%rip), %rax
    pushq %rax
    movabsq $0x5, %rax
    pushq %rax
    popq %rcx
    popq %rax
    movzbq (%rax,%rcx,1), %rax
    pushq %rax
    popq %rax
    pushq %rax
    popq %rax
    movq %rax, -64(%rbp)
    leaq L_AI_META(%rip), %rax
    pushq %rax
    movabsq $0x6, %rax
    pushq %rax
    popq %rcx
    popq %rax
    movzbq (%rax,%rcx,1), %rax
    pushq %rax
    popq %rax
    pushq %rax
    popq %rax
    movq %rax, -72(%rbp)
    leaq L_AI_META(%rip), %rax
    pushq %rax
    movabsq $0x7, %rax
    pushq %rax
    popq %rcx
    popq %rax
    movzbq (%rax,%rcx,1), %rax
    pushq %rax
    popq %rax
    pushq %rax
    popq %rax
    movq %rax, -80(%rbp)
    movq -56(%rbp), %rax
    pushq %rax
    movq -64(%rbp), %rax
    pushq %rax
    movabsq $0x8, %rax
    pushq %rax
    popq %rcx
    popq %rax
    shlq %cl, %rax
    pushq %rax
    popq %rcx
    popq %rax
    orq %rcx, %rax
    pushq %rax
    movq -72(%rbp), %rax
    pushq %rax
    movabsq $0x10, %rax
    pushq %rax
    popq %rcx
    popq %rax
    shlq %cl, %rax
    pushq %rax
    popq %rcx
    popq %rax
    orq %rcx, %rax
    pushq %rax
    movq -80(%rbp), %rax
    pushq %rax
    movabsq $0x18, %rax
    pushq %rax
    popq %rcx
    popq %rax
    shlq %cl, %rax
    pushq %rax
    popq %rcx
    popq %rax
    orq %rcx, %rax
    pushq %rax
    popq %rax
    movl %eax, %eax
    pushq %rax
    popq %rax
    movq %rax, -88(%rbp)
    movl -88(%rbp), %eax
    pushq %rax
    popq %rax
    movl %eax, L_AI_LAST_CLASS(%rip)
    subq $32, %rsp
    callq hip_class_unique
    addq $32, %rsp
    movl %eax, %eax
    pushq %rax
    popq %rax
    movq %rax, -96(%rbp)
    movl -88(%rbp), %eax
    pushq %rax
    movl -96(%rbp), %eax
    pushq %rax
    popq %rcx
    popq %rax
    cmpq %rcx, %rax
    setne %al
    movzbq %al, %rax
    pushq %rax
    popq %rax
    testq %rax, %rax
    jz L_if_end_7
    movq L_AI_RESULT_FAIL(%rip), %rax
    pushq %rax
    popq %rax
    movq %rbp, %rsp
    popq %rbp
    retq
    movq $0, %rax
    pushq %rax
    popq %rax
L_if_end_7:
    leaq L_AI_CANDIDATES(%rip), %rax
    pushq %rax
    movabsq $0x0, %rax
    pushq %rax
    popq %rcx
    popq %rax
    movq (%rax,%rcx,8), %rax
    pushq %rax
    popq %rax
    movq %rax, -104(%rbp)
    movq -104(%rbp), %rax
    pushq %rax
    movabsq $0x0, %rax
    pushq %rax
    popq %rcx
    popq %rax
    cmpq %rcx, %rax
    sete %al
    movzbq %al, %rax
    pushq %rax
    popq %rax
    testq %rax, %rax
    jz L_if_end_9
    movq L_AI_RESULT_FAIL(%rip), %rax
    pushq %rax
    popq %rax
    movq %rbp, %rsp
    popq %rbp
    retq
    movq $0, %rax
    pushq %rax
    popq %rax
L_if_end_9:
    movq -104(%rbp), %rax
    pushq %rax
    popq %rax
    movq %rax, L_AI_LAST_INTENT(%rip)
    movabsq $0x0, %rax
    pushq %rax
    popq %rcx
    subq $32, %rsp
    callq kchain_new
    addq $32, %rsp
    pushq %rax
    popq %rax
    movq %rax, -112(%rbp)
    movq -112(%rbp), %rax
    pushq %rax
    movabsq $0xffffffffffffffff, %rax
    pushq %rax
    popq %rcx
    popq %rax
    cmpq %rcx, %rax
    sete %al
    movzbq %al, %rax
    pushq %rax
    popq %rax
    testq %rax, %rax
    jz L_if_end_11
    movq L_AI_RESULT_FAIL(%rip), %rax
    pushq %rax
    popq %rax
    movq %rbp, %rsp
    popq %rbp
    retq
    movq $0, %rax
    pushq %rax
    popq %rax
L_if_end_11:
    movabsq $0x1, %rax
    pushq %rax
    movabsq $0x2, %rax
    pushq %rax
    movq -112(%rbp), %rax
    pushq %rax
    popq %rax
    movzbq %al, %rax
    pushq %rax
    movq -24(%rbp), %rax
    pushq %rax
    popq %rcx
    popq %rdx
    popq %r8
    popq %r9
    subq $32, %rsp
    callq call_context_init_set
    addq $32, %rsp
    movslq %eax, %rax
    pushq %rax
    popq %rax
    subq $32, %rsp
    callq call_context_new
    addq $32, %rsp
    pushq %rax
    popq %rax
    movq %rax, -120(%rbp)
    movq -120(%rbp), %rax
    pushq %rax
    movabsq $0x0, %rax
    pushq %rax
    popq %rcx
    popq %rax
    cmpq %rcx, %rax
    sete %al
    movzbq %al, %rax
    pushq %rax
    popq %rax
    testq %rax, %rax
    jz L_if_end_13
    movq L_AI_RESULT_FAIL(%rip), %rax
    pushq %rax
    popq %rax
    movq %rbp, %rsp
    popq %rbp
    retq
    movq $0, %rax
    pushq %rax
    popq %rax
L_if_end_13:
    subq $32, %rsp
    callq pattern_set_global
    addq $32, %rsp
    pushq %rax
    popq %rax
    movq %rax, -128(%rbp)
    movq -128(%rbp), %rax
    pushq %rax
    movabsq $0x0, %rax
    pushq %rax
    popq %rcx
    popq %rax
    cmpq %rcx, %rax
    sete %al
    movzbq %al, %rax
    pushq %rax
    popq %rax
    testq %rax, %rax
    jz L_if_end_15
    movq L_AI_RESULT_FAIL(%rip), %rax
    pushq %rax
    popq %rax
    movq %rbp, %rsp
    popq %rbp
    retq
    movq $0, %rax
    pushq %rax
    popq %rax
L_if_end_15:
    movq -120(%rbp), %rax
    pushq %rax
    movq -104(%rbp), %rax
    pushq %rax
    movq -128(%rbp), %rax
    pushq %rax
    popq %rcx
    popq %rdx
    popq %r8
    subq $32, %rsp
    callq resolve
    addq $32, %rsp
    pushq %rax
    popq %rax
    movq %rax, -136(%rbp)
    movq -136(%rbp), %rax
    pushq %rax
    popq %rax
    movq %rax, L_AI_LAST_RESULT(%rip)
    movq -136(%rbp), %rax
    pushq %rax
    popq %rax
    movq %rbp, %rsp
    popq %rbp
    retq
    movq $0, %rax
    pushq %rax
    movq $0, %rax
    movq %rbp, %rsp
    popq %rbp
    retq
    .seh_endproc
    .section .iii.ring3,"n"
    .asciz "ai_resolve_last_class"
    .text
    .global ai_resolve_last_class
    .seh_proc ai_resolve_last_class
ai_resolve_last_class:
    pushq %rbp
    .seh_pushreg %rbp
    movq %rsp, %rbp
    .seh_setframe %rbp, 0
    subq $1024, %rsp
    .seh_stackalloc 1024
    .seh_endprologue
    movl L_AI_LAST_CLASS(%rip), %eax
    pushq %rax
    popq %rax
    movq %rbp, %rsp
    popq %rbp
    retq
    movq $0, %rax
    pushq %rax
    movq $0, %rax
    movq %rbp, %rsp
    popq %rbp
    retq
    .seh_endproc
    .section .iii.ring3,"n"
    .asciz "ai_resolve_last_intent"
    .text
    .global ai_resolve_last_intent
    .seh_proc ai_resolve_last_intent
ai_resolve_last_intent:
    pushq %rbp
    .seh_pushreg %rbp
    movq %rsp, %rbp
    .seh_setframe %rbp, 0
    subq $1024, %rsp
    .seh_stackalloc 1024
    .seh_endprologue
    movq L_AI_LAST_INTENT(%rip), %rax
    pushq %rax
    popq %rax
    movq %rbp, %rsp
    popq %rbp
    retq
    movq $0, %rax
    pushq %rax
    movq $0, %rax
    movq %rbp, %rsp
    popq %rbp
    retq
    .seh_endproc
    .section .iii.ring3,"n"
    .asciz "ai_resolve_last_result"
    .text
    .global ai_resolve_last_result
    .seh_proc ai_resolve_last_result
ai_resolve_last_result:
    pushq %rbp
    .seh_pushreg %rbp
    movq %rsp, %rbp
    .seh_setframe %rbp, 0
    subq $1024, %rsp
    .seh_stackalloc 1024
    .seh_endprologue
    movq L_AI_LAST_RESULT(%rip), %rax
    pushq %rax
    popq %rax
    movq %rbp, %rsp
    popq %rbp
    retq
    movq $0, %rax
    pushq %rax
    movq $0, %rax
    movq %rbp, %rsp
    popq %rbp
    retq
    .seh_endproc
