# III Stage-0 Ring-3 codegen output
# Microsoft x64 ABI; gas syntax (AT&T); PE/COFF target
    .att_syntax
    .file 1 "<iii-source>"
    .section .rodata
L_str_0:
    .ascii "pattern.iiipattern.iiipattern.iiipattern.iiipattern.iiipattern.iiipattern.iiipattern.iiipattern_table.iiiresolution_meta_dispatch.iiiresolution_meta_dispatch.iiipattern_table.iiicalculus_v1.iiiirreducibility_proof.iiipattern_table.iiitransform_patterns.iiicodegen_patterns.iiiseal_resolver.iiiquality_q7.iiiclosure.iiiclosure.iii\0"
L_str_1:
    .ascii "pattern.iiipattern.iiipattern.iiipattern.iiipattern.iiipattern.iiipattern.iiipattern_table.iiiresolution_meta_dispatch.iiiresolution_meta_dispatch.iiipattern_table.iiicalculus_v1.iiiirreducibility_proof.iiipattern_table.iiitransform_patterns.iiicodegen_patterns.iiiseal_resolver.iiiquality_q7.iiiclosure.iiiclosure.iii\0"
L_str_2:
    .ascii "pattern.iiipattern.iiipattern.iiipattern.iiipattern.iiipattern.iiipattern_table.iiiresolution_meta_dispatch.iiiresolution_meta_dispatch.iiipattern_table.iiicalculus_v1.iiiirreducibility_proof.iiipattern_table.iiitransform_patterns.iiicodegen_patterns.iiiseal_resolver.iiiquality_q7.iiiclosure.iiiclosure.iii\0"
L_str_3:
    .ascii "pattern.iiipattern.iiipattern.iiipattern.iiipattern.iiipattern_table.iiiresolution_meta_dispatch.iiiresolution_meta_dispatch.iiipattern_table.iiicalculus_v1.iiiirreducibility_proof.iiipattern_table.iiitransform_patterns.iiicodegen_patterns.iiiseal_resolver.iiiquality_q7.iiiclosure.iiiclosure.iii\0"
L_str_4:
    .ascii "pattern.iiipattern.iiipattern.iiipattern.iiipattern_table.iiiresolution_meta_dispatch.iiiresolution_meta_dispatch.iiipattern_table.iiicalculus_v1.iiiirreducibility_proof.iiipattern_table.iiitransform_patterns.iiicodegen_patterns.iiiseal_resolver.iiiquality_q7.iiiclosure.iiiclosure.iii\0"
L_str_5:
    .ascii "pattern.iiipattern.iiipattern.iiipattern_table.iiiresolution_meta_dispatch.iiiresolution_meta_dispatch.iiipattern_table.iiicalculus_v1.iiiirreducibility_proof.iiipattern_table.iiitransform_patterns.iiicodegen_patterns.iiiseal_resolver.iiiquality_q7.iiiclosure.iiiclosure.iii\0"
L_str_6:
    .ascii "pattern.iiipattern.iiipattern_table.iiiresolution_meta_dispatch.iiiresolution_meta_dispatch.iiipattern_table.iiicalculus_v1.iiiirreducibility_proof.iiipattern_table.iiitransform_patterns.iiicodegen_patterns.iiiseal_resolver.iiiquality_q7.iiiclosure.iiiclosure.iii\0"
L_str_7:
    .ascii "pattern.iiipattern_table.iiiresolution_meta_dispatch.iiiresolution_meta_dispatch.iiipattern_table.iiicalculus_v1.iiiirreducibility_proof.iiipattern_table.iiitransform_patterns.iiicodegen_patterns.iiiseal_resolver.iiiquality_q7.iiiclosure.iiiclosure.iii\0"
L_str_8:
    .ascii "pattern_table.iiiresolution_meta_dispatch.iiiresolution_meta_dispatch.iiipattern_table.iiicalculus_v1.iiiirreducibility_proof.iiipattern_table.iiitransform_patterns.iiicodegen_patterns.iiiseal_resolver.iiiquality_q7.iiiclosure.iiiclosure.iii\0"
L_str_9:
    .ascii "resolution_meta_dispatch.iiiresolution_meta_dispatch.iiipattern_table.iiicalculus_v1.iiiirreducibility_proof.iiipattern_table.iiitransform_patterns.iiicodegen_patterns.iiiseal_resolver.iiiquality_q7.iiiclosure.iiiclosure.iii\0"
L_str_10:
    .ascii "resolution_meta_dispatch.iiipattern_table.iiicalculus_v1.iiiirreducibility_proof.iiipattern_table.iiitransform_patterns.iiicodegen_patterns.iiiseal_resolver.iiiquality_q7.iiiclosure.iiiclosure.iii\0"
L_str_11:
    .ascii "pattern_table.iiicalculus_v1.iiiirreducibility_proof.iiipattern_table.iiitransform_patterns.iiicodegen_patterns.iiiseal_resolver.iiiquality_q7.iiiclosure.iiiclosure.iii\0"
L_str_12:
    .ascii "calculus_v1.iiiirreducibility_proof.iiipattern_table.iiitransform_patterns.iiicodegen_patterns.iiiseal_resolver.iiiquality_q7.iiiclosure.iiiclosure.iii\0"
L_str_13:
    .ascii "irreducibility_proof.iiipattern_table.iiitransform_patterns.iiicodegen_patterns.iiiseal_resolver.iiiquality_q7.iiiclosure.iiiclosure.iii\0"
L_str_14:
    .ascii "pattern_table.iiitransform_patterns.iiicodegen_patterns.iiiseal_resolver.iiiquality_q7.iiiclosure.iiiclosure.iii\0"
L_str_15:
    .ascii "transform_patterns.iiicodegen_patterns.iiiseal_resolver.iiiquality_q7.iiiclosure.iiiclosure.iii\0"
L_str_16:
    .ascii "codegen_patterns.iiiseal_resolver.iiiquality_q7.iiiclosure.iiiclosure.iii\0"
L_str_17:
    .ascii "seal_resolver.iiiquality_q7.iiiclosure.iiiclosure.iii\0"
L_str_18:
    .ascii "quality_q7.iiiclosure.iiiclosure.iii\0"
L_str_19:
    .ascii "closure.iiiclosure.iii\0"
L_str_20:
    .ascii "closure.iii\0"
    .section .rodata
L_RES_INIT_OK:
    .quad 0x0
    .section .bss
    .global L_INIT_MODULE_MHASH
L_INIT_MODULE_MHASH:
    .zero 256
    .global L_INIT_TEMPLATE_BUF
L_INIT_TEMPLATE_BUF:
    .zero 1344
    .global L_INIT_NAME_BUF
L_INIT_NAME_BUF:
    .zero 256
    .section .rodata
L_RI_HEXAD_FORM:
    .quad 0x1
L_RI_HEXAD_SUBSTANCE:
    .quad 0x2
L_RI_HEXAD_PASSAGE:
    .quad 0x3
L_RI_HEXAD_ESSENCE:
    .quad 0x4
L_RI_HEXAD_MOTION:
    .quad 0x5
L_RI_HEXAD_COMPOSE:
    .quad 0x6
L_RI_HEXAD_ORIGIN:
    .quad 0x7
L_RI_RING_R0:
    .quad 0x2
    .section .iii.ring3,"n"
    .asciz "_meta_register"
    .text
    .global L__meta_register
    .seh_proc L__meta_register
L__meta_register:
    pushq %rbp
    .seh_pushreg %rbp
    movq %rsp, %rbp
    .seh_setframe %rbp, 0
    subq $1024, %rsp
    .seh_stackalloc 1024
    .seh_endprologue
    movq %rcx, -8(%rbp)
    movq %rdx, -16(%rbp)
    movq %r8, -24(%rbp)
    movq %r9, -32(%rbp)
    movq 48(%rbp), %rax
    movq %rax, -40(%rbp)
    movq 56(%rbp), %rax
    movq %rax, -48(%rbp)
    leaq L_INIT_TEMPLATE_BUF(%rip), %rax
    pushq %rax
    popq %rax
    pushq %rax
    popq %rcx
    subq $32, %rsp
    callq pattern_template_zero
    addq $32, %rsp
    movslq %eax, %rax
    pushq %rax
    popq %rax
    leaq L_INIT_NAME_BUF(%rip), %rax
    pushq %rax
    movabsq $0x0, %rax
    pushq %rax
    movzbq -24(%rbp), %rax
    pushq %rax
    popq %rdx
    popq %rcx
    popq %rax
    movb %dl, (%rax,%rcx,1)
    leaq L_INIT_NAME_BUF(%rip), %rax
    pushq %rax
    movabsq $0x1, %rax
    pushq %rax
    movzbq -32(%rbp), %rax
    pushq %rax
    popq %rdx
    popq %rcx
    popq %rax
    movb %dl, (%rax,%rcx,1)
    leaq L_INIT_NAME_BUF(%rip), %rax
    pushq %rax
    movabsq $0x2, %rax
    pushq %rax
    movzbq -40(%rbp), %rax
    pushq %rax
    popq %rdx
    popq %rcx
    popq %rax
    movb %dl, (%rax,%rcx,1)
    leaq L_INIT_NAME_BUF(%rip), %rax
    pushq %rax
    movabsq $0x3, %rax
    pushq %rax
    movzbq -48(%rbp), %rax
    pushq %rax
    popq %rdx
    popq %rcx
    popq %rax
    movb %dl, (%rax,%rcx,1)
    leaq L_INIT_NAME_BUF(%rip), %rax
    pushq %rax
    movabsq $0x4, %rax
    pushq %rax
    movabsq $0x0, %rax
    pushq %rax
    popq %rdx
    popq %rcx
    popq %rax
    movb %dl, (%rax,%rcx,1)
    movabsq $0x4, %rax
    pushq %rax
    leaq L_INIT_NAME_BUF(%rip), %rax
    pushq %rax
    popq %rax
    pushq %rax
    leaq L_INIT_MODULE_MHASH(%rip), %rax
    pushq %rax
    popq %rax
    pushq %rax
    leaq L_INIT_TEMPLATE_BUF(%rip), %rax
    pushq %rax
    popq %rax
    pushq %rax
    popq %rcx
    popq %rdx
    popq %r8
    popq %r9
    subq $32, %rsp
    callq pattern_template_set_id
    addq $32, %rsp
    movslq %eax, %rax
    pushq %rax
    popq %rax
    movzbq -16(%rbp), %rax
    pushq %rax
    movzbq L_RI_HEXAD_FORM(%rip), %rax
    pushq %rax
    popq %rcx
    popq %rax
    cmpq %rcx, %rax
    sete %al
    movzbq %al, %rax
    pushq %rax
    popq %rax
    testq %rax, %rax
    jz L_if_end_1
    movabsq $0x3b9aca00, %rax
    pushq %rax
    leaq L_INIT_TEMPLATE_BUF(%rip), %rax
    pushq %rax
    popq %rax
    pushq %rax
    popq %rcx
    popq %rdx
    subq $32, %rsp
    callq pattern_template_set_activation_base
    addq $32, %rsp
    movslq %eax, %rax
    pushq %rax
    popq %rax
    movq $0, %rax
    pushq %rax
    popq %rax
L_if_end_1:
    movzbq -16(%rbp), %rax
    pushq %rax
    movzbq L_RI_HEXAD_ORIGIN(%rip), %rax
    pushq %rax
    popq %rcx
    popq %rax
    cmpq %rcx, %rax
    sete %al
    movzbq %al, %rax
    pushq %rax
    popq %rax
    testq %rax, %rax
    jz L_if_end_3
    movabsq $0x3b9aca00, %rax
    pushq %rax
    leaq L_INIT_TEMPLATE_BUF(%rip), %rax
    pushq %rax
    popq %rax
    pushq %rax
    popq %rcx
    popq %rdx
    subq $32, %rsp
    callq pattern_template_set_activation_base
    addq $32, %rsp
    movslq %eax, %rax
    pushq %rax
    popq %rax
    movq $0, %rax
    pushq %rax
    popq %rax
L_if_end_3:
    movzbq -16(%rbp), %rax
    pushq %rax
    movzbq L_RI_HEXAD_FORM(%rip), %rax
    pushq %rax
    popq %rcx
    popq %rax
    cmpq %rcx, %rax
    setne %al
    movzbq %al, %rax
    pushq %rax
    popq %rax
    testq %rax, %rax
    jz L_if_end_5
    movzbq -16(%rbp), %rax
    pushq %rax
    movzbq L_RI_HEXAD_ORIGIN(%rip), %rax
    pushq %rax
    popq %rcx
    popq %rax
    cmpq %rcx, %rax
    setne %al
    movzbq %al, %rax
    pushq %rax
    popq %rax
    testq %rax, %rax
    jz L_if_end_7
    movabsq $0x35a4e900, %rax
    pushq %rax
    leaq L_INIT_TEMPLATE_BUF(%rip), %rax
    pushq %rax
    popq %rax
    pushq %rax
    popq %rcx
    popq %rdx
    subq $32, %rsp
    callq pattern_template_set_activation_base
    addq $32, %rsp
    movslq %eax, %rax
    pushq %rax
    popq %rax
    movq $0, %rax
    pushq %rax
    popq %rax
L_if_end_7:
    movq $0, %rax
    pushq %rax
    popq %rax
L_if_end_5:
    movzbq -16(%rbp), %rax
    pushq %rax
    leaq L_INIT_TEMPLATE_BUF(%rip), %rax
    pushq %rax
    popq %rax
    pushq %rax
    popq %rcx
    popq %rdx
    subq $32, %rsp
    callq pattern_template_set_hexad_kind
    addq $32, %rsp
    movslq %eax, %rax
    pushq %rax
    popq %rax
    movzbq L_RI_RING_R0(%rip), %rax
    pushq %rax
    leaq L_INIT_TEMPLATE_BUF(%rip), %rax
    pushq %rax
    popq %rax
    pushq %rax
    popq %rcx
    popq %rdx
    subq $32, %rsp
    callq pattern_template_set_ring
    addq $32, %rsp
    movslq %eax, %rax
    pushq %rax
    popq %rax
    movabsq $0x3b9aca00, %rax
    pushq %rax
    leaq L_INIT_TEMPLATE_BUF(%rip), %rax
    pushq %rax
    popq %rax
    pushq %rax
    popq %rcx
    popq %rdx
    subq $32, %rsp
    callq pattern_template_set_k_value
    addq $32, %rsp
    movslq %eax, %rax
    pushq %rax
    popq %rax
    leaq meta_dispatch_unreachable(%rip), %rax
    pushq %rax
    popq %rax
    pushq %rax
    popq %rax
    movq %rax, -56(%rbp)
    movq -56(%rbp), %rax
    pushq %rax
    leaq L_INIT_TEMPLATE_BUF(%rip), %rax
    pushq %rax
    popq %rax
    pushq %rax
    popq %rcx
    popq %rdx
    subq $32, %rsp
    callq pattern_template_set_dispatch
    addq $32, %rsp
    movslq %eax, %rax
    pushq %rax
    popq %rax
    movl -8(%rbp), %eax
    pushq %rax
    popq %rax
    movzbq %al, %rax
    pushq %rax
    movabsq $0x0, %rax
    pushq %rax
    leaq L_INIT_TEMPLATE_BUF(%rip), %rax
    pushq %rax
    popq %rax
    pushq %rax
    popq %rcx
    popq %rdx
    popq %r8
    subq $32, %rsp
    callq pattern_template_set_binding_kind
    addq $32, %rsp
    movslq %eax, %rax
    pushq %rax
    popq %rax
    leaq L_INIT_TEMPLATE_BUF(%rip), %rax
    pushq %rax
    popq %rax
    pushq %rax
    movl -8(%rbp), %eax
    pushq %rax
    popq %rcx
    popq %rdx
    subq $32, %rsp
    callq pattern_register
    addq $32, %rsp
    movzbq %al, %rax
    pushq %rax
    popq %rax
    movabsq $0x0, %rax
    pushq %rax
    popq %rax
    movq %rbp, %rsp
    popq %rbp
    retq
    movq $0, %rax
    pushq %rax
    movq $0, %rax
    movq %rbp, %rsp
    popq %rbp
    retq
    .seh_endproc
    .section .iii.ring3,"n"
    .asciz "meta_register_all"
    .text
    .global meta_register_all
    .seh_proc meta_register_all
meta_register_all:
    pushq %rbp
    .seh_pushreg %rbp
    movq %rsp, %rbp
    .seh_setframe %rbp, 0
    subq $1024, %rsp
    .seh_stackalloc 1024
    .seh_endprologue
    movabsq $0x31, %rax
    pushq %rax
    movabsq $0x30, %rax
    pushq %rax
    movabsq $0x30, %rax
    pushq %rax
    movabsq $0x70, %rax
    pushq %rax
    movzbq L_RI_HEXAD_FORM(%rip), %rax
    pushq %rax
    movabsq $0x0, %rax
    pushq %rax
    popq %rcx
    popq %rdx
    popq %r8
    popq %r9
    subq $32, %rsp
    callq L__meta_register
    addq $32, %rsp
    addq $16, %rsp
    movslq %eax, %rax
    pushq %rax
    popq %rax
    movabsq $0x32, %rax
    pushq %rax
    movabsq $0x30, %rax
    pushq %rax
    movabsq $0x30, %rax
    pushq %rax
    movabsq $0x70, %rax
    pushq %rax
    movzbq L_RI_HEXAD_SUBSTANCE(%rip), %rax
    pushq %rax
    movabsq $0x1, %rax
    pushq %rax
    popq %rcx
    popq %rdx
    popq %r8
    popq %r9
    subq $32, %rsp
    callq L__meta_register
    addq $32, %rsp
    addq $16, %rsp
    movslq %eax, %rax
    pushq %rax
    popq %rax
    movabsq $0x33, %rax
    pushq %rax
    movabsq $0x30, %rax
    pushq %rax
    movabsq $0x30, %rax
    pushq %rax
    movabsq $0x70, %rax
    pushq %rax
    movzbq L_RI_HEXAD_PASSAGE(%rip), %rax
    pushq %rax
    movabsq $0x2, %rax
    pushq %rax
    popq %rcx
    popq %rdx
    popq %r8
    popq %r9
    subq $32, %rsp
    callq L__meta_register
    addq $32, %rsp
    addq $16, %rsp
    movslq %eax, %rax
    pushq %rax
    popq %rax
    movabsq $0x34, %rax
    pushq %rax
    movabsq $0x30, %rax
    pushq %rax
    movabsq $0x30, %rax
    pushq %rax
    movabsq $0x70, %rax
    pushq %rax
    movzbq L_RI_HEXAD_ESSENCE(%rip), %rax
    pushq %rax
    movabsq $0x3, %rax
    pushq %rax
    popq %rcx
    popq %rdx
    popq %r8
    popq %r9
    subq $32, %rsp
    callq L__meta_register
    addq $32, %rsp
    addq $16, %rsp
    movslq %eax, %rax
    pushq %rax
    popq %rax
    movabsq $0x35, %rax
    pushq %rax
    movabsq $0x30, %rax
    pushq %rax
    movabsq $0x30, %rax
    pushq %rax
    movabsq $0x70, %rax
    pushq %rax
    movzbq L_RI_HEXAD_MOTION(%rip), %rax
    pushq %rax
    movabsq $0x4, %rax
    pushq %rax
    popq %rcx
    popq %rdx
    popq %r8
    popq %r9
    subq $32, %rsp
    callq L__meta_register
    addq $32, %rsp
    addq $16, %rsp
    movslq %eax, %rax
    pushq %rax
    popq %rax
    movabsq $0x36, %rax
    pushq %rax
    movabsq $0x30, %rax
    pushq %rax
    movabsq $0x30, %rax
    pushq %rax
    movabsq $0x70, %rax
    pushq %rax
    movzbq L_RI_HEXAD_COMPOSE(%rip), %rax
    pushq %rax
    movabsq $0x5, %rax
    pushq %rax
    popq %rcx
    popq %rdx
    popq %r8
    popq %r9
    subq $32, %rsp
    callq L__meta_register
    addq $32, %rsp
    addq $16, %rsp
    movslq %eax, %rax
    pushq %rax
    popq %rax
    movabsq $0x37, %rax
    pushq %rax
    movabsq $0x30, %rax
    pushq %rax
    movabsq $0x30, %rax
    pushq %rax
    movabsq $0x70, %rax
    pushq %rax
    movzbq L_RI_HEXAD_ORIGIN(%rip), %rax
    pushq %rax
    movabsq $0x6, %rax
    pushq %rax
    popq %rcx
    popq %rdx
    popq %r8
    popq %r9
    subq $32, %rsp
    callq L__meta_register
    addq $32, %rsp
    addq $16, %rsp
    movslq %eax, %rax
    pushq %rax
    popq %rax
    movabsq $0x38, %rax
    pushq %rax
    movabsq $0x30, %rax
    pushq %rax
    movabsq $0x30, %rax
    pushq %rax
    movabsq $0x70, %rax
    pushq %rax
    movzbq L_RI_HEXAD_ESSENCE(%rip), %rax
    pushq %rax
    movabsq $0x7, %rax
    pushq %rax
    popq %rcx
    popq %rdx
    popq %r8
    popq %r9
    subq $32, %rsp
    callq L__meta_register
    addq $32, %rsp
    addq $16, %rsp
    movslq %eax, %rax
    pushq %rax
    popq %rax
    movabsq $0x39, %rax
    pushq %rax
    movabsq $0x30, %rax
    pushq %rax
    movabsq $0x30, %rax
    pushq %rax
    movabsq $0x70, %rax
    pushq %rax
    movzbq L_RI_HEXAD_ESSENCE(%rip), %rax
    pushq %rax
    movabsq $0x8, %rax
    pushq %rax
    popq %rcx
    popq %rdx
    popq %r8
    popq %r9
    subq $32, %rsp
    callq L__meta_register
    addq $32, %rsp
    addq $16, %rsp
    movslq %eax, %rax
    pushq %rax
    popq %rax
    movabsq $0x30, %rax
    pushq %rax
    movabsq $0x31, %rax
    pushq %rax
    movabsq $0x30, %rax
    pushq %rax
    movabsq $0x70, %rax
    pushq %rax
    movzbq L_RI_HEXAD_ORIGIN(%rip), %rax
    pushq %rax
    movabsq $0x9, %rax
    pushq %rax
    popq %rcx
    popq %rdx
    popq %r8
    popq %r9
    subq $32, %rsp
    callq L__meta_register
    addq $32, %rsp
    addq $16, %rsp
    movslq %eax, %rax
    pushq %rax
    popq %rax
    movabsq $0x31, %rax
    pushq %rax
    movabsq $0x31, %rax
    pushq %rax
    movabsq $0x30, %rax
    pushq %rax
    movabsq $0x70, %rax
    pushq %rax
    movzbq L_RI_HEXAD_ORIGIN(%rip), %rax
    pushq %rax
    movabsq $0xa, %rax
    pushq %rax
    popq %rcx
    popq %rdx
    popq %r8
    popq %r9
    subq $32, %rsp
    callq L__meta_register
    addq $32, %rsp
    addq $16, %rsp
    movslq %eax, %rax
    pushq %rax
    popq %rax
    movabsq $0x32, %rax
    pushq %rax
    movabsq $0x31, %rax
    pushq %rax
    movabsq $0x30, %rax
    pushq %rax
    movabsq $0x70, %rax
    pushq %rax
    movzbq L_RI_HEXAD_COMPOSE(%rip), %rax
    pushq %rax
    movabsq $0xb, %rax
    pushq %rax
    popq %rcx
    popq %rdx
    popq %r8
    popq %r9
    subq $32, %rsp
    callq L__meta_register
    addq $32, %rsp
    addq $16, %rsp
    movslq %eax, %rax
    pushq %rax
    popq %rax
    movabsq $0x33, %rax
    pushq %rax
    movabsq $0x31, %rax
    pushq %rax
    movabsq $0x30, %rax
    pushq %rax
    movabsq $0x70, %rax
    pushq %rax
    movzbq L_RI_HEXAD_COMPOSE(%rip), %rax
    pushq %rax
    movabsq $0xc, %rax
    pushq %rax
    popq %rcx
    popq %rdx
    popq %r8
    popq %r9
    subq $32, %rsp
    callq L__meta_register
    addq $32, %rsp
    addq $16, %rsp
    movslq %eax, %rax
    pushq %rax
    popq %rax
    movabsq $0x34, %rax
    pushq %rax
    movabsq $0x31, %rax
    pushq %rax
    movabsq $0x30, %rax
    pushq %rax
    movabsq $0x70, %rax
    pushq %rax
    movzbq L_RI_HEXAD_COMPOSE(%rip), %rax
    pushq %rax
    movabsq $0xd, %rax
    pushq %rax
    popq %rcx
    popq %rdx
    popq %r8
    popq %r9
    subq $32, %rsp
    callq L__meta_register
    addq $32, %rsp
    addq $16, %rsp
    movslq %eax, %rax
    pushq %rax
    popq %rax
    movabsq $0x35, %rax
    pushq %rax
    movabsq $0x31, %rax
    pushq %rax
    movabsq $0x30, %rax
    pushq %rax
    movabsq $0x70, %rax
    pushq %rax
    movzbq L_RI_HEXAD_COMPOSE(%rip), %rax
    pushq %rax
    movabsq $0xe, %rax
    pushq %rax
    popq %rcx
    popq %rdx
    popq %r8
    popq %r9
    subq $32, %rsp
    callq L__meta_register
    addq $32, %rsp
    addq $16, %rsp
    movslq %eax, %rax
    pushq %rax
    popq %rax
    movabsq $0x36, %rax
    pushq %rax
    movabsq $0x31, %rax
    pushq %rax
    movabsq $0x30, %rax
    pushq %rax
    movabsq $0x70, %rax
    pushq %rax
    movzbq L_RI_HEXAD_COMPOSE(%rip), %rax
    pushq %rax
    movabsq $0xf, %rax
    pushq %rax
    popq %rcx
    popq %rdx
    popq %r8
    popq %r9
    subq $32, %rsp
    callq L__meta_register
    addq $32, %rsp
    addq $16, %rsp
    movslq %eax, %rax
    pushq %rax
    popq %rax
    movabsq $0x37, %rax
    pushq %rax
    movabsq $0x31, %rax
    pushq %rax
    movabsq $0x30, %rax
    pushq %rax
    movabsq $0x70, %rax
    pushq %rax
    movzbq L_RI_HEXAD_ORIGIN(%rip), %rax
    pushq %rax
    movabsq $0x10, %rax
    pushq %rax
    popq %rcx
    popq %rdx
    popq %r8
    popq %r9
    subq $32, %rsp
    callq L__meta_register
    addq $32, %rsp
    addq $16, %rsp
    movslq %eax, %rax
    pushq %rax
    popq %rax
    movabsq $0x38, %rax
    pushq %rax
    movabsq $0x31, %rax
    pushq %rax
    movabsq $0x30, %rax
    pushq %rax
    movabsq $0x70, %rax
    pushq %rax
    movzbq L_RI_HEXAD_ESSENCE(%rip), %rax
    pushq %rax
    movabsq $0x11, %rax
    pushq %rax
    popq %rcx
    popq %rdx
    popq %r8
    popq %r9
    subq $32, %rsp
    callq L__meta_register
    addq $32, %rsp
    addq $16, %rsp
    movslq %eax, %rax
    pushq %rax
    popq %rax
    movabsq $0x39, %rax
    pushq %rax
    movabsq $0x31, %rax
    pushq %rax
    movabsq $0x30, %rax
    pushq %rax
    movabsq $0x70, %rax
    pushq %rax
    movzbq L_RI_HEXAD_COMPOSE(%rip), %rax
    pushq %rax
    movabsq $0x45, %rax
    pushq %rax
    popq %rcx
    popq %rdx
    popq %r8
    popq %r9
    subq $32, %rsp
    callq L__meta_register
    addq $32, %rsp
    addq $16, %rsp
    movslq %eax, %rax
    pushq %rax
    popq %rax
    movslq L_RES_INIT_OK(%rip), %rax
    pushq %rax
    popq %rax
    movq %rbp, %rsp
    popq %rbp
    retq
    movq $0, %rax
    pushq %rax
    movq $0, %rax
    movq %rbp, %rsp
    popq %rbp
    retq
    .seh_endproc
    .section .iii.ring3,"n"
    .asciz "resolution_init"
    .text
    .global resolution_init
    .seh_proc resolution_init
resolution_init:
    pushq %rbp
    .seh_pushreg %rbp
    movq %rsp, %rbp
    .seh_setframe %rbp, 0
    subq $1024, %rsp
    .seh_stackalloc 1024
    .seh_endprologue
    subq $32, %rsp
    callq pattern_registry_is_sealed
    addq $32, %rsp
    movzbq %al, %rax
    pushq %rax
    movabsq $0x1, %rax
    pushq %rax
    popq %rcx
    popq %rax
    cmpq %rcx, %rax
    sete %al
    movzbq %al, %rax
    pushq %rax
    popq %rax
    testq %rax, %rax
    jz L_if_end_9
    movslq L_RES_INIT_OK(%rip), %rax
    pushq %rax
    popq %rax
    movq %rbp, %rsp
    popq %rbp
    retq
    movq $0, %rax
    pushq %rax
    popq %rax
L_if_end_9:
    subq $32, %rsp
    callq calculus_init
    addq $32, %rsp
    movslq %eax, %rax
    pushq %rax
    popq %rax
    subq $32, %rsp
    callq proof_init
    addq $32, %rsp
    movslq %eax, %rax
    pushq %rax
    popq %rax
    subq $32, %rsp
    callq meta_register_all
    addq $32, %rsp
    movslq %eax, %rax
    pushq %rax
    popq %rax
    subq $32, %rsp
    callq transform_register_all
    addq $32, %rsp
    movslq %eax, %rax
    pushq %rax
    popq %rax
    subq $32, %rsp
    callq codegen_register_all
    addq $32, %rsp
    movslq %eax, %rax
    pushq %rax
    popq %rax
    subq $32, %rsp
    callq pattern_registry_seal_global
    addq $32, %rsp
    pushq %rax
    popq %rax
    subq $32, %rsp
    callq seal_resolver_compute
    addq $32, %rsp
    movslq %eax, %rax
    pushq %rax
    popq %rax
    subq $32, %rsp
    callq quality_set_resolver_lint_passed
    addq $32, %rsp
    movslq %eax, %rax
    pushq %rax
    popq %rax
    subq $32, %rsp
    callq closure_is_set
    addq $32, %rsp
    movzbq %al, %rax
    pushq %rax
    movabsq $0x1, %rax
    pushq %rax
    popq %rcx
    popq %rax
    cmpq %rcx, %rax
    sete %al
    movzbq %al, %rax
    pushq %rax
    popq %rax
    testq %rax, %rax
    jz L_if_end_11
    subq $32, %rsp
    callq closure_compute_with_resolver
    addq $32, %rsp
    movslq %eax, %rax
    pushq %rax
    popq %rax
    movq $0, %rax
    pushq %rax
    popq %rax
L_if_end_11:
    movslq L_RES_INIT_OK(%rip), %rax
    pushq %rax
    popq %rax
    movq %rbp, %rsp
    popq %rbp
    retq
    movq $0, %rax
    pushq %rax
    movq $0, %rax
    movq %rbp, %rsp
    popq %rbp
    retq
    .seh_endproc
