# III Stage-0 Ring-3 codegen output
# Microsoft x64 ABI; gas syntax (AT&T); PE/COFF target
    .att_syntax
    .file 1 "<iii-source>"
    .section .rodata
L_str_0:
    .ascii "xii_rule_patterns.iiixii_rule_overlap.iiixii_critpair_enum.iiixii_joinability.iiixii_termination.iiixii_admission.iiixii_lower_compose.iiixii_lower_decide.iiixii_lower_iterate.iiixii_lower_program.iiixii_lower_then.iiixii_lower_with.iiixii_lower_under.iiixii_admission.iiixii_term.iiixii_term.iiixii_term.iiixii_term.iiixii_term.iiixii_term.iiixii_term.iiixii_term.iiixii_term.iiixii_term.iiixii_term.iiixii_canonicalise.iiicad.iiicad.iiicad.iiicad.iiicad.iii\0"
L_str_1:
    .ascii "xii_rule_overlap.iiixii_critpair_enum.iiixii_joinability.iiixii_termination.iiixii_admission.iiixii_lower_compose.iiixii_lower_decide.iiixii_lower_iterate.iiixii_lower_program.iiixii_lower_then.iiixii_lower_with.iiixii_lower_under.iiixii_admission.iiixii_term.iiixii_term.iiixii_term.iiixii_term.iiixii_term.iiixii_term.iiixii_term.iiixii_term.iiixii_term.iiixii_term.iiixii_term.iiixii_canonicalise.iiicad.iiicad.iiicad.iiicad.iiicad.iii\0"
L_str_2:
    .ascii "xii_critpair_enum.iiixii_joinability.iiixii_termination.iiixii_admission.iiixii_lower_compose.iiixii_lower_decide.iiixii_lower_iterate.iiixii_lower_program.iiixii_lower_then.iiixii_lower_with.iiixii_lower_under.iiixii_admission.iiixii_term.iiixii_term.iiixii_term.iiixii_term.iiixii_term.iiixii_term.iiixii_term.iiixii_term.iiixii_term.iiixii_term.iiixii_term.iiixii_canonicalise.iiicad.iiicad.iiicad.iiicad.iiicad.iii\0"
L_str_3:
    .ascii "xii_joinability.iiixii_termination.iiixii_admission.iiixii_lower_compose.iiixii_lower_decide.iiixii_lower_iterate.iiixii_lower_program.iiixii_lower_then.iiixii_lower_with.iiixii_lower_under.iiixii_admission.iiixii_term.iiixii_term.iiixii_term.iiixii_term.iiixii_term.iiixii_term.iiixii_term.iiixii_term.iiixii_term.iiixii_term.iiixii_term.iiixii_canonicalise.iiicad.iiicad.iiicad.iiicad.iiicad.iii\0"
L_str_4:
    .ascii "xii_termination.iiixii_admission.iiixii_lower_compose.iiixii_lower_decide.iiixii_lower_iterate.iiixii_lower_program.iiixii_lower_then.iiixii_lower_with.iiixii_lower_under.iiixii_admission.iiixii_term.iiixii_term.iiixii_term.iiixii_term.iiixii_term.iiixii_term.iiixii_term.iiixii_term.iiixii_term.iiixii_term.iiixii_term.iiixii_canonicalise.iiicad.iiicad.iiicad.iiicad.iiicad.iii\0"
L_str_5:
    .ascii "xii_admission.iiixii_lower_compose.iiixii_lower_decide.iiixii_lower_iterate.iiixii_lower_program.iiixii_lower_then.iiixii_lower_with.iiixii_lower_under.iiixii_admission.iiixii_term.iiixii_term.iiixii_term.iiixii_term.iiixii_term.iiixii_term.iiixii_term.iiixii_term.iiixii_term.iiixii_term.iiixii_term.iiixii_canonicalise.iiicad.iiicad.iiicad.iiicad.iiicad.iii\0"
L_str_6:
    .ascii "xii_lower_compose.iiixii_lower_decide.iiixii_lower_iterate.iiixii_lower_program.iiixii_lower_then.iiixii_lower_with.iiixii_lower_under.iiixii_admission.iiixii_term.iiixii_term.iiixii_term.iiixii_term.iiixii_term.iiixii_term.iiixii_term.iiixii_term.iiixii_term.iiixii_term.iiixii_term.iiixii_canonicalise.iiicad.iiicad.iiicad.iiicad.iiicad.iii\0"
L_str_7:
    .ascii "xii_lower_decide.iiixii_lower_iterate.iiixii_lower_program.iiixii_lower_then.iiixii_lower_with.iiixii_lower_under.iiixii_admission.iiixii_term.iiixii_term.iiixii_term.iiixii_term.iiixii_term.iiixii_term.iiixii_term.iiixii_term.iiixii_term.iiixii_term.iiixii_term.iiixii_canonicalise.iiicad.iiicad.iiicad.iiicad.iiicad.iii\0"
L_str_8:
    .ascii "xii_lower_iterate.iiixii_lower_program.iiixii_lower_then.iiixii_lower_with.iiixii_lower_under.iiixii_admission.iiixii_term.iiixii_term.iiixii_term.iiixii_term.iiixii_term.iiixii_term.iiixii_term.iiixii_term.iiixii_term.iiixii_term.iiixii_term.iiixii_canonicalise.iiicad.iiicad.iiicad.iiicad.iiicad.iii\0"
L_str_9:
    .ascii "xii_lower_program.iiixii_lower_then.iiixii_lower_with.iiixii_lower_under.iiixii_admission.iiixii_term.iiixii_term.iiixii_term.iiixii_term.iiixii_term.iiixii_term.iiixii_term.iiixii_term.iiixii_term.iiixii_term.iiixii_term.iiixii_canonicalise.iiicad.iiicad.iiicad.iiicad.iiicad.iii\0"
L_str_10:
    .ascii "xii_lower_then.iiixii_lower_with.iiixii_lower_under.iiixii_admission.iiixii_term.iiixii_term.iiixii_term.iiixii_term.iiixii_term.iiixii_term.iiixii_term.iiixii_term.iiixii_term.iiixii_term.iiixii_term.iiixii_canonicalise.iiicad.iiicad.iiicad.iiicad.iiicad.iii\0"
L_str_11:
    .ascii "xii_lower_with.iiixii_lower_under.iiixii_admission.iiixii_term.iiixii_term.iiixii_term.iiixii_term.iiixii_term.iiixii_term.iiixii_term.iiixii_term.iiixii_term.iiixii_term.iiixii_term.iiixii_canonicalise.iiicad.iiicad.iiicad.iiicad.iiicad.iii\0"
L_str_12:
    .ascii "xii_lower_under.iiixii_admission.iiixii_term.iiixii_term.iiixii_term.iiixii_term.iiixii_term.iiixii_term.iiixii_term.iiixii_term.iiixii_term.iiixii_term.iiixii_term.iiixii_canonicalise.iiicad.iiicad.iiicad.iiicad.iiicad.iii\0"
L_str_13:
    .ascii "xii_admission.iiixii_term.iiixii_term.iiixii_term.iiixii_term.iiixii_term.iiixii_term.iiixii_term.iiixii_term.iiixii_term.iiixii_term.iiixii_term.iiixii_canonicalise.iiicad.iiicad.iiicad.iiicad.iiicad.iii\0"
L_str_14:
    .ascii "xii_term.iiixii_term.iiixii_term.iiixii_term.iiixii_term.iiixii_term.iiixii_term.iiixii_term.iiixii_term.iiixii_term.iiixii_term.iiixii_canonicalise.iiicad.iiicad.iiicad.iiicad.iiicad.iii\0"
L_str_15:
    .ascii "xii_term.iiixii_term.iiixii_term.iiixii_term.iiixii_term.iiixii_term.iiixii_term.iiixii_term.iiixii_term.iiixii_term.iiixii_canonicalise.iiicad.iiicad.iiicad.iiicad.iiicad.iii\0"
L_str_16:
    .ascii "xii_term.iiixii_term.iiixii_term.iiixii_term.iiixii_term.iiixii_term.iiixii_term.iiixii_term.iiixii_term.iiixii_canonicalise.iiicad.iiicad.iiicad.iiicad.iiicad.iii\0"
L_str_17:
    .ascii "xii_term.iiixii_term.iiixii_term.iiixii_term.iiixii_term.iiixii_term.iiixii_term.iiixii_term.iiixii_canonicalise.iiicad.iiicad.iiicad.iiicad.iiicad.iii\0"
L_str_18:
    .ascii "xii_term.iiixii_term.iiixii_term.iiixii_term.iiixii_term.iiixii_term.iiixii_term.iiixii_canonicalise.iiicad.iiicad.iiicad.iiicad.iiicad.iii\0"
L_str_19:
    .ascii "xii_term.iiixii_term.iiixii_term.iiixii_term.iiixii_term.iiixii_term.iiixii_canonicalise.iiicad.iiicad.iiicad.iiicad.iiicad.iii\0"
L_str_20:
    .ascii "xii_term.iiixii_term.iiixii_term.iiixii_term.iiixii_term.iiixii_canonicalise.iiicad.iiicad.iiicad.iiicad.iiicad.iii\0"
L_str_21:
    .ascii "xii_term.iiixii_term.iiixii_term.iiixii_term.iiixii_canonicalise.iiicad.iiicad.iiicad.iiicad.iiicad.iii\0"
L_str_22:
    .ascii "xii_term.iiixii_term.iiixii_term.iiixii_canonicalise.iiicad.iiicad.iiicad.iiicad.iiicad.iii\0"
L_str_23:
    .ascii "xii_term.iiixii_term.iiixii_canonicalise.iiicad.iiicad.iiicad.iiicad.iiicad.iii\0"
L_str_24:
    .ascii "xii_term.iiixii_canonicalise.iiicad.iiicad.iiicad.iiicad.iiicad.iii\0"
L_str_25:
    .ascii "xii_canonicalise.iiicad.iiicad.iiicad.iiicad.iiicad.iii\0"
L_str_26:
    .ascii "cad.iiicad.iiicad.iiicad.iiicad.iii\0"
L_str_27:
    .ascii "cad.iiicad.iiicad.iiicad.iii\0"
L_str_28:
    .ascii "cad.iiicad.iiicad.iii\0"
L_str_29:
    .ascii "cad.iiicad.iii\0"
L_str_30:
    .ascii "cad.iii\0"
    .section .rodata
L_XMS_NULL_REF:
    .quad 0xffffffff
L_XMS_SUITE:
    .quad 0x0
L_XMS_FCOMPOSE:
    .quad 0x12
L_XMS_FTHEN:
    .quad 0x13
L_XMS_FWITH:
    .quad 0x14
L_XMS_FUNDER:
    .quad 0x15
L_XMS_FIF:
    .quad 0x16
L_XMS_FLOOP:
    .quad 0x17
L_XMS_TVAL:
    .quad 0x18
L_XMS_K01:
    .quad 0x0
L_XMS_K12:
    .quad 0xb
L_XMS_K13:
    .quad 0xc
L_XMS_NODEMARK:
    .quad 0xff
    .section .bss
    .global L_XMS_NODE
L_XMS_NODE:
    .zero 128
    .global L_XMS_DIG1
L_XMS_DIG1:
    .zero 256
    .global L_XMS_DIG2
L_XMS_DIG2:
    .zero 256
    .section .iii.ring3,"n"
    .asciz "_xms_feed_node"
    .text
    .global L__xms_feed_node
    .seh_proc L__xms_feed_node
L__xms_feed_node:
    pushq %rbp
    .seh_pushreg %rbp
    movq %rsp, %rbp
    .seh_setframe %rbp, 0
    subq $1024, %rsp
    .seh_stackalloc 1024
    .seh_endprologue
    movq %rcx, -8(%rbp)
    movl -8(%rbp), %eax
    pushq %rax
    popq %rcx
    subq $32, %rsp
    callq xii_term_get_subform
    addq $32, %rsp
    movl %eax, %eax
    pushq %rax
    popq %rax
    movq %rax, -16(%rbp)
    movl -8(%rbp), %eax
    pushq %rax
    popq %rcx
    subq $32, %rsp
    callq xii_term_get_aux
    addq $32, %rsp
    pushq %rax
    popq %rax
    movq %rax, -24(%rbp)
    leaq L_XMS_NODE(%rip), %rax
    pushq %rax
    movabsq $0x0, %rax
    pushq %rax
    movl -8(%rbp), %eax
    pushq %rax
    popq %rcx
    subq $32, %rsp
    callq xii_term_get_kind
    addq $32, %rsp
    movzbq %al, %rax
    pushq %rax
    popq %rdx
    popq %rcx
    popq %rax
    movb %dl, (%rax,%rcx,1)
    leaq L_XMS_NODE(%rip), %rax
    pushq %rax
    movabsq $0x1, %rax
    pushq %rax
    movl -16(%rbp), %eax
    pushq %rax
    movabsq $0xff, %rax
    pushq %rax
    popq %rcx
    popq %rax
    andq %rcx, %rax
    pushq %rax
    popq %rax
    movzbq %al, %rax
    pushq %rax
    popq %rdx
    popq %rcx
    popq %rax
    movb %dl, (%rax,%rcx,1)
    leaq L_XMS_NODE(%rip), %rax
    pushq %rax
    movabsq $0x2, %rax
    pushq %rax
    movl -16(%rbp), %eax
    pushq %rax
    movabsq $0x8, %rax
    pushq %rax
    popq %rcx
    popq %rax
    shrq %cl, %rax
    pushq %rax
    movabsq $0xff, %rax
    pushq %rax
    popq %rcx
    popq %rax
    andq %rcx, %rax
    pushq %rax
    popq %rax
    movzbq %al, %rax
    pushq %rax
    popq %rdx
    popq %rcx
    popq %rax
    movb %dl, (%rax,%rcx,1)
    leaq L_XMS_NODE(%rip), %rax
    pushq %rax
    movabsq $0x3, %rax
    pushq %rax
    movl -16(%rbp), %eax
    pushq %rax
    movabsq $0x10, %rax
    pushq %rax
    popq %rcx
    popq %rax
    shrq %cl, %rax
    pushq %rax
    movabsq $0xff, %rax
    pushq %rax
    popq %rcx
    popq %rax
    andq %rcx, %rax
    pushq %rax
    popq %rax
    movzbq %al, %rax
    pushq %rax
    popq %rdx
    popq %rcx
    popq %rax
    movb %dl, (%rax,%rcx,1)
    leaq L_XMS_NODE(%rip), %rax
    pushq %rax
    movabsq $0x4, %rax
    pushq %rax
    movl -16(%rbp), %eax
    pushq %rax
    movabsq $0x18, %rax
    pushq %rax
    popq %rcx
    popq %rax
    shrq %cl, %rax
    pushq %rax
    movabsq $0xff, %rax
    pushq %rax
    popq %rcx
    popq %rax
    andq %rcx, %rax
    pushq %rax
    popq %rax
    movzbq %al, %rax
    pushq %rax
    popq %rdx
    popq %rcx
    popq %rax
    movb %dl, (%rax,%rcx,1)
    leaq L_XMS_NODE(%rip), %rax
    pushq %rax
    movabsq $0x5, %rax
    pushq %rax
    movq -24(%rbp), %rax
    pushq %rax
    movabsq $0xff, %rax
    pushq %rax
    popq %rcx
    popq %rax
    andq %rcx, %rax
    pushq %rax
    popq %rax
    movzbq %al, %rax
    pushq %rax
    popq %rdx
    popq %rcx
    popq %rax
    movb %dl, (%rax,%rcx,1)
    leaq L_XMS_NODE(%rip), %rax
    pushq %rax
    movabsq $0x6, %rax
    pushq %rax
    movq -24(%rbp), %rax
    pushq %rax
    movabsq $0x8, %rax
    pushq %rax
    popq %rcx
    popq %rax
    shrq %cl, %rax
    pushq %rax
    movabsq $0xff, %rax
    pushq %rax
    popq %rcx
    popq %rax
    andq %rcx, %rax
    pushq %rax
    popq %rax
    movzbq %al, %rax
    pushq %rax
    popq %rdx
    popq %rcx
    popq %rax
    movb %dl, (%rax,%rcx,1)
    leaq L_XMS_NODE(%rip), %rax
    pushq %rax
    movabsq $0x7, %rax
    pushq %rax
    movq -24(%rbp), %rax
    pushq %rax
    movabsq $0x10, %rax
    pushq %rax
    popq %rcx
    popq %rax
    shrq %cl, %rax
    pushq %rax
    movabsq $0xff, %rax
    pushq %rax
    popq %rcx
    popq %rax
    andq %rcx, %rax
    pushq %rax
    popq %rax
    movzbq %al, %rax
    pushq %rax
    popq %rdx
    popq %rcx
    popq %rax
    movb %dl, (%rax,%rcx,1)
    leaq L_XMS_NODE(%rip), %rax
    pushq %rax
    movabsq $0x8, %rax
    pushq %rax
    movq -24(%rbp), %rax
    pushq %rax
    movabsq $0x18, %rax
    pushq %rax
    popq %rcx
    popq %rax
    shrq %cl, %rax
    pushq %rax
    movabsq $0xff, %rax
    pushq %rax
    popq %rcx
    popq %rax
    andq %rcx, %rax
    pushq %rax
    popq %rax
    movzbq %al, %rax
    pushq %rax
    popq %rdx
    popq %rcx
    popq %rax
    movb %dl, (%rax,%rcx,1)
    leaq L_XMS_NODE(%rip), %rax
    pushq %rax
    movabsq $0x9, %rax
    pushq %rax
    movq -24(%rbp), %rax
    pushq %rax
    movabsq $0x20, %rax
    pushq %rax
    popq %rcx
    popq %rax
    shrq %cl, %rax
    pushq %rax
    movabsq $0xff, %rax
    pushq %rax
    popq %rcx
    popq %rax
    andq %rcx, %rax
    pushq %rax
    popq %rax
    movzbq %al, %rax
    pushq %rax
    popq %rdx
    popq %rcx
    popq %rax
    movb %dl, (%rax,%rcx,1)
    leaq L_XMS_NODE(%rip), %rax
    pushq %rax
    movabsq $0xa, %rax
    pushq %rax
    movq -24(%rbp), %rax
    pushq %rax
    movabsq $0x28, %rax
    pushq %rax
    popq %rcx
    popq %rax
    shrq %cl, %rax
    pushq %rax
    movabsq $0xff, %rax
    pushq %rax
    popq %rcx
    popq %rax
    andq %rcx, %rax
    pushq %rax
    popq %rax
    movzbq %al, %rax
    pushq %rax
    popq %rdx
    popq %rcx
    popq %rax
    movb %dl, (%rax,%rcx,1)
    leaq L_XMS_NODE(%rip), %rax
    pushq %rax
    movabsq $0xb, %rax
    pushq %rax
    movq -24(%rbp), %rax
    pushq %rax
    movabsq $0x30, %rax
    pushq %rax
    popq %rcx
    popq %rax
    shrq %cl, %rax
    pushq %rax
    movabsq $0xff, %rax
    pushq %rax
    popq %rcx
    popq %rax
    andq %rcx, %rax
    pushq %rax
    popq %rax
    movzbq %al, %rax
    pushq %rax
    popq %rdx
    popq %rcx
    popq %rax
    movb %dl, (%rax,%rcx,1)
    leaq L_XMS_NODE(%rip), %rax
    pushq %rax
    movabsq $0xc, %rax
    pushq %rax
    movq -24(%rbp), %rax
    pushq %rax
    movabsq $0x38, %rax
    pushq %rax
    popq %rcx
    popq %rax
    shrq %cl, %rax
    pushq %rax
    movabsq $0xff, %rax
    pushq %rax
    popq %rcx
    popq %rax
    andq %rcx, %rax
    pushq %rax
    popq %rax
    movzbq %al, %rax
    pushq %rax
    popq %rdx
    popq %rcx
    popq %rax
    movb %dl, (%rax,%rcx,1)
    movabsq $0xd, %rax
    pushq %rax
    leaq L_XMS_NODE(%rip), %rax
    pushq %rax
    popq %rax
    pushq %rax
    popq %rcx
    popq %rdx
    subq $32, %rsp
    callq cad_payload
    addq $32, %rsp
    movslq %eax, %rax
    pushq %rax
    popq %rax
    movabsq $0x0, %rax
    pushq %rax
    popq %rax
    movq %rbp, %rsp
    popq %rbp
    retq
    movq $0, %rax
    pushq %rax
    movq $0, %rax
    movq %rbp, %rsp
    popq %rbp
    retq
    .seh_endproc
    .section .iii.ring3,"n"
    .asciz "_xms_walk"
    .text
    .global L__xms_walk
    .seh_proc L__xms_walk
L__xms_walk:
    pushq %rbp
    .seh_pushreg %rbp
    movq %rsp, %rbp
    .seh_setframe %rbp, 0
    subq $1024, %rsp
    .seh_stackalloc 1024
    .seh_endprologue
    movq %rcx, -8(%rbp)
    movl -8(%rbp), %eax
    pushq %rax
    movl L_XMS_NULL_REF(%rip), %eax
    pushq %rax
    popq %rcx
    popq %rax
    cmpq %rcx, %rax
    sete %al
    movzbq %al, %rax
    pushq %rax
    popq %rax
    testq %rax, %rax
    jz L_if_end_1
    leaq L_XMS_NODE(%rip), %rax
    pushq %rax
    movabsq $0x0, %rax
    pushq %rax
    movzbq L_XMS_NODEMARK(%rip), %rax
    pushq %rax
    popq %rdx
    popq %rcx
    popq %rax
    movb %dl, (%rax,%rcx,1)
    movabsq $0x1, %rax
    pushq %rax
    leaq L_XMS_NODE(%rip), %rax
    pushq %rax
    popq %rax
    pushq %rax
    popq %rcx
    popq %rdx
    subq $32, %rsp
    callq cad_payload
    addq $32, %rsp
    movslq %eax, %rax
    pushq %rax
    popq %rax
    movabsq $0x0, %rax
    pushq %rax
    popq %rax
    movq %rbp, %rsp
    popq %rbp
    retq
    movq $0, %rax
    pushq %rax
    popq %rax
L_if_end_1:
    movl -8(%rbp), %eax
    pushq %rax
    popq %rcx
    subq $32, %rsp
    callq L__xms_feed_node
    addq $32, %rsp
    movslq %eax, %rax
    pushq %rax
    popq %rax
    movl -8(%rbp), %eax
    pushq %rax
    popq %rcx
    subq $32, %rsp
    callq xii_term_get_kind
    addq $32, %rsp
    movzbq %al, %rax
    pushq %rax
    popq %rax
    movq %rax, -16(%rbp)
    movzbq -16(%rbp), %rax
    pushq %rax
    movabsq $0x11, %rax
    pushq %rax
    popq %rcx
    popq %rax
    cmpq %rcx, %rax
    setbe %al
    movzbq %al, %rax
    pushq %rax
    popq %rax
    testq %rax, %rax
    jz L_if_end_3
    movabsq $0x0, %rax
    pushq %rax
    popq %rax
    movq %rbp, %rsp
    popq %rbp
    retq
    movq $0, %rax
    pushq %rax
    popq %rax
L_if_end_3:
    movzbq -16(%rbp), %rax
    pushq %rax
    movzbq L_XMS_TVAL(%rip), %rax
    pushq %rax
    popq %rcx
    popq %rax
    cmpq %rcx, %rax
    sete %al
    movzbq %al, %rax
    pushq %rax
    popq %rax
    testq %rax, %rax
    jz L_if_end_5
    movabsq $0x0, %rax
    pushq %rax
    popq %rax
    movq %rbp, %rsp
    popq %rbp
    retq
    movq $0, %rax
    pushq %rax
    popq %rax
L_if_end_5:
    movzbq -16(%rbp), %rax
    pushq %rax
    movzbq L_XMS_FLOOP(%rip), %rax
    pushq %rax
    popq %rcx
    popq %rax
    cmpq %rcx, %rax
    sete %al
    movzbq %al, %rax
    pushq %rax
    popq %rax
    testq %rax, %rax
    jz L_if_end_7
    movl -8(%rbp), %eax
    pushq %rax
    popq %rcx
    subq $32, %rsp
    callq xii_term_get_child_a
    addq $32, %rsp
    movl %eax, %eax
    pushq %rax
    popq %rcx
    subq $32, %rsp
    callq L__xms_walk
    addq $32, %rsp
    movslq %eax, %rax
    pushq %rax
    popq %rax
    movabsq $0x0, %rax
    pushq %rax
    popq %rax
    movq %rbp, %rsp
    popq %rbp
    retq
    movq $0, %rax
    pushq %rax
    popq %rax
L_if_end_7:
    movl -8(%rbp), %eax
    pushq %rax
    popq %rcx
    subq $32, %rsp
    callq xii_term_get_child_a
    addq $32, %rsp
    movl %eax, %eax
    pushq %rax
    popq %rcx
    subq $32, %rsp
    callq L__xms_walk
    addq $32, %rsp
    movslq %eax, %rax
    pushq %rax
    popq %rax
    movl -8(%rbp), %eax
    pushq %rax
    popq %rcx
    subq $32, %rsp
    callq xii_term_get_child_b
    addq $32, %rsp
    movl %eax, %eax
    pushq %rax
    popq %rcx
    subq $32, %rsp
    callq L__xms_walk
    addq $32, %rsp
    movslq %eax, %rax
    pushq %rax
    popq %rax
    movzbq -16(%rbp), %rax
    pushq %rax
    movzbq L_XMS_FIF(%rip), %rax
    pushq %rax
    popq %rcx
    popq %rax
    cmpq %rcx, %rax
    sete %al
    movzbq %al, %rax
    pushq %rax
    popq %rax
    testq %rax, %rax
    jz L_if_end_9
    movl -8(%rbp), %eax
    pushq %rax
    popq %rcx
    subq $32, %rsp
    callq xii_term_get_child_c
    addq $32, %rsp
    movl %eax, %eax
    pushq %rax
    popq %rcx
    subq $32, %rsp
    callq L__xms_walk
    addq $32, %rsp
    movslq %eax, %rax
    pushq %rax
    popq %rax
    movq $0, %rax
    pushq %rax
    popq %rax
L_if_end_9:
    movabsq $0x0, %rax
    pushq %rax
    popq %rax
    movq %rbp, %rsp
    popq %rbp
    retq
    movq $0, %rax
    pushq %rax
    movq $0, %rax
    movq %rbp, %rsp
    popq %rbp
    retq
    .seh_endproc
    .section .iii.ring3,"n"
    .asciz "xms_seal_digest"
    .text
    .global xms_seal_digest
    .seh_proc xms_seal_digest
xms_seal_digest:
    pushq %rbp
    .seh_pushreg %rbp
    movq %rsp, %rbp
    .seh_setframe %rbp, 0
    subq $1024, %rsp
    .seh_stackalloc 1024
    .seh_endprologue
    movq %rcx, -8(%rbp)
    movl L_XMS_SUITE(%rip), %eax
    pushq %rax
    popq %rcx
    subq $32, %rsp
    callq cad_begin
    addq $32, %rsp
    movslq %eax, %rax
    pushq %rax
    popq %rax
    subq $32, %rsp
    callq xii_term_arena_reset
    addq $32, %rsp
    movslq %eax, %rax
    pushq %rax
    popq %rax
    movabsq $0x3, %rax
    pushq %rax
    movzbq L_XMS_K12(%rip), %rax
    pushq %rax
    popq %rcx
    popq %rdx
    subq $32, %rsp
    callq xii_term_make_basis
    addq $32, %rsp
    movl %eax, %eax
    pushq %rax
    subq $8, %rsp
    movabsq $0x2, %rax
    pushq %rax
    movzbq L_XMS_K12(%rip), %rax
    pushq %rax
    popq %rcx
    popq %rdx
    subq $32, %rsp
    callq xii_term_make_basis
    addq $32, %rsp
    movl %eax, %eax
    pushq %rax
    subq $8, %rsp
    movabsq $0x1, %rax
    pushq %rax
    movzbq L_XMS_K12(%rip), %rax
    pushq %rax
    popq %rcx
    popq %rdx
    subq $32, %rsp
    callq xii_term_make_basis
    addq $32, %rsp
    addq $8, %rsp
    movl %eax, %eax
    pushq %rax
    movzbq L_XMS_FCOMPOSE(%rip), %rax
    pushq %rax
    popq %rcx
    popq %rdx
    popq %r8
    subq $32, %rsp
    callq xii_term_make_fusion2
    addq $32, %rsp
    addq $8, %rsp
    movl %eax, %eax
    pushq %rax
    movzbq L_XMS_FCOMPOSE(%rip), %rax
    pushq %rax
    popq %rcx
    popq %rdx
    popq %r8
    subq $32, %rsp
    callq xii_term_make_fusion2
    addq $32, %rsp
    movl %eax, %eax
    pushq %rax
    popq %rax
    movq %rax, -16(%rbp)
    movl -16(%rbp), %eax
    pushq %rax
    popq %rcx
    subq $32, %rsp
    callq xii_canonicalise
    addq $32, %rsp
    movl %eax, %eax
    pushq %rax
    popq %rax
    movq %rax, -24(%rbp)
    movl -24(%rbp), %eax
    pushq %rax
    popq %rcx
    subq $32, %rsp
    callq L__xms_walk
    addq $32, %rsp
    movslq %eax, %rax
    pushq %rax
    popq %rax
    subq $32, %rsp
    callq xii_term_arena_reset
    addq $32, %rsp
    movslq %eax, %rax
    pushq %rax
    popq %rax
    movabsq $0x1, %rax
    pushq %rax
    movzbq L_XMS_K12(%rip), %rax
    pushq %rax
    popq %rcx
    popq %rdx
    subq $32, %rsp
    callq xii_term_make_basis
    addq $32, %rsp
    movl %eax, %eax
    pushq %rax
    subq $8, %rsp
    movabsq $0x1, %rax
    pushq %rax
    movzbq L_XMS_K12(%rip), %rax
    pushq %rax
    popq %rcx
    popq %rdx
    subq $32, %rsp
    callq xii_term_make_basis
    addq $32, %rsp
    addq $8, %rsp
    movl %eax, %eax
    pushq %rax
    movabsq $0x1, %rax
    pushq %rax
    movzbq L_XMS_K01(%rip), %rax
    pushq %rax
    popq %rcx
    popq %rdx
    subq $32, %rsp
    callq xii_term_make_basis
    addq $32, %rsp
    movl %eax, %eax
    pushq %rax
    popq %rcx
    popq %rdx
    popq %r8
    subq $32, %rsp
    callq xii_term_make_if
    addq $32, %rsp
    movl %eax, %eax
    pushq %rax
    popq %rax
    movq %rax, -32(%rbp)
    movl -32(%rbp), %eax
    pushq %rax
    popq %rcx
    subq $32, %rsp
    callq xii_canonicalise
    addq $32, %rsp
    movl %eax, %eax
    pushq %rax
    popq %rax
    movq %rax, -40(%rbp)
    movl -40(%rbp), %eax
    pushq %rax
    popq %rcx
    subq $32, %rsp
    callq L__xms_walk
    addq $32, %rsp
    movslq %eax, %rax
    pushq %rax
    popq %rax
    subq $32, %rsp
    callq xii_term_arena_reset
    addq $32, %rsp
    movslq %eax, %rax
    pushq %rax
    popq %rax
    movabsq $0x3, %rax
    pushq %rax
    subq $8, %rsp
    movabsq $0x2, %rax
    pushq %rax
    subq $8, %rsp
    movabsq $0x1, %rax
    pushq %rax
    movzbq L_XMS_K12(%rip), %rax
    pushq %rax
    popq %rcx
    popq %rdx
    subq $32, %rsp
    callq xii_term_make_basis
    addq $32, %rsp
    addq $8, %rsp
    movl %eax, %eax
    pushq %rax
    popq %rcx
    popq %rdx
    subq $32, %rsp
    callq xii_term_make_loop
    addq $32, %rsp
    addq $8, %rsp
    movl %eax, %eax
    pushq %rax
    popq %rcx
    popq %rdx
    subq $32, %rsp
    callq xii_term_make_loop
    addq $32, %rsp
    movl %eax, %eax
    pushq %rax
    popq %rax
    movq %rax, -48(%rbp)
    movl -48(%rbp), %eax
    pushq %rax
    popq %rcx
    subq $32, %rsp
    callq xii_canonicalise
    addq $32, %rsp
    movl %eax, %eax
    pushq %rax
    popq %rax
    movq %rax, -56(%rbp)
    movl -56(%rbp), %eax
    pushq %rax
    popq %rcx
    subq $32, %rsp
    callq L__xms_walk
    addq $32, %rsp
    movslq %eax, %rax
    pushq %rax
    popq %rax
    subq $32, %rsp
    callq xii_term_arena_reset
    addq $32, %rsp
    movslq %eax, %rax
    pushq %rax
    popq %rax
    movabsq $0x2, %rax
    pushq %rax
    movzbq L_XMS_K12(%rip), %rax
    pushq %rax
    popq %rcx
    popq %rdx
    subq $32, %rsp
    callq xii_term_make_basis
    addq $32, %rsp
    movl %eax, %eax
    pushq %rax
    subq $8, %rsp
    movabsq $0x1, %rax
    pushq %rax
    movzbq L_XMS_K12(%rip), %rax
    pushq %rax
    popq %rcx
    popq %rdx
    subq $32, %rsp
    callq xii_term_make_basis
    addq $32, %rsp
    addq $8, %rsp
    movl %eax, %eax
    pushq %rax
    movzbq L_XMS_FCOMPOSE(%rip), %rax
    pushq %rax
    popq %rcx
    popq %rdx
    popq %r8
    subq $32, %rsp
    callq xii_term_make_fusion2
    addq $32, %rsp
    movl %eax, %eax
    pushq %rax
    subq $8, %rsp
    movabsq $0x2, %rax
    pushq %rax
    movzbq L_XMS_K12(%rip), %rax
    pushq %rax
    popq %rcx
    popq %rdx
    subq $32, %rsp
    callq xii_term_make_basis
    addq $32, %rsp
    movl %eax, %eax
    pushq %rax
    subq $8, %rsp
    movabsq $0x1, %rax
    pushq %rax
    movzbq L_XMS_K12(%rip), %rax
    pushq %rax
    popq %rcx
    popq %rdx
    subq $32, %rsp
    callq xii_term_make_basis
    addq $32, %rsp
    addq $8, %rsp
    movl %eax, %eax
    pushq %rax
    movzbq L_XMS_FCOMPOSE(%rip), %rax
    pushq %rax
    popq %rcx
    popq %rdx
    popq %r8
    subq $32, %rsp
    callq xii_term_make_fusion2
    addq $32, %rsp
    addq $8, %rsp
    movl %eax, %eax
    pushq %rax
    movabsq $0x1, %rax
    pushq %rax
    movzbq L_XMS_K01(%rip), %rax
    pushq %rax
    popq %rcx
    popq %rdx
    subq $32, %rsp
    callq xii_term_make_basis
    addq $32, %rsp
    movl %eax, %eax
    pushq %rax
    popq %rcx
    popq %rdx
    popq %r8
    subq $32, %rsp
    callq xii_term_make_if
    addq $32, %rsp
    movl %eax, %eax
    pushq %rax
    popq %rax
    movq %rax, -64(%rbp)
    movabsq $0x2, %rax
    pushq %rax
    movl -64(%rbp), %eax
    pushq %rax
    popq %rcx
    popq %rdx
    subq $32, %rsp
    callq xii_term_make_loop
    addq $32, %rsp
    movl %eax, %eax
    pushq %rax
    popq %rax
    movq %rax, -72(%rbp)
    movl -72(%rbp), %eax
    pushq %rax
    popq %rcx
    subq $32, %rsp
    callq xii_canonicalise
    addq $32, %rsp
    movl %eax, %eax
    pushq %rax
    popq %rax
    movq %rax, -80(%rbp)
    movl -80(%rbp), %eax
    pushq %rax
    popq %rcx
    subq $32, %rsp
    callq L__xms_walk
    addq $32, %rsp
    movslq %eax, %rax
    pushq %rax
    popq %rax
    subq $32, %rsp
    callq xii_term_arena_reset
    addq $32, %rsp
    movslq %eax, %rax
    pushq %rax
    popq %rax
    movabsq $0x3, %rax
    pushq %rax
    movzbq L_XMS_K13(%rip), %rax
    pushq %rax
    popq %rcx
    popq %rdx
    subq $32, %rsp
    callq xii_term_make_basis
    addq $32, %rsp
    movl %eax, %eax
    pushq %rax
    subq $8, %rsp
    movabsq $0x2, %rax
    pushq %rax
    movzbq L_XMS_K13(%rip), %rax
    pushq %rax
    popq %rcx
    popq %rdx
    subq $32, %rsp
    callq xii_term_make_basis
    addq $32, %rsp
    movl %eax, %eax
    pushq %rax
    subq $8, %rsp
    movabsq $0x1, %rax
    pushq %rax
    movzbq L_XMS_K13(%rip), %rax
    pushq %rax
    popq %rcx
    popq %rdx
    subq $32, %rsp
    callq xii_term_make_basis
    addq $32, %rsp
    addq $8, %rsp
    movl %eax, %eax
    pushq %rax
    movzbq L_XMS_FTHEN(%rip), %rax
    pushq %rax
    popq %rcx
    popq %rdx
    popq %r8
    subq $32, %rsp
    callq xii_term_make_fusion2
    addq $32, %rsp
    addq $8, %rsp
    movl %eax, %eax
    pushq %rax
    movzbq L_XMS_FTHEN(%rip), %rax
    pushq %rax
    popq %rcx
    popq %rdx
    popq %r8
    subq $32, %rsp
    callq xii_term_make_fusion2
    addq $32, %rsp
    movl %eax, %eax
    pushq %rax
    popq %rax
    movq %rax, -88(%rbp)
    movl -88(%rbp), %eax
    pushq %rax
    popq %rcx
    subq $32, %rsp
    callq xii_canonicalise
    addq $32, %rsp
    movl %eax, %eax
    pushq %rax
    popq %rax
    movq %rax, -96(%rbp)
    movl -96(%rbp), %eax
    pushq %rax
    popq %rcx
    subq $32, %rsp
    callq L__xms_walk
    addq $32, %rsp
    movslq %eax, %rax
    pushq %rax
    popq %rax
    subq $32, %rsp
    callq xii_term_arena_reset
    addq $32, %rsp
    movslq %eax, %rax
    pushq %rax
    popq %rax
    movabsq $0x3, %rax
    pushq %rax
    movzbq L_XMS_K13(%rip), %rax
    pushq %rax
    popq %rcx
    popq %rdx
    subq $32, %rsp
    callq xii_term_make_basis
    addq $32, %rsp
    movl %eax, %eax
    pushq %rax
    subq $8, %rsp
    movabsq $0x2, %rax
    pushq %rax
    movzbq L_XMS_K13(%rip), %rax
    pushq %rax
    popq %rcx
    popq %rdx
    subq $32, %rsp
    callq xii_term_make_basis
    addq $32, %rsp
    movl %eax, %eax
    pushq %rax
    subq $8, %rsp
    movabsq $0x1, %rax
    pushq %rax
    movzbq L_XMS_K13(%rip), %rax
    pushq %rax
    popq %rcx
    popq %rdx
    subq $32, %rsp
    callq xii_term_make_basis
    addq $32, %rsp
    addq $8, %rsp
    movl %eax, %eax
    pushq %rax
    movzbq L_XMS_FWITH(%rip), %rax
    pushq %rax
    popq %rcx
    popq %rdx
    popq %r8
    subq $32, %rsp
    callq xii_term_make_fusion2
    addq $32, %rsp
    addq $8, %rsp
    movl %eax, %eax
    pushq %rax
    movzbq L_XMS_FWITH(%rip), %rax
    pushq %rax
    popq %rcx
    popq %rdx
    popq %r8
    subq $32, %rsp
    callq xii_term_make_fusion2
    addq $32, %rsp
    movl %eax, %eax
    pushq %rax
    popq %rax
    movq %rax, -104(%rbp)
    movl -104(%rbp), %eax
    pushq %rax
    popq %rcx
    subq $32, %rsp
    callq xii_canonicalise
    addq $32, %rsp
    movl %eax, %eax
    pushq %rax
    popq %rax
    movq %rax, -112(%rbp)
    movl -112(%rbp), %eax
    pushq %rax
    popq %rcx
    subq $32, %rsp
    callq L__xms_walk
    addq $32, %rsp
    movslq %eax, %rax
    pushq %rax
    popq %rax
    subq $32, %rsp
    callq xii_term_arena_reset
    addq $32, %rsp
    movslq %eax, %rax
    pushq %rax
    popq %rax
    movabsq $0x3, %rax
    pushq %rax
    movzbq L_XMS_K13(%rip), %rax
    pushq %rax
    popq %rcx
    popq %rdx
    subq $32, %rsp
    callq xii_term_make_basis
    addq $32, %rsp
    movl %eax, %eax
    pushq %rax
    subq $8, %rsp
    movabsq $0x2, %rax
    pushq %rax
    movzbq L_XMS_K13(%rip), %rax
    pushq %rax
    popq %rcx
    popq %rdx
    subq $32, %rsp
    callq xii_term_make_basis
    addq $32, %rsp
    addq $8, %rsp
    movl %eax, %eax
    pushq %rax
    movzbq L_XMS_FUNDER(%rip), %rax
    pushq %rax
    popq %rcx
    popq %rdx
    popq %r8
    subq $32, %rsp
    callq xii_term_make_fusion2
    addq $32, %rsp
    movl %eax, %eax
    pushq %rax
    subq $8, %rsp
    movabsq $0x1, %rax
    pushq %rax
    movzbq L_XMS_K13(%rip), %rax
    pushq %rax
    popq %rcx
    popq %rdx
    subq $32, %rsp
    callq xii_term_make_basis
    addq $32, %rsp
    addq $8, %rsp
    movl %eax, %eax
    pushq %rax
    movzbq L_XMS_FUNDER(%rip), %rax
    pushq %rax
    popq %rcx
    popq %rdx
    popq %r8
    subq $32, %rsp
    callq xii_term_make_fusion2
    addq $32, %rsp
    movl %eax, %eax
    pushq %rax
    popq %rax
    movq %rax, -120(%rbp)
    movl -120(%rbp), %eax
    pushq %rax
    popq %rcx
    subq $32, %rsp
    callq xii_canonicalise
    addq $32, %rsp
    movl %eax, %eax
    pushq %rax
    popq %rax
    movq %rax, -128(%rbp)
    movl -128(%rbp), %eax
    pushq %rax
    popq %rcx
    subq $32, %rsp
    callq L__xms_walk
    addq $32, %rsp
    movslq %eax, %rax
    pushq %rax
    popq %rax
    movq -8(%rbp), %rax
    pushq %rax
    popq %rcx
    subq $32, %rsp
    callq cad_final
    addq $32, %rsp
    movslq %eax, %rax
    pushq %rax
    popq %rax
    movabsq $0x0, %rax
    pushq %rax
    popq %rax
    movq %rbp, %rsp
    popq %rbp
    retq
    movq $0, %rax
    pushq %rax
    movq $0, %rax
    movq %rbp, %rsp
    popq %rbp
    retq
    .seh_endproc
    .section .iii.ring3,"n"
    .asciz "xms_run_terminal"
    .text
    .global xms_run_terminal
    .seh_proc xms_run_terminal
xms_run_terminal:
    pushq %rbp
    .seh_pushreg %rbp
    movq %rsp, %rbp
    .seh_setframe %rbp, 0
    subq $1024, %rsp
    .seh_stackalloc 1024
    .seh_endprologue
    subq $32, %rsp
    callq xrp_selftest
    addq $32, %rsp
    pushq %rax
    movabsq $0x63, %rax
    pushq %rax
    popq %rcx
    popq %rax
    cmpq %rcx, %rax
    setne %al
    movzbq %al, %rax
    pushq %rax
    popq %rax
    testq %rax, %rax
    jz L_if_end_11
    movabsq $0x1, %rax
    pushq %rax
    popq %rax
    movq %rbp, %rsp
    popq %rbp
    retq
    movq $0, %rax
    pushq %rax
    popq %rax
L_if_end_11:
    subq $32, %rsp
    callq xro_selftest
    addq $32, %rsp
    pushq %rax
    movabsq $0x63, %rax
    pushq %rax
    popq %rcx
    popq %rax
    cmpq %rcx, %rax
    setne %al
    movzbq %al, %rax
    pushq %rax
    popq %rax
    testq %rax, %rax
    jz L_if_end_13
    movabsq $0x2, %rax
    pushq %rax
    popq %rax
    movq %rbp, %rsp
    popq %rbp
    retq
    movq $0, %rax
    pushq %rax
    popq %rax
L_if_end_13:
    subq $32, %rsp
    callq cpe_selftest
    addq $32, %rsp
    pushq %rax
    movabsq $0x63, %rax
    pushq %rax
    popq %rcx
    popq %rax
    cmpq %rcx, %rax
    setne %al
    movzbq %al, %rax
    pushq %rax
    popq %rax
    testq %rax, %rax
    jz L_if_end_15
    movabsq $0x3, %rax
    pushq %rax
    popq %rax
    movq %rbp, %rsp
    popq %rbp
    retq
    movq $0, %rax
    pushq %rax
    popq %rax
L_if_end_15:
    subq $32, %rsp
    callq xjn_selftest
    addq $32, %rsp
    pushq %rax
    movabsq $0x63, %rax
    pushq %rax
    popq %rcx
    popq %rax
    cmpq %rcx, %rax
    setne %al
    movzbq %al, %rax
    pushq %rax
    popq %rax
    testq %rax, %rax
    jz L_if_end_17
    movabsq $0x4, %rax
    pushq %rax
    popq %rax
    movq %rbp, %rsp
    popq %rbp
    retq
    movq $0, %rax
    pushq %rax
    popq %rax
L_if_end_17:
    subq $32, %rsp
    callq xtm_selftest
    addq $32, %rsp
    pushq %rax
    movabsq $0x63, %rax
    pushq %rax
    popq %rcx
    popq %rax
    cmpq %rcx, %rax
    setne %al
    movzbq %al, %rax
    pushq %rax
    popq %rax
    testq %rax, %rax
    jz L_if_end_19
    movabsq $0x5, %rax
    pushq %rax
    popq %rax
    movq %rbp, %rsp
    popq %rbp
    retq
    movq $0, %rax
    pushq %rax
    popq %rax
L_if_end_19:
    subq $32, %rsp
    callq xad_selftest
    addq $32, %rsp
    pushq %rax
    movabsq $0x63, %rax
    pushq %rax
    popq %rcx
    popq %rax
    cmpq %rcx, %rax
    setne %al
    movzbq %al, %rax
    pushq %rax
    popq %rax
    testq %rax, %rax
    jz L_if_end_21
    movabsq $0x6, %rax
    pushq %rax
    popq %rax
    movq %rbp, %rsp
    popq %rbp
    retq
    movq $0, %rax
    pushq %rax
    popq %rax
L_if_end_21:
    subq $32, %rsp
    callq xlc_selftest
    addq $32, %rsp
    pushq %rax
    movabsq $0x63, %rax
    pushq %rax
    popq %rcx
    popq %rax
    cmpq %rcx, %rax
    setne %al
    movzbq %al, %rax
    pushq %rax
    popq %rax
    testq %rax, %rax
    jz L_if_end_23
    movabsq $0x7, %rax
    pushq %rax
    popq %rax
    movq %rbp, %rsp
    popq %rbp
    retq
    movq $0, %rax
    pushq %rax
    popq %rax
L_if_end_23:
    subq $32, %rsp
    callq xld_selftest
    addq $32, %rsp
    pushq %rax
    movabsq $0x63, %rax
    pushq %rax
    popq %rcx
    popq %rax
    cmpq %rcx, %rax
    setne %al
    movzbq %al, %rax
    pushq %rax
    popq %rax
    testq %rax, %rax
    jz L_if_end_25
    movabsq $0x8, %rax
    pushq %rax
    popq %rax
    movq %rbp, %rsp
    popq %rbp
    retq
    movq $0, %rax
    pushq %rax
    popq %rax
L_if_end_25:
    subq $32, %rsp
    callq xli_selftest
    addq $32, %rsp
    pushq %rax
    movabsq $0x63, %rax
    pushq %rax
    popq %rcx
    popq %rax
    cmpq %rcx, %rax
    setne %al
    movzbq %al, %rax
    pushq %rax
    popq %rax
    testq %rax, %rax
    jz L_if_end_27
    movabsq $0x9, %rax
    pushq %rax
    popq %rax
    movq %rbp, %rsp
    popq %rbp
    retq
    movq $0, %rax
    pushq %rax
    popq %rax
L_if_end_27:
    subq $32, %rsp
    callq xlp_selftest
    addq $32, %rsp
    pushq %rax
    movabsq $0x63, %rax
    pushq %rax
    popq %rcx
    popq %rax
    cmpq %rcx, %rax
    setne %al
    movzbq %al, %rax
    pushq %rax
    popq %rax
    testq %rax, %rax
    jz L_if_end_29
    movabsq $0xa, %rax
    pushq %rax
    popq %rax
    movq %rbp, %rsp
    popq %rbp
    retq
    movq $0, %rax
    pushq %rax
    popq %rax
L_if_end_29:
    subq $32, %rsp
    callq xlt_selftest
    addq $32, %rsp
    pushq %rax
    movabsq $0x63, %rax
    pushq %rax
    popq %rcx
    popq %rax
    cmpq %rcx, %rax
    setne %al
    movzbq %al, %rax
    pushq %rax
    popq %rax
    testq %rax, %rax
    jz L_if_end_31
    movabsq $0xb, %rax
    pushq %rax
    popq %rax
    movq %rbp, %rsp
    popq %rbp
    retq
    movq $0, %rax
    pushq %rax
    popq %rax
L_if_end_31:
    subq $32, %rsp
    callq xlw_selftest
    addq $32, %rsp
    pushq %rax
    movabsq $0x63, %rax
    pushq %rax
    popq %rcx
    popq %rax
    cmpq %rcx, %rax
    setne %al
    movzbq %al, %rax
    pushq %rax
    popq %rax
    testq %rax, %rax
    jz L_if_end_33
    movabsq $0xc, %rax
    pushq %rax
    popq %rax
    movq %rbp, %rsp
    popq %rbp
    retq
    movq $0, %rax
    pushq %rax
    popq %rax
L_if_end_33:
    subq $32, %rsp
    callq xlu_selftest
    addq $32, %rsp
    pushq %rax
    movabsq $0x63, %rax
    pushq %rax
    popq %rcx
    popq %rax
    cmpq %rcx, %rax
    setne %al
    movzbq %al, %rax
    pushq %rax
    popq %rax
    testq %rax, %rax
    jz L_if_end_35
    movabsq $0xd, %rax
    pushq %rax
    popq %rax
    movq %rbp, %rsp
    popq %rbp
    retq
    movq $0, %rax
    pushq %rax
    popq %rax
L_if_end_35:
    movabsq $0x63, %rax
    pushq %rax
    popq %rax
    movq %rbp, %rsp
    popq %rbp
    retq
    movq $0, %rax
    pushq %rax
    movq $0, %rax
    movq %rbp, %rsp
    popq %rbp
    retq
    .seh_endproc
    .section .iii.ring3,"n"
    .asciz "xms_selftest"
    .text
    .global xms_selftest
    .seh_proc xms_selftest
xms_selftest:
    pushq %rbp
    .seh_pushreg %rbp
    movq %rsp, %rbp
    .seh_setframe %rbp, 0
    subq $1024, %rsp
    .seh_stackalloc 1024
    .seh_endprologue
    subq $32, %rsp
    callq xms_run_terminal
    addq $32, %rsp
    pushq %rax
    movabsq $0x63, %rax
    pushq %rax
    popq %rcx
    popq %rax
    cmpq %rcx, %rax
    setne %al
    movzbq %al, %rax
    pushq %rax
    popq %rax
    testq %rax, %rax
    jz L_if_end_37
    movabsq $0x1, %rax
    pushq %rax
    popq %rax
    movq %rbp, %rsp
    popq %rbp
    retq
    movq $0, %rax
    pushq %rax
    popq %rax
L_if_end_37:
    leaq L_XMS_DIG1(%rip), %rax
    pushq %rax
    popq %rax
    pushq %rax
    popq %rcx
    subq $32, %rsp
    callq xms_seal_digest
    addq $32, %rsp
    movslq %eax, %rax
    pushq %rax
    popq %rax
    leaq L_XMS_DIG2(%rip), %rax
    pushq %rax
    popq %rax
    pushq %rax
    popq %rcx
    subq $32, %rsp
    callq xms_seal_digest
    addq $32, %rsp
    movslq %eax, %rax
    pushq %rax
    popq %rax
    leaq L_XMS_DIG2(%rip), %rax
    pushq %rax
    popq %rax
    pushq %rax
    popq %rax
    pushq %rax
    leaq L_XMS_DIG1(%rip), %rax
    pushq %rax
    popq %rax
    pushq %rax
    popq %rax
    pushq %rax
    popq %rcx
    popq %rdx
    subq $32, %rsp
    callq cad_eq
    addq $32, %rsp
    movzbq %al, %rax
    pushq %rax
    movabsq $0x1, %rax
    pushq %rax
    popq %rcx
    popq %rax
    cmpq %rcx, %rax
    setne %al
    movzbq %al, %rax
    pushq %rax
    popq %rax
    testq %rax, %rax
    jz L_if_end_39
    movabsq $0x2, %rax
    pushq %rax
    popq %rax
    movq %rbp, %rsp
    popq %rbp
    retq
    movq $0, %rax
    pushq %rax
    popq %rax
L_if_end_39:
    leaq L_XMS_DIG1(%rip), %rax
    pushq %rax
    popq %rax
    pushq %rax
    popq %rax
    pushq %rax
    popq %rcx
    subq $32, %rsp
    callq cad_is_zero
    addq $32, %rsp
    movzbq %al, %rax
    pushq %rax
    movabsq $0x0, %rax
    pushq %rax
    popq %rcx
    popq %rax
    cmpq %rcx, %rax
    setne %al
    movzbq %al, %rax
    pushq %rax
    popq %rax
    testq %rax, %rax
    jz L_if_end_41
    movabsq $0x3, %rax
    pushq %rax
    popq %rax
    movq %rbp, %rsp
    popq %rbp
    retq
    movq $0, %rax
    pushq %rax
    popq %rax
L_if_end_41:
    subq $32, %rsp
    callq xad_admit
    addq $32, %rsp
    movl %eax, %eax
    pushq %rax
    movabsq $0x1, %rax
    pushq %rax
    popq %rcx
    popq %rax
    cmpq %rcx, %rax
    setne %al
    movzbq %al, %rax
    pushq %rax
    popq %rax
    testq %rax, %rax
    jz L_if_end_43
    movabsq $0x4, %rax
    pushq %rax
    popq %rax
    movq %rbp, %rsp
    popq %rbp
    retq
    movq $0, %rax
    pushq %rax
    popq %rax
L_if_end_43:
    movabsq $0x63, %rax
    pushq %rax
    popq %rax
    movq %rbp, %rsp
    popq %rbp
    retq
    movq $0, %rax
    pushq %rax
    movq $0, %rax
    movq %rbp, %rsp
    popq %rbp
    retq
    .seh_endproc
