# III Stage-0 Ring-3 codegen output
# Microsoft x64 ABI; gas syntax (AT&T); PE/COFF target
    .att_syntax
    .file 1 "<iii-source>"
    .section .rodata
L_str_0:
    .ascii "sha256.iiicrypt_ed25519.iii\0"
L_str_1:
    .ascii "crypt_ed25519.iii\0"
    .section .rodata
L_XSL_OK:
    .quad 0x0
L_XSL_E_SELF_MMAP:
    .quad 0x1
L_XSL_E_NO_MANIFEST:
    .quad 0x2
L_XSL_E_MANIFEST_TAMPER:
    .quad 0x3
L_XSL_E_ANCHOR_SIG:
    .quad 0x4
L_XSL_E_LDIL_AUDIT_TAMPER:
    .quad 0x5
L_XSL_E_CELL_TAMPER:
    .quad 0x6
L_XSL_MANIFEST_BYTES:
    .quad 0x410
    .section .bss
    .global L_XSL_COMPUTED_MHASH
L_XSL_COMPUTED_MHASH:
    .zero 256
    .section .data
    .global L_XSL_LAST_ERROR
L_XSL_LAST_ERROR:
    .quad 0x0
    .section .iii.ring3,"n"
    .asciz "xii_sml_last_error"
    .text
    .global xii_sml_last_error
    .seh_proc xii_sml_last_error
xii_sml_last_error:
    pushq %rbp
    .seh_pushreg %rbp
    movq %rsp, %rbp
    .seh_setframe %rbp, 0
    subq $1024, %rsp
    .seh_stackalloc 1024
    .seh_endprologue
    movl L_XSL_LAST_ERROR(%rip), %eax
    pushq %rax
    popq %rax
    movq %rbp, %rsp
    popq %rbp
    retq
    movq $0, %rax
    pushq %rax
    movq $0, %rax
    movq %rbp, %rsp
    popq %rbp
    retq
    .seh_endproc
    .section .iii.ring3,"n"
    .asciz "xii_sml_verify_manifest"
    .text
    .global xii_sml_verify_manifest
    .seh_proc xii_sml_verify_manifest
xii_sml_verify_manifest:
    pushq %rbp
    .seh_pushreg %rbp
    movq %rsp, %rbp
    .seh_setframe %rbp, 0
    subq $1024, %rsp
    .seh_stackalloc 1024
    .seh_endprologue
    movq %rcx, -8(%rbp)
    movq %rdx, -16(%rbp)
    movq %r8, -24(%rbp)
    movl -16(%rbp), %eax
    pushq %rax
    movl L_XSL_MANIFEST_BYTES(%rip), %eax
    pushq %rax
    popq %rcx
    popq %rax
    cmpq %rcx, %rax
    setne %al
    movzbq %al, %rax
    pushq %rax
    popq %rax
    testq %rax, %rax
    jz L_if_end_1
    movl L_XSL_E_NO_MANIFEST(%rip), %eax
    pushq %rax
    popq %rax
    movl %eax, L_XSL_LAST_ERROR(%rip)
    movl L_XSL_E_NO_MANIFEST(%rip), %eax
    pushq %rax
    popq %rax
    movq %rbp, %rsp
    popq %rbp
    retq
    movq $0, %rax
    pushq %rax
    popq %rax
L_if_end_1:
    leaq L_XSL_COMPUTED_MHASH(%rip), %rax
    pushq %rax
    popq %rax
    pushq %rax
    movl -16(%rbp), %eax
    pushq %rax
    popq %rax
    pushq %rax
    movq -8(%rbp), %rax
    pushq %rax
    popq %rcx
    popq %rdx
    popq %r8
    subq $32, %rsp
    callq sha256_oneshot
    addq $32, %rsp
    movl %eax, %eax
    pushq %rax
    popq %rax
    movabsq $0x0, %rax
    pushq %rax
    popq %rax
    movq %rax, -32(%rbp)
L_loop_top_2:
    movl -32(%rbp), %eax
    pushq %rax
    movabsq $0x20, %rax
    pushq %rax
    popq %rcx
    popq %rax
    cmpq %rcx, %rax
    setb %al
    movzbq %al, %rax
    pushq %rax
    popq %rax
    testq %rax, %rax
    jz L_loop_end_3
    leaq L_XSL_COMPUTED_MHASH(%rip), %rax
    pushq %rax
    movl -32(%rbp), %eax
    pushq %rax
    popq %rcx
    popq %rax
    movzbq (%rax,%rcx,1), %rax
    pushq %rax
    movq -24(%rbp), %rax
    pushq %rax
    movl -32(%rbp), %eax
    pushq %rax
    popq %rax
    pushq %rax
    popq %rcx
    popq %rax
    movzbq (%rax,%rcx,1), %rax
    pushq %rax
    popq %rcx
    popq %rax
    cmpq %rcx, %rax
    setne %al
    movzbq %al, %rax
    pushq %rax
    popq %rax
    testq %rax, %rax
    jz L_if_end_5
    movl L_XSL_E_MANIFEST_TAMPER(%rip), %eax
    pushq %rax
    popq %rax
    movl %eax, L_XSL_LAST_ERROR(%rip)
    movl L_XSL_E_MANIFEST_TAMPER(%rip), %eax
    pushq %rax
    popq %rax
    movq %rbp, %rsp
    popq %rbp
    retq
    movq $0, %rax
    pushq %rax
    popq %rax
L_if_end_5:
    movl -32(%rbp), %eax
    pushq %rax
    movabsq $0x1, %rax
    pushq %rax
    popq %rcx
    popq %rax
    addq %rcx, %rax
    movl %eax, %eax
    pushq %rax
    popq %rax
    movq %rax, -32(%rbp)
    movq $0, %rax
    pushq %rax
    popq %rax
    jmp L_loop_top_2
L_loop_end_3:
    movl L_XSL_OK(%rip), %eax
    pushq %rax
    popq %rax
    movl %eax, L_XSL_LAST_ERROR(%rip)
    movl L_XSL_OK(%rip), %eax
    pushq %rax
    popq %rax
    movq %rbp, %rsp
    popq %rbp
    retq
    movq $0, %rax
    pushq %rax
    movq $0, %rax
    movq %rbp, %rsp
    popq %rbp
    retq
    .seh_endproc
    .section .iii.ring3,"n"
    .asciz "xii_sml_verify_anchor_signature"
    .text
    .global xii_sml_verify_anchor_signature
    .seh_proc xii_sml_verify_anchor_signature
xii_sml_verify_anchor_signature:
    pushq %rbp
    .seh_pushreg %rbp
    movq %rsp, %rbp
    .seh_setframe %rbp, 0
    subq $1024, %rsp
    .seh_stackalloc 1024
    .seh_endprologue
    movq %rcx, -8(%rbp)
    movq -8(%rbp), %rax
    pushq %rax
    popq %rax
    pushq %rax
    movabsq $0x310, %rax
    pushq %rax
    popq %rcx
    popq %rax
    addq %rcx, %rax
    pushq %rax
    popq %rax
    pushq %rax
    popq %rax
    movq %rax, -16(%rbp)
    movq -8(%rbp), %rax
    pushq %rax
    popq %rax
    pushq %rax
    movabsq $0x330, %rax
    pushq %rax
    popq %rcx
    popq %rax
    addq %rcx, %rax
    pushq %rax
    popq %rax
    pushq %rax
    popq %rax
    movq %rax, -24(%rbp)
    movabsq $0x330, %rax
    pushq %rax
    popq %rax
    movq %rax, -32(%rbp)
    movq -24(%rbp), %rax
    pushq %rax
    movq -32(%rbp), %rax
    pushq %rax
    movq -8(%rbp), %rax
    pushq %rax
    movq -16(%rbp), %rax
    pushq %rax
    popq %rcx
    popq %rdx
    popq %r8
    popq %r9
    subq $32, %rsp
    callq ed25519_verify
    addq $32, %rsp
    movl %eax, %eax
    pushq %rax
    popq %rax
    movq %rax, -40(%rbp)
    movl -40(%rbp), %eax
    pushq %rax
    movabsq $0x0, %rax
    pushq %rax
    popq %rcx
    popq %rax
    cmpq %rcx, %rax
    setne %al
    movzbq %al, %rax
    pushq %rax
    popq %rax
    testq %rax, %rax
    jz L_if_end_7
    movl L_XSL_E_ANCHOR_SIG(%rip), %eax
    pushq %rax
    popq %rax
    movl %eax, L_XSL_LAST_ERROR(%rip)
    movl L_XSL_E_ANCHOR_SIG(%rip), %eax
    pushq %rax
    popq %rax
    movq %rbp, %rsp
    popq %rbp
    retq
    movq $0, %rax
    pushq %rax
    popq %rax
L_if_end_7:
    movl L_XSL_OK(%rip), %eax
    pushq %rax
    popq %rax
    movl %eax, L_XSL_LAST_ERROR(%rip)
    movl L_XSL_OK(%rip), %eax
    pushq %rax
    popq %rax
    movq %rbp, %rsp
    popq %rbp
    retq
    movq $0, %rax
    pushq %rax
    movq $0, %rax
    movq %rbp, %rsp
    popq %rbp
    retq
    .seh_endproc
    .section .iii.ring3,"n"
    .asciz "xii_sml_verify_cells"
    .text
    .global xii_sml_verify_cells
    .seh_proc xii_sml_verify_cells
xii_sml_verify_cells:
    pushq %rbp
    .seh_pushreg %rbp
    movq %rsp, %rbp
    .seh_setframe %rbp, 0
    subq $1024, %rsp
    .seh_stackalloc 1024
    .seh_endprologue
    movq %rcx, -8(%rbp)
    movq %rdx, -16(%rbp)
    movq %r8, -24(%rbp)
    movabsq $0x0, %rax
    pushq %rax
    popq %rax
    movq %rax, -32(%rbp)
L_loop_top_8:
    movl -32(%rbp), %eax
    pushq %rax
    movl -24(%rbp), %eax
    pushq %rax
    popq %rcx
    popq %rax
    cmpq %rcx, %rax
    setb %al
    movzbq %al, %rax
    pushq %rax
    popq %rax
    testq %rax, %rax
    jz L_loop_end_9
    movl -32(%rbp), %eax
    pushq %rax
    movabsq $0x40, %rax
    pushq %rax
    popq %rcx
    popq %rax
    imulq %rcx, %rax
    movl %eax, %eax
    pushq %rax
    popq %rax
    movq %rax, -40(%rbp)
    movq -16(%rbp), %rax
    pushq %rax
    movl -40(%rbp), %eax
    pushq %rax
    movabsq $0x0, %rax
    pushq %rax
    popq %rcx
    popq %rax
    addq %rcx, %rax
    movl %eax, %eax
    pushq %rax
    popq %rax
    pushq %rax
    popq %rcx
    popq %rax
    movzbq (%rax,%rcx,1), %rax
    pushq %rax
    popq %rax
    pushq %rax
    popq %rax
    movq %rax, -48(%rbp)
    movq -16(%rbp), %rax
    pushq %rax
    movl -40(%rbp), %eax
    pushq %rax
    movabsq $0x1, %rax
    pushq %rax
    popq %rcx
    popq %rax
    addq %rcx, %rax
    movl %eax, %eax
    pushq %rax
    popq %rax
    pushq %rax
    popq %rcx
    popq %rax
    movzbq (%rax,%rcx,1), %rax
    pushq %rax
    popq %rax
    pushq %rax
    popq %rax
    movq %rax, -56(%rbp)
    movq -16(%rbp), %rax
    pushq %rax
    movl -40(%rbp), %eax
    pushq %rax
    movabsq $0x2, %rax
    pushq %rax
    popq %rcx
    popq %rax
    addq %rcx, %rax
    movl %eax, %eax
    pushq %rax
    popq %rax
    pushq %rax
    popq %rcx
    popq %rax
    movzbq (%rax,%rcx,1), %rax
    pushq %rax
    popq %rax
    pushq %rax
    popq %rax
    movq %rax, -64(%rbp)
    movq -16(%rbp), %rax
    pushq %rax
    movl -40(%rbp), %eax
    pushq %rax
    movabsq $0x3, %rax
    pushq %rax
    popq %rcx
    popq %rax
    addq %rcx, %rax
    movl %eax, %eax
    pushq %rax
    popq %rax
    pushq %rax
    popq %rcx
    popq %rax
    movzbq (%rax,%rcx,1), %rax
    pushq %rax
    popq %rax
    pushq %rax
    popq %rax
    movq %rax, -72(%rbp)
    movq -16(%rbp), %rax
    pushq %rax
    movl -40(%rbp), %eax
    pushq %rax
    movabsq $0x4, %rax
    pushq %rax
    popq %rcx
    popq %rax
    addq %rcx, %rax
    movl %eax, %eax
    pushq %rax
    popq %rax
    pushq %rax
    popq %rcx
    popq %rax
    movzbq (%rax,%rcx,1), %rax
    pushq %rax
    popq %rax
    pushq %rax
    popq %rax
    movq %rax, -80(%rbp)
    movq -16(%rbp), %rax
    pushq %rax
    movl -40(%rbp), %eax
    pushq %rax
    movabsq $0x5, %rax
    pushq %rax
    popq %rcx
    popq %rax
    addq %rcx, %rax
    movl %eax, %eax
    pushq %rax
    popq %rax
    pushq %rax
    popq %rcx
    popq %rax
    movzbq (%rax,%rcx,1), %rax
    pushq %rax
    popq %rax
    pushq %rax
    popq %rax
    movq %rax, -88(%rbp)
    movq -16(%rbp), %rax
    pushq %rax
    movl -40(%rbp), %eax
    pushq %rax
    movabsq $0x6, %rax
    pushq %rax
    popq %rcx
    popq %rax
    addq %rcx, %rax
    movl %eax, %eax
    pushq %rax
    popq %rax
    pushq %rax
    popq %rcx
    popq %rax
    movzbq (%rax,%rcx,1), %rax
    pushq %rax
    popq %rax
    pushq %rax
    popq %rax
    movq %rax, -96(%rbp)
    movq -16(%rbp), %rax
    pushq %rax
    movl -40(%rbp), %eax
    pushq %rax
    movabsq $0x7, %rax
    pushq %rax
    popq %rcx
    popq %rax
    addq %rcx, %rax
    movl %eax, %eax
    pushq %rax
    popq %rax
    pushq %rax
    popq %rcx
    popq %rax
    movzbq (%rax,%rcx,1), %rax
    pushq %rax
    popq %rax
    pushq %rax
    popq %rax
    movq %rax, -104(%rbp)
    movq -48(%rbp), %rax
    pushq %rax
    movq -56(%rbp), %rax
    pushq %rax
    movabsq $0x8, %rax
    pushq %rax
    popq %rcx
    popq %rax
    shlq %cl, %rax
    pushq %rax
    popq %rcx
    popq %rax
    orq %rcx, %rax
    pushq %rax
    movq -64(%rbp), %rax
    pushq %rax
    movabsq $0x10, %rax
    pushq %rax
    popq %rcx
    popq %rax
    shlq %cl, %rax
    pushq %rax
    popq %rcx
    popq %rax
    orq %rcx, %rax
    pushq %rax
    movq -72(%rbp), %rax
    pushq %rax
    movabsq $0x18, %rax
    pushq %rax
    popq %rcx
    popq %rax
    shlq %cl, %rax
    pushq %rax
    popq %rcx
    popq %rax
    orq %rcx, %rax
    pushq %rax
    popq %rax
    movq %rax, -112(%rbp)
    movq -80(%rbp), %rax
    pushq %rax
    movabsq $0x20, %rax
    pushq %rax
    popq %rcx
    popq %rax
    shlq %cl, %rax
    pushq %rax
    movq -88(%rbp), %rax
    pushq %rax
    movabsq $0x28, %rax
    pushq %rax
    popq %rcx
    popq %rax
    shlq %cl, %rax
    pushq %rax
    popq %rcx
    popq %rax
    orq %rcx, %rax
    pushq %rax
    movq -96(%rbp), %rax
    pushq %rax
    movabsq $0x30, %rax
    pushq %rax
    popq %rcx
    popq %rax
    shlq %cl, %rax
    pushq %rax
    popq %rcx
    popq %rax
    orq %rcx, %rax
    pushq %rax
    movq -104(%rbp), %rax
    pushq %rax
    movabsq $0x38, %rax
    pushq %rax
    popq %rcx
    popq %rax
    shlq %cl, %rax
    pushq %rax
    popq %rcx
    popq %rax
    orq %rcx, %rax
    pushq %rax
    popq %rax
    movq %rax, -120(%rbp)
    movq -112(%rbp), %rax
    pushq %rax
    movq -120(%rbp), %rax
    pushq %rax
    popq %rcx
    popq %rax
    orq %rcx, %rax
    pushq %rax
    popq %rax
    movq %rax, -128(%rbp)
    movq -16(%rbp), %rax
    pushq %rax
    movl -40(%rbp), %eax
    pushq %rax
    movabsq $0x10, %rax
    pushq %rax
    popq %rcx
    popq %rax
    addq %rcx, %rax
    movl %eax, %eax
    pushq %rax
    popq %rax
    pushq %rax
    popq %rcx
    popq %rax
    movzbq (%rax,%rcx,1), %rax
    pushq %rax
    popq %rax
    movl %eax, %eax
    pushq %rax
    popq %rax
    movq %rax, -136(%rbp)
    movq -16(%rbp), %rax
    pushq %rax
    movl -40(%rbp), %eax
    pushq %rax
    movabsq $0x11, %rax
    pushq %rax
    popq %rcx
    popq %rax
    addq %rcx, %rax
    movl %eax, %eax
    pushq %rax
    popq %rax
    pushq %rax
    popq %rcx
    popq %rax
    movzbq (%rax,%rcx,1), %rax
    pushq %rax
    popq %rax
    movl %eax, %eax
    pushq %rax
    popq %rax
    movq %rax, -144(%rbp)
    movq -16(%rbp), %rax
    pushq %rax
    movl -40(%rbp), %eax
    pushq %rax
    movabsq $0x12, %rax
    pushq %rax
    popq %rcx
    popq %rax
    addq %rcx, %rax
    movl %eax, %eax
    pushq %rax
    popq %rax
    pushq %rax
    popq %rcx
    popq %rax
    movzbq (%rax,%rcx,1), %rax
    pushq %rax
    popq %rax
    movl %eax, %eax
    pushq %rax
    popq %rax
    movq %rax, -152(%rbp)
    movq -16(%rbp), %rax
    pushq %rax
    movl -40(%rbp), %eax
    pushq %rax
    movabsq $0x13, %rax
    pushq %rax
    popq %rcx
    popq %rax
    addq %rcx, %rax
    movl %eax, %eax
    pushq %rax
    popq %rax
    pushq %rax
    popq %rcx
    popq %rax
    movzbq (%rax,%rcx,1), %rax
    pushq %rax
    popq %rax
    movl %eax, %eax
    pushq %rax
    popq %rax
    movq %rax, -160(%rbp)
    movl -136(%rbp), %eax
    pushq %rax
    movl -144(%rbp), %eax
    pushq %rax
    movabsq $0x8, %rax
    pushq %rax
    popq %rcx
    popq %rax
    shlq %cl, %rax
    movl %eax, %eax
    pushq %rax
    popq %rcx
    popq %rax
    orq %rcx, %rax
    pushq %rax
    movl -152(%rbp), %eax
    pushq %rax
    movabsq $0x10, %rax
    pushq %rax
    popq %rcx
    popq %rax
    shlq %cl, %rax
    movl %eax, %eax
    pushq %rax
    popq %rcx
    popq %rax
    orq %rcx, %rax
    pushq %rax
    movl -160(%rbp), %eax
    pushq %rax
    movabsq $0x18, %rax
    pushq %rax
    popq %rcx
    popq %rax
    shlq %cl, %rax
    movl %eax, %eax
    pushq %rax
    popq %rcx
    popq %rax
    orq %rcx, %rax
    pushq %rax
    popq %rax
    movq %rax, -168(%rbp)
    movq -8(%rbp), %rax
    pushq %rax
    popq %rax
    pushq %rax
    movq -128(%rbp), %rax
    pushq %rax
    popq %rcx
    popq %rax
    addq %rcx, %rax
    pushq %rax
    popq %rax
    pushq %rax
    popq %rax
    movq %rax, -176(%rbp)
    leaq L_XSL_COMPUTED_MHASH(%rip), %rax
    pushq %rax
    popq %rax
    pushq %rax
    movl -168(%rbp), %eax
    pushq %rax
    popq %rax
    pushq %rax
    movq -176(%rbp), %rax
    pushq %rax
    popq %rcx
    popq %rdx
    popq %r8
    subq $32, %rsp
    callq sha256_oneshot
    addq $32, %rsp
    movl %eax, %eax
    pushq %rax
    popq %rax
    movabsq $0x0, %rax
    pushq %rax
    popq %rax
    movq %rax, -184(%rbp)
L_loop_top_10:
    movl -184(%rbp), %eax
    pushq %rax
    movabsq $0x20, %rax
    pushq %rax
    popq %rcx
    popq %rax
    cmpq %rcx, %rax
    setb %al
    movzbq %al, %rax
    pushq %rax
    popq %rax
    testq %rax, %rax
    jz L_loop_end_11
    leaq L_XSL_COMPUTED_MHASH(%rip), %rax
    pushq %rax
    movl -184(%rbp), %eax
    pushq %rax
    popq %rcx
    popq %rax
    movzbq (%rax,%rcx,1), %rax
    pushq %rax
    movq -16(%rbp), %rax
    pushq %rax
    movl -40(%rbp), %eax
    pushq %rax
    movabsq $0x18, %rax
    pushq %rax
    popq %rcx
    popq %rax
    addq %rcx, %rax
    movl %eax, %eax
    pushq %rax
    movl -184(%rbp), %eax
    pushq %rax
    popq %rcx
    popq %rax
    addq %rcx, %rax
    movl %eax, %eax
    pushq %rax
    popq %rax
    pushq %rax
    popq %rcx
    popq %rax
    movzbq (%rax,%rcx,1), %rax
    pushq %rax
    popq %rcx
    popq %rax
    cmpq %rcx, %rax
    setne %al
    movzbq %al, %rax
    pushq %rax
    popq %rax
    testq %rax, %rax
    jz L_if_end_13
    movl L_XSL_E_CELL_TAMPER(%rip), %eax
    pushq %rax
    popq %rax
    movl %eax, L_XSL_LAST_ERROR(%rip)
    movl L_XSL_E_CELL_TAMPER(%rip), %eax
    pushq %rax
    popq %rax
    movq %rbp, %rsp
    popq %rbp
    retq
    movq $0, %rax
    pushq %rax
    popq %rax
L_if_end_13:
    movl -184(%rbp), %eax
    pushq %rax
    movabsq $0x1, %rax
    pushq %rax
    popq %rcx
    popq %rax
    addq %rcx, %rax
    movl %eax, %eax
    pushq %rax
    popq %rax
    movq %rax, -184(%rbp)
    movq $0, %rax
    pushq %rax
    popq %rax
    jmp L_loop_top_10
L_loop_end_11:
    movl -32(%rbp), %eax
    pushq %rax
    movabsq $0x1, %rax
    pushq %rax
    popq %rcx
    popq %rax
    addq %rcx, %rax
    movl %eax, %eax
    pushq %rax
    popq %rax
    movq %rax, -32(%rbp)
    movq $0, %rax
    pushq %rax
    popq %rax
    jmp L_loop_top_8
L_loop_end_9:
    movl L_XSL_OK(%rip), %eax
    pushq %rax
    popq %rax
    movl %eax, L_XSL_LAST_ERROR(%rip)
    movl L_XSL_OK(%rip), %eax
    pushq %rax
    popq %rax
    movq %rbp, %rsp
    popq %rbp
    retq
    movq $0, %rax
    pushq %rax
    movq $0, %rax
    movq %rbp, %rsp
    popq %rbp
    retq
    .seh_endproc
    .section .iii.ring3,"n"
    .asciz "xii_sml_launch"
    .text
    .global xii_sml_launch
    .seh_proc xii_sml_launch
xii_sml_launch:
    pushq %rbp
    .seh_pushreg %rbp
    movq %rsp, %rbp
    .seh_setframe %rbp, 0
    subq $1024, %rsp
    .seh_stackalloc 1024
    .seh_endprologue
    movq %rcx, -8(%rbp)
    movq %rdx, -16(%rbp)
    movq %r8, -24(%rbp)
    movq %r9, -32(%rbp)
    movq 48(%rbp), %rax
    movq %rax, -40(%rbp)
    movq -16(%rbp), %rax
    pushq %rax
    movl L_XSL_MANIFEST_BYTES(%rip), %eax
    pushq %rax
    movq -8(%rbp), %rax
    pushq %rax
    popq %rcx
    popq %rdx
    popq %r8
    subq $32, %rsp
    callq xii_sml_verify_manifest
    addq $32, %rsp
    movl %eax, %eax
    pushq %rax
    popq %rax
    movq %rax, -48(%rbp)
    movl -48(%rbp), %eax
    pushq %rax
    movl L_XSL_OK(%rip), %eax
    pushq %rax
    popq %rcx
    popq %rax
    cmpq %rcx, %rax
    setne %al
    movzbq %al, %rax
    pushq %rax
    popq %rax
    testq %rax, %rax
    jz L_if_end_15
    movl -48(%rbp), %eax
    pushq %rax
    popq %rax
    movq %rbp, %rsp
    popq %rbp
    retq
    movq $0, %rax
    pushq %rax
    popq %rax
L_if_end_15:
    movq -8(%rbp), %rax
    pushq %rax
    popq %rcx
    subq $32, %rsp
    callq xii_sml_verify_anchor_signature
    addq $32, %rsp
    movl %eax, %eax
    pushq %rax
    popq %rax
    movq %rax, -56(%rbp)
    movl -56(%rbp), %eax
    pushq %rax
    movl L_XSL_OK(%rip), %eax
    pushq %rax
    popq %rcx
    popq %rax
    cmpq %rcx, %rax
    setne %al
    movzbq %al, %rax
    pushq %rax
    popq %rax
    testq %rax, %rax
    jz L_if_end_17
    movl -56(%rbp), %eax
    pushq %rax
    popq %rax
    movq %rbp, %rsp
    popq %rbp
    retq
    movq $0, %rax
    pushq %rax
    popq %rax
L_if_end_17:
    movl -40(%rbp), %eax
    pushq %rax
    movq -32(%rbp), %rax
    pushq %rax
    movq -24(%rbp), %rax
    pushq %rax
    popq %rcx
    popq %rdx
    popq %r8
    subq $32, %rsp
    callq xii_sml_verify_cells
    addq $32, %rsp
    movl %eax, %eax
    pushq %rax
    popq %rax
    movq %rax, -64(%rbp)
    movl -64(%rbp), %eax
    pushq %rax
    movl L_XSL_OK(%rip), %eax
    pushq %rax
    popq %rcx
    popq %rax
    cmpq %rcx, %rax
    setne %al
    movzbq %al, %rax
    pushq %rax
    popq %rax
    testq %rax, %rax
    jz L_if_end_19
    movl -64(%rbp), %eax
    pushq %rax
    popq %rax
    movq %rbp, %rsp
    popq %rbp
    retq
    movq $0, %rax
    pushq %rax
    popq %rax
L_if_end_19:
    movl L_XSL_OK(%rip), %eax
    pushq %rax
    popq %rax
    movq %rbp, %rsp
    popq %rbp
    retq
    movq $0, %rax
    pushq %rax
    movq $0, %rax
    movq %rbp, %rsp
    popq %rbp
    retq
    .seh_endproc
