# III Stage-0 Ring-3 codegen output
# Microsoft x64 ABI; gas syntax (AT&T); PE/COFF target
    .att_syntax
    .file 1 "<iii-source>"
    .section .rodata
L_str_0:
    .ascii "mhash.iiimhash.iiimhash.iiimhash.iiipattern_table.iiipattern_table.iii\0"
L_str_1:
    .ascii "mhash.iiimhash.iiimhash.iiipattern_table.iiipattern_table.iii\0"
L_str_2:
    .ascii "mhash.iiimhash.iiipattern_table.iiipattern_table.iii\0"
L_str_3:
    .ascii "mhash.iiipattern_table.iiipattern_table.iii\0"
L_str_4:
    .ascii "pattern_table.iiipattern_table.iii\0"
L_str_5:
    .ascii "pattern_table.iii\0"
    .section .rodata
L_SEAL_RESOLVER_BYTES:
    .quad 0x20
    .section .bss
    .global L_g_seal_resolver_mhash
L_g_seal_resolver_mhash:
    .zero 256
    .section .data
    .global L_g_seal_resolver_computed
L_g_seal_resolver_computed:
    .quad 0x0
    .global L_SEAL_RESOLVER_DOM
L_SEAL_RESOLVER_DOM:
    .byte 0x53
    .byte 0x45
    .byte 0x41
    .byte 0x4c
    .byte 0x5f
    .byte 0x52
    .byte 0x45
    .byte 0x53
    .byte 0x4f
    .byte 0x4c
    .byte 0x56
    .byte 0x45
    .byte 0x52
    .byte 0x0
    .byte 0x0
    .byte 0x0
    .global L_COEFF_TABLE_BYTES
L_COEFF_TABLE_BYTES:
    .byte 0x0
    .byte 0xca
    .byte 0x9a
    .byte 0x3b
    .byte 0x0
    .byte 0x0
    .byte 0x0
    .byte 0x0
    .byte 0x0
    .byte 0xca
    .byte 0x9a
    .byte 0x3b
    .byte 0x0
    .byte 0x0
    .byte 0x0
    .byte 0x0
    .byte 0x0
    .byte 0xe9
    .byte 0xa4
    .byte 0x35
    .byte 0x0
    .byte 0x0
    .byte 0x0
    .byte 0x0
    .byte 0x0
    .byte 0xe9
    .byte 0xa4
    .byte 0x35
    .byte 0x0
    .byte 0x0
    .byte 0x0
    .byte 0x0
    .byte 0x0
    .byte 0xe9
    .byte 0xa4
    .byte 0x35
    .byte 0x0
    .byte 0x0
    .byte 0x0
    .byte 0x0
    .byte 0x0
    .byte 0xe9
    .byte 0xa4
    .byte 0x35
    .byte 0x0
    .byte 0x0
    .byte 0x0
    .byte 0x0
    .byte 0x0
    .byte 0xe9
    .byte 0xa4
    .byte 0x35
    .byte 0x0
    .byte 0x0
    .byte 0x0
    .byte 0x0
    .byte 0x0
    .byte 0xca
    .byte 0x9a
    .byte 0x3b
    .byte 0x0
    .byte 0x0
    .byte 0x0
    .byte 0x0
    .byte 0x0
    .byte 0x65
    .byte 0xcd
    .byte 0x1d
    .byte 0x0
    .byte 0x0
    .byte 0x0
    .byte 0x0
    .byte 0x0
    .byte 0xc2
    .byte 0xeb
    .byte 0xb
    .byte 0x0
    .byte 0x0
    .byte 0x0
    .byte 0x0
    .byte 0x0
    .byte 0xe1
    .byte 0xf5
    .byte 0x5
    .byte 0x0
    .byte 0x0
    .byte 0x0
    .byte 0x0
    .byte 0x0
    .byte 0xe1
    .byte 0xf5
    .byte 0x5
    .byte 0x0
    .byte 0x0
    .byte 0x0
    .byte 0x0
    .byte 0x0
    .byte 0xe1
    .byte 0xf5
    .byte 0x5
    .byte 0x0
    .byte 0x0
    .byte 0x0
    .byte 0x0
    .byte 0x0
    .byte 0xe1
    .byte 0xf5
    .byte 0x5
    .byte 0x0
    .byte 0x0
    .byte 0x0
    .byte 0x0
    .byte 0x0
    .byte 0xe1
    .byte 0xf5
    .byte 0x5
    .byte 0x0
    .byte 0x0
    .byte 0x0
    .byte 0x0
    .byte 0x0
    .byte 0xe1
    .byte 0xf5
    .byte 0x5
    .byte 0x0
    .byte 0x0
    .byte 0x0
    .byte 0x0
    .byte 0x80
    .byte 0xf0
    .byte 0xfa
    .byte 0x2
    .byte 0x0
    .byte 0x0
    .byte 0x0
    .byte 0x0
    .byte 0x0
    .byte 0xe1
    .byte 0xf5
    .byte 0x5
    .byte 0x0
    .byte 0x0
    .byte 0x0
    .byte 0x0
    .byte 0x80
    .byte 0xf0
    .byte 0xfa
    .byte 0x2
    .byte 0x0
    .byte 0x0
    .byte 0x0
    .byte 0x0
    .byte 0x80
    .byte 0x96
    .byte 0x98
    .byte 0x0
    .byte 0x0
    .byte 0x0
    .byte 0x0
    .byte 0x0
    .byte 0x0
    .byte 0x1e
    .byte 0xc4
    .byte 0x4
    .byte 0x0
    .byte 0x0
    .byte 0x0
    .byte 0x0
    .byte 0x80
    .byte 0xc3
    .byte 0xc9
    .byte 0x1
    .byte 0x0
    .byte 0x0
    .byte 0x0
    .byte 0x0
    .byte 0x0
    .byte 0xc2
    .byte 0xeb
    .byte 0xb
    .byte 0x0
    .byte 0x0
    .byte 0x0
    .byte 0x0
    .byte 0x0
    .byte 0x2d
    .byte 0x31
    .byte 0x1
    .byte 0x0
    .byte 0x0
    .byte 0x0
    .byte 0x0
    .byte 0x40
    .byte 0x4b
    .byte 0x4c
    .byte 0x0
    .byte 0x0
    .byte 0x0
    .byte 0x0
    .byte 0x0
    .byte 0x0
    .byte 0x65
    .byte 0xcd
    .byte 0x1d
    .byte 0x0
    .byte 0x0
    .byte 0x0
    .byte 0x0
    .byte 0x0
    .byte 0xc2
    .byte 0xeb
    .byte 0xb
    .byte 0x0
    .byte 0x0
    .byte 0x0
    .byte 0x0
    .byte 0x0
    .byte 0xca
    .byte 0x9a
    .byte 0x3b
    .byte 0x0
    .byte 0x0
    .byte 0x0
    .byte 0x0
    .byte 0x0
    .byte 0x27
    .byte 0xb9
    .byte 0x29
    .byte 0x0
    .byte 0x0
    .byte 0x0
    .byte 0x0
    .byte 0x0
    .byte 0xa3
    .byte 0xe1
    .byte 0x11
    .byte 0x0
    .byte 0x0
    .byte 0x0
    .byte 0x0
    .byte 0x0
    .byte 0xe1
    .byte 0xf5
    .byte 0x5
    .byte 0x0
    .byte 0x0
    .byte 0x0
    .byte 0x0
    .byte 0x0
    .byte 0x0
    .byte 0x0
    .byte 0x0
    .byte 0x0
    .byte 0x0
    .byte 0x0
    .byte 0x0
    .byte 0x8
    .byte 0x0
    .byte 0x0
    .byte 0x0
    .byte 0x0
    .byte 0x0
    .byte 0x0
    .byte 0x0
    .global L_DOMAIN_STRINGS_BYTES
L_DOMAIN_STRINGS_BYTES:
    .byte 0x49
    .byte 0x49
    .byte 0x49
    .byte 0x5f
    .byte 0x52
    .byte 0x45
    .byte 0x53
    .byte 0x4f
    .byte 0x4c
    .byte 0x56
    .byte 0x45
    .byte 0x5f
    .byte 0x4f
    .byte 0x4b
    .byte 0x0
    .byte 0x0
    .byte 0x49
    .byte 0x49
    .byte 0x49
    .byte 0x5f
    .byte 0x52
    .byte 0x45
    .byte 0x53
    .byte 0x4f
    .byte 0x4c
    .byte 0x56
    .byte 0x45
    .byte 0x5f
    .byte 0x46
    .byte 0x41
    .byte 0x49
    .byte 0x4c
    .byte 0x49
    .byte 0x49
    .byte 0x49
    .byte 0x5f
    .byte 0x52
    .byte 0x45
    .byte 0x53
    .byte 0x4f
    .byte 0x4c
    .byte 0x56
    .byte 0x45
    .byte 0x5f
    .byte 0x41
    .byte 0x4d
    .byte 0x42
    .byte 0x47
    .byte 0x49
    .byte 0x49
    .byte 0x49
    .byte 0x5f
    .byte 0x52
    .byte 0x45
    .byte 0x53
    .byte 0x4f
    .byte 0x4c
    .byte 0x56
    .byte 0x45
    .byte 0x5f
    .byte 0x4b
    .byte 0x55
    .byte 0x46
    .byte 0x0
    .byte 0x49
    .byte 0x49
    .byte 0x49
    .byte 0x5f
    .byte 0x52
    .byte 0x45
    .byte 0x53
    .byte 0x4f
    .byte 0x4c
    .byte 0x56
    .byte 0x45
    .byte 0x5f
    .byte 0x54
    .byte 0x41
    .byte 0x4d
    .byte 0x50
    .section .bss
    .global L_SEAL_RESOLVER_SAVED
L_SEAL_RESOLVER_SAVED:
    .zero 256
    .section .iii.ring3,"n"
    .asciz "seal_resolver_compute"
    .text
    .global seal_resolver_compute
    .seh_proc seal_resolver_compute
seal_resolver_compute:
    pushq %rbp
    .seh_pushreg %rbp
    movq %rsp, %rbp
    .seh_setframe %rbp, 0
    subq $1024, %rsp
    .seh_stackalloc 1024
    .seh_endprologue
    subq $32, %rsp
    callq mhash_begin
    addq $32, %rsp
    movslq %eax, %rax
    pushq %rax
    popq %rax
    movabsq $0xd, %rax
    pushq %rax
    leaq L_SEAL_RESOLVER_DOM(%rip), %rax
    pushq %rax
    popq %rax
    pushq %rax
    popq %rcx
    popq %rdx
    subq $32, %rsp
    callq mhash_domain
    addq $32, %rsp
    movslq %eax, %rax
    pushq %rax
    popq %rax
    movabsq $0x108, %rax
    pushq %rax
    leaq L_COEFF_TABLE_BYTES(%rip), %rax
    pushq %rax
    popq %rax
    pushq %rax
    popq %rcx
    popq %rdx
    subq $32, %rsp
    callq mhash_payload
    addq $32, %rsp
    movslq %eax, %rax
    pushq %rax
    popq %rax
    subq $32, %rsp
    callq pattern_registry_used
    addq $32, %rsp
    movl %eax, %eax
    pushq %rax
    popq %rax
    movq %rax, -8(%rbp)
    movabsq $0x0, %rax
    pushq %rax
    popq %rax
    movq %rax, -16(%rbp)
L_loop_top_0:
    movl -16(%rbp), %eax
    pushq %rax
    movl -8(%rbp), %eax
    pushq %rax
    popq %rcx
    popq %rax
    cmpq %rcx, %rax
    setb %al
    movzbq %al, %rax
    pushq %rax
    popq %rax
    testq %rax, %rax
    jz L_loop_end_1
    movl -16(%rbp), %eax
    pushq %rax
    popq %rcx
    subq $32, %rsp
    callq pattern_table_get
    addq $32, %rsp
    pushq %rax
    popq %rax
    movq %rax, -24(%rbp)
    movq -24(%rbp), %rax
    pushq %rax
    movabsq $0x0, %rax
    pushq %rax
    popq %rcx
    popq %rax
    cmpq %rcx, %rax
    setne %al
    movzbq %al, %rax
    pushq %rax
    popq %rax
    testq %rax, %rax
    jz L_if_end_3
    movabsq $0xa8, %rax
    pushq %rax
    movq -24(%rbp), %rax
    pushq %rax
    popq %rcx
    popq %rdx
    subq $32, %rsp
    callq mhash_payload
    addq $32, %rsp
    movslq %eax, %rax
    pushq %rax
    popq %rax
    movq $0, %rax
    pushq %rax
    popq %rax
L_if_end_3:
    movl -16(%rbp), %eax
    pushq %rax
    movabsq $0x1, %rax
    pushq %rax
    popq %rcx
    popq %rax
    addq %rcx, %rax
    movl %eax, %eax
    pushq %rax
    popq %rax
    movq %rax, -16(%rbp)
    movq $0, %rax
    pushq %rax
    popq %rax
    jmp L_loop_top_0
L_loop_end_1:
    movabsq $0x50, %rax
    pushq %rax
    leaq L_DOMAIN_STRINGS_BYTES(%rip), %rax
    pushq %rax
    popq %rax
    pushq %rax
    popq %rcx
    popq %rdx
    subq $32, %rsp
    callq mhash_payload
    addq $32, %rsp
    movslq %eax, %rax
    pushq %rax
    popq %rax
    leaq L_g_seal_resolver_mhash(%rip), %rax
    pushq %rax
    popq %rax
    pushq %rax
    popq %rcx
    subq $32, %rsp
    callq mhash_final
    addq $32, %rsp
    movslq %eax, %rax
    pushq %rax
    popq %rax
    movabsq $0x1, %rax
    pushq %rax
    popq %rax
    movb %al, L_g_seal_resolver_computed(%rip)
    movabsq $0x0, %rax
    pushq %rax
    popq %rax
    movq %rbp, %rsp
    popq %rbp
    retq
    movq $0, %rax
    pushq %rax
    movq $0, %rax
    movq %rbp, %rsp
    popq %rbp
    retq
    .seh_endproc
    .section .iii.ring3,"n"
    .asciz "seal_resolver_byte"
    .text
    .global seal_resolver_byte
    .seh_proc seal_resolver_byte
seal_resolver_byte:
    pushq %rbp
    .seh_pushreg %rbp
    movq %rsp, %rbp
    .seh_setframe %rbp, 0
    subq $1024, %rsp
    .seh_stackalloc 1024
    .seh_endprologue
    movq %rcx, -8(%rbp)
    movl -8(%rbp), %eax
    pushq %rax
    movl L_SEAL_RESOLVER_BYTES(%rip), %eax
    pushq %rax
    popq %rcx
    popq %rax
    cmpq %rcx, %rax
    setae %al
    movzbq %al, %rax
    pushq %rax
    popq %rax
    testq %rax, %rax
    jz L_if_end_5
    movabsq $0x0, %rax
    pushq %rax
    popq %rax
    movq %rbp, %rsp
    popq %rbp
    retq
    movq $0, %rax
    pushq %rax
    popq %rax
L_if_end_5:
    leaq L_g_seal_resolver_mhash(%rip), %rax
    pushq %rax
    movl -8(%rbp), %eax
    pushq %rax
    popq %rcx
    popq %rax
    movzbq (%rax,%rcx,1), %rax
    pushq %rax
    popq %rax
    movq %rbp, %rsp
    popq %rbp
    retq
    movq $0, %rax
    pushq %rax
    movq $0, %rax
    movq %rbp, %rsp
    popq %rbp
    retq
    .seh_endproc
    .section .iii.ring3,"n"
    .asciz "seal_resolver_is_computed"
    .text
    .global seal_resolver_is_computed
    .seh_proc seal_resolver_is_computed
seal_resolver_is_computed:
    pushq %rbp
    .seh_pushreg %rbp
    movq %rsp, %rbp
    .seh_setframe %rbp, 0
    subq $1024, %rsp
    .seh_stackalloc 1024
    .seh_endprologue
    movzbq L_g_seal_resolver_computed(%rip), %rax
    pushq %rax
    popq %rax
    movq %rbp, %rsp
    popq %rbp
    retq
    movq $0, %rax
    pushq %rax
    movq $0, %rax
    movq %rbp, %rsp
    popq %rbp
    retq
    .seh_endproc
    .section .iii.ring3,"n"
    .asciz "seal_resolver_coeff_u64"
    .text
    .global seal_resolver_coeff_u64
    .seh_proc seal_resolver_coeff_u64
seal_resolver_coeff_u64:
    pushq %rbp
    .seh_pushreg %rbp
    movq %rsp, %rbp
    .seh_setframe %rbp, 0
    subq $1024, %rsp
    .seh_stackalloc 1024
    .seh_endprologue
    movq %rcx, -8(%rbp)
    movl -8(%rbp), %eax
    pushq %rax
    movabsq $0x21, %rax
    pushq %rax
    popq %rcx
    popq %rax
    cmpq %rcx, %rax
    setae %al
    movzbq %al, %rax
    pushq %rax
    popq %rax
    testq %rax, %rax
    jz L_if_end_7
    movabsq $0xffffffffffffffff, %rax
    pushq %rax
    popq %rax
    movq %rbp, %rsp
    popq %rbp
    retq
    movq $0, %rax
    pushq %rax
    popq %rax
L_if_end_7:
    movl -8(%rbp), %eax
    pushq %rax
    popq %rax
    pushq %rax
    movabsq $0x8, %rax
    pushq %rax
    popq %rcx
    popq %rax
    imulq %rcx, %rax
    pushq %rax
    popq %rax
    movq %rax, -16(%rbp)
    movabsq $0x0, %rax
    pushq %rax
    popq %rax
    movq %rax, -24(%rbp)
    movabsq $0x0, %rax
    pushq %rax
    popq %rax
    movq %rax, -32(%rbp)
L_loop_top_8:
    movq -32(%rbp), %rax
    pushq %rax
    movabsq $0x8, %rax
    pushq %rax
    popq %rcx
    popq %rax
    cmpq %rcx, %rax
    setb %al
    movzbq %al, %rax
    pushq %rax
    popq %rax
    testq %rax, %rax
    jz L_loop_end_9
    movq -24(%rbp), %rax
    pushq %rax
    leaq L_COEFF_TABLE_BYTES(%rip), %rax
    pushq %rax
    movq -16(%rbp), %rax
    pushq %rax
    movq -32(%rbp), %rax
    pushq %rax
    popq %rcx
    popq %rax
    addq %rcx, %rax
    pushq %rax
    popq %rcx
    popq %rax
    movzbq (%rax,%rcx,1), %rax
    pushq %rax
    popq %rax
    pushq %rax
    movq -32(%rbp), %rax
    pushq %rax
    movabsq $0x8, %rax
    pushq %rax
    popq %rcx
    popq %rax
    imulq %rcx, %rax
    pushq %rax
    popq %rcx
    popq %rax
    shlq %cl, %rax
    pushq %rax
    popq %rcx
    popq %rax
    orq %rcx, %rax
    pushq %rax
    popq %rax
    movq %rax, -24(%rbp)
    movq -32(%rbp), %rax
    pushq %rax
    movabsq $0x1, %rax
    pushq %rax
    popq %rcx
    popq %rax
    addq %rcx, %rax
    pushq %rax
    popq %rax
    movq %rax, -32(%rbp)
    movq $0, %rax
    pushq %rax
    popq %rax
    jmp L_loop_top_8
L_loop_end_9:
    movq -24(%rbp), %rax
    pushq %rax
    popq %rax
    movq %rbp, %rsp
    popq %rbp
    retq
    movq $0, %rax
    pushq %rax
    movq $0, %rax
    movq %rbp, %rsp
    popq %rbp
    retq
    .seh_endproc
    .section .iii.ring3,"n"
    .asciz "seal_resolver_flip_byte_for_test"
    .text
    .global seal_resolver_flip_byte_for_test
    .seh_proc seal_resolver_flip_byte_for_test
seal_resolver_flip_byte_for_test:
    pushq %rbp
    .seh_pushreg %rbp
    movq %rsp, %rbp
    .seh_setframe %rbp, 0
    subq $1024, %rsp
    .seh_stackalloc 1024
    .seh_endprologue
    movq %rcx, -8(%rbp)
    movl -8(%rbp), %eax
    pushq %rax
    movabsq $0x108, %rax
    pushq %rax
    popq %rcx
    popq %rax
    cmpq %rcx, %rax
    setae %al
    movzbq %al, %rax
    pushq %rax
    popq %rax
    testq %rax, %rax
    jz L_if_end_11
    movabsq $0x1, %rax
    pushq %rax
    popq %rax
    negq %rax
    pushq %rax
    popq %rax
    movq %rbp, %rsp
    popq %rbp
    retq
    movq $0, %rax
    pushq %rax
    popq %rax
L_if_end_11:
    leaq L_COEFF_TABLE_BYTES(%rip), %rax
    pushq %rax
    movl -8(%rbp), %eax
    pushq %rax
    leaq L_COEFF_TABLE_BYTES(%rip), %rax
    pushq %rax
    movl -8(%rbp), %eax
    pushq %rax
    popq %rcx
    popq %rax
    movzbq (%rax,%rcx,1), %rax
    pushq %rax
    movabsq $0xff, %rax
    pushq %rax
    popq %rcx
    popq %rax
    xorq %rcx, %rax
    pushq %rax
    popq %rdx
    popq %rcx
    popq %rax
    movb %dl, (%rax,%rcx,1)
    movabsq $0x0, %rax
    pushq %rax
    popq %rax
    movq %rbp, %rsp
    popq %rbp
    retq
    movq $0, %rax
    pushq %rax
    movq $0, %rax
    movq %rbp, %rsp
    popq %rbp
    retq
    .seh_endproc
    .section .iii.ring3,"n"
    .asciz "seal_resolver_verify"
    .text
    .global seal_resolver_verify
    .seh_proc seal_resolver_verify
seal_resolver_verify:
    pushq %rbp
    .seh_pushreg %rbp
    movq %rsp, %rbp
    .seh_setframe %rbp, 0
    subq $1024, %rsp
    .seh_stackalloc 1024
    .seh_endprologue
    movzbq L_g_seal_resolver_computed(%rip), %rax
    pushq %rax
    movabsq $0x0, %rax
    pushq %rax
    popq %rcx
    popq %rax
    cmpq %rcx, %rax
    sete %al
    movzbq %al, %rax
    pushq %rax
    popq %rax
    testq %rax, %rax
    jz L_if_end_13
    movabsq $0x0, %rax
    pushq %rax
    popq %rax
    movq %rbp, %rsp
    popq %rbp
    retq
    movq $0, %rax
    pushq %rax
    popq %rax
L_if_end_13:
    movabsq $0x0, %rax
    pushq %rax
    popq %rax
    movq %rax, -8(%rbp)
L_loop_top_14:
    movl -8(%rbp), %eax
    pushq %rax
    movabsq $0x20, %rax
    pushq %rax
    popq %rcx
    popq %rax
    cmpq %rcx, %rax
    setb %al
    movzbq %al, %rax
    pushq %rax
    popq %rax
    testq %rax, %rax
    jz L_loop_end_15
    leaq L_SEAL_RESOLVER_SAVED(%rip), %rax
    pushq %rax
    movl -8(%rbp), %eax
    pushq %rax
    leaq L_g_seal_resolver_mhash(%rip), %rax
    pushq %rax
    movl -8(%rbp), %eax
    pushq %rax
    popq %rcx
    popq %rax
    movzbq (%rax,%rcx,1), %rax
    pushq %rax
    popq %rdx
    popq %rcx
    popq %rax
    movb %dl, (%rax,%rcx,1)
    movl -8(%rbp), %eax
    pushq %rax
    movabsq $0x1, %rax
    pushq %rax
    popq %rcx
    popq %rax
    addq %rcx, %rax
    movl %eax, %eax
    pushq %rax
    popq %rax
    movq %rax, -8(%rbp)
    movq $0, %rax
    pushq %rax
    popq %rax
    jmp L_loop_top_14
L_loop_end_15:
    subq $32, %rsp
    callq seal_resolver_compute
    addq $32, %rsp
    movslq %eax, %rax
    pushq %rax
    popq %rax
    movabsq $0x1, %rax
    pushq %rax
    popq %rax
    movq %rax, -16(%rbp)
    movabsq $0x0, %rax
    pushq %rax
    popq %rax
    movq %rax, -8(%rbp)
L_loop_top_16:
    movl -8(%rbp), %eax
    pushq %rax
    movabsq $0x20, %rax
    pushq %rax
    popq %rcx
    popq %rax
    cmpq %rcx, %rax
    setb %al
    movzbq %al, %rax
    pushq %rax
    popq %rax
    testq %rax, %rax
    jz L_loop_end_17
    leaq L_SEAL_RESOLVER_SAVED(%rip), %rax
    pushq %rax
    movl -8(%rbp), %eax
    pushq %rax
    popq %rcx
    popq %rax
    movzbq (%rax,%rcx,1), %rax
    pushq %rax
    leaq L_g_seal_resolver_mhash(%rip), %rax
    pushq %rax
    movl -8(%rbp), %eax
    pushq %rax
    popq %rcx
    popq %rax
    movzbq (%rax,%rcx,1), %rax
    pushq %rax
    popq %rcx
    popq %rax
    cmpq %rcx, %rax
    setne %al
    movzbq %al, %rax
    pushq %rax
    popq %rax
    testq %rax, %rax
    jz L_if_end_19
    movabsq $0x0, %rax
    pushq %rax
    popq %rax
    movq %rax, -16(%rbp)
    movq $0, %rax
    pushq %rax
    popq %rax
L_if_end_19:
    movl -8(%rbp), %eax
    pushq %rax
    movabsq $0x1, %rax
    pushq %rax
    popq %rcx
    popq %rax
    addq %rcx, %rax
    movl %eax, %eax
    pushq %rax
    popq %rax
    movq %rax, -8(%rbp)
    movq $0, %rax
    pushq %rax
    popq %rax
    jmp L_loop_top_16
L_loop_end_17:
    movzbq -16(%rbp), %rax
    pushq %rax
    popq %rax
    movq %rbp, %rsp
    popq %rbp
    retq
    movq $0, %rax
    pushq %rax
    movq $0, %rax
    movq %rbp, %rsp
    popq %rbp
    retq
    .seh_endproc
    .section .iii.ring3,"n"
    .asciz "closure_includes_resolver_seal"
    .text
    .global closure_includes_resolver_seal
    .seh_proc closure_includes_resolver_seal
closure_includes_resolver_seal:
    pushq %rbp
    .seh_pushreg %rbp
    movq %rsp, %rbp
    .seh_setframe %rbp, 0
    subq $1024, %rsp
    .seh_stackalloc 1024
    .seh_endprologue
    movzbq L_g_seal_resolver_computed(%rip), %rax
    pushq %rax
    popq %rax
    movq %rbp, %rsp
    popq %rbp
    retq
    movq $0, %rax
    pushq %rax
    movq $0, %rax
    movq %rbp, %rsp
    popq %rbp
    retq
    .seh_endproc
