# III Stage-0 Ring-3 codegen output
# Microsoft x64 ABI; gas syntax (AT&T); PE/COFF target
    .att_syntax
    .file 1 "<iii-source>"
    .section .rodata
L_str_0:
    .ascii "msvcrt\0"
L_str_1:
    .ascii "nl_lex.iii\0"
L_str_2:
    .ascii "nl_lex.iii\0"
L_str_3:
    .ascii "nl_lex.iii\0"
L_str_4:
    .ascii "nl_parse.iii\0"
L_str_5:
    .ascii "nl_parse.iii\0"
L_str_6:
    .ascii "nl_parse.iii\0"
L_str_7:
    .ascii "nl_parse.iii\0"
L_str_8:
    .ascii "nl_lex.iii\0"
    .section .iii.ring3,"n"
    .asciz "_put"
    .text
    .seh_proc L__put
L__put:
    pushq %rbp
    .seh_pushreg %rbp
    movq %rsp, %rbp
    .seh_setframe %rbp, 0
    subq $1024, %rsp
    .seh_stackalloc 1024
    .seh_endprologue
    movq %rcx, -8(%rbp)
    movq %rdx, -16(%rbp)
    movq %r8, -24(%rbp)
    movq -8(%rbp), %rax
    pushq %rax
    movq -16(%rbp), %rax
    pushq %rax
    movzbq -24(%rbp), %rax
    pushq %rax
    popq %rdx
    popq %rcx
    popq %rax
    movb %dl, (%rax,%rcx,1)
    movq -16(%rbp), %rax
    pushq %rax
    movabsq $0x1, %rax
    pushq %rax
    popq %rcx
    popq %rax
    addq %rcx, %rax
    pushq %rax
    popq %rax
    movq %rbp, %rsp
    popq %rbp
    retq
    movq $0, %rax
    pushq %rax
    movq $0, %rax
    movq %rbp, %rsp
    popq %rbp
    retq
    .seh_endproc
    .section .iii.ring3,"n"
    .asciz "_read_u32"
    .text
    .seh_proc L__read_u32
L__read_u32:
    pushq %rbp
    .seh_pushreg %rbp
    movq %rsp, %rbp
    .seh_setframe %rbp, 0
    subq $1024, %rsp
    .seh_stackalloc 1024
    .seh_endprologue
    movq %rcx, -8(%rbp)
    movq %rdx, -16(%rbp)
    movq -8(%rbp), %rax
    pushq %rax
    movq -16(%rbp), %rax
    pushq %rax
    popq %rcx
    popq %rax
    movzbq (%rax,%rcx,1), %rax
    pushq %rax
    popq %rax
    movl %eax, %eax
    pushq %rax
    movabsq $0xff, %rax
    pushq %rax
    popq %rcx
    popq %rax
    andq %rcx, %rax
    pushq %rax
    popq %rax
    movq %rax, -24(%rbp)
    movq -8(%rbp), %rax
    pushq %rax
    movq -16(%rbp), %rax
    pushq %rax
    movabsq $0x1, %rax
    pushq %rax
    popq %rcx
    popq %rax
    addq %rcx, %rax
    pushq %rax
    popq %rcx
    popq %rax
    movzbq (%rax,%rcx,1), %rax
    pushq %rax
    popq %rax
    movl %eax, %eax
    pushq %rax
    movabsq $0xff, %rax
    pushq %rax
    popq %rcx
    popq %rax
    andq %rcx, %rax
    pushq %rax
    popq %rax
    shlq $8, %rax
    movl %eax, %eax
    pushq %rax
    popq %rax
    movq %rax, -32(%rbp)
    movq -8(%rbp), %rax
    pushq %rax
    movq -16(%rbp), %rax
    pushq %rax
    movabsq $0x2, %rax
    pushq %rax
    popq %rcx
    popq %rax
    addq %rcx, %rax
    pushq %rax
    popq %rcx
    popq %rax
    movzbq (%rax,%rcx,1), %rax
    pushq %rax
    popq %rax
    movl %eax, %eax
    pushq %rax
    movabsq $0xff, %rax
    pushq %rax
    popq %rcx
    popq %rax
    andq %rcx, %rax
    pushq %rax
    popq %rax
    shlq $16, %rax
    movl %eax, %eax
    pushq %rax
    popq %rax
    movq %rax, -40(%rbp)
    movq -8(%rbp), %rax
    pushq %rax
    movq -16(%rbp), %rax
    pushq %rax
    movabsq $0x3, %rax
    pushq %rax
    popq %rcx
    popq %rax
    addq %rcx, %rax
    pushq %rax
    popq %rcx
    popq %rax
    movzbq (%rax,%rcx,1), %rax
    pushq %rax
    popq %rax
    movl %eax, %eax
    pushq %rax
    movabsq $0xff, %rax
    pushq %rax
    popq %rcx
    popq %rax
    andq %rcx, %rax
    pushq %rax
    popq %rax
    shlq $24, %rax
    movl %eax, %eax
    pushq %rax
    popq %rax
    movq %rax, -48(%rbp)
    movl -24(%rbp), %eax
    pushq %rax
    movl -32(%rbp), %eax
    pushq %rax
    popq %rcx
    popq %rax
    orq %rcx, %rax
    pushq %rax
    movl -40(%rbp), %eax
    pushq %rax
    popq %rcx
    popq %rax
    orq %rcx, %rax
    pushq %rax
    movl -48(%rbp), %eax
    pushq %rax
    popq %rcx
    popq %rax
    orq %rcx, %rax
    pushq %rax
    popq %rax
    movq %rbp, %rsp
    popq %rbp
    retq
    movq $0, %rax
    pushq %rax
    movq $0, %rax
    movq %rbp, %rsp
    popq %rbp
    retq
    .seh_endproc
    .section .iii.ring3,"n"
    .asciz "_phrase"
    .text
    .seh_proc L__phrase
L__phrase:
    pushq %rbp
    .seh_pushreg %rbp
    movq %rsp, %rbp
    .seh_setframe %rbp, 0
    subq $1024, %rsp
    .seh_stackalloc 1024
    .seh_endprologue
    movq %rcx, -8(%rbp)
    movabsq $0x0, %rax
    pushq %rax
    popq %rax
    movq %rax, -16(%rbp)
    movabsq $0x6c, %rax
    pushq %rax
    movq -16(%rbp), %rax
    pushq %rax
    movq -8(%rbp), %rax
    pushq %rax
    popq %rcx
    popq %rdx
    popq %r8
    subq $32, %rsp
    callq L__put
    addq $32, %rsp
    pushq %rax
    popq %rax
    movq %rax, -16(%rbp)
    movabsq $0x6f, %rax
    pushq %rax
    movq -16(%rbp), %rax
    pushq %rax
    movq -8(%rbp), %rax
    pushq %rax
    popq %rcx
    popq %rdx
    popq %r8
    subq $32, %rsp
    callq L__put
    addq $32, %rsp
    pushq %rax
    popq %rax
    movq %rax, -16(%rbp)
    movabsq $0x63, %rax
    pushq %rax
    movq -16(%rbp), %rax
    pushq %rax
    movq -8(%rbp), %rax
    pushq %rax
    popq %rcx
    popq %rdx
    popq %r8
    subq $32, %rsp
    callq L__put
    addq $32, %rsp
    pushq %rax
    popq %rax
    movq %rax, -16(%rbp)
    movabsq $0x6b, %rax
    pushq %rax
    movq -16(%rbp), %rax
    pushq %rax
    movq -8(%rbp), %rax
    pushq %rax
    popq %rcx
    popq %rdx
    popq %r8
    subq $32, %rsp
    callq L__put
    addq $32, %rsp
    pushq %rax
    popq %rax
    movq %rax, -16(%rbp)
    movabsq $0x20, %rax
    pushq %rax
    movq -16(%rbp), %rax
    pushq %rax
    movq -8(%rbp), %rax
    pushq %rax
    popq %rcx
    popq %rdx
    popq %r8
    subq $32, %rsp
    callq L__put
    addq $32, %rsp
    pushq %rax
    popq %rax
    movq %rax, -16(%rbp)
    movabsq $0x74, %rax
    pushq %rax
    movq -16(%rbp), %rax
    pushq %rax
    movq -8(%rbp), %rax
    pushq %rax
    popq %rcx
    popq %rdx
    popq %r8
    subq $32, %rsp
    callq L__put
    addq $32, %rsp
    pushq %rax
    popq %rax
    movq %rax, -16(%rbp)
    movabsq $0x68, %rax
    pushq %rax
    movq -16(%rbp), %rax
    pushq %rax
    movq -8(%rbp), %rax
    pushq %rax
    popq %rcx
    popq %rdx
    popq %r8
    subq $32, %rsp
    callq L__put
    addq $32, %rsp
    pushq %rax
    popq %rax
    movq %rax, -16(%rbp)
    movabsq $0x65, %rax
    pushq %rax
    movq -16(%rbp), %rax
    pushq %rax
    movq -8(%rbp), %rax
    pushq %rax
    popq %rcx
    popq %rdx
    popq %r8
    subq $32, %rsp
    callq L__put
    addq $32, %rsp
    pushq %rax
    popq %rax
    movq %rax, -16(%rbp)
    movabsq $0x20, %rax
    pushq %rax
    movq -16(%rbp), %rax
    pushq %rax
    movq -8(%rbp), %rax
    pushq %rax
    popq %rcx
    popq %rdx
    popq %r8
    subq $32, %rsp
    callq L__put
    addq $32, %rsp
    pushq %rax
    popq %rax
    movq %rax, -16(%rbp)
    movabsq $0x6d, %rax
    pushq %rax
    movq -16(%rbp), %rax
    pushq %rax
    movq -8(%rbp), %rax
    pushq %rax
    popq %rcx
    popq %rdx
    popq %r8
    subq $32, %rsp
    callq L__put
    addq $32, %rsp
    pushq %rax
    popq %rax
    movq %rax, -16(%rbp)
    movabsq $0x75, %rax
    pushq %rax
    movq -16(%rbp), %rax
    pushq %rax
    movq -8(%rbp), %rax
    pushq %rax
    popq %rcx
    popq %rdx
    popq %r8
    subq $32, %rsp
    callq L__put
    addq $32, %rsp
    pushq %rax
    popq %rax
    movq %rax, -16(%rbp)
    movabsq $0x74, %rax
    pushq %rax
    movq -16(%rbp), %rax
    pushq %rax
    movq -8(%rbp), %rax
    pushq %rax
    popq %rcx
    popq %rdx
    popq %r8
    subq $32, %rsp
    callq L__put
    addq $32, %rsp
    pushq %rax
    popq %rax
    movq %rax, -16(%rbp)
    movabsq $0x65, %rax
    pushq %rax
    movq -16(%rbp), %rax
    pushq %rax
    movq -8(%rbp), %rax
    pushq %rax
    popq %rcx
    popq %rdx
    popq %r8
    subq $32, %rsp
    callq L__put
    addq $32, %rsp
    pushq %rax
    popq %rax
    movq %rax, -16(%rbp)
    movabsq $0x78, %rax
    pushq %rax
    movq -16(%rbp), %rax
    pushq %rax
    movq -8(%rbp), %rax
    pushq %rax
    popq %rcx
    popq %rdx
    popq %r8
    subq $32, %rsp
    callq L__put
    addq $32, %rsp
    pushq %rax
    popq %rax
    movq %rax, -16(%rbp)
    movabsq $0x20, %rax
    pushq %rax
    movq -16(%rbp), %rax
    pushq %rax
    movq -8(%rbp), %rax
    pushq %rax
    popq %rcx
    popq %rdx
    popq %r8
    subq $32, %rsp
    callq L__put
    addq $32, %rsp
    pushq %rax
    popq %rax
    movq %rax, -16(%rbp)
    movabsq $0x69, %rax
    pushq %rax
    movq -16(%rbp), %rax
    pushq %rax
    movq -8(%rbp), %rax
    pushq %rax
    popq %rcx
    popq %rdx
    popq %r8
    subq $32, %rsp
    callq L__put
    addq $32, %rsp
    pushq %rax
    popq %rax
    movq %rax, -16(%rbp)
    movabsq $0x66, %rax
    pushq %rax
    movq -16(%rbp), %rax
    pushq %rax
    movq -8(%rbp), %rax
    pushq %rax
    popq %rcx
    popq %rdx
    popq %r8
    subq $32, %rsp
    callq L__put
    addq $32, %rsp
    pushq %rax
    popq %rax
    movq %rax, -16(%rbp)
    movabsq $0x20, %rax
    pushq %rax
    movq -16(%rbp), %rax
    pushq %rax
    movq -8(%rbp), %rax
    pushq %rax
    popq %rcx
    popq %rdx
    popq %r8
    subq $32, %rsp
    callq L__put
    addq $32, %rsp
    pushq %rax
    popq %rax
    movq %rax, -16(%rbp)
    movabsq $0x79, %rax
    pushq %rax
    movq -16(%rbp), %rax
    pushq %rax
    movq -8(%rbp), %rax
    pushq %rax
    popq %rcx
    popq %rdx
    popq %r8
    subq $32, %rsp
    callq L__put
    addq $32, %rsp
    pushq %rax
    popq %rax
    movq %rax, -16(%rbp)
    movabsq $0x6f, %rax
    pushq %rax
    movq -16(%rbp), %rax
    pushq %rax
    movq -8(%rbp), %rax
    pushq %rax
    popq %rcx
    popq %rdx
    popq %r8
    subq $32, %rsp
    callq L__put
    addq $32, %rsp
    pushq %rax
    popq %rax
    movq %rax, -16(%rbp)
    movabsq $0x75, %rax
    pushq %rax
    movq -16(%rbp), %rax
    pushq %rax
    movq -8(%rbp), %rax
    pushq %rax
    popq %rcx
    popq %rdx
    popq %r8
    subq $32, %rsp
    callq L__put
    addq $32, %rsp
    pushq %rax
    popq %rax
    movq %rax, -16(%rbp)
    movabsq $0x20, %rax
    pushq %rax
    movq -16(%rbp), %rax
    pushq %rax
    movq -8(%rbp), %rax
    pushq %rax
    popq %rcx
    popq %rdx
    popq %r8
    subq $32, %rsp
    callq L__put
    addq $32, %rsp
    pushq %rax
    popq %rax
    movq %rax, -16(%rbp)
    movabsq $0x63, %rax
    pushq %rax
    movq -16(%rbp), %rax
    pushq %rax
    movq -8(%rbp), %rax
    pushq %rax
    popq %rcx
    popq %rdx
    popq %r8
    subq $32, %rsp
    callq L__put
    addq $32, %rsp
    pushq %rax
    popq %rax
    movq %rax, -16(%rbp)
    movabsq $0x6c, %rax
    pushq %rax
    movq -16(%rbp), %rax
    pushq %rax
    movq -8(%rbp), %rax
    pushq %rax
    popq %rcx
    popq %rdx
    popq %r8
    subq $32, %rsp
    callq L__put
    addq $32, %rsp
    pushq %rax
    popq %rax
    movq %rax, -16(%rbp)
    movabsq $0x6f, %rax
    pushq %rax
    movq -16(%rbp), %rax
    pushq %rax
    movq -8(%rbp), %rax
    pushq %rax
    popq %rcx
    popq %rdx
    popq %r8
    subq $32, %rsp
    callq L__put
    addq $32, %rsp
    pushq %rax
    popq %rax
    movq %rax, -16(%rbp)
    movabsq $0x73, %rax
    pushq %rax
    movq -16(%rbp), %rax
    pushq %rax
    movq -8(%rbp), %rax
    pushq %rax
    popq %rcx
    popq %rdx
    popq %r8
    subq $32, %rsp
    callq L__put
    addq $32, %rsp
    pushq %rax
    popq %rax
    movq %rax, -16(%rbp)
    movabsq $0x65, %rax
    pushq %rax
    movq -16(%rbp), %rax
    pushq %rax
    movq -8(%rbp), %rax
    pushq %rax
    popq %rcx
    popq %rdx
    popq %r8
    subq $32, %rsp
    callq L__put
    addq $32, %rsp
    pushq %rax
    popq %rax
    movq %rax, -16(%rbp)
    movabsq $0x20, %rax
    pushq %rax
    movq -16(%rbp), %rax
    pushq %rax
    movq -8(%rbp), %rax
    pushq %rax
    popq %rcx
    popq %rdx
    popq %r8
    subq $32, %rsp
    callq L__put
    addq $32, %rsp
    pushq %rax
    popq %rax
    movq %rax, -16(%rbp)
    movabsq $0x74, %rax
    pushq %rax
    movq -16(%rbp), %rax
    pushq %rax
    movq -8(%rbp), %rax
    pushq %rax
    popq %rcx
    popq %rdx
    popq %r8
    subq $32, %rsp
    callq L__put
    addq $32, %rsp
    pushq %rax
    popq %rax
    movq %rax, -16(%rbp)
    movabsq $0x68, %rax
    pushq %rax
    movq -16(%rbp), %rax
    pushq %rax
    movq -8(%rbp), %rax
    pushq %rax
    popq %rcx
    popq %rdx
    popq %r8
    subq $32, %rsp
    callq L__put
    addq $32, %rsp
    pushq %rax
    popq %rax
    movq %rax, -16(%rbp)
    movabsq $0x65, %rax
    pushq %rax
    movq -16(%rbp), %rax
    pushq %rax
    movq -8(%rbp), %rax
    pushq %rax
    popq %rcx
    popq %rdx
    popq %r8
    subq $32, %rsp
    callq L__put
    addq $32, %rsp
    pushq %rax
    popq %rax
    movq %rax, -16(%rbp)
    movabsq $0x20, %rax
    pushq %rax
    movq -16(%rbp), %rax
    pushq %rax
    movq -8(%rbp), %rax
    pushq %rax
    popq %rcx
    popq %rdx
    popq %r8
    subq $32, %rsp
    callq L__put
    addq $32, %rsp
    pushq %rax
    popq %rax
    movq %rax, -16(%rbp)
    movabsq $0x71, %rax
    pushq %rax
    movq -16(%rbp), %rax
    pushq %rax
    movq -8(%rbp), %rax
    pushq %rax
    popq %rcx
    popq %rdx
    popq %r8
    subq $32, %rsp
    callq L__put
    addq $32, %rsp
    pushq %rax
    popq %rax
    movq %rax, -16(%rbp)
    movabsq $0x75, %rax
    pushq %rax
    movq -16(%rbp), %rax
    pushq %rax
    movq -8(%rbp), %rax
    pushq %rax
    popq %rcx
    popq %rdx
    popq %r8
    subq $32, %rsp
    callq L__put
    addq $32, %rsp
    pushq %rax
    popq %rax
    movq %rax, -16(%rbp)
    movabsq $0x65, %rax
    pushq %rax
    movq -16(%rbp), %rax
    pushq %rax
    movq -8(%rbp), %rax
    pushq %rax
    popq %rcx
    popq %rdx
    popq %r8
    subq $32, %rsp
    callq L__put
    addq $32, %rsp
    pushq %rax
    popq %rax
    movq %rax, -16(%rbp)
    movabsq $0x75, %rax
    pushq %rax
    movq -16(%rbp), %rax
    pushq %rax
    movq -8(%rbp), %rax
    pushq %rax
    popq %rcx
    popq %rdx
    popq %r8
    subq $32, %rsp
    callq L__put
    addq $32, %rsp
    pushq %rax
    popq %rax
    movq %rax, -16(%rbp)
    movabsq $0x65, %rax
    pushq %rax
    movq -16(%rbp), %rax
    pushq %rax
    movq -8(%rbp), %rax
    pushq %rax
    popq %rcx
    popq %rdx
    popq %r8
    subq $32, %rsp
    callq L__put
    addq $32, %rsp
    pushq %rax
    popq %rax
    movq %rax, -16(%rbp)
    movq -16(%rbp), %rax
    pushq %rax
    popq %rax
    movl %eax, %eax
    pushq %rax
    popq %rax
    movq %rbp, %rsp
    popq %rbp
    retq
    movq $0, %rax
    pushq %rax
    movq $0, %rax
    movq %rbp, %rsp
    popq %rbp
    retq
    .seh_endproc
    .section .iii.ring3,"n"
    .asciz "main"
    .text
    .global main
    .seh_proc main
main:
    pushq %rbp
    .seh_pushreg %rbp
    movq %rsp, %rbp
    .seh_setframe %rbp, 0
    subq $1024, %rsp
    .seh_stackalloc 1024
    .seh_endprologue
    movabsq $0x100, %rax
    pushq %rax
    popq %rcx
    subq $32, %rsp
    callq malloc
    addq $32, %rsp
    pushq %rax
    popq %rax
    movq %rax, -8(%rbp)
    movabsq $0x800, %rax
    pushq %rax
    popq %rcx
    subq $32, %rsp
    callq malloc
    addq $32, %rsp
    pushq %rax
    popq %rax
    movq %rax, -16(%rbp)
    movabsq $0x400, %rax
    pushq %rax
    popq %rcx
    subq $32, %rsp
    callq malloc
    addq $32, %rsp
    pushq %rax
    popq %rax
    movq %rax, -24(%rbp)
    movabsq $0x8, %rax
    pushq %rax
    popq %rcx
    subq $32, %rsp
    callq malloc
    addq $32, %rsp
    pushq %rax
    popq %rax
    movq %rax, -32(%rbp)
    movabsq $0x8, %rax
    pushq %rax
    popq %rcx
    subq $32, %rsp
    callq malloc
    addq $32, %rsp
    pushq %rax
    popq %rax
    movq %rax, -40(%rbp)
    subq $32, %rsp
    callq nl_lex_init_all
    addq $32, %rsp
    movslq %eax, %rax
    pushq %rax
    popq %rax
    movq -8(%rbp), %rax
    pushq %rax
    popq %rcx
    subq $32, %rsp
    callq L__phrase
    addq $32, %rsp
    movl %eax, %eax
    pushq %rax
    popq %rax
    movq %rax, -48(%rbp)
    movabsq $0x100, %rax
    pushq %rax
    movl -48(%rbp), %eax
    pushq %rax
    popq %rcx
    popq %rdx
    subq $32, %rsp
    callq nl_lex_pack_lens
    addq $32, %rsp
    pushq %rax
    popq %rax
    movq %rax, -56(%rbp)
    movq -32(%rbp), %rax
    pushq %rax
    movabsq $0x0, %rax
    pushq %rax
    movabsq $0x0, %rax
    pushq %rax
    popq %rdx
    popq %rcx
    popq %rax
    movb %dl, (%rax,%rcx,1)
    movq -32(%rbp), %rax
    pushq %rax
    movabsq $0x1, %rax
    pushq %rax
    movabsq $0x0, %rax
    pushq %rax
    popq %rdx
    popq %rcx
    popq %rax
    movb %dl, (%rax,%rcx,1)
    movq -32(%rbp), %rax
    pushq %rax
    movabsq $0x2, %rax
    pushq %rax
    movabsq $0x0, %rax
    pushq %rax
    popq %rdx
    popq %rcx
    popq %rax
    movb %dl, (%rax,%rcx,1)
    movq -32(%rbp), %rax
    pushq %rax
    movabsq $0x3, %rax
    pushq %rax
    movabsq $0x0, %rax
    pushq %rax
    popq %rdx
    popq %rcx
    popq %rax
    movb %dl, (%rax,%rcx,1)
    movq -32(%rbp), %rax
    pushq %rax
    popq %rax
    pushq %rax
    movq -16(%rbp), %rax
    pushq %rax
    popq %rax
    pushq %rax
    movq -56(%rbp), %rax
    pushq %rax
    movq -8(%rbp), %rax
    pushq %rax
    popq %rax
    pushq %rax
    popq %rcx
    popq %rdx
    popq %r8
    popq %r9
    subq $32, %rsp
    callq nl_lex_tokenize
    addq $32, %rsp
    movslq %eax, %rax
    pushq %rax
    popq %rax
    movq %rax, -64(%rbp)
    movslq -64(%rbp), %rax
    pushq %rax
    movabsq $0x0, %rax
    pushq %rax
    popq %rcx
    popq %rax
    cmpq %rcx, %rax
    setne %al
    movzbq %al, %rax
    pushq %rax
    popq %rax
    testq %rax, %rax
    jz L_if_end_1
    movabsq $0xfa, %rax
    pushq %rax
    popq %rax
    movq %rbp, %rsp
    popq %rbp
    retq
    movq $0, %rax
    pushq %rax
    popq %rax
L_if_end_1:
    movabsq $0x0, %rax
    pushq %rax
    movq -32(%rbp), %rax
    pushq %rax
    popq %rcx
    popq %rdx
    subq $32, %rsp
    callq L__read_u32
    addq $32, %rsp
    movl %eax, %eax
    pushq %rax
    popq %rax
    movq %rax, -72(%rbp)
    movq -40(%rbp), %rax
    pushq %rax
    movabsq $0x0, %rax
    pushq %rax
    movabsq $0x0, %rax
    pushq %rax
    popq %rdx
    popq %rcx
    popq %rax
    movb %dl, (%rax,%rcx,1)
    movq -40(%rbp), %rax
    pushq %rax
    movabsq $0x1, %rax
    pushq %rax
    movabsq $0x0, %rax
    pushq %rax
    popq %rdx
    popq %rcx
    popq %rax
    movb %dl, (%rax,%rcx,1)
    movq -40(%rbp), %rax
    pushq %rax
    movabsq $0x2, %rax
    pushq %rax
    movabsq $0x0, %rax
    pushq %rax
    popq %rdx
    popq %rcx
    popq %rax
    movb %dl, (%rax,%rcx,1)
    movq -40(%rbp), %rax
    pushq %rax
    movabsq $0x3, %rax
    pushq %rax
    movabsq $0x0, %rax
    pushq %rax
    popq %rdx
    popq %rcx
    popq %rax
    movb %dl, (%rax,%rcx,1)
    movq -40(%rbp), %rax
    pushq %rax
    popq %rax
    pushq %rax
    movq -24(%rbp), %rax
    pushq %rax
    popq %rax
    pushq %rax
    movl -72(%rbp), %eax
    pushq %rax
    movq -16(%rbp), %rax
    pushq %rax
    popq %rax
    pushq %rax
    popq %rcx
    popq %rdx
    popq %r8
    popq %r9
    subq $32, %rsp
    callq nl_parse_recognize
    addq $32, %rsp
    movslq %eax, %rax
    pushq %rax
    popq %rax
    movq %rax, -80(%rbp)
    movslq -80(%rbp), %rax
    pushq %rax
    movabsq $0x0, %rax
    pushq %rax
    popq %rcx
    popq %rax
    cmpq %rcx, %rax
    setne %al
    movzbq %al, %rax
    pushq %rax
    popq %rax
    testq %rax, %rax
    jz L_if_end_3
    movabsq $0x0, %rax
    pushq %rax
    popq %rax
    movq %rbp, %rsp
    popq %rbp
    retq
    movq $0, %rax
    pushq %rax
    popq %rax
L_if_end_3:
    movabsq $0x0, %rax
    pushq %rax
    movq -40(%rbp), %rax
    pushq %rax
    popq %rcx
    popq %rdx
    subq $32, %rsp
    callq L__read_u32
    addq $32, %rsp
    movl %eax, %eax
    pushq %rax
    popq %rax
    movq %rax, -88(%rbp)
    movabsq $0x0, %rax
    pushq %rax
    popq %rax
    movq %rax, -96(%rbp)
    movabsq $0xffffffff, %rax
    pushq %rax
    popq %rax
    movq %rax, -104(%rbp)
L_loop_top_4:
    movl -96(%rbp), %eax
    pushq %rax
    movl -88(%rbp), %eax
    pushq %rax
    popq %rcx
    popq %rax
    cmpq %rcx, %rax
    setb %al
    movzbq %al, %rax
    pushq %rax
    popq %rax
    testq %rax, %rax
    jz L_loop_end_5
    movl -104(%rbp), %eax
    pushq %rax
    movabsq $0xffffffff, %rax
    pushq %rax
    popq %rcx
    popq %rax
    cmpq %rcx, %rax
    sete %al
    movzbq %al, %rax
    pushq %rax
    popq %rax
    testq %rax, %rax
    jz L_if_end_7
    movl -96(%rbp), %eax
    pushq %rax
    movq -24(%rbp), %rax
    pushq %rax
    popq %rax
    pushq %rax
    popq %rcx
    popq %rdx
    subq $32, %rsp
    callq nl_parse_frag_role
    addq $32, %rsp
    movl %eax, %eax
    pushq %rax
    movabsq $0xc, %rax
    pushq %rax
    popq %rcx
    popq %rax
    cmpq %rcx, %rax
    sete %al
    movzbq %al, %rax
    pushq %rax
    popq %rax
    testq %rax, %rax
    jz L_if_end_9
    movl -96(%rbp), %eax
    pushq %rax
    popq %rax
    movq %rax, -104(%rbp)
    movq $0, %rax
    pushq %rax
    popq %rax
L_if_end_9:
    movq $0, %rax
    pushq %rax
    popq %rax
L_if_end_7:
    movl -96(%rbp), %eax
    pushq %rax
    movabsq $0x1, %rax
    pushq %rax
    popq %rcx
    popq %rax
    addq %rcx, %rax
    movl %eax, %eax
    pushq %rax
    popq %rax
    movq %rax, -96(%rbp)
    movq $0, %rax
    pushq %rax
    popq %rax
    jmp L_loop_top_4
L_loop_end_5:
    movl -104(%rbp), %eax
    pushq %rax
    movabsq $0xffffffff, %rax
    pushq %rax
    popq %rcx
    popq %rax
    cmpq %rcx, %rax
    sete %al
    movzbq %al, %rax
    pushq %rax
    popq %rax
    testq %rax, %rax
    jz L_if_end_11
    movabsq $0x64, %rax
    pushq %rax
    movl -88(%rbp), %eax
    pushq %rax
    popq %rax
    pushq %rax
    popq %rcx
    popq %rax
    addq %rcx, %rax
    pushq %rax
    popq %rax
    movq %rbp, %rsp
    popq %rbp
    retq
    movq $0, %rax
    pushq %rax
    popq %rax
L_if_end_11:
    movl -104(%rbp), %eax
    pushq %rax
    movq -24(%rbp), %rax
    pushq %rax
    popq %rax
    pushq %rax
    popq %rcx
    popq %rdx
    subq $32, %rsp
    callq nl_parse_frag_head
    addq $32, %rsp
    movl %eax, %eax
    pushq %rax
    popq %rax
    movq %rax, -112(%rbp)
    movq -16(%rbp), %rax
    pushq %rax
    popq %rax
    pushq %rax
    movl -112(%rbp), %eax
    pushq %rax
    popq %rax
    pushq %rax
    popq %rax
    shlq $3, %rax
    pushq %rax
    popq %rcx
    popq %rax
    addq %rcx, %rax
    pushq %rax
    popq %rax
    pushq %rax
    popq %rax
    movq %rax, -120(%rbp)
    movq -120(%rbp), %rax
    pushq %rax
    movabsq $0x0, %rax
    pushq %rax
    popq %rcx
    popq %rax
    movq (%rax,%rcx,8), %rax
    pushq %rax
    popq %rcx
    subq $32, %rsp
    callq nl_token_word_id
    addq $32, %rsp
    movl %eax, %eax
    pushq %rax
    popq %rax
    movq %rax, -128(%rbp)
    movl -104(%rbp), %eax
    pushq %rax
    movq -24(%rbp), %rax
    pushq %rax
    popq %rax
    pushq %rax
    popq %rcx
    popq %rdx
    subq $32, %rsp
    callq nl_parse_frag_quantifier
    addq $32, %rsp
    movl %eax, %eax
    pushq %rax
    popq %rax
    movq %rax, -136(%rbp)
    movl -128(%rbp), %eax
    pushq %rax
    popq %rax
    pushq %rax
    movabsq $0xffff, %rax
    pushq %rax
    popq %rcx
    popq %rax
    andq %rcx, %rax
    pushq %rax
    popq %rax
    movq %rax, -144(%rbp)
    movl -136(%rbp), %eax
    pushq %rax
    movabsq $0x0, %rax
    pushq %rax
    popq %rcx
    popq %rax
    cmpq %rcx, %rax
    setne %al
    movzbq %al, %rax
    pushq %rax
    popq %rax
    testq %rax, %rax
    jz L_if_end_13
    movq -144(%rbp), %rax
    pushq %rax
    movabsq $0x4000, %rax
    pushq %rax
    popq %rcx
    popq %rax
    orq %rcx, %rax
    pushq %rax
    popq %rax
    movq %rax, -144(%rbp)
    movq $0, %rax
    pushq %rax
    popq %rax
L_if_end_13:
    movq -144(%rbp), %rax
    pushq %rax
    popq %rax
    movq %rbp, %rsp
    popq %rbp
    retq
    movq $0, %rax
    pushq %rax
    movq $0, %rax
    movq %rbp, %rsp
    popq %rbp
    retq
    .seh_endproc
