# III Stage-0 Ring-3 codegen output
# Microsoft x64 ABI; gas syntax (AT&T); PE/COFF target
    .att_syntax
    .file 1 "<iii-source>"
    .section .rodata
L_str_0:
    .ascii "sha256.iiixii_horizon.iiixii_register_all.iiixii_chd.iiixii_chd.iiixii_antidrift.iiixii_antidrift.iiixii_antidrift.iiixii_antidrift.iiixii_antidrift.iiixii_antidrift.iiixii_antidrift.iiixii_antidrift.iii\0"
L_str_1:
    .ascii "xii_horizon.iiixii_register_all.iiixii_chd.iiixii_chd.iiixii_antidrift.iiixii_antidrift.iiixii_antidrift.iiixii_antidrift.iiixii_antidrift.iiixii_antidrift.iiixii_antidrift.iiixii_antidrift.iii\0"
L_str_2:
    .ascii "xii_register_all.iiixii_chd.iiixii_chd.iiixii_antidrift.iiixii_antidrift.iiixii_antidrift.iiixii_antidrift.iiixii_antidrift.iiixii_antidrift.iiixii_antidrift.iiixii_antidrift.iii\0"
L_str_3:
    .ascii "xii_chd.iiixii_chd.iiixii_antidrift.iiixii_antidrift.iiixii_antidrift.iiixii_antidrift.iiixii_antidrift.iiixii_antidrift.iiixii_antidrift.iiixii_antidrift.iii\0"
L_str_4:
    .ascii "xii_chd.iiixii_antidrift.iiixii_antidrift.iiixii_antidrift.iiixii_antidrift.iiixii_antidrift.iiixii_antidrift.iiixii_antidrift.iiixii_antidrift.iii\0"
L_str_5:
    .ascii "xii_antidrift.iiixii_antidrift.iiixii_antidrift.iiixii_antidrift.iiixii_antidrift.iiixii_antidrift.iiixii_antidrift.iiixii_antidrift.iii\0"
L_str_6:
    .ascii "xii_antidrift.iiixii_antidrift.iiixii_antidrift.iiixii_antidrift.iiixii_antidrift.iiixii_antidrift.iiixii_antidrift.iii\0"
L_str_7:
    .ascii "xii_antidrift.iiixii_antidrift.iiixii_antidrift.iiixii_antidrift.iiixii_antidrift.iiixii_antidrift.iii\0"
L_str_8:
    .ascii "xii_antidrift.iiixii_antidrift.iiixii_antidrift.iiixii_antidrift.iiixii_antidrift.iii\0"
L_str_9:
    .ascii "xii_antidrift.iiixii_antidrift.iiixii_antidrift.iiixii_antidrift.iii\0"
L_str_10:
    .ascii "xii_antidrift.iiixii_antidrift.iiixii_antidrift.iii\0"
L_str_11:
    .ascii "xii_antidrift.iiixii_antidrift.iii\0"
L_str_12:
    .ascii "xii_antidrift.iii\0"
    .section .rodata
L_C372_OK:
    .quad 0x0
L_C372_MANIFEST_SIZE:
    .quad 0x410
    .section .bss
    .global L_C372_MANIFEST
L_C372_MANIFEST:
    .zero 8320
    .global L_C372_GOLDEN
L_C372_GOLDEN:
    .zero 256
    .section .iii.ring3,"n"
    .asciz "_c372_seed_manifest"
    .text
    .global L__c372_seed_manifest
    .seh_proc L__c372_seed_manifest
L__c372_seed_manifest:
    pushq %rbp
    .seh_pushreg %rbp
    movq %rsp, %rbp
    .seh_setframe %rbp, 0
    subq $1024, %rsp
    .seh_stackalloc 1024
    .seh_endprologue
    movabsq $0x0, %rax
    pushq %rax
    popq %rax
    movq %rax, -8(%rbp)
L_loop_top_0:
    movl -8(%rbp), %eax
    pushq %rax
    movl L_C372_MANIFEST_SIZE(%rip), %eax
    pushq %rax
    popq %rcx
    popq %rax
    cmpq %rcx, %rax
    setb %al
    movzbq %al, %rax
    pushq %rax
    popq %rax
    testq %rax, %rax
    jz L_loop_end_1
    leaq L_C372_MANIFEST(%rip), %rax
    pushq %rax
    movl -8(%rbp), %eax
    pushq %rax
    movl -8(%rbp), %eax
    pushq %rax
    movabsq $0xff, %rax
    pushq %rax
    popq %rcx
    popq %rax
    andq %rcx, %rax
    pushq %rax
    popq %rax
    movzbq %al, %rax
    pushq %rax
    popq %rdx
    popq %rcx
    popq %rax
    movb %dl, (%rax,%rcx,1)
    movl -8(%rbp), %eax
    pushq %rax
    movabsq $0x1, %rax
    pushq %rax
    popq %rcx
    popq %rax
    addq %rcx, %rax
    movl %eax, %eax
    pushq %rax
    popq %rax
    movq %rax, -8(%rbp)
    movq $0, %rax
    pushq %rax
    popq %rax
    jmp L_loop_top_0
L_loop_end_1:
    movabsq $0x0, %rax
    pushq %rax
    popq %rax
    movq %rbp, %rsp
    popq %rbp
    retq
    movq $0, %rax
    pushq %rax
    movq $0, %rax
    movq %rbp, %rsp
    popq %rbp
    retq
    .seh_endproc
    .section .iii.ring3,"n"
    .asciz "_c372_seed_chd"
    .text
    .global L__c372_seed_chd
    .seh_proc L__c372_seed_chd
L__c372_seed_chd:
    pushq %rbp
    .seh_pushreg %rbp
    movq %rsp, %rbp
    .seh_setframe %rbp, 0
    subq $1024, %rsp
    .seh_stackalloc 1024
    .seh_endprologue
    movabsq $0x0, %rax
    pushq %rax
    popq %rax
    movq %rax, -8(%rbp)
L_loop_top_2:
    movl -8(%rbp), %eax
    pushq %rax
    movabsq $0x90, %rax
    pushq %rax
    popq %rcx
    popq %rax
    cmpq %rcx, %rax
    setb %al
    movzbq %al, %rax
    pushq %rax
    popq %rax
    testq %rax, %rax
    jz L_loop_end_3
    movl -8(%rbp), %eax
    pushq %rax
    movabsq $0x9e3779b1, %rax
    pushq %rax
    popq %rcx
    popq %rax
    imulq %rcx, %rax
    movl %eax, %eax
    pushq %rax
    movabsq $0x9e3779b9, %rax
    pushq %rax
    popq %rcx
    popq %rax
    xorq %rcx, %rax
    pushq %rax
    popq %rax
    movq %rax, -16(%rbp)
    movl -8(%rbp), %eax
    pushq %rax
    movabsq $0x85ebca77, %rax
    pushq %rax
    popq %rcx
    popq %rax
    imulq %rcx, %rax
    movl %eax, %eax
    pushq %rax
    movabsq $0xc2b2ae3d, %rax
    pushq %rax
    popq %rcx
    popq %rax
    xorq %rcx, %rax
    pushq %rax
    popq %rax
    movq %rax, -24(%rbp)
    movl -24(%rbp), %eax
    pushq %rax
    movl -16(%rbp), %eax
    pushq %rax
    movl -8(%rbp), %eax
    pushq %rax
    popq %rcx
    popq %rdx
    popq %r8
    subq $32, %rsp
    callq xii_chd_set_hash
    addq $32, %rsp
    movslq %eax, %rax
    pushq %rax
    popq %rax
    movl -8(%rbp), %eax
    pushq %rax
    movabsq $0x1, %rax
    pushq %rax
    popq %rcx
    popq %rax
    addq %rcx, %rax
    movl %eax, %eax
    pushq %rax
    popq %rax
    movq %rax, -8(%rbp)
    movq $0, %rax
    pushq %rax
    popq %rax
    jmp L_loop_top_2
L_loop_end_3:
    movabsq $0x0, %rax
    pushq %rax
    popq %rax
    movq %rbp, %rsp
    popq %rbp
    retq
    movq $0, %rax
    pushq %rax
    movq $0, %rax
    movq %rbp, %rsp
    popq %rbp
    retq
    .seh_endproc
    .section .iii.ring3,"n"
    .asciz "main"
    .text
    .global main
    .seh_proc main
main:
    pushq %rbp
    .seh_pushreg %rbp
    movq %rsp, %rbp
    .seh_setframe %rbp, 0
    subq $1024, %rsp
    .seh_stackalloc 1024
    .seh_endprologue
    subq $32, %rsp
    callq xii_register_all
    addq $32, %rsp
    movslq %eax, %rax
    pushq %rax
    popq %rax
    subq $32, %rsp
    callq L__c372_seed_manifest
    addq $32, %rsp
    movslq %eax, %rax
    pushq %rax
    popq %rax
    subq $32, %rsp
    callq L__c372_seed_chd
    addq $32, %rsp
    movslq %eax, %rax
    pushq %rax
    popq %rax
    leaq L_C372_GOLDEN(%rip), %rax
    pushq %rax
    popq %rax
    pushq %rax
    movl L_C372_MANIFEST_SIZE(%rip), %eax
    pushq %rax
    popq %rax
    pushq %rax
    leaq L_C372_MANIFEST(%rip), %rax
    pushq %rax
    popq %rax
    pushq %rax
    popq %rcx
    popq %rdx
    popq %r8
    subq $32, %rsp
    callq sha256_oneshot
    addq $32, %rsp
    movl %eax, %eax
    pushq %rax
    popq %rax
    leaq L_C372_GOLDEN(%rip), %rax
    pushq %rax
    popq %rax
    pushq %rax
    movl L_C372_MANIFEST_SIZE(%rip), %eax
    pushq %rax
    leaq L_C372_MANIFEST(%rip), %rax
    pushq %rax
    popq %rax
    pushq %rax
    popq %rcx
    popq %rdx
    popq %r8
    subq $32, %rsp
    callq xii_antidrift_check_manifest
    addq $32, %rsp
    movl %eax, %eax
    pushq %rax
    popq %rax
    movq %rax, -8(%rbp)
    movl -8(%rbp), %eax
    pushq %rax
    movl L_C372_OK(%rip), %eax
    pushq %rax
    popq %rcx
    popq %rax
    cmpq %rcx, %rax
    setne %al
    movzbq %al, %rax
    pushq %rax
    popq %rax
    testq %rax, %rax
    jz L_if_end_5
    movabsq $0x1, %rax
    pushq %rax
    popq %rax
    movq %rbp, %rsp
    popq %rbp
    retq
    movq $0, %rax
    pushq %rax
    popq %rax
L_if_end_5:
    leaq L_C372_MANIFEST(%rip), %rax
    pushq %rax
    movabsq $0x7, %rax
    pushq %rax
    popq %rcx
    popq %rax
    movzbq (%rax,%rcx,1), %rax
    pushq %rax
    popq %rax
    movq %rax, -16(%rbp)
    leaq L_C372_MANIFEST(%rip), %rax
    pushq %rax
    movabsq $0x7, %rax
    pushq %rax
    movzbq -16(%rbp), %rax
    pushq %rax
    movabsq $0xff, %rax
    pushq %rax
    popq %rcx
    popq %rax
    xorq %rcx, %rax
    pushq %rax
    popq %rdx
    popq %rcx
    popq %rax
    movb %dl, (%rax,%rcx,1)
    leaq L_C372_GOLDEN(%rip), %rax
    pushq %rax
    popq %rax
    pushq %rax
    movl L_C372_MANIFEST_SIZE(%rip), %eax
    pushq %rax
    leaq L_C372_MANIFEST(%rip), %rax
    pushq %rax
    popq %rax
    pushq %rax
    popq %rcx
    popq %rdx
    popq %r8
    subq $32, %rsp
    callq xii_antidrift_check_manifest
    addq $32, %rsp
    movl %eax, %eax
    pushq %rax
    popq %rax
    movq %rax, -24(%rbp)
    movl -24(%rbp), %eax
    pushq %rax
    movl L_C372_OK(%rip), %eax
    pushq %rax
    popq %rcx
    popq %rax
    cmpq %rcx, %rax
    sete %al
    movzbq %al, %rax
    pushq %rax
    popq %rax
    testq %rax, %rax
    jz L_if_end_7
    movabsq $0x2, %rax
    pushq %rax
    popq %rax
    movq %rbp, %rsp
    popq %rbp
    retq
    movq $0, %rax
    pushq %rax
    popq %rax
L_if_end_7:
    leaq L_C372_MANIFEST(%rip), %rax
    pushq %rax
    movabsq $0x7, %rax
    pushq %rax
    movzbq -16(%rbp), %rax
    pushq %rax
    popq %rdx
    popq %rcx
    popq %rax
    movb %dl, (%rax,%rcx,1)
    movabsq $0x0, %rax
    pushq %rax
    leaq L_C372_MANIFEST(%rip), %rax
    pushq %rax
    popq %rax
    pushq %rax
    leaq L_C372_MANIFEST(%rip), %rax
    pushq %rax
    popq %rax
    pushq %rax
    popq %rcx
    popq %rdx
    popq %r8
    subq $32, %rsp
    callq xii_antidrift_check_lattice
    addq $32, %rsp
    movl %eax, %eax
    pushq %rax
    popq %rax
    movq %rax, -32(%rbp)
    movl -32(%rbp), %eax
    pushq %rax
    movl L_C372_OK(%rip), %eax
    pushq %rax
    popq %rcx
    popq %rax
    cmpq %rcx, %rax
    setne %al
    movzbq %al, %rax
    pushq %rax
    popq %rax
    testq %rax, %rax
    jz L_if_end_9
    movabsq $0x3, %rax
    pushq %rax
    popq %rax
    movq %rbp, %rsp
    popq %rbp
    retq
    movq $0, %rax
    pushq %rax
    popq %rax
L_if_end_9:
    subq $32, %rsp
    callq xii_antidrift_check_reach6
    addq $32, %rsp
    movl %eax, %eax
    pushq %rax
    popq %rax
    movq %rax, -40(%rbp)
    movl -40(%rbp), %eax
    pushq %rax
    movl L_C372_OK(%rip), %eax
    pushq %rax
    popq %rcx
    popq %rax
    cmpq %rcx, %rax
    setne %al
    movzbq %al, %rax
    pushq %rax
    popq %rax
    testq %rax, %rax
    jz L_if_end_11
    movabsq $0x4, %rax
    pushq %rax
    popq %rax
    movq %rbp, %rsp
    popq %rbp
    retq
    movq $0, %rax
    pushq %rax
    popq %rax
L_if_end_11:
    movabsq $0xdeadbeef, %rax
    pushq %rax
    movabsq $0x8, %rax
    pushq %rax
    popq %rcx
    popq %rdx
    subq $32, %rsp
    callq xii_antidrift_check_confluence_empirical
    addq $32, %rsp
    movl %eax, %eax
    pushq %rax
    popq %rax
    movq %rax, -48(%rbp)
    movl -48(%rbp), %eax
    pushq %rax
    movl L_C372_OK(%rip), %eax
    pushq %rax
    popq %rcx
    popq %rax
    cmpq %rcx, %rax
    setne %al
    movzbq %al, %rax
    pushq %rax
    popq %rax
    testq %rax, %rax
    jz L_if_end_13
    movabsq $0x5, %rax
    pushq %rax
    popq %rax
    movq %rbp, %rsp
    popq %rbp
    retq
    movq $0, %rax
    pushq %rax
    popq %rax
L_if_end_13:
    subq $32, %rsp
    callq xii_antidrift_check_critpairs
    addq $32, %rsp
    movl %eax, %eax
    pushq %rax
    popq %rax
    movq %rax, -56(%rbp)
    movl -56(%rbp), %eax
    pushq %rax
    movl L_C372_OK(%rip), %eax
    pushq %rax
    popq %rcx
    popq %rax
    cmpq %rcx, %rax
    setne %al
    movzbq %al, %rax
    pushq %rax
    popq %rax
    testq %rax, %rax
    jz L_if_end_15
    movabsq $0x6, %rax
    pushq %rax
    popq %rax
    movq %rbp, %rsp
    popq %rbp
    retq
    movq $0, %rax
    pushq %rax
    popq %rax
L_if_end_15:
    subq $32, %rsp
    callq xii_chd_construct
    addq $32, %rsp
    movzbq %al, %rax
    pushq %rax
    popq %rax
    movq %rax, -64(%rbp)
    movzbq -64(%rbp), %rax
    pushq %rax
    movabsq $0x1, %rax
    pushq %rax
    popq %rcx
    popq %rax
    cmpq %rcx, %rax
    setne %al
    movzbq %al, %rax
    pushq %rax
    popq %rax
    testq %rax, %rax
    jz L_if_end_17
    movabsq $0x7, %rax
    pushq %rax
    popq %rax
    movq %rbp, %rsp
    popq %rbp
    retq
    movq $0, %rax
    pushq %rax
    popq %rax
L_if_end_17:
    subq $32, %rsp
    callq xii_antidrift_check_mphf
    addq $32, %rsp
    movl %eax, %eax
    pushq %rax
    popq %rax
    movq %rax, -72(%rbp)
    movl -72(%rbp), %eax
    pushq %rax
    movl L_C372_OK(%rip), %eax
    pushq %rax
    popq %rcx
    popq %rax
    cmpq %rcx, %rax
    setne %al
    movzbq %al, %rax
    pushq %rax
    popq %rax
    testq %rax, %rax
    jz L_if_end_19
    movabsq $0x8, %rax
    pushq %rax
    popq %rax
    movq %rbp, %rsp
    popq %rbp
    retq
    movq $0, %rax
    pushq %rax
    popq %rax
L_if_end_19:
    subq $32, %rsp
    callq xii_antidrift_check_hexad
    addq $32, %rsp
    movl %eax, %eax
    pushq %rax
    popq %rax
    movq %rax, -80(%rbp)
    movl -80(%rbp), %eax
    pushq %rax
    movl L_C372_OK(%rip), %eax
    pushq %rax
    popq %rcx
    popq %rax
    cmpq %rcx, %rax
    setne %al
    movzbq %al, %rax
    pushq %rax
    popq %rax
    testq %rax, %rax
    jz L_if_end_21
    movabsq $0x9, %rax
    pushq %rax
    popq %rax
    movq %rbp, %rsp
    popq %rbp
    retq
    movq $0, %rax
    pushq %rax
    popq %rax
L_if_end_21:
    subq $32, %rsp
    callq xii_antidrift_check_dk_symmetry
    addq $32, %rsp
    movl %eax, %eax
    pushq %rax
    popq %rax
    movq %rax, -88(%rbp)
    movl -88(%rbp), %eax
    pushq %rax
    movl L_C372_OK(%rip), %eax
    pushq %rax
    popq %rcx
    popq %rax
    cmpq %rcx, %rax
    setne %al
    movzbq %al, %rax
    pushq %rax
    popq %rax
    testq %rax, %rax
    jz L_if_end_23
    movabsq $0xa, %rax
    pushq %rax
    popq %rax
    movq %rbp, %rsp
    popq %rbp
    retq
    movq $0, %rax
    pushq %rax
    popq %rax
L_if_end_23:
    movabsq $0x0, %rax
    pushq %rax
    popq %rax
    movq %rbp, %rsp
    popq %rbp
    retq
    movq $0, %rax
    pushq %rax
    movq $0, %rax
    movq %rbp, %rsp
    popq %rbp
    retq
    .seh_endproc
