# III Stage-0 Ring-3 codegen output
# Microsoft x64 ABI; gas syntax (AT&T); PE/COFF target
    .att_syntax
    .file 1 "<iii-source>"
    .section .rodata
L_str_0:
    .ascii "bv_ring.iii\0"
L_str_1:
    .ascii "bv_ring.iii\0"
L_str_2:
    .ascii "bv_ring.iii\0"
L_str_3:
    .ascii "bv_ring.iii\0"
L_str_4:
    .ascii "bv_ring.iii\0"
L_str_5:
    .ascii "bv_ring.iii\0"
L_str_6:
    .ascii "bv_ring.iii\0"
L_str_7:
    .ascii "bv_ring.iii\0"
L_str_8:
    .ascii "bv_dispose.iii\0"
L_str_9:
    .ascii "typecheck.iii\0"
L_str_10:
    .ascii "typecheck.iii\0"
L_str_11:
    .ascii "typecheck.iii\0"
L_str_12:
    .ascii "typecheck.iii\0"
L_str_13:
    .ascii "typecheck.iii\0"
L_str_14:
    .ascii "mhash.iii\0"
L_str_15:
    .ascii "mhash.iii\0"
L_str_16:
    .ascii "mhash.iii\0"
    .section .rodata
L_REFUSE:
    .quad 0xffffffffffffffff
    .section .bss
    .global L_BUF1
L_BUF1:
    .zero 3072
    .global L_BUF2
L_BUF2:
    .zero 3072
    .global L_ADDR1
L_ADDR1:
    .zero 256
    .global L_ADDR2
L_ADDR2:
    .zero 256
    .section .iii.ring3,"n"
    .asciz "memeq"
    .text
    .seh_proc L_memeq
L_memeq:
    pushq %rbp
    .seh_pushreg %rbp
    movq %rsp, %rbp
    .seh_setframe %rbp, 0
    subq $1024, %rsp
    .seh_stackalloc 1024
    .seh_endprologue
    movq %rcx, -8(%rbp)
    movq %rdx, -16(%rbp)
    movq %r8, -24(%rbp)
    movabsq $0x0, %rax
    pushq %rax
    popq %rax
    movq %rax, -32(%rbp)
L_loop_top_0:
    movq -32(%rbp), %rax
    pushq %rax
    movq -24(%rbp), %rax
    pushq %rax
    popq %rcx
    popq %rax
    cmpq %rcx, %rax
    setb %al
    movzbq %al, %rax
    pushq %rax
    popq %rax
    testq %rax, %rax
    jz L_loop_end_1
    movq -8(%rbp), %rax
    pushq %rax
    movq -32(%rbp), %rax
    pushq %rax
    popq %rcx
    popq %rax
    movzbq (%rax,%rcx,1), %rax
    pushq %rax
    movq -16(%rbp), %rax
    pushq %rax
    movq -32(%rbp), %rax
    pushq %rax
    popq %rcx
    popq %rax
    movzbq (%rax,%rcx,1), %rax
    pushq %rax
    popq %rcx
    popq %rax
    cmpq %rcx, %rax
    setne %al
    movzbq %al, %rax
    pushq %rax
    popq %rax
    testq %rax, %rax
    jz L_if_end_3
    movabsq $0x0, %rax
    pushq %rax
    popq %rax
    movq %rbp, %rsp
    popq %rbp
    retq
    movq $0, %rax
    pushq %rax
    popq %rax
L_if_end_3:
    movq -32(%rbp), %rax
    pushq %rax
    movabsq $0x1, %rax
    pushq %rax
    popq %rcx
    popq %rax
    addq %rcx, %rax
    pushq %rax
    popq %rax
    movq %rax, -32(%rbp)
    movq $0, %rax
    pushq %rax
    popq %rax
    jmp L_loop_top_0
L_loop_end_1:
    movabsq $0x1, %rax
    pushq %rax
    popq %rax
    movq %rbp, %rsp
    popq %rbp
    retq
    movq $0, %rax
    pushq %rax
    movq $0, %rax
    movq %rbp, %rsp
    popq %rbp
    retq
    .seh_endproc
    .section .iii.ring3,"n"
    .asciz "p1"
    .text
    .seh_proc L_p1
L_p1:
    pushq %rbp
    .seh_pushreg %rbp
    movq %rsp, %rbp
    .seh_setframe %rbp, 0
    subq $1024, %rsp
    .seh_stackalloc 1024
    .seh_endprologue
    leaq L_BUF1(%rip), %rax
    pushq %rax
    popq %rax
    pushq %rax
    popq %rax
    pushq %rax
    popq %rax
    movq %rbp, %rsp
    popq %rbp
    retq
    movq $0, %rax
    pushq %rax
    movq $0, %rax
    movq %rbp, %rsp
    popq %rbp
    retq
    .seh_endproc
    .section .iii.ring3,"n"
    .asciz "p2"
    .text
    .seh_proc L_p2
L_p2:
    pushq %rbp
    .seh_pushreg %rbp
    movq %rsp, %rbp
    .seh_setframe %rbp, 0
    subq $1024, %rsp
    .seh_stackalloc 1024
    .seh_endprologue
    leaq L_BUF2(%rip), %rax
    pushq %rax
    popq %rax
    pushq %rax
    popq %rax
    pushq %rax
    popq %rax
    movq %rbp, %rsp
    popq %rbp
    retq
    movq $0, %rax
    pushq %rax
    movq $0, %rax
    movq %rbp, %rsp
    popq %rbp
    retq
    .seh_endproc
    .section .iii.ring3,"n"
    .asciz "main"
    .text
    .global main
    .seh_proc main
main:
    pushq %rbp
    .seh_pushreg %rbp
    movq %rsp, %rbp
    .seh_setframe %rbp, 0
    subq $1024, %rsp
    .seh_stackalloc 1024
    .seh_endprologue
    subq $32, %rsp
    callq bv_reset
    addq $32, %rsp
    movslq %eax, %rax
    pushq %rax
    popq %rax
    movabsq $0x180, %rax
    pushq %rax
    subq $8, %rsp
    subq $32, %rsp
    callq L_p1
    addq $32, %rsp
    addq $8, %rsp
    pushq %rax
    movabsq $0x1, %rax
    pushq %rax
    popq %rcx
    subq $32, %rsp
    callq bv_var
    addq $32, %rsp
    movl %eax, %eax
    pushq %rax
    subq $8, %rsp
    movabsq $0x0, %rax
    pushq %rax
    popq %rcx
    subq $32, %rsp
    callq bv_var
    addq $32, %rsp
    addq $8, %rsp
    movl %eax, %eax
    pushq %rax
    popq %rcx
    popq %rdx
    subq $32, %rsp
    callq bv_add
    addq $32, %rsp
    movl %eax, %eax
    pushq %rax
    popq %rcx
    popq %rdx
    popq %r8
    subq $32, %rsp
    callq bv_canon_serialize
    addq $32, %rsp
    pushq %rax
    popq %rax
    movq %rax, -8(%rbp)
    movabsq $0x180, %rax
    pushq %rax
    subq $8, %rsp
    subq $32, %rsp
    callq L_p2
    addq $32, %rsp
    addq $8, %rsp
    pushq %rax
    movabsq $0x0, %rax
    pushq %rax
    popq %rcx
    subq $32, %rsp
    callq bv_var
    addq $32, %rsp
    movl %eax, %eax
    pushq %rax
    subq $8, %rsp
    movabsq $0x1, %rax
    pushq %rax
    popq %rcx
    subq $32, %rsp
    callq bv_var
    addq $32, %rsp
    addq $8, %rsp
    movl %eax, %eax
    pushq %rax
    popq %rcx
    popq %rdx
    subq $32, %rsp
    callq bv_add
    addq $32, %rsp
    movl %eax, %eax
    pushq %rax
    popq %rcx
    popq %rdx
    popq %r8
    subq $32, %rsp
    callq bv_canon_serialize
    addq $32, %rsp
    pushq %rax
    popq %rax
    movq %rax, -16(%rbp)
    movq -8(%rbp), %rax
    pushq %rax
    movq L_REFUSE(%rip), %rax
    pushq %rax
    popq %rcx
    popq %rax
    cmpq %rcx, %rax
    sete %al
    movzbq %al, %rax
    pushq %rax
    popq %rax
    testq %rax, %rax
    jz L_if_end_5
    movabsq $0x1, %rax
    pushq %rax
    popq %rax
    movq %rbp, %rsp
    popq %rbp
    retq
    movq $0, %rax
    pushq %rax
    popq %rax
L_if_end_5:
    movq -8(%rbp), %rax
    pushq %rax
    movq -16(%rbp), %rax
    pushq %rax
    popq %rcx
    popq %rax
    cmpq %rcx, %rax
    setne %al
    movzbq %al, %rax
    pushq %rax
    popq %rax
    testq %rax, %rax
    jz L_if_end_7
    movabsq $0x2, %rax
    pushq %rax
    popq %rax
    movq %rbp, %rsp
    popq %rbp
    retq
    movq $0, %rax
    pushq %rax
    popq %rax
L_if_end_7:
    movq -8(%rbp), %rax
    pushq %rax
    subq $8, %rsp
    subq $32, %rsp
    callq L_p2
    addq $32, %rsp
    addq $8, %rsp
    pushq %rax
    subq $32, %rsp
    callq L_p1
    addq $32, %rsp
    pushq %rax
    popq %rcx
    popq %rdx
    popq %r8
    subq $32, %rsp
    callq L_memeq
    addq $32, %rsp
    movzbq %al, %rax
    pushq %rax
    movabsq $0x1, %rax
    pushq %rax
    popq %rcx
    popq %rax
    cmpq %rcx, %rax
    setne %al
    movzbq %al, %rax
    pushq %rax
    popq %rax
    testq %rax, %rax
    jz L_if_end_9
    movabsq $0x3, %rax
    pushq %rax
    popq %rax
    movq %rbp, %rsp
    popq %rbp
    retq
    movq $0, %rax
    pushq %rax
    popq %rax
L_if_end_9:
    subq $32, %rsp
    callq bv_reset
    addq $32, %rsp
    movslq %eax, %rax
    pushq %rax
    popq %rax
    movabsq $0x180, %rax
    pushq %rax
    subq $8, %rsp
    subq $32, %rsp
    callq L_p1
    addq $32, %rsp
    addq $8, %rsp
    pushq %rax
    movabsq $0x1, %rax
    pushq %rax
    popq %rcx
    subq $32, %rsp
    callq bv_var
    addq $32, %rsp
    movl %eax, %eax
    pushq %rax
    subq $8, %rsp
    movabsq $0x0, %rax
    pushq %rax
    popq %rcx
    subq $32, %rsp
    callq bv_var
    addq $32, %rsp
    movl %eax, %eax
    pushq %rax
    subq $8, %rsp
    movabsq $0x0, %rax
    pushq %rax
    popq %rcx
    subq $32, %rsp
    callq bv_var
    addq $32, %rsp
    addq $8, %rsp
    movl %eax, %eax
    pushq %rax
    popq %rcx
    popq %rdx
    subq $32, %rsp
    callq bv_sub
    addq $32, %rsp
    addq $8, %rsp
    movl %eax, %eax
    pushq %rax
    popq %rcx
    popq %rdx
    subq $32, %rsp
    callq bv_add
    addq $32, %rsp
    movl %eax, %eax
    pushq %rax
    popq %rcx
    popq %rdx
    popq %r8
    subq $32, %rsp
    callq bv_canon_serialize
    addq $32, %rsp
    pushq %rax
    popq %rax
    movq %rax, -24(%rbp)
    movabsq $0x180, %rax
    pushq %rax
    subq $8, %rsp
    subq $32, %rsp
    callq L_p2
    addq $32, %rsp
    addq $8, %rsp
    pushq %rax
    movabsq $0x1, %rax
    pushq %rax
    popq %rcx
    subq $32, %rsp
    callq bv_var
    addq $32, %rsp
    movl %eax, %eax
    pushq %rax
    popq %rcx
    popq %rdx
    popq %r8
    subq $32, %rsp
    callq bv_canon_serialize
    addq $32, %rsp
    pushq %rax
    popq %rax
    movq %rax, -32(%rbp)
    movq -24(%rbp), %rax
    pushq %rax
    movq -32(%rbp), %rax
    pushq %rax
    popq %rcx
    popq %rax
    cmpq %rcx, %rax
    setne %al
    movzbq %al, %rax
    pushq %rax
    popq %rax
    testq %rax, %rax
    jz L_if_end_11
    movabsq $0x4, %rax
    pushq %rax
    popq %rax
    movq %rbp, %rsp
    popq %rbp
    retq
    movq $0, %rax
    pushq %rax
    popq %rax
L_if_end_11:
    movq -24(%rbp), %rax
    pushq %rax
    subq $8, %rsp
    subq $32, %rsp
    callq L_p2
    addq $32, %rsp
    addq $8, %rsp
    pushq %rax
    subq $32, %rsp
    callq L_p1
    addq $32, %rsp
    pushq %rax
    popq %rcx
    popq %rdx
    popq %r8
    subq $32, %rsp
    callq L_memeq
    addq $32, %rsp
    movzbq %al, %rax
    pushq %rax
    movabsq $0x1, %rax
    pushq %rax
    popq %rcx
    popq %rax
    cmpq %rcx, %rax
    setne %al
    movzbq %al, %rax
    pushq %rax
    popq %rax
    testq %rax, %rax
    jz L_if_end_13
    movabsq $0x5, %rax
    pushq %rax
    popq %rax
    movq %rbp, %rsp
    popq %rbp
    retq
    movq $0, %rax
    pushq %rax
    popq %rax
L_if_end_13:
    subq $32, %rsp
    callq bv_reset
    addq $32, %rsp
    movslq %eax, %rax
    pushq %rax
    popq %rax
    movabsq $0x180, %rax
    pushq %rax
    subq $8, %rsp
    subq $32, %rsp
    callq L_p1
    addq $32, %rsp
    addq $8, %rsp
    pushq %rax
    movabsq $0x0, %rax
    pushq %rax
    popq %rcx
    subq $32, %rsp
    callq bv_const
    addq $32, %rsp
    movl %eax, %eax
    pushq %rax
    subq $8, %rsp
    movabsq $0x0, %rax
    pushq %rax
    popq %rcx
    subq $32, %rsp
    callq bv_var
    addq $32, %rsp
    addq $8, %rsp
    movl %eax, %eax
    pushq %rax
    popq %rcx
    popq %rdx
    subq $32, %rsp
    callq bv_add
    addq $32, %rsp
    movl %eax, %eax
    pushq %rax
    popq %rcx
    popq %rdx
    popq %r8
    subq $32, %rsp
    callq bv_canon_serialize
    addq $32, %rsp
    pushq %rax
    popq %rax
    movq %rax, -40(%rbp)
    movabsq $0x180, %rax
    pushq %rax
    subq $8, %rsp
    subq $32, %rsp
    callq L_p2
    addq $32, %rsp
    addq $8, %rsp
    pushq %rax
    movabsq $0x0, %rax
    pushq %rax
    popq %rcx
    subq $32, %rsp
    callq bv_var
    addq $32, %rsp
    movl %eax, %eax
    pushq %rax
    popq %rcx
    popq %rdx
    popq %r8
    subq $32, %rsp
    callq bv_canon_serialize
    addq $32, %rsp
    pushq %rax
    popq %rax
    movq %rax, -48(%rbp)
    movq -40(%rbp), %rax
    pushq %rax
    movq -48(%rbp), %rax
    pushq %rax
    popq %rcx
    popq %rax
    cmpq %rcx, %rax
    setne %al
    movzbq %al, %rax
    pushq %rax
    popq %rax
    testq %rax, %rax
    jz L_if_end_15
    movabsq $0x6, %rax
    pushq %rax
    popq %rax
    movq %rbp, %rsp
    popq %rbp
    retq
    movq $0, %rax
    pushq %rax
    popq %rax
L_if_end_15:
    movq -40(%rbp), %rax
    pushq %rax
    subq $8, %rsp
    subq $32, %rsp
    callq L_p2
    addq $32, %rsp
    addq $8, %rsp
    pushq %rax
    subq $32, %rsp
    callq L_p1
    addq $32, %rsp
    pushq %rax
    popq %rcx
    popq %rdx
    popq %r8
    subq $32, %rsp
    callq L_memeq
    addq $32, %rsp
    movzbq %al, %rax
    pushq %rax
    movabsq $0x1, %rax
    pushq %rax
    popq %rcx
    popq %rax
    cmpq %rcx, %rax
    setne %al
    movzbq %al, %rax
    pushq %rax
    popq %rax
    testq %rax, %rax
    jz L_if_end_17
    movabsq $0x7, %rax
    pushq %rax
    popq %rax
    movq %rbp, %rsp
    popq %rbp
    retq
    movq $0, %rax
    pushq %rax
    popq %rax
L_if_end_17:
    subq $32, %rsp
    callq bv_reset
    addq $32, %rsp
    movslq %eax, %rax
    pushq %rax
    popq %rax
    movabsq $0x180, %rax
    pushq %rax
    subq $8, %rsp
    subq $32, %rsp
    callq L_p1
    addq $32, %rsp
    addq $8, %rsp
    pushq %rax
    movabsq $0x0, %rax
    pushq %rax
    popq %rcx
    subq $32, %rsp
    callq bv_var
    addq $32, %rsp
    movl %eax, %eax
    pushq %rax
    subq $8, %rsp
    movabsq $0x0, %rax
    pushq %rax
    popq %rcx
    subq $32, %rsp
    callq bv_var
    addq $32, %rsp
    addq $8, %rsp
    movl %eax, %eax
    pushq %rax
    popq %rcx
    popq %rdx
    subq $32, %rsp
    callq bv_sub
    addq $32, %rsp
    movl %eax, %eax
    pushq %rax
    popq %rcx
    popq %rdx
    popq %r8
    subq $32, %rsp
    callq bv_canon_serialize
    addq $32, %rsp
    pushq %rax
    movabsq $0x0, %rax
    pushq %rax
    popq %rcx
    popq %rax
    cmpq %rcx, %rax
    setne %al
    movzbq %al, %rax
    pushq %rax
    popq %rax
    testq %rax, %rax
    jz L_if_end_19
    movabsq $0x8, %rax
    pushq %rax
    popq %rax
    movq %rbp, %rsp
    popq %rbp
    retq
    movq $0, %rax
    pushq %rax
    popq %rax
L_if_end_19:
    movabsq $0x180, %rax
    pushq %rax
    subq $8, %rsp
    subq $32, %rsp
    callq L_p2
    addq $32, %rsp
    addq $8, %rsp
    pushq %rax
    movabsq $0x0, %rax
    pushq %rax
    popq %rcx
    subq $32, %rsp
    callq bv_const
    addq $32, %rsp
    movl %eax, %eax
    pushq %rax
    popq %rcx
    popq %rdx
    popq %r8
    subq $32, %rsp
    callq bv_canon_serialize
    addq $32, %rsp
    pushq %rax
    movabsq $0x0, %rax
    pushq %rax
    popq %rcx
    popq %rax
    cmpq %rcx, %rax
    setne %al
    movzbq %al, %rax
    pushq %rax
    popq %rax
    testq %rax, %rax
    jz L_if_end_21
    movabsq $0x9, %rax
    pushq %rax
    popq %rax
    movq %rbp, %rsp
    popq %rbp
    retq
    movq $0, %rax
    pushq %rax
    popq %rax
L_if_end_21:
    subq $32, %rsp
    callq bv_reset
    addq $32, %rsp
    movslq %eax, %rax
    pushq %rax
    popq %rax
    movabsq $0x180, %rax
    pushq %rax
    subq $8, %rsp
    subq $32, %rsp
    callq L_p1
    addq $32, %rsp
    addq $8, %rsp
    pushq %rax
    movabsq $0x2, %rax
    pushq %rax
    popq %rcx
    subq $32, %rsp
    callq bv_const
    addq $32, %rsp
    movl %eax, %eax
    pushq %rax
    subq $8, %rsp
    movabsq $0x0, %rax
    pushq %rax
    popq %rcx
    subq $32, %rsp
    callq bv_var
    addq $32, %rsp
    addq $8, %rsp
    movl %eax, %eax
    pushq %rax
    popq %rcx
    popq %rdx
    subq $32, %rsp
    callq bv_mul
    addq $32, %rsp
    movl %eax, %eax
    pushq %rax
    popq %rcx
    popq %rdx
    popq %r8
    subq $32, %rsp
    callq bv_canon_serialize
    addq $32, %rsp
    pushq %rax
    popq %rax
    movq %rax, -56(%rbp)
    movabsq $0x180, %rax
    pushq %rax
    subq $8, %rsp
    subq $32, %rsp
    callq L_p2
    addq $32, %rsp
    addq $8, %rsp
    pushq %rax
    movabsq $0x1, %rax
    pushq %rax
    subq $8, %rsp
    movabsq $0x0, %rax
    pushq %rax
    popq %rcx
    subq $32, %rsp
    callq bv_var
    addq $32, %rsp
    addq $8, %rsp
    movl %eax, %eax
    pushq %rax
    popq %rcx
    popq %rdx
    subq $32, %rsp
    callq bv_shl
    addq $32, %rsp
    movl %eax, %eax
    pushq %rax
    popq %rcx
    popq %rdx
    popq %r8
    subq $32, %rsp
    callq bv_canon_serialize
    addq $32, %rsp
    pushq %rax
    popq %rax
    movq %rax, -64(%rbp)
    movq -56(%rbp), %rax
    pushq %rax
    movq -64(%rbp), %rax
    pushq %rax
    popq %rcx
    popq %rax
    cmpq %rcx, %rax
    setne %al
    movzbq %al, %rax
    pushq %rax
    popq %rax
    testq %rax, %rax
    jz L_if_end_23
    movabsq $0xa, %rax
    pushq %rax
    popq %rax
    movq %rbp, %rsp
    popq %rbp
    retq
    movq $0, %rax
    pushq %rax
    popq %rax
L_if_end_23:
    movq -56(%rbp), %rax
    pushq %rax
    subq $8, %rsp
    subq $32, %rsp
    callq L_p2
    addq $32, %rsp
    addq $8, %rsp
    pushq %rax
    subq $32, %rsp
    callq L_p1
    addq $32, %rsp
    pushq %rax
    popq %rcx
    popq %rdx
    popq %r8
    subq $32, %rsp
    callq L_memeq
    addq $32, %rsp
    movzbq %al, %rax
    pushq %rax
    movabsq $0x1, %rax
    pushq %rax
    popq %rcx
    popq %rax
    cmpq %rcx, %rax
    setne %al
    movzbq %al, %rax
    pushq %rax
    popq %rax
    testq %rax, %rax
    jz L_if_end_25
    movabsq $0xb, %rax
    pushq %rax
    popq %rax
    movq %rbp, %rsp
    popq %rbp
    retq
    movq $0, %rax
    pushq %rax
    popq %rax
L_if_end_25:
    movabsq $0x180, %rax
    pushq %rax
    subq $8, %rsp
    subq $32, %rsp
    callq L_p2
    addq $32, %rsp
    addq $8, %rsp
    pushq %rax
    movabsq $0x3, %rax
    pushq %rax
    popq %rcx
    subq $32, %rsp
    callq bv_const
    addq $32, %rsp
    movl %eax, %eax
    pushq %rax
    subq $8, %rsp
    movabsq $0x0, %rax
    pushq %rax
    popq %rcx
    subq $32, %rsp
    callq bv_var
    addq $32, %rsp
    addq $8, %rsp
    movl %eax, %eax
    pushq %rax
    popq %rcx
    popq %rdx
    subq $32, %rsp
    callq bv_mul
    addq $32, %rsp
    movl %eax, %eax
    pushq %rax
    popq %rcx
    popq %rdx
    popq %r8
    subq $32, %rsp
    callq bv_canon_serialize
    addq $32, %rsp
    pushq %rax
    popq %rax
    movq %rax, -72(%rbp)
    movq -56(%rbp), %rax
    pushq %rax
    movq -72(%rbp), %rax
    pushq %rax
    popq %rcx
    popq %rax
    cmpq %rcx, %rax
    setne %al
    movzbq %al, %rax
    pushq %rax
    popq %rax
    testq %rax, %rax
    jz L_if_end_27
    movabsq $0xc, %rax
    pushq %rax
    popq %rax
    movq %rbp, %rsp
    popq %rbp
    retq
    movq $0, %rax
    pushq %rax
    popq %rax
L_if_end_27:
    movq -56(%rbp), %rax
    pushq %rax
    subq $8, %rsp
    subq $32, %rsp
    callq L_p2
    addq $32, %rsp
    addq $8, %rsp
    pushq %rax
    subq $32, %rsp
    callq L_p1
    addq $32, %rsp
    pushq %rax
    popq %rcx
    popq %rdx
    popq %r8
    subq $32, %rsp
    callq L_memeq
    addq $32, %rsp
    movzbq %al, %rax
    pushq %rax
    movabsq $0x1, %rax
    pushq %rax
    popq %rcx
    popq %rax
    cmpq %rcx, %rax
    sete %al
    movzbq %al, %rax
    pushq %rax
    popq %rax
    testq %rax, %rax
    jz L_if_end_29
    movabsq $0xd, %rax
    pushq %rax
    popq %rax
    movq %rbp, %rsp
    popq %rbp
    retq
    movq $0, %rax
    pushq %rax
    popq %rax
L_if_end_29:
    subq $32, %rsp
    callq bv_reset
    addq $32, %rsp
    movslq %eax, %rax
    pushq %rax
    popq %rax
    movabsq $0x0, %rax
    pushq %rax
    popq %rax
    movq %rax, -80(%rbp)
L_loop_top_30:
    movq -80(%rbp), %rax
    pushq %rax
    movabsq $0x180, %rax
    pushq %rax
    popq %rcx
    popq %rax
    cmpq %rcx, %rax
    setb %al
    movzbq %al, %rax
    pushq %rax
    popq %rax
    testq %rax, %rax
    jz L_loop_end_31
    leaq L_BUF1(%rip), %rax
    pushq %rax
    movq -80(%rbp), %rax
    pushq %rax
    movabsq $0x5a, %rax
    pushq %rax
    popq %rdx
    popq %rcx
    popq %rax
    movb %dl, (%rax,%rcx,1)
    movq -80(%rbp), %rax
    pushq %rax
    movabsq $0x1, %rax
    pushq %rax
    popq %rcx
    popq %rax
    addq %rcx, %rax
    pushq %rax
    popq %rax
    movq %rax, -80(%rbp)
    movq $0, %rax
    pushq %rax
    popq %rax
    jmp L_loop_top_30
L_loop_end_31:
    movabsq $0x0, %rax
    pushq %rax
    popq %rax
    movq %rax, -88(%rbp)
L_loop_top_32:
    movl -88(%rbp), %eax
    pushq %rax
    movabsq $0x64, %rax
    pushq %rax
    popq %rcx
    popq %rax
    cmpq %rcx, %rax
    setb %al
    movzbq %al, %rax
    pushq %rax
    popq %rax
    testq %rax, %rax
    jz L_loop_end_33
    movl -88(%rbp), %eax
    pushq %rax
    popq %rax
    pushq %rax
    movabsq $0x1, %rax
    pushq %rax
    popq %rcx
    popq %rax
    addq %rcx, %rax
    pushq %rax
    popq %rcx
    subq $32, %rsp
    callq bv_const
    addq $32, %rsp
    movl %eax, %eax
    pushq %rax
    popq %rax
    movl -88(%rbp), %eax
    pushq %rax
    movabsq $0x1, %rax
    pushq %rax
    popq %rcx
    popq %rax
    addq %rcx, %rax
    movl %eax, %eax
    pushq %rax
    popq %rax
    movq %rax, -88(%rbp)
    movq $0, %rax
    pushq %rax
    popq %rax
    jmp L_loop_top_32
L_loop_end_33:
    movabsq $0x180, %rax
    pushq %rax
    subq $8, %rsp
    subq $32, %rsp
    callq L_p1
    addq $32, %rsp
    addq $8, %rsp
    pushq %rax
    movabsq $0x0, %rax
    pushq %rax
    popq %rcx
    popq %rdx
    popq %r8
    subq $32, %rsp
    callq bv_canon_serialize
    addq $32, %rsp
    pushq %rax
    movq L_REFUSE(%rip), %rax
    pushq %rax
    popq %rcx
    popq %rax
    cmpq %rcx, %rax
    setne %al
    movzbq %al, %rax
    pushq %rax
    popq %rax
    testq %rax, %rax
    jz L_if_end_35
    movabsq $0xe, %rax
    pushq %rax
    popq %rax
    movq %rbp, %rsp
    popq %rbp
    retq
    movq $0, %rax
    pushq %rax
    popq %rax
L_if_end_35:
    leaq L_BUF1(%rip), %rax
    pushq %rax
    movabsq $0x0, %rax
    pushq %rax
    popq %rcx
    popq %rax
    movzbq (%rax,%rcx,1), %rax
    pushq %rax
    movabsq $0x5a, %rax
    pushq %rax
    popq %rcx
    popq %rax
    cmpq %rcx, %rax
    setne %al
    movzbq %al, %rax
    pushq %rax
    popq %rax
    testq %rax, %rax
    jz L_if_end_37
    movabsq $0xf, %rax
    pushq %rax
    popq %rax
    movq %rbp, %rsp
    popq %rbp
    retq
    movq $0, %rax
    pushq %rax
    popq %rax
L_if_end_37:
    subq $32, %rsp
    callq bv_reset
    addq $32, %rsp
    movslq %eax, %rax
    pushq %rax
    popq %rax
    leaq L_BUF1(%rip), %rax
    pushq %rax
    movabsq $0x0, %rax
    pushq %rax
    movabsq $0x5a, %rax
    pushq %rax
    popq %rdx
    popq %rcx
    popq %rax
    movb %dl, (%rax,%rcx,1)
    movabsq $0xc, %rax
    pushq %rax
    subq $8, %rsp
    subq $32, %rsp
    callq L_p1
    addq $32, %rsp
    addq $8, %rsp
    pushq %rax
    movabsq $0x1, %rax
    pushq %rax
    popq %rcx
    subq $32, %rsp
    callq bv_var
    addq $32, %rsp
    movl %eax, %eax
    pushq %rax
    subq $8, %rsp
    movabsq $0x0, %rax
    pushq %rax
    popq %rcx
    subq $32, %rsp
    callq bv_var
    addq $32, %rsp
    addq $8, %rsp
    movl %eax, %eax
    pushq %rax
    popq %rcx
    popq %rdx
    subq $32, %rsp
    callq bv_add
    addq $32, %rsp
    movl %eax, %eax
    pushq %rax
    popq %rcx
    popq %rdx
    popq %r8
    subq $32, %rsp
    callq bv_canon_serialize
    addq $32, %rsp
    pushq %rax
    movq L_REFUSE(%rip), %rax
    pushq %rax
    popq %rcx
    popq %rax
    cmpq %rcx, %rax
    setne %al
    movzbq %al, %rax
    pushq %rax
    popq %rax
    testq %rax, %rax
    jz L_if_end_39
    movabsq $0x10, %rax
    pushq %rax
    popq %rax
    movq %rbp, %rsp
    popq %rbp
    retq
    movq $0, %rax
    pushq %rax
    popq %rax
L_if_end_39:
    leaq L_BUF1(%rip), %rax
    pushq %rax
    movabsq $0x0, %rax
    pushq %rax
    popq %rcx
    popq %rax
    movzbq (%rax,%rcx,1), %rax
    pushq %rax
    movabsq $0x5a, %rax
    pushq %rax
    popq %rcx
    popq %rax
    cmpq %rcx, %rax
    setne %al
    movzbq %al, %rax
    pushq %rax
    popq %rax
    testq %rax, %rax
    jz L_if_end_41
    movabsq $0x11, %rax
    pushq %rax
    popq %rax
    movq %rbp, %rsp
    popq %rbp
    retq
    movq $0, %rax
    pushq %rax
    popq %rax
L_if_end_41:
    subq $32, %rsp
    callq bv_reset
    addq $32, %rsp
    movslq %eax, %rax
    pushq %rax
    popq %rax
    subq $32, %rsp
    callq tc_reset
    addq $32, %rsp
    pushq %rax
    popq %rax
    movabsq $0x2, %rax
    pushq %rax
    popq %rcx
    subq $32, %rsp
    callq bv_const
    addq $32, %rsp
    movl %eax, %eax
    pushq %rax
    subq $8, %rsp
    movabsq $0x0, %rax
    pushq %rax
    popq %rcx
    subq $32, %rsp
    callq bv_var
    addq $32, %rsp
    addq $8, %rsp
    movl %eax, %eax
    pushq %rax
    popq %rcx
    popq %rdx
    subq $32, %rsp
    callq bv_mul
    addq $32, %rsp
    movl %eax, %eax
    pushq %rax
    popq %rax
    movq %rax, -96(%rbp)
    movabsq $0x1, %rax
    pushq %rax
    subq $8, %rsp
    movabsq $0x0, %rax
    pushq %rax
    popq %rcx
    subq $32, %rsp
    callq bv_var
    addq $32, %rsp
    addq $8, %rsp
    movl %eax, %eax
    pushq %rax
    popq %rcx
    popq %rdx
    subq $32, %rsp
    callq bv_shl
    addq $32, %rsp
    movl %eax, %eax
    pushq %rax
    popq %rax
    movq %rax, -104(%rbp)
    subq $8, %rsp
    leaq L_ADDR1(%rip), %rax
    pushq %rax
    popq %rax
    pushq %rax
    popq %rax
    pushq %rax
    movabsq $0x1, %rax
    pushq %rax
    popq %rcx
    subq $32, %rsp
    callq tc_bvlit_u64
    addq $32, %rsp
    movl %eax, %eax
    pushq %rax
    subq $8, %rsp
    movabsq $0x0, %rax
    pushq %rax
    popq %rcx
    subq $32, %rsp
    callq tc_var
    addq $32, %rsp
    addq $8, %rsp
    movl %eax, %eax
    pushq %rax
    popq %rcx
    popq %rdx
    subq $32, %rsp
    callq tc_bvshl
    addq $32, %rsp
    movl %eax, %eax
    pushq %rax
    subq $8, %rsp
    movabsq $0x2, %rax
    pushq %rax
    popq %rcx
    subq $32, %rsp
    callq tc_bvlit_u64
    addq $32, %rsp
    movl %eax, %eax
    pushq %rax
    subq $8, %rsp
    movabsq $0x0, %rax
    pushq %rax
    popq %rcx
    subq $32, %rsp
    callq tc_var
    addq $32, %rsp
    addq $8, %rsp
    movl %eax, %eax
    pushq %rax
    popq %rcx
    popq %rdx
    subq $32, %rsp
    callq tc_bvmul
    addq $32, %rsp
    addq $8, %rsp
    movl %eax, %eax
    pushq %rax
    movl -104(%rbp), %eax
    pushq %rax
    movl -96(%rbp), %eax
    pushq %rax
    popq %rcx
    popq %rdx
    popq %r8
    popq %r9
    subq $32, %rsp
    callq bvd_canon_addr
    addq $32, %rsp
    addq $8, %rsp
    addq $8, %rsp
    movzbq %al, %rax
    pushq %rax
    movabsq $0x1, %rax
    pushq %rax
    popq %rcx
    popq %rax
    cmpq %rcx, %rax
    setne %al
    movzbq %al, %rax
    pushq %rax
    popq %rax
    testq %rax, %rax
    jz L_if_end_43
    movabsq $0x12, %rax
    pushq %rax
    popq %rax
    movq %rbp, %rsp
    popq %rbp
    retq
    movq $0, %rax
    pushq %rax
    popq %rax
L_if_end_43:
    movabsq $0x180, %rax
    pushq %rax
    subq $8, %rsp
    subq $32, %rsp
    callq L_p1
    addq $32, %rsp
    addq $8, %rsp
    pushq %rax
    movl -96(%rbp), %eax
    pushq %rax
    popq %rcx
    popq %rdx
    popq %r8
    subq $32, %rsp
    callq bv_canon_serialize
    addq $32, %rsp
    pushq %rax
    popq %rax
    movq %rax, -112(%rbp)
    subq $32, %rsp
    callq mhash_begin
    addq $32, %rsp
    movslq %eax, %rax
    pushq %rax
    popq %rax
    movq -112(%rbp), %rax
    pushq %rax
    leaq L_BUF1(%rip), %rax
    pushq %rax
    popq %rax
    pushq %rax
    popq %rcx
    popq %rdx
    subq $32, %rsp
    callq mhash_payload
    addq $32, %rsp
    movslq %eax, %rax
    pushq %rax
    popq %rax
    leaq L_ADDR2(%rip), %rax
    pushq %rax
    popq %rax
    pushq %rax
    popq %rcx
    subq $32, %rsp
    callq mhash_final
    addq $32, %rsp
    movslq %eax, %rax
    pushq %rax
    popq %rax
    movabsq $0x20, %rax
    pushq %rax
    leaq L_ADDR2(%rip), %rax
    pushq %rax
    popq %rax
    pushq %rax
    popq %rax
    pushq %rax
    leaq L_ADDR1(%rip), %rax
    pushq %rax
    popq %rax
    pushq %rax
    popq %rax
    pushq %rax
    popq %rcx
    popq %rdx
    popq %r8
    subq $32, %rsp
    callq L_memeq
    addq $32, %rsp
    movzbq %al, %rax
    pushq %rax
    movabsq $0x1, %rax
    pushq %rax
    popq %rcx
    popq %rax
    cmpq %rcx, %rax
    sete %al
    movzbq %al, %rax
    pushq %rax
    popq %rax
    testq %rax, %rax
    jz L_if_end_45
    movabsq $0x13, %rax
    pushq %rax
    popq %rax
    movq %rbp, %rsp
    popq %rbp
    retq
    movq $0, %rax
    pushq %rax
    popq %rax
L_if_end_45:
    subq $32, %rsp
    callq bv_reset
    addq $32, %rsp
    movslq %eax, %rax
    pushq %rax
    popq %rax
    subq $32, %rsp
    callq tc_reset
    addq $32, %rsp
    pushq %rax
    popq %rax
    movabsq $0x2, %rax
    pushq %rax
    popq %rcx
    subq $32, %rsp
    callq bv_const
    addq $32, %rsp
    movl %eax, %eax
    pushq %rax
    subq $8, %rsp
    movabsq $0x0, %rax
    pushq %rax
    popq %rcx
    subq $32, %rsp
    callq bv_var
    addq $32, %rsp
    addq $8, %rsp
    movl %eax, %eax
    pushq %rax
    popq %rcx
    popq %rdx
    subq $32, %rsp
    callq bv_mul
    addq $32, %rsp
    movl %eax, %eax
    pushq %rax
    popq %rax
    movq %rax, -120(%rbp)
    movabsq $0x1, %rax
    pushq %rax
    subq $8, %rsp
    movabsq $0x0, %rax
    pushq %rax
    popq %rcx
    subq $32, %rsp
    callq bv_var
    addq $32, %rsp
    addq $8, %rsp
    movl %eax, %eax
    pushq %rax
    popq %rcx
    popq %rdx
    subq $32, %rsp
    callq bv_shl
    addq $32, %rsp
    movl %eax, %eax
    pushq %rax
    popq %rax
    movq %rax, -128(%rbp)
    movabsq $0x2, %rax
    pushq %rax
    popq %rcx
    subq $32, %rsp
    callq tc_bvlit_u64
    addq $32, %rsp
    movl %eax, %eax
    pushq %rax
    subq $8, %rsp
    movabsq $0x0, %rax
    pushq %rax
    popq %rcx
    subq $32, %rsp
    callq tc_var
    addq $32, %rsp
    addq $8, %rsp
    movl %eax, %eax
    pushq %rax
    popq %rcx
    popq %rdx
    subq $32, %rsp
    callq tc_bvmul
    addq $32, %rsp
    movl %eax, %eax
    pushq %rax
    popq %rax
    movq %rax, -136(%rbp)
    movabsq $0x1, %rax
    pushq %rax
    popq %rcx
    subq $32, %rsp
    callq tc_bvlit_u64
    addq $32, %rsp
    movl %eax, %eax
    pushq %rax
    subq $8, %rsp
    movabsq $0x0, %rax
    pushq %rax
    popq %rcx
    subq $32, %rsp
    callq tc_var
    addq $32, %rsp
    addq $8, %rsp
    movl %eax, %eax
    pushq %rax
    popq %rcx
    popq %rdx
    subq $32, %rsp
    callq tc_bvshl
    addq $32, %rsp
    movl %eax, %eax
    pushq %rax
    popq %rax
    movq %rax, -144(%rbp)
    subq $8, %rsp
    leaq L_ADDR1(%rip), %rax
    pushq %rax
    popq %rax
    pushq %rax
    popq %rax
    pushq %rax
    movl -144(%rbp), %eax
    pushq %rax
    movl -136(%rbp), %eax
    pushq %rax
    movl -128(%rbp), %eax
    pushq %rax
    movl -120(%rbp), %eax
    pushq %rax
    popq %rcx
    popq %rdx
    popq %r8
    popq %r9
    subq $32, %rsp
    callq bvd_canon_addr
    addq $32, %rsp
    addq $8, %rsp
    addq $8, %rsp
    movzbq %al, %rax
    pushq %rax
    movabsq $0x1, %rax
    pushq %rax
    popq %rcx
    popq %rax
    cmpq %rcx, %rax
    setne %al
    movzbq %al, %rax
    pushq %rax
    popq %rax
    testq %rax, %rax
    jz L_if_end_47
    movabsq $0x14, %rax
    pushq %rax
    popq %rax
    movq %rbp, %rsp
    popq %rbp
    retq
    movq $0, %rax
    pushq %rax
    popq %rax
L_if_end_47:
    subq $8, %rsp
    leaq L_ADDR2(%rip), %rax
    pushq %rax
    popq %rax
    pushq %rax
    popq %rax
    pushq %rax
    movl -136(%rbp), %eax
    pushq %rax
    movl -144(%rbp), %eax
    pushq %rax
    movl -120(%rbp), %eax
    pushq %rax
    movl -128(%rbp), %eax
    pushq %rax
    popq %rcx
    popq %rdx
    popq %r8
    popq %r9
    subq $32, %rsp
    callq bvd_canon_addr
    addq $32, %rsp
    addq $8, %rsp
    addq $8, %rsp
    movzbq %al, %rax
    pushq %rax
    movabsq $0x1, %rax
    pushq %rax
    popq %rcx
    popq %rax
    cmpq %rcx, %rax
    setne %al
    movzbq %al, %rax
    pushq %rax
    popq %rax
    testq %rax, %rax
    jz L_if_end_49
    movabsq $0x15, %rax
    pushq %rax
    popq %rax
    movq %rbp, %rsp
    popq %rbp
    retq
    movq $0, %rax
    pushq %rax
    popq %rax
L_if_end_49:
    movabsq $0x20, %rax
    pushq %rax
    leaq L_ADDR2(%rip), %rax
    pushq %rax
    popq %rax
    pushq %rax
    popq %rax
    pushq %rax
    leaq L_ADDR1(%rip), %rax
    pushq %rax
    popq %rax
    pushq %rax
    popq %rax
    pushq %rax
    popq %rcx
    popq %rdx
    popq %r8
    subq $32, %rsp
    callq L_memeq
    addq $32, %rsp
    movzbq %al, %rax
    pushq %rax
    movabsq $0x1, %rax
    pushq %rax
    popq %rcx
    popq %rax
    cmpq %rcx, %rax
    setne %al
    movzbq %al, %rax
    pushq %rax
    popq %rax
    testq %rax, %rax
    jz L_if_end_51
    movabsq $0x16, %rax
    pushq %rax
    popq %rax
    movq %rbp, %rsp
    popq %rbp
    retq
    movq $0, %rax
    pushq %rax
    popq %rax
L_if_end_51:
    subq $32, %rsp
    callq bv_reset
    addq $32, %rsp
    movslq %eax, %rax
    pushq %rax
    popq %rax
    subq $32, %rsp
    callq tc_reset
    addq $32, %rsp
    pushq %rax
    popq %rax
    leaq L_ADDR1(%rip), %rax
    pushq %rax
    movabsq $0x0, %rax
    pushq %rax
    movabsq $0x5a, %rax
    pushq %rax
    popq %rdx
    popq %rcx
    popq %rax
    movb %dl, (%rax,%rcx,1)
    subq $8, %rsp
    leaq L_ADDR1(%rip), %rax
    pushq %rax
    popq %rax
    pushq %rax
    popq %rax
    pushq %rax
    movabsq $0x4, %rax
    pushq %rax
    popq %rcx
    subq $32, %rsp
    callq tc_bvlit_u64
    addq $32, %rsp
    movl %eax, %eax
    pushq %rax
    subq $8, %rsp
    movabsq $0x0, %rax
    pushq %rax
    popq %rcx
    subq $32, %rsp
    callq tc_var
    addq $32, %rsp
    addq $8, %rsp
    movl %eax, %eax
    pushq %rax
    popq %rcx
    popq %rdx
    subq $32, %rsp
    callq tc_bvmul
    addq $32, %rsp
    movl %eax, %eax
    pushq %rax
    subq $8, %rsp
    movabsq $0x2, %rax
    pushq %rax
    popq %rcx
    subq $32, %rsp
    callq tc_bvlit_u64
    addq $32, %rsp
    movl %eax, %eax
    pushq %rax
    subq $8, %rsp
    movabsq $0x0, %rax
    pushq %rax
    popq %rcx
    subq $32, %rsp
    callq tc_var
    addq $32, %rsp
    addq $8, %rsp
    movl %eax, %eax
    pushq %rax
    popq %rcx
    popq %rdx
    subq $32, %rsp
    callq tc_bvmul
    addq $32, %rsp
    addq $8, %rsp
    movl %eax, %eax
    pushq %rax
    movabsq $0x4, %rax
    pushq %rax
    popq %rcx
    subq $32, %rsp
    callq bv_const
    addq $32, %rsp
    movl %eax, %eax
    pushq %rax
    subq $8, %rsp
    movabsq $0x0, %rax
    pushq %rax
    popq %rcx
    subq $32, %rsp
    callq bv_var
    addq $32, %rsp
    addq $8, %rsp
    movl %eax, %eax
    pushq %rax
    popq %rcx
    popq %rdx
    subq $32, %rsp
    callq bv_mul
    addq $32, %rsp
    movl %eax, %eax
    pushq %rax
    subq $8, %rsp
    movabsq $0x2, %rax
    pushq %rax
    popq %rcx
    subq $32, %rsp
    callq bv_const
    addq $32, %rsp
    movl %eax, %eax
    pushq %rax
    subq $8, %rsp
    movabsq $0x0, %rax
    pushq %rax
    popq %rcx
    subq $32, %rsp
    callq bv_var
    addq $32, %rsp
    addq $8, %rsp
    movl %eax, %eax
    pushq %rax
    popq %rcx
    popq %rdx
    subq $32, %rsp
    callq bv_mul
    addq $32, %rsp
    addq $8, %rsp
    movl %eax, %eax
    pushq %rax
    popq %rcx
    popq %rdx
    popq %r8
    popq %r9
    subq $32, %rsp
    callq bvd_canon_addr
    addq $32, %rsp
    addq $8, %rsp
    addq $8, %rsp
    movzbq %al, %rax
    pushq %rax
    movabsq $0x0, %rax
    pushq %rax
    popq %rcx
    popq %rax
    cmpq %rcx, %rax
    setne %al
    movzbq %al, %rax
    pushq %rax
    popq %rax
    testq %rax, %rax
    jz L_if_end_53
    movabsq $0x17, %rax
    pushq %rax
    popq %rax
    movq %rbp, %rsp
    popq %rbp
    retq
    movq $0, %rax
    pushq %rax
    popq %rax
L_if_end_53:
    leaq L_ADDR1(%rip), %rax
    pushq %rax
    movabsq $0x0, %rax
    pushq %rax
    popq %rcx
    popq %rax
    movzbq (%rax,%rcx,1), %rax
    pushq %rax
    movabsq $0x5a, %rax
    pushq %rax
    popq %rcx
    popq %rax
    cmpq %rcx, %rax
    setne %al
    movzbq %al, %rax
    pushq %rax
    popq %rax
    testq %rax, %rax
    jz L_if_end_55
    movabsq $0x18, %rax
    pushq %rax
    popq %rax
    movq %rbp, %rsp
    popq %rbp
    retq
    movq $0, %rax
    pushq %rax
    popq %rax
L_if_end_55:
    movabsq $0x63, %rax
    pushq %rax
    popq %rax
    movq %rbp, %rsp
    popq %rbp
    retq
    movq $0, %rax
    pushq %rax
    movq $0, %rax
    movq %rbp, %rsp
    popq %rbp
    retq
    .seh_endproc
