# III Stage-0 Ring-3 codegen output
# Microsoft x64 ABI; gas syntax (AT&T); PE/COFF target
    .att_syntax
    .file 1 "<iii-source>"
    .section .rodata
L_str_0:
    .ascii "backend_remote.iii\0"
L_str_1:
    .ascii "backend_remote.iii\0"
L_str_2:
    .ascii "HTTP/1.1 200 OK\0"
L_str_3:
    .ascii "Content-Length: 5\0"
L_str_4:
    .ascii "HELLOXYZJUNK\0"
L_str_5:
    .ascii "HTTP/1.1 200 OK\0"
L_str_6:
    .ascii "Transfer-Encoding: chunked\0"
L_str_7:
    .ascii "3\0"
L_str_8:
    .ascii "FOO\0"
L_str_9:
    .ascii "2\0"
L_str_10:
    .ascii "BA\0"
L_str_11:
    .ascii "0\0"
L_str_12:
    .ascii "HTTP/1.0 200 OK\0"
L_str_13:
    .ascii "X-Y: z\0"
L_str_14:
    .ascii "WORLD\0"
L_str_15:
    .ascii "HTTP/1.1 404 NF\0"
L_str_16:
    .ascii "Content-Length: 2\0"
L_str_17:
    .ascii "NO\0"
L_str_18:
    .ascii "GARBAGEGARBAGE\0"
L_str_19:
    .ascii "HTTP/1.1 200 OK\0"
L_str_20:
    .ascii "Content-Length: 5\0"
L_str_21:
    .ascii "HELLO\0"
    .section .rodata
L_R_OK:
    .quad 0x0
L_R_NOTFOUND:
    .quad 0x2
L_R_TOOBIG:
    .quad 0xffffffffffffffff
    .section .bss
    .global L_RESP
L_RESP:
    .zero 4096
    .section .data
    .global L_RP
L_RP:
    .quad 0x0
    .section .bss
    .global L_OUT
L_OUT:
    .zero 1024
    .global L_OUT2
L_OUT2:
    .zero 1024
    .global L_OLEN
L_OLEN:
    .zero 8
    .section .iii.ring3,"n"
    .asciz "rput"
    .text
    .seh_proc L_rput
L_rput:
    pushq %rbp
    .seh_pushreg %rbp
    movq %rsp, %rbp
    .seh_setframe %rbp, 0
    subq $1024, %rsp
    .seh_stackalloc 1024
    .seh_endprologue
    movq %rcx, -8(%rbp)
    leaq L_RESP(%rip), %rax
    pushq %rax
    movq L_RP(%rip), %rax
    pushq %rax
    movzbq -8(%rbp), %rax
    pushq %rax
    popq %rdx
    popq %rcx
    popq %rax
    movb %dl, (%rax,%rcx,1)
    movq L_RP(%rip), %rax
    pushq %rax
    movabsq $0x1, %rax
    pushq %rax
    popq %rcx
    popq %rax
    addq %rcx, %rax
    pushq %rax
    popq %rax
    movq %rax, L_RP(%rip)
    movabsq $0x0, %rax
    pushq %rax
    popq %rax
    movq %rbp, %rsp
    popq %rbp
    retq
    movq $0, %rax
    pushq %rax
    movq $0, %rax
    movq %rbp, %rsp
    popq %rbp
    retq
    .seh_endproc
    .section .iii.ring3,"n"
    .asciz "rlit"
    .text
    .seh_proc L_rlit
L_rlit:
    pushq %rbp
    .seh_pushreg %rbp
    movq %rsp, %rbp
    .seh_setframe %rbp, 0
    subq $1024, %rsp
    .seh_stackalloc 1024
    .seh_endprologue
    movq %rcx, -8(%rbp)
    movq %rdx, -16(%rbp)
    movabsq $0x0, %rax
    pushq %rax
    popq %rax
    movq %rax, -24(%rbp)
L_loop_top_0:
    movq -24(%rbp), %rax
    pushq %rax
    movq -16(%rbp), %rax
    pushq %rax
    popq %rcx
    popq %rax
    cmpq %rcx, %rax
    setb %al
    movzbq %al, %rax
    pushq %rax
    popq %rax
    testq %rax, %rax
    jz L_loop_end_1
    movq -8(%rbp), %rax
    pushq %rax
    movq -24(%rbp), %rax
    pushq %rax
    popq %rcx
    popq %rax
    movzbq (%rax,%rcx,1), %rax
    pushq %rax
    popq %rcx
    subq $32, %rsp
    callq L_rput
    addq $32, %rsp
    pushq %rax
    popq %rax
    movq -24(%rbp), %rax
    pushq %rax
    movabsq $0x1, %rax
    pushq %rax
    popq %rcx
    popq %rax
    addq %rcx, %rax
    pushq %rax
    popq %rax
    movq %rax, -24(%rbp)
    movq $0, %rax
    pushq %rax
    popq %rax
    jmp L_loop_top_0
L_loop_end_1:
    movabsq $0x0, %rax
    pushq %rax
    popq %rax
    movq %rbp, %rsp
    popq %rbp
    retq
    movq $0, %rax
    pushq %rax
    movq $0, %rax
    movq %rbp, %rsp
    popq %rbp
    retq
    .seh_endproc
    .section .iii.ring3,"n"
    .asciz "rcrlf"
    .text
    .seh_proc L_rcrlf
L_rcrlf:
    pushq %rbp
    .seh_pushreg %rbp
    movq %rsp, %rbp
    .seh_setframe %rbp, 0
    subq $1024, %rsp
    .seh_stackalloc 1024
    .seh_endprologue
    movabsq $0xd, %rax
    pushq %rax
    popq %rcx
    subq $32, %rsp
    callq L_rput
    addq $32, %rsp
    pushq %rax
    popq %rax
    movabsq $0xa, %rax
    pushq %rax
    popq %rcx
    subq $32, %rsp
    callq L_rput
    addq $32, %rsp
    pushq %rax
    popq %rax
    movabsq $0x0, %rax
    pushq %rax
    popq %rax
    movq %rbp, %rsp
    popq %rbp
    retq
    movq $0, %rax
    pushq %rax
    movq $0, %rax
    movq %rbp, %rsp
    popq %rbp
    retq
    .seh_endproc
    .section .iii.ring3,"n"
    .asciz "main"
    .text
    .global main
    .seh_proc main
main:
    pushq %rbp
    .seh_pushreg %rbp
    movq %rsp, %rbp
    .seh_setframe %rbp, 0
    subq $1024, %rsp
    .seh_stackalloc 1024
    .seh_endprologue
    leaq L_OUT(%rip), %rax
    pushq %rax
    popq %rax
    pushq %rax
    popq %rax
    movq %rax, -8(%rbp)
    leaq L_OLEN(%rip), %rax
    pushq %rax
    popq %rax
    pushq %rax
    popq %rax
    movq %rax, -16(%rbp)
    movabsq $0x0, %rax
    pushq %rax
    popq %rax
    movq %rax, L_RP(%rip)
    movabsq $0xf, %rax
    pushq %rax
    leaq L_str_2(%rip), %rax
    pushq %rax
    popq %rax
    pushq %rax
    popq %rcx
    popq %rdx
    subq $32, %rsp
    callq L_rlit
    addq $32, %rsp
    pushq %rax
    popq %rax
    subq $32, %rsp
    callq L_rcrlf
    addq $32, %rsp
    pushq %rax
    popq %rax
    movabsq $0x11, %rax
    pushq %rax
    leaq L_str_3(%rip), %rax
    pushq %rax
    popq %rax
    pushq %rax
    popq %rcx
    popq %rdx
    subq $32, %rsp
    callq L_rlit
    addq $32, %rsp
    pushq %rax
    popq %rax
    subq $32, %rsp
    callq L_rcrlf
    addq $32, %rsp
    pushq %rax
    popq %rax
    subq $32, %rsp
    callq L_rcrlf
    addq $32, %rsp
    pushq %rax
    popq %rax
    movabsq $0xc, %rax
    pushq %rax
    leaq L_str_4(%rip), %rax
    pushq %rax
    popq %rax
    pushq %rax
    popq %rcx
    popq %rdx
    subq $32, %rsp
    callq L_rlit
    addq $32, %rsp
    pushq %rax
    popq %rax
    movq L_RP(%rip), %rax
    pushq %rax
    leaq L_RESP(%rip), %rax
    pushq %rax
    popq %rax
    pushq %rax
    popq %rcx
    popq %rdx
    subq $32, %rsp
    callq backend_remote_inject
    addq $32, %rsp
    pushq %rax
    popq %rax
    movq -16(%rbp), %rax
    pushq %rax
    movabsq $0x80, %rax
    pushq %rax
    movq -8(%rbp), %rax
    pushq %rax
    movq L_RP(%rip), %rax
    pushq %rax
    popq %rcx
    popq %rdx
    popq %r8
    popq %r9
    subq $32, %rsp
    callq backend_remote_decode
    addq $32, %rsp
    movslq %eax, %rax
    pushq %rax
    movslq L_R_OK(%rip), %rax
    pushq %rax
    popq %rcx
    popq %rax
    cmpq %rcx, %rax
    setne %al
    movzbq %al, %rax
    pushq %rax
    popq %rax
    testq %rax, %rax
    jz L_if_end_3
    movabsq $0x1, %rax
    pushq %rax
    popq %rax
    movq %rbp, %rsp
    popq %rbp
    retq
    movq $0, %rax
    pushq %rax
    popq %rax
L_if_end_3:
    leaq L_OLEN(%rip), %rax
    pushq %rax
    movabsq $0x0, %rax
    pushq %rax
    popq %rcx
    popq %rax
    movq (%rax,%rcx,8), %rax
    pushq %rax
    movabsq $0x5, %rax
    pushq %rax
    popq %rcx
    popq %rax
    cmpq %rcx, %rax
    setne %al
    movzbq %al, %rax
    pushq %rax
    popq %rax
    testq %rax, %rax
    jz L_if_end_5
    movabsq $0x2, %rax
    pushq %rax
    popq %rax
    movq %rbp, %rsp
    popq %rbp
    retq
    movq $0, %rax
    pushq %rax
    popq %rax
L_if_end_5:
    leaq L_OUT(%rip), %rax
    pushq %rax
    movabsq $0x0, %rax
    pushq %rax
    popq %rcx
    popq %rax
    movzbq (%rax,%rcx,1), %rax
    pushq %rax
    movabsq $0x48, %rax
    pushq %rax
    popq %rcx
    popq %rax
    cmpq %rcx, %rax
    setne %al
    movzbq %al, %rax
    pushq %rax
    popq %rax
    testq %rax, %rax
    jz L_if_end_7
    movabsq $0x3, %rax
    pushq %rax
    popq %rax
    movq %rbp, %rsp
    popq %rbp
    retq
    movq $0, %rax
    pushq %rax
    popq %rax
L_if_end_7:
    leaq L_OUT(%rip), %rax
    pushq %rax
    movabsq $0x4, %rax
    pushq %rax
    popq %rcx
    popq %rax
    movzbq (%rax,%rcx,1), %rax
    pushq %rax
    movabsq $0x4f, %rax
    pushq %rax
    popq %rcx
    popq %rax
    cmpq %rcx, %rax
    setne %al
    movzbq %al, %rax
    pushq %rax
    popq %rax
    testq %rax, %rax
    jz L_if_end_9
    movabsq $0x3, %rax
    pushq %rax
    popq %rax
    movq %rbp, %rsp
    popq %rbp
    retq
    movq $0, %rax
    pushq %rax
    popq %rax
L_if_end_9:
    movabsq $0x0, %rax
    pushq %rax
    popq %rax
    movq %rax, L_RP(%rip)
    movabsq $0xf, %rax
    pushq %rax
    leaq L_str_5(%rip), %rax
    pushq %rax
    popq %rax
    pushq %rax
    popq %rcx
    popq %rdx
    subq $32, %rsp
    callq L_rlit
    addq $32, %rsp
    pushq %rax
    popq %rax
    subq $32, %rsp
    callq L_rcrlf
    addq $32, %rsp
    pushq %rax
    popq %rax
    movabsq $0x1a, %rax
    pushq %rax
    leaq L_str_6(%rip), %rax
    pushq %rax
    popq %rax
    pushq %rax
    popq %rcx
    popq %rdx
    subq $32, %rsp
    callq L_rlit
    addq $32, %rsp
    pushq %rax
    popq %rax
    subq $32, %rsp
    callq L_rcrlf
    addq $32, %rsp
    pushq %rax
    popq %rax
    subq $32, %rsp
    callq L_rcrlf
    addq $32, %rsp
    pushq %rax
    popq %rax
    movabsq $0x1, %rax
    pushq %rax
    leaq L_str_7(%rip), %rax
    pushq %rax
    popq %rax
    pushq %rax
    popq %rcx
    popq %rdx
    subq $32, %rsp
    callq L_rlit
    addq $32, %rsp
    pushq %rax
    popq %rax
    subq $32, %rsp
    callq L_rcrlf
    addq $32, %rsp
    pushq %rax
    popq %rax
    movabsq $0x3, %rax
    pushq %rax
    leaq L_str_8(%rip), %rax
    pushq %rax
    popq %rax
    pushq %rax
    popq %rcx
    popq %rdx
    subq $32, %rsp
    callq L_rlit
    addq $32, %rsp
    pushq %rax
    popq %rax
    subq $32, %rsp
    callq L_rcrlf
    addq $32, %rsp
    pushq %rax
    popq %rax
    movabsq $0x1, %rax
    pushq %rax
    leaq L_str_9(%rip), %rax
    pushq %rax
    popq %rax
    pushq %rax
    popq %rcx
    popq %rdx
    subq $32, %rsp
    callq L_rlit
    addq $32, %rsp
    pushq %rax
    popq %rax
    subq $32, %rsp
    callq L_rcrlf
    addq $32, %rsp
    pushq %rax
    popq %rax
    movabsq $0x2, %rax
    pushq %rax
    leaq L_str_10(%rip), %rax
    pushq %rax
    popq %rax
    pushq %rax
    popq %rcx
    popq %rdx
    subq $32, %rsp
    callq L_rlit
    addq $32, %rsp
    pushq %rax
    popq %rax
    subq $32, %rsp
    callq L_rcrlf
    addq $32, %rsp
    pushq %rax
    popq %rax
    movabsq $0x1, %rax
    pushq %rax
    leaq L_str_11(%rip), %rax
    pushq %rax
    popq %rax
    pushq %rax
    popq %rcx
    popq %rdx
    subq $32, %rsp
    callq L_rlit
    addq $32, %rsp
    pushq %rax
    popq %rax
    subq $32, %rsp
    callq L_rcrlf
    addq $32, %rsp
    pushq %rax
    popq %rax
    subq $32, %rsp
    callq L_rcrlf
    addq $32, %rsp
    pushq %rax
    popq %rax
    movq L_RP(%rip), %rax
    pushq %rax
    leaq L_RESP(%rip), %rax
    pushq %rax
    popq %rax
    pushq %rax
    popq %rcx
    popq %rdx
    subq $32, %rsp
    callq backend_remote_inject
    addq $32, %rsp
    pushq %rax
    popq %rax
    movq -16(%rbp), %rax
    pushq %rax
    movabsq $0x80, %rax
    pushq %rax
    movq -8(%rbp), %rax
    pushq %rax
    movq L_RP(%rip), %rax
    pushq %rax
    popq %rcx
    popq %rdx
    popq %r8
    popq %r9
    subq $32, %rsp
    callq backend_remote_decode
    addq $32, %rsp
    movslq %eax, %rax
    pushq %rax
    movslq L_R_OK(%rip), %rax
    pushq %rax
    popq %rcx
    popq %rax
    cmpq %rcx, %rax
    setne %al
    movzbq %al, %rax
    pushq %rax
    popq %rax
    testq %rax, %rax
    jz L_if_end_11
    movabsq $0x4, %rax
    pushq %rax
    popq %rax
    movq %rbp, %rsp
    popq %rbp
    retq
    movq $0, %rax
    pushq %rax
    popq %rax
L_if_end_11:
    leaq L_OLEN(%rip), %rax
    pushq %rax
    movabsq $0x0, %rax
    pushq %rax
    popq %rcx
    popq %rax
    movq (%rax,%rcx,8), %rax
    pushq %rax
    movabsq $0x5, %rax
    pushq %rax
    popq %rcx
    popq %rax
    cmpq %rcx, %rax
    setne %al
    movzbq %al, %rax
    pushq %rax
    popq %rax
    testq %rax, %rax
    jz L_if_end_13
    movabsq $0x5, %rax
    pushq %rax
    popq %rax
    movq %rbp, %rsp
    popq %rbp
    retq
    movq $0, %rax
    pushq %rax
    popq %rax
L_if_end_13:
    leaq L_OUT(%rip), %rax
    pushq %rax
    movabsq $0x0, %rax
    pushq %rax
    popq %rcx
    popq %rax
    movzbq (%rax,%rcx,1), %rax
    pushq %rax
    movabsq $0x46, %rax
    pushq %rax
    popq %rcx
    popq %rax
    cmpq %rcx, %rax
    setne %al
    movzbq %al, %rax
    pushq %rax
    popq %rax
    testq %rax, %rax
    jz L_if_end_15
    movabsq $0x6, %rax
    pushq %rax
    popq %rax
    movq %rbp, %rsp
    popq %rbp
    retq
    movq $0, %rax
    pushq %rax
    popq %rax
L_if_end_15:
    leaq L_OUT(%rip), %rax
    pushq %rax
    movabsq $0x3, %rax
    pushq %rax
    popq %rcx
    popq %rax
    movzbq (%rax,%rcx,1), %rax
    pushq %rax
    movabsq $0x42, %rax
    pushq %rax
    popq %rcx
    popq %rax
    cmpq %rcx, %rax
    setne %al
    movzbq %al, %rax
    pushq %rax
    popq %rax
    testq %rax, %rax
    jz L_if_end_17
    movabsq $0x6, %rax
    pushq %rax
    popq %rax
    movq %rbp, %rsp
    popq %rbp
    retq
    movq $0, %rax
    pushq %rax
    popq %rax
L_if_end_17:
    leaq L_OUT(%rip), %rax
    pushq %rax
    movabsq $0x4, %rax
    pushq %rax
    popq %rcx
    popq %rax
    movzbq (%rax,%rcx,1), %rax
    pushq %rax
    movabsq $0x41, %rax
    pushq %rax
    popq %rcx
    popq %rax
    cmpq %rcx, %rax
    setne %al
    movzbq %al, %rax
    pushq %rax
    popq %rax
    testq %rax, %rax
    jz L_if_end_19
    movabsq $0x6, %rax
    pushq %rax
    popq %rax
    movq %rbp, %rsp
    popq %rbp
    retq
    movq $0, %rax
    pushq %rax
    popq %rax
L_if_end_19:
    movabsq $0x0, %rax
    pushq %rax
    popq %rax
    movq %rax, L_RP(%rip)
    movabsq $0xf, %rax
    pushq %rax
    leaq L_str_12(%rip), %rax
    pushq %rax
    popq %rax
    pushq %rax
    popq %rcx
    popq %rdx
    subq $32, %rsp
    callq L_rlit
    addq $32, %rsp
    pushq %rax
    popq %rax
    subq $32, %rsp
    callq L_rcrlf
    addq $32, %rsp
    pushq %rax
    popq %rax
    movabsq $0x6, %rax
    pushq %rax
    leaq L_str_13(%rip), %rax
    pushq %rax
    popq %rax
    pushq %rax
    popq %rcx
    popq %rdx
    subq $32, %rsp
    callq L_rlit
    addq $32, %rsp
    pushq %rax
    popq %rax
    subq $32, %rsp
    callq L_rcrlf
    addq $32, %rsp
    pushq %rax
    popq %rax
    subq $32, %rsp
    callq L_rcrlf
    addq $32, %rsp
    pushq %rax
    popq %rax
    movabsq $0x5, %rax
    pushq %rax
    leaq L_str_14(%rip), %rax
    pushq %rax
    popq %rax
    pushq %rax
    popq %rcx
    popq %rdx
    subq $32, %rsp
    callq L_rlit
    addq $32, %rsp
    pushq %rax
    popq %rax
    movq L_RP(%rip), %rax
    pushq %rax
    leaq L_RESP(%rip), %rax
    pushq %rax
    popq %rax
    pushq %rax
    popq %rcx
    popq %rdx
    subq $32, %rsp
    callq backend_remote_inject
    addq $32, %rsp
    pushq %rax
    popq %rax
    movq -16(%rbp), %rax
    pushq %rax
    movabsq $0x80, %rax
    pushq %rax
    movq -8(%rbp), %rax
    pushq %rax
    movq L_RP(%rip), %rax
    pushq %rax
    popq %rcx
    popq %rdx
    popq %r8
    popq %r9
    subq $32, %rsp
    callq backend_remote_decode
    addq $32, %rsp
    movslq %eax, %rax
    pushq %rax
    movslq L_R_OK(%rip), %rax
    pushq %rax
    popq %rcx
    popq %rax
    cmpq %rcx, %rax
    setne %al
    movzbq %al, %rax
    pushq %rax
    popq %rax
    testq %rax, %rax
    jz L_if_end_21
    movabsq $0x7, %rax
    pushq %rax
    popq %rax
    movq %rbp, %rsp
    popq %rbp
    retq
    movq $0, %rax
    pushq %rax
    popq %rax
L_if_end_21:
    leaq L_OLEN(%rip), %rax
    pushq %rax
    movabsq $0x0, %rax
    pushq %rax
    popq %rcx
    popq %rax
    movq (%rax,%rcx,8), %rax
    pushq %rax
    movabsq $0x5, %rax
    pushq %rax
    popq %rcx
    popq %rax
    cmpq %rcx, %rax
    setne %al
    movzbq %al, %rax
    pushq %rax
    popq %rax
    testq %rax, %rax
    jz L_if_end_23
    movabsq $0x8, %rax
    pushq %rax
    popq %rax
    movq %rbp, %rsp
    popq %rbp
    retq
    movq $0, %rax
    pushq %rax
    popq %rax
L_if_end_23:
    leaq L_OUT(%rip), %rax
    pushq %rax
    movabsq $0x0, %rax
    pushq %rax
    popq %rcx
    popq %rax
    movzbq (%rax,%rcx,1), %rax
    pushq %rax
    movabsq $0x57, %rax
    pushq %rax
    popq %rcx
    popq %rax
    cmpq %rcx, %rax
    setne %al
    movzbq %al, %rax
    pushq %rax
    popq %rax
    testq %rax, %rax
    jz L_if_end_25
    movabsq $0x9, %rax
    pushq %rax
    popq %rax
    movq %rbp, %rsp
    popq %rbp
    retq
    movq $0, %rax
    pushq %rax
    popq %rax
L_if_end_25:
    movabsq $0x0, %rax
    pushq %rax
    popq %rax
    movq %rax, L_RP(%rip)
    movabsq $0xf, %rax
    pushq %rax
    leaq L_str_15(%rip), %rax
    pushq %rax
    popq %rax
    pushq %rax
    popq %rcx
    popq %rdx
    subq $32, %rsp
    callq L_rlit
    addq $32, %rsp
    pushq %rax
    popq %rax
    subq $32, %rsp
    callq L_rcrlf
    addq $32, %rsp
    pushq %rax
    popq %rax
    movabsq $0x11, %rax
    pushq %rax
    leaq L_str_16(%rip), %rax
    pushq %rax
    popq %rax
    pushq %rax
    popq %rcx
    popq %rdx
    subq $32, %rsp
    callq L_rlit
    addq $32, %rsp
    pushq %rax
    popq %rax
    subq $32, %rsp
    callq L_rcrlf
    addq $32, %rsp
    pushq %rax
    popq %rax
    subq $32, %rsp
    callq L_rcrlf
    addq $32, %rsp
    pushq %rax
    popq %rax
    movabsq $0x2, %rax
    pushq %rax
    leaq L_str_17(%rip), %rax
    pushq %rax
    popq %rax
    pushq %rax
    popq %rcx
    popq %rdx
    subq $32, %rsp
    callq L_rlit
    addq $32, %rsp
    pushq %rax
    popq %rax
    movq L_RP(%rip), %rax
    pushq %rax
    leaq L_RESP(%rip), %rax
    pushq %rax
    popq %rax
    pushq %rax
    popq %rcx
    popq %rdx
    subq $32, %rsp
    callq backend_remote_inject
    addq $32, %rsp
    pushq %rax
    popq %rax
    movq -16(%rbp), %rax
    pushq %rax
    movabsq $0x80, %rax
    pushq %rax
    movq -8(%rbp), %rax
    pushq %rax
    movq L_RP(%rip), %rax
    pushq %rax
    popq %rcx
    popq %rdx
    popq %r8
    popq %r9
    subq $32, %rsp
    callq backend_remote_decode
    addq $32, %rsp
    movslq %eax, %rax
    pushq %rax
    movslq L_R_NOTFOUND(%rip), %rax
    pushq %rax
    popq %rcx
    popq %rax
    cmpq %rcx, %rax
    setne %al
    movzbq %al, %rax
    pushq %rax
    popq %rax
    testq %rax, %rax
    jz L_if_end_27
    movabsq $0xa, %rax
    pushq %rax
    popq %rax
    movq %rbp, %rsp
    popq %rbp
    retq
    movq $0, %rax
    pushq %rax
    popq %rax
L_if_end_27:
    movabsq $0x0, %rax
    pushq %rax
    popq %rax
    movq %rax, L_RP(%rip)
    movabsq $0xe, %rax
    pushq %rax
    leaq L_str_18(%rip), %rax
    pushq %rax
    popq %rax
    pushq %rax
    popq %rcx
    popq %rdx
    subq $32, %rsp
    callq L_rlit
    addq $32, %rsp
    pushq %rax
    popq %rax
    movq L_RP(%rip), %rax
    pushq %rax
    leaq L_RESP(%rip), %rax
    pushq %rax
    popq %rax
    pushq %rax
    popq %rcx
    popq %rdx
    subq $32, %rsp
    callq backend_remote_inject
    addq $32, %rsp
    pushq %rax
    popq %rax
    movq -16(%rbp), %rax
    pushq %rax
    movabsq $0x80, %rax
    pushq %rax
    movq -8(%rbp), %rax
    pushq %rax
    movq L_RP(%rip), %rax
    pushq %rax
    popq %rcx
    popq %rdx
    popq %r8
    popq %r9
    subq $32, %rsp
    callq backend_remote_decode
    addq $32, %rsp
    movslq %eax, %rax
    pushq %rax
    movslq L_R_NOTFOUND(%rip), %rax
    pushq %rax
    popq %rcx
    popq %rax
    cmpq %rcx, %rax
    setne %al
    movzbq %al, %rax
    pushq %rax
    popq %rax
    testq %rax, %rax
    jz L_if_end_29
    movabsq $0xb, %rax
    pushq %rax
    popq %rax
    movq %rbp, %rsp
    popq %rbp
    retq
    movq $0, %rax
    pushq %rax
    popq %rax
L_if_end_29:
    movabsq $0x0, %rax
    pushq %rax
    popq %rax
    movq %rax, L_RP(%rip)
    movabsq $0xf, %rax
    pushq %rax
    leaq L_str_19(%rip), %rax
    pushq %rax
    popq %rax
    pushq %rax
    popq %rcx
    popq %rdx
    subq $32, %rsp
    callq L_rlit
    addq $32, %rsp
    pushq %rax
    popq %rax
    subq $32, %rsp
    callq L_rcrlf
    addq $32, %rsp
    pushq %rax
    popq %rax
    movabsq $0x11, %rax
    pushq %rax
    leaq L_str_20(%rip), %rax
    pushq %rax
    popq %rax
    pushq %rax
    popq %rcx
    popq %rdx
    subq $32, %rsp
    callq L_rlit
    addq $32, %rsp
    pushq %rax
    popq %rax
    subq $32, %rsp
    callq L_rcrlf
    addq $32, %rsp
    pushq %rax
    popq %rax
    subq $32, %rsp
    callq L_rcrlf
    addq $32, %rsp
    pushq %rax
    popq %rax
    movabsq $0x5, %rax
    pushq %rax
    leaq L_str_21(%rip), %rax
    pushq %rax
    popq %rax
    pushq %rax
    popq %rcx
    popq %rdx
    subq $32, %rsp
    callq L_rlit
    addq $32, %rsp
    pushq %rax
    popq %rax
    movq L_RP(%rip), %rax
    pushq %rax
    leaq L_RESP(%rip), %rax
    pushq %rax
    popq %rax
    pushq %rax
    popq %rcx
    popq %rdx
    subq $32, %rsp
    callq backend_remote_inject
    addq $32, %rsp
    pushq %rax
    popq %rax
    movq -16(%rbp), %rax
    pushq %rax
    movabsq $0x3, %rax
    pushq %rax
    movq -8(%rbp), %rax
    pushq %rax
    movq L_RP(%rip), %rax
    pushq %rax
    popq %rcx
    popq %rdx
    popq %r8
    popq %r9
    subq $32, %rsp
    callq backend_remote_decode
    addq $32, %rsp
    movslq %eax, %rax
    pushq %rax
    movslq L_R_TOOBIG(%rip), %rax
    pushq %rax
    popq %rcx
    popq %rax
    cmpq %rcx, %rax
    setne %al
    movzbq %al, %rax
    pushq %rax
    popq %rax
    testq %rax, %rax
    jz L_if_end_31
    movabsq $0xc, %rax
    pushq %rax
    popq %rax
    movq %rbp, %rsp
    popq %rbp
    retq
    movq $0, %rax
    pushq %rax
    popq %rax
L_if_end_31:
    movq -16(%rbp), %rax
    pushq %rax
    movabsq $0x80, %rax
    pushq %rax
    movq -8(%rbp), %rax
    pushq %rax
    movq L_RP(%rip), %rax
    pushq %rax
    popq %rcx
    popq %rdx
    popq %r8
    popq %r9
    subq $32, %rsp
    callq backend_remote_decode
    addq $32, %rsp
    movslq %eax, %rax
    pushq %rax
    movslq L_R_OK(%rip), %rax
    pushq %rax
    popq %rcx
    popq %rax
    cmpq %rcx, %rax
    setne %al
    movzbq %al, %rax
    pushq %rax
    popq %rax
    testq %rax, %rax
    jz L_if_end_33
    movabsq $0xd, %rax
    pushq %rax
    popq %rax
    movq %rbp, %rsp
    popq %rbp
    retq
    movq $0, %rax
    pushq %rax
    popq %rax
L_if_end_33:
    movq -16(%rbp), %rax
    pushq %rax
    movabsq $0x80, %rax
    pushq %rax
    leaq L_OUT2(%rip), %rax
    pushq %rax
    popq %rax
    pushq %rax
    movq L_RP(%rip), %rax
    pushq %rax
    popq %rcx
    popq %rdx
    popq %r8
    popq %r9
    subq $32, %rsp
    callq backend_remote_decode
    addq $32, %rsp
    movslq %eax, %rax
    pushq %rax
    movslq L_R_OK(%rip), %rax
    pushq %rax
    popq %rcx
    popq %rax
    cmpq %rcx, %rax
    setne %al
    movzbq %al, %rax
    pushq %rax
    popq %rax
    testq %rax, %rax
    jz L_if_end_35
    movabsq $0xe, %rax
    pushq %rax
    popq %rax
    movq %rbp, %rsp
    popq %rbp
    retq
    movq $0, %rax
    pushq %rax
    popq %rax
L_if_end_35:
    movabsq $0x0, %rax
    pushq %rax
    popq %rax
    movq %rax, -24(%rbp)
L_loop_top_36:
    movq -24(%rbp), %rax
    pushq %rax
    movabsq $0x5, %rax
    pushq %rax
    popq %rcx
    popq %rax
    cmpq %rcx, %rax
    setb %al
    movzbq %al, %rax
    pushq %rax
    popq %rax
    testq %rax, %rax
    jz L_loop_end_37
    leaq L_OUT(%rip), %rax
    pushq %rax
    movq -24(%rbp), %rax
    pushq %rax
    popq %rcx
    popq %rax
    movzbq (%rax,%rcx,1), %rax
    pushq %rax
    leaq L_OUT2(%rip), %rax
    pushq %rax
    movq -24(%rbp), %rax
    pushq %rax
    popq %rcx
    popq %rax
    movzbq (%rax,%rcx,1), %rax
    pushq %rax
    popq %rcx
    popq %rax
    cmpq %rcx, %rax
    setne %al
    movzbq %al, %rax
    pushq %rax
    popq %rax
    testq %rax, %rax
    jz L_if_end_39
    movabsq $0xf, %rax
    pushq %rax
    popq %rax
    movq %rbp, %rsp
    popq %rbp
    retq
    movq $0, %rax
    pushq %rax
    popq %rax
L_if_end_39:
    movq -24(%rbp), %rax
    pushq %rax
    movabsq $0x1, %rax
    pushq %rax
    popq %rcx
    popq %rax
    addq %rcx, %rax
    pushq %rax
    popq %rax
    movq %rax, -24(%rbp)
    movq $0, %rax
    pushq %rax
    popq %rax
    jmp L_loop_top_36
L_loop_end_37:
    movabsq $0x63, %rax
    pushq %rax
    popq %rax
    movq %rbp, %rsp
    popq %rbp
    retq
    movq $0, %rax
    pushq %rax
    movq $0, %rax
    movq %rbp, %rsp
    popq %rbp
    retq
    .seh_endproc
