# III Stage-0 Ring-3 codegen output
# Microsoft x64 ABI; gas syntax (AT&T); PE/COFF target
    .att_syntax
    .file 1 "<iii-source>"
    .section .rodata
L_str_0:
    .ascii "capability.iii\0"
L_str_1:
    .ascii "capability.iii\0"
L_str_2:
    .ascii "fs.iii\0"
L_str_3:
    .ascii "fs.iii\0"
L_str_4:
    .ascii "fs.iii\0"
L_str_5:
    .ascii "fs.iii\0"
L_str_6:
    .ascii "fs.iii\0"
L_str_7:
    .ascii "fs.iii\0"
L_str_8:
    .ascii "corpus_coverage.iii\0"
L_str_9:
    .ascii "self_model.iii\0"
L_str_10:
    .ascii "self_model.iii\0"
L_str_11:
    .ascii "self_model.iii\0"
L_str_12:
    .ascii "self_model.iii\0"
L_str_13:
    .ascii "self_model.iii\0"
L_str_14:
    .ascii "self_model.iii\0"
L_str_15:
    .ascii "self_model.iii\0"
L_str_16:
    .ascii "self_model.iii\0"
L_str_17:
    .ascii "self_model.iii\0"
L_str_18:
    .ascii "self_model.iii\0"
L_str_19:
    .ascii "self_model.iii\0"
L_str_20:
    .ascii "self_model.iii\0"
L_str_21:
    .ascii "./iii_sm_kat_m\0"
L_str_22:
    .ascii "./iii_sm_kat_c\0"
L_str_23:
    .ascii "./iii_sm_kat_m/a.iii\0"
L_str_24:
    .ascii "./iii_sm_kat_c/t.iii\0"
L_str_25:
    .ascii "module fixm\0"
L_str_26:
    .ascii "fn lf() -> u64 @export { return 1u64 }\0"
L_str_27:
    .ascii "fn rt() -> u64 @export { return lf() }\0"
L_str_28:
    .ascii "fn dk() -> u64 @export { return 2u64 }\0"
L_str_29:
    .ascii "module corpus_fixt\0"
L_str_30:
    .ascii "extern @abi(c-msvc-x64) fn rt() -> u64 from \"a.iii\"\0"
L_str_31:
    .ascii "fn fixmain() -> u64 { return rt() }\0"
L_str_32:
    .ascii "lf\0"
L_str_33:
    .ascii "rt\0"
L_str_34:
    .ascii "dk\0"
    .section .rodata
L_SENT:
    .quad 0xffffffffffffffff
L_MWRITE:
    .quad 0x2
    .section .bss
    .global L_P_MOD
L_P_MOD:
    .zero 384
    .global L_P_COR
L_P_COR:
    .zero 384
    .global L_P_A
L_P_A:
    .zero 384
    .global L_P_T
L_P_T:
    .zero 384
    .global L_C_A
L_C_A:
    .zero 4096
    .global L_C_T
L_C_T:
    .zero 4096
    .global L_NMBUF
L_NMBUF:
    .zero 1024
    .global L_CALB
L_CALB:
    .zero 2048
    .global L_RB1
L_RB1:
    .zero 256
    .global L_RB2
L_RB2:
    .zero 256
    .section .iii.ring3,"n"
    .asciz "bcopy"
    .text
    .seh_proc L_bcopy
L_bcopy:
    pushq %rbp
    .seh_pushreg %rbp
    movq %rsp, %rbp
    .seh_setframe %rbp, 0
    subq $1024, %rsp
    .seh_stackalloc 1024
    .seh_endprologue
    movq %rcx, -8(%rbp)
    movq %rdx, -16(%rbp)
    movq %r8, -24(%rbp)
    movq -8(%rbp), %rax
    pushq %rax
    popq %rax
    pushq %rax
    popq %rax
    movq %rax, -32(%rbp)
    movq -16(%rbp), %rax
    pushq %rax
    popq %rax
    pushq %rax
    popq %rax
    movq %rax, -40(%rbp)
    movabsq $0x0, %rax
    pushq %rax
    popq %rax
    movq %rax, -48(%rbp)
L_loop_top_0:
    movq -48(%rbp), %rax
    pushq %rax
    movq -24(%rbp), %rax
    pushq %rax
    popq %rcx
    popq %rax
    cmpq %rcx, %rax
    setb %al
    movzbq %al, %rax
    pushq %rax
    popq %rax
    testq %rax, %rax
    jz L_loop_end_1
    movq -32(%rbp), %rax
    pushq %rax
    movq -48(%rbp), %rax
    pushq %rax
    movq -40(%rbp), %rax
    pushq %rax
    movq -48(%rbp), %rax
    pushq %rax
    popq %rcx
    popq %rax
    movzbq (%rax,%rcx,1), %rax
    pushq %rax
    popq %rdx
    popq %rcx
    popq %rax
    movb %dl, (%rax,%rcx,1)
    movq -48(%rbp), %rax
    pushq %rax
    movabsq $0x1, %rax
    pushq %rax
    popq %rcx
    popq %rax
    addq %rcx, %rax
    pushq %rax
    popq %rax
    movq %rax, -48(%rbp)
    movq $0, %rax
    pushq %rax
    popq %rax
    jmp L_loop_top_0
L_loop_end_1:
    movq -32(%rbp), %rax
    pushq %rax
    movq -24(%rbp), %rax
    pushq %rax
    movabsq $0x0, %rax
    pushq %rax
    popq %rdx
    popq %rcx
    popq %rax
    movb %dl, (%rax,%rcx,1)
    movq -24(%rbp), %rax
    pushq %rax
    popq %rax
    movq %rbp, %rsp
    popq %rbp
    retq
    movq $0, %rax
    pushq %rax
    movq $0, %rax
    movq %rbp, %rsp
    popq %rbp
    retq
    .seh_endproc
    .section .iii.ring3,"n"
    .asciz "aline"
    .text
    .seh_proc L_aline
L_aline:
    pushq %rbp
    .seh_pushreg %rbp
    movq %rsp, %rbp
    .seh_setframe %rbp, 0
    subq $1024, %rsp
    .seh_stackalloc 1024
    .seh_endprologue
    movq %rcx, -8(%rbp)
    movq %rdx, -16(%rbp)
    movq %r8, -24(%rbp)
    movq %r9, -32(%rbp)
    movq -8(%rbp), %rax
    pushq %rax
    movq -16(%rbp), %rax
    pushq %rax
    popq %rcx
    popq %rax
    addq %rcx, %rax
    pushq %rax
    popq %rax
    pushq %rax
    popq %rax
    movq %rax, -40(%rbp)
    movq -24(%rbp), %rax
    pushq %rax
    popq %rax
    pushq %rax
    popq %rax
    movq %rax, -48(%rbp)
    movabsq $0x0, %rax
    pushq %rax
    popq %rax
    movq %rax, -56(%rbp)
L_loop_top_2:
    movq -56(%rbp), %rax
    pushq %rax
    movq -32(%rbp), %rax
    pushq %rax
    popq %rcx
    popq %rax
    cmpq %rcx, %rax
    setb %al
    movzbq %al, %rax
    pushq %rax
    popq %rax
    testq %rax, %rax
    jz L_loop_end_3
    movq -40(%rbp), %rax
    pushq %rax
    movq -56(%rbp), %rax
    pushq %rax
    movq -48(%rbp), %rax
    pushq %rax
    movq -56(%rbp), %rax
    pushq %rax
    popq %rcx
    popq %rax
    movzbq (%rax,%rcx,1), %rax
    pushq %rax
    popq %rdx
    popq %rcx
    popq %rax
    movb %dl, (%rax,%rcx,1)
    movq -56(%rbp), %rax
    pushq %rax
    movabsq $0x1, %rax
    pushq %rax
    popq %rcx
    popq %rax
    addq %rcx, %rax
    pushq %rax
    popq %rax
    movq %rax, -56(%rbp)
    movq $0, %rax
    pushq %rax
    popq %rax
    jmp L_loop_top_2
L_loop_end_3:
    movq -40(%rbp), %rax
    pushq %rax
    movq -32(%rbp), %rax
    pushq %rax
    movabsq $0xa, %rax
    pushq %rax
    popq %rdx
    popq %rcx
    popq %rax
    movb %dl, (%rax,%rcx,1)
    movq -16(%rbp), %rax
    pushq %rax
    movq -32(%rbp), %rax
    pushq %rax
    popq %rcx
    popq %rax
    addq %rcx, %rax
    pushq %rax
    movabsq $0x1, %rax
    pushq %rax
    popq %rcx
    popq %rax
    addq %rcx, %rax
    pushq %rax
    popq %rax
    movq %rbp, %rsp
    popq %rbp
    retq
    movq $0, %rax
    pushq %rax
    movq $0, %rax
    movq %rbp, %rsp
    popq %rbp
    retq
    .seh_endproc
    .section .iii.ring3,"n"
    .asciz "wfile"
    .text
    .seh_proc L_wfile
L_wfile:
    pushq %rbp
    .seh_pushreg %rbp
    movq %rsp, %rbp
    .seh_setframe %rbp, 0
    subq $1024, %rsp
    .seh_stackalloc 1024
    .seh_endprologue
    movq %rcx, -8(%rbp)
    movq %rdx, -16(%rbp)
    movq %r8, -24(%rbp)
    movq %r9, -32(%rbp)
    movl L_MWRITE(%rip), %eax
    pushq %rax
    movq -16(%rbp), %rax
    pushq %rax
    movq -8(%rbp), %rax
    pushq %rax
    popq %rcx
    popq %rdx
    popq %r8
    subq $32, %rsp
    callq fs_open
    addq $32, %rsp
    pushq %rax
    popq %rax
    movq %rax, -40(%rbp)
    movq -40(%rbp), %rax
    pushq %rax
    movabsq $0x0, %rax
    pushq %rax
    popq %rcx
    popq %rax
    cmpq %rcx, %rax
    sete %al
    movzbq %al, %rax
    pushq %rax
    popq %rax
    testq %rax, %rax
    jz L_if_end_5
    movabsq $0x1, %rax
    pushq %rax
    popq %rax
    negq %rax
    pushq %rax
    popq %rax
    movq %rbp, %rsp
    popq %rbp
    retq
    movq $0, %rax
    pushq %rax
    popq %rax
L_if_end_5:
    movq -32(%rbp), %rax
    pushq %rax
    movq -24(%rbp), %rax
    pushq %rax
    movq -40(%rbp), %rax
    pushq %rax
    popq %rcx
    popq %rdx
    popq %r8
    subq $32, %rsp
    callq fs_write
    addq $32, %rsp
    pushq %rax
    popq %rax
    movq %rax, -48(%rbp)
    movq -40(%rbp), %rax
    pushq %rax
    popq %rcx
    subq $32, %rsp
    callq fs_close
    addq $32, %rsp
    movslq %eax, %rax
    pushq %rax
    popq %rax
    movq -48(%rbp), %rax
    pushq %rax
    movq -32(%rbp), %rax
    pushq %rax
    popq %rcx
    popq %rax
    cmpq %rcx, %rax
    setne %al
    movzbq %al, %rax
    pushq %rax
    popq %rax
    testq %rax, %rax
    jz L_if_end_7
    movabsq $0x2, %rax
    pushq %rax
    popq %rax
    negq %rax
    pushq %rax
    popq %rax
    movq %rbp, %rsp
    popq %rbp
    retq
    movq $0, %rax
    pushq %rax
    popq %rax
L_if_end_7:
    movabsq $0x0, %rax
    pushq %rax
    popq %rax
    movq %rbp, %rsp
    popq %rbp
    retq
    movq $0, %rax
    pushq %rax
    movq $0, %rax
    movq %rbp, %rsp
    popq %rbp
    retq
    .seh_endproc
    .section .iii.ring3,"n"
    .asciz "beq"
    .text
    .seh_proc L_beq
L_beq:
    pushq %rbp
    .seh_pushreg %rbp
    movq %rsp, %rbp
    .seh_setframe %rbp, 0
    subq $1024, %rsp
    .seh_stackalloc 1024
    .seh_endprologue
    movq %rcx, -8(%rbp)
    movq %rdx, -16(%rbp)
    movq %r8, -24(%rbp)
    movq -8(%rbp), %rax
    pushq %rax
    popq %rax
    pushq %rax
    popq %rax
    movq %rax, -32(%rbp)
    movq -16(%rbp), %rax
    pushq %rax
    popq %rax
    pushq %rax
    popq %rax
    movq %rax, -40(%rbp)
    movabsq $0x0, %rax
    pushq %rax
    popq %rax
    movq %rax, -48(%rbp)
    movabsq $0x1, %rax
    pushq %rax
    popq %rax
    movq %rax, -56(%rbp)
L_loop_top_8:
    movq -48(%rbp), %rax
    pushq %rax
    movq -24(%rbp), %rax
    pushq %rax
    popq %rcx
    popq %rax
    cmpq %rcx, %rax
    setb %al
    movzbq %al, %rax
    pushq %rax
    popq %rax
    testq %rax, %rax
    jz L_loop_end_9
    movq -32(%rbp), %rax
    pushq %rax
    movq -48(%rbp), %rax
    pushq %rax
    popq %rcx
    popq %rax
    movzbq (%rax,%rcx,1), %rax
    pushq %rax
    movq -40(%rbp), %rax
    pushq %rax
    movq -48(%rbp), %rax
    pushq %rax
    popq %rcx
    popq %rax
    movzbq (%rax,%rcx,1), %rax
    pushq %rax
    popq %rcx
    popq %rax
    cmpq %rcx, %rax
    setne %al
    movzbq %al, %rax
    pushq %rax
    popq %rax
    testq %rax, %rax
    jz L_if_end_11
    movabsq $0x0, %rax
    pushq %rax
    popq %rax
    movq %rax, -56(%rbp)
    movq $0, %rax
    pushq %rax
    popq %rax
L_if_end_11:
    movq -48(%rbp), %rax
    pushq %rax
    movabsq $0x1, %rax
    pushq %rax
    popq %rcx
    popq %rax
    addq %rcx, %rax
    pushq %rax
    popq %rax
    movq %rax, -48(%rbp)
    movq $0, %rax
    pushq %rax
    popq %rax
    jmp L_loop_top_8
L_loop_end_9:
    movzbq -56(%rbp), %rax
    pushq %rax
    popq %rax
    movq %rbp, %rsp
    popq %rbp
    retq
    movq $0, %rax
    pushq %rax
    movq $0, %rax
    movq %rbp, %rsp
    popq %rbp
    retq
    .seh_endproc
    .section .iii.ring3,"n"
    .asciz "find_node"
    .text
    .seh_proc L_find_node
L_find_node:
    pushq %rbp
    .seh_pushreg %rbp
    movq %rsp, %rbp
    .seh_setframe %rbp, 0
    subq $1024, %rsp
    .seh_stackalloc 1024
    .seh_endprologue
    movq %rcx, -8(%rbp)
    movq %rdx, -16(%rbp)
    subq $32, %rsp
    callq sm_n_nodes
    addq $32, %rsp
    pushq %rax
    popq %rax
    movq %rax, -24(%rbp)
    movabsq $0x0, %rax
    pushq %rax
    popq %rax
    movq %rax, -32(%rbp)
    movq L_SENT(%rip), %rax
    pushq %rax
    popq %rax
    movq %rax, -40(%rbp)
L_loop_top_12:
    movq -32(%rbp), %rax
    pushq %rax
    movq -24(%rbp), %rax
    pushq %rax
    popq %rcx
    popq %rax
    cmpq %rcx, %rax
    setb %al
    movzbq %al, %rax
    pushq %rax
    popq %rax
    testq %rax, %rax
    jz L_loop_end_13
    leaq L_NMBUF(%rip), %rax
    pushq %rax
    popq %rax
    pushq %rax
    movq -32(%rbp), %rax
    pushq %rax
    popq %rcx
    popq %rdx
    subq $32, %rsp
    callq cov_node_name
    addq $32, %rsp
    pushq %rax
    popq %rax
    movq %rax, -48(%rbp)
    movq -48(%rbp), %rax
    pushq %rax
    movq -16(%rbp), %rax
    pushq %rax
    popq %rcx
    popq %rax
    cmpq %rcx, %rax
    sete %al
    movzbq %al, %rax
    pushq %rax
    popq %rax
    testq %rax, %rax
    jz L_if_end_15
    movq -16(%rbp), %rax
    pushq %rax
    movq -8(%rbp), %rax
    pushq %rax
    leaq L_NMBUF(%rip), %rax
    pushq %rax
    popq %rax
    pushq %rax
    popq %rcx
    popq %rdx
    popq %r8
    subq $32, %rsp
    callq L_beq
    addq $32, %rsp
    movzbq %al, %rax
    pushq %rax
    movabsq $0x1, %rax
    pushq %rax
    popq %rcx
    popq %rax
    cmpq %rcx, %rax
    sete %al
    movzbq %al, %rax
    pushq %rax
    popq %rax
    testq %rax, %rax
    jz L_if_end_17
    movq -32(%rbp), %rax
    pushq %rax
    popq %rax
    movq %rax, -40(%rbp)
    movq $0, %rax
    pushq %rax
    popq %rax
L_if_end_17:
    movq $0, %rax
    pushq %rax
    popq %rax
L_if_end_15:
    movq -32(%rbp), %rax
    pushq %rax
    movabsq $0x1, %rax
    pushq %rax
    popq %rcx
    popq %rax
    addq %rcx, %rax
    pushq %rax
    popq %rax
    movq %rax, -32(%rbp)
    movq $0, %rax
    pushq %rax
    popq %rax
    jmp L_loop_top_12
L_loop_end_13:
    movq -40(%rbp), %rax
    pushq %rax
    popq %rax
    movq %rbp, %rsp
    popq %rbp
    retq
    movq $0, %rax
    pushq %rax
    movq $0, %rax
    movq %rbp, %rsp
    popq %rbp
    retq
    .seh_endproc
    .section .iii.ring3,"n"
    .asciz "has_callee"
    .text
    .seh_proc L_has_callee
L_has_callee:
    pushq %rbp
    .seh_pushreg %rbp
    movq %rsp, %rbp
    .seh_setframe %rbp, 0
    subq $1024, %rsp
    .seh_stackalloc 1024
    .seh_endprologue
    movq %rcx, -8(%rbp)
    movq %rdx, -16(%rbp)
    leaq L_CALB(%rip), %rax
    pushq %rax
    popq %rax
    pushq %rax
    movq -8(%rbp), %rax
    pushq %rax
    popq %rcx
    popq %rdx
    subq $32, %rsp
    callq sm_node_callees
    addq $32, %rsp
    pushq %rax
    popq %rax
    movq %rax, -24(%rbp)
    leaq L_CALB(%rip), %rax
    pushq %rax
    popq %rax
    pushq %rax
    popq %rax
    pushq %rax
    popq %rax
    movq %rax, -32(%rbp)
    movabsq $0x0, %rax
    pushq %rax
    popq %rax
    movq %rax, -40(%rbp)
    movabsq $0x0, %rax
    pushq %rax
    popq %rax
    movq %rax, -48(%rbp)
L_loop_top_18:
    movq -40(%rbp), %rax
    pushq %rax
    movq -24(%rbp), %rax
    pushq %rax
    popq %rcx
    popq %rax
    cmpq %rcx, %rax
    setb %al
    movzbq %al, %rax
    pushq %rax
    popq %rax
    testq %rax, %rax
    jz L_loop_end_19
    movq -32(%rbp), %rax
    pushq %rax
    movq -40(%rbp), %rax
    pushq %rax
    popq %rcx
    popq %rax
    movq (%rax,%rcx,8), %rax
    pushq %rax
    movq -16(%rbp), %rax
    pushq %rax
    popq %rcx
    popq %rax
    cmpq %rcx, %rax
    sete %al
    movzbq %al, %rax
    pushq %rax
    popq %rax
    testq %rax, %rax
    jz L_if_end_21
    movabsq $0x1, %rax
    pushq %rax
    popq %rax
    movq %rax, -48(%rbp)
    movq $0, %rax
    pushq %rax
    popq %rax
L_if_end_21:
    movq -40(%rbp), %rax
    pushq %rax
    movabsq $0x1, %rax
    pushq %rax
    popq %rcx
    popq %rax
    addq %rcx, %rax
    pushq %rax
    popq %rax
    movq %rax, -40(%rbp)
    movq $0, %rax
    pushq %rax
    popq %rax
    jmp L_loop_top_18
L_loop_end_19:
    movzbq -48(%rbp), %rax
    pushq %rax
    popq %rax
    movq %rbp, %rsp
    popq %rbp
    retq
    movq $0, %rax
    pushq %rax
    movq $0, %rax
    movq %rbp, %rsp
    popq %rbp
    retq
    .seh_endproc
    .section .iii.ring3,"n"
    .asciz "build_fixture"
    .text
    .seh_proc L_build_fixture
L_build_fixture:
    pushq %rbp
    .seh_pushreg %rbp
    movq %rsp, %rbp
    .seh_setframe %rbp, 0
    subq $1024, %rsp
    .seh_stackalloc 1024
    .seh_endprologue
    movq %rcx, -8(%rbp)
    movabsq $0xe, %rax
    pushq %rax
    leaq L_str_21(%rip), %rax
    pushq %rax
    popq %rax
    pushq %rax
    leaq L_P_MOD(%rip), %rax
    pushq %rax
    popq %rax
    pushq %rax
    popq %rcx
    popq %rdx
    popq %r8
    subq $32, %rsp
    callq L_bcopy
    addq $32, %rsp
    pushq %rax
    popq %rax
    movabsq $0xe, %rax
    pushq %rax
    leaq L_str_22(%rip), %rax
    pushq %rax
    popq %rax
    pushq %rax
    leaq L_P_COR(%rip), %rax
    pushq %rax
    popq %rax
    pushq %rax
    popq %rcx
    popq %rdx
    popq %r8
    subq $32, %rsp
    callq L_bcopy
    addq $32, %rsp
    pushq %rax
    popq %rax
    movabsq $0x14, %rax
    pushq %rax
    leaq L_str_23(%rip), %rax
    pushq %rax
    popq %rax
    pushq %rax
    leaq L_P_A(%rip), %rax
    pushq %rax
    popq %rax
    pushq %rax
    popq %rcx
    popq %rdx
    popq %r8
    subq $32, %rsp
    callq L_bcopy
    addq $32, %rsp
    pushq %rax
    popq %rax
    movabsq $0x14, %rax
    pushq %rax
    leaq L_str_24(%rip), %rax
    pushq %rax
    popq %rax
    pushq %rax
    leaq L_P_T(%rip), %rax
    pushq %rax
    popq %rax
    pushq %rax
    popq %rcx
    popq %rdx
    popq %r8
    subq $32, %rsp
    callq L_bcopy
    addq $32, %rsp
    pushq %rax
    popq %rax
    movabsq $0x0, %rax
    pushq %rax
    popq %rax
    movq %rax, -16(%rbp)
    movabsq $0xb, %rax
    pushq %rax
    leaq L_str_25(%rip), %rax
    pushq %rax
    popq %rax
    pushq %rax
    movq -16(%rbp), %rax
    pushq %rax
    leaq L_C_A(%rip), %rax
    pushq %rax
    popq %rax
    pushq %rax
    popq %rcx
    popq %rdx
    popq %r8
    popq %r9
    subq $32, %rsp
    callq L_aline
    addq $32, %rsp
    pushq %rax
    popq %rax
    movq %rax, -16(%rbp)
    movabsq $0x26, %rax
    pushq %rax
    leaq L_str_26(%rip), %rax
    pushq %rax
    popq %rax
    pushq %rax
    movq -16(%rbp), %rax
    pushq %rax
    leaq L_C_A(%rip), %rax
    pushq %rax
    popq %rax
    pushq %rax
    popq %rcx
    popq %rdx
    popq %r8
    popq %r9
    subq $32, %rsp
    callq L_aline
    addq $32, %rsp
    pushq %rax
    popq %rax
    movq %rax, -16(%rbp)
    movabsq $0x26, %rax
    pushq %rax
    leaq L_str_27(%rip), %rax
    pushq %rax
    popq %rax
    pushq %rax
    movq -16(%rbp), %rax
    pushq %rax
    leaq L_C_A(%rip), %rax
    pushq %rax
    popq %rax
    pushq %rax
    popq %rcx
    popq %rdx
    popq %r8
    popq %r9
    subq $32, %rsp
    callq L_aline
    addq $32, %rsp
    pushq %rax
    popq %rax
    movq %rax, -16(%rbp)
    movabsq $0x26, %rax
    pushq %rax
    leaq L_str_28(%rip), %rax
    pushq %rax
    popq %rax
    pushq %rax
    movq -16(%rbp), %rax
    pushq %rax
    leaq L_C_A(%rip), %rax
    pushq %rax
    popq %rax
    pushq %rax
    popq %rcx
    popq %rdx
    popq %r8
    popq %r9
    subq $32, %rsp
    callq L_aline
    addq $32, %rsp
    pushq %rax
    popq %rax
    movq %rax, -16(%rbp)
    movabsq $0x0, %rax
    pushq %rax
    popq %rax
    movq %rax, -24(%rbp)
    movabsq $0x12, %rax
    pushq %rax
    leaq L_str_29(%rip), %rax
    pushq %rax
    popq %rax
    pushq %rax
    movq -24(%rbp), %rax
    pushq %rax
    leaq L_C_T(%rip), %rax
    pushq %rax
    popq %rax
    pushq %rax
    popq %rcx
    popq %rdx
    popq %r8
    popq %r9
    subq $32, %rsp
    callq L_aline
    addq $32, %rsp
    pushq %rax
    popq %rax
    movq %rax, -24(%rbp)
    movabsq $0x33, %rax
    pushq %rax
    leaq L_str_30(%rip), %rax
    pushq %rax
    popq %rax
    pushq %rax
    movq -24(%rbp), %rax
    pushq %rax
    leaq L_C_T(%rip), %rax
    pushq %rax
    popq %rax
    pushq %rax
    popq %rcx
    popq %rdx
    popq %r8
    popq %r9
    subq $32, %rsp
    callq L_aline
    addq $32, %rsp
    pushq %rax
    popq %rax
    movq %rax, -24(%rbp)
    movabsq $0x23, %rax
    pushq %rax
    leaq L_str_31(%rip), %rax
    pushq %rax
    popq %rax
    pushq %rax
    movq -24(%rbp), %rax
    pushq %rax
    leaq L_C_T(%rip), %rax
    pushq %rax
    popq %rax
    pushq %rax
    popq %rcx
    popq %rdx
    popq %r8
    popq %r9
    subq $32, %rsp
    callq L_aline
    addq $32, %rsp
    pushq %rax
    popq %rax
    movq %rax, -24(%rbp)
    leaq L_P_MOD(%rip), %rax
    pushq %rax
    popq %rax
    pushq %rax
    movq -8(%rbp), %rax
    pushq %rax
    popq %rcx
    popq %rdx
    subq $32, %rsp
    callq fs_mkdir
    addq $32, %rsp
    movslq %eax, %rax
    pushq %rax
    movabsq $0x0, %rax
    pushq %rax
    popq %rcx
    popq %rax
    cmpq %rcx, %rax
    setne %al
    movzbq %al, %rax
    pushq %rax
    popq %rax
    testq %rax, %rax
    jz L_if_end_23
    movabsq $0x1, %rax
    pushq %rax
    popq %rax
    movq %rbp, %rsp
    popq %rbp
    retq
    movq $0, %rax
    pushq %rax
    popq %rax
L_if_end_23:
    leaq L_P_COR(%rip), %rax
    pushq %rax
    popq %rax
    pushq %rax
    movq -8(%rbp), %rax
    pushq %rax
    popq %rcx
    popq %rdx
    subq $32, %rsp
    callq fs_mkdir
    addq $32, %rsp
    movslq %eax, %rax
    pushq %rax
    movabsq $0x0, %rax
    pushq %rax
    popq %rcx
    popq %rax
    cmpq %rcx, %rax
    setne %al
    movzbq %al, %rax
    pushq %rax
    popq %rax
    testq %rax, %rax
    jz L_if_end_25
    movabsq $0x2, %rax
    pushq %rax
    popq %rax
    movq %rbp, %rsp
    popq %rbp
    retq
    movq $0, %rax
    pushq %rax
    popq %rax
L_if_end_25:
    movq -16(%rbp), %rax
    pushq %rax
    leaq L_C_A(%rip), %rax
    pushq %rax
    popq %rax
    pushq %rax
    leaq L_P_A(%rip), %rax
    pushq %rax
    popq %rax
    pushq %rax
    movq -8(%rbp), %rax
    pushq %rax
    popq %rcx
    popq %rdx
    popq %r8
    popq %r9
    subq $32, %rsp
    callq L_wfile
    addq $32, %rsp
    movslq %eax, %rax
    pushq %rax
    movabsq $0x0, %rax
    pushq %rax
    popq %rcx
    popq %rax
    cmpq %rcx, %rax
    setne %al
    movzbq %al, %rax
    pushq %rax
    popq %rax
    testq %rax, %rax
    jz L_if_end_27
    movabsq $0x3, %rax
    pushq %rax
    popq %rax
    movq %rbp, %rsp
    popq %rbp
    retq
    movq $0, %rax
    pushq %rax
    popq %rax
L_if_end_27:
    movq -24(%rbp), %rax
    pushq %rax
    leaq L_C_T(%rip), %rax
    pushq %rax
    popq %rax
    pushq %rax
    leaq L_P_T(%rip), %rax
    pushq %rax
    popq %rax
    pushq %rax
    movq -8(%rbp), %rax
    pushq %rax
    popq %rcx
    popq %rdx
    popq %r8
    popq %r9
    subq $32, %rsp
    callq L_wfile
    addq $32, %rsp
    movslq %eax, %rax
    pushq %rax
    movabsq $0x0, %rax
    pushq %rax
    popq %rcx
    popq %rax
    cmpq %rcx, %rax
    setne %al
    movzbq %al, %rax
    pushq %rax
    popq %rax
    testq %rax, %rax
    jz L_if_end_29
    movabsq $0x4, %rax
    pushq %rax
    popq %rax
    movq %rbp, %rsp
    popq %rbp
    retq
    movq $0, %rax
    pushq %rax
    popq %rax
L_if_end_29:
    movabsq $0x0, %rax
    pushq %rax
    popq %rax
    movq %rbp, %rsp
    popq %rbp
    retq
    movq $0, %rax
    pushq %rax
    movq $0, %rax
    movq %rbp, %rsp
    popq %rbp
    retq
    .seh_endproc
    .section .iii.ring3,"n"
    .asciz "cleanup"
    .text
    .seh_proc L_cleanup
L_cleanup:
    pushq %rbp
    .seh_pushreg %rbp
    movq %rsp, %rbp
    .seh_setframe %rbp, 0
    subq $1024, %rsp
    .seh_stackalloc 1024
    .seh_endprologue
    movq %rcx, -8(%rbp)
    leaq L_P_A(%rip), %rax
    pushq %rax
    popq %rax
    pushq %rax
    movq -8(%rbp), %rax
    pushq %rax
    popq %rcx
    popq %rdx
    subq $32, %rsp
    callq fs_delete
    addq $32, %rsp
    movslq %eax, %rax
    pushq %rax
    popq %rax
    leaq L_P_T(%rip), %rax
    pushq %rax
    popq %rax
    pushq %rax
    movq -8(%rbp), %rax
    pushq %rax
    popq %rcx
    popq %rdx
    subq $32, %rsp
    callq fs_delete
    addq $32, %rsp
    movslq %eax, %rax
    pushq %rax
    popq %rax
    leaq L_P_MOD(%rip), %rax
    pushq %rax
    popq %rax
    pushq %rax
    movq -8(%rbp), %rax
    pushq %rax
    popq %rcx
    popq %rdx
    subq $32, %rsp
    callq fs_rmdir
    addq $32, %rsp
    movslq %eax, %rax
    pushq %rax
    popq %rax
    leaq L_P_COR(%rip), %rax
    pushq %rax
    popq %rax
    pushq %rax
    movq -8(%rbp), %rax
    pushq %rax
    popq %rcx
    popq %rdx
    subq $32, %rsp
    callq fs_rmdir
    addq $32, %rsp
    movslq %eax, %rax
    pushq %rax
    popq %rax
    movabsq $0x0, %rax
    pushq %rax
    popq %rax
    movq %rbp, %rsp
    popq %rbp
    retq
    movq $0, %rax
    pushq %rax
    movq $0, %rax
    movq %rbp, %rsp
    popq %rbp
    retq
    .seh_endproc
    .section .iii.ring3,"n"
    .asciz "main"
    .text
    .global main
    .seh_proc main
main:
    pushq %rbp
    .seh_pushreg %rbp
    movq %rsp, %rbp
    .seh_setframe %rbp, 0
    subq $1024, %rsp
    .seh_stackalloc 1024
    .seh_endprologue
    subq $32, %rsp
    callq cap_env_init
    addq $32, %rsp
    pushq %rax
    popq %rax
    movq %rax, -8(%rbp)
    movabsq $0x0, %rax
    pushq %rax
    movabsq $0xe, %rax
    pushq %rax
    movq -8(%rbp), %rax
    pushq %rax
    popq %rcx
    popq %rdx
    popq %r8
    subq $32, %rsp
    callq cap_attenuate
    addq $32, %rsp
    pushq %rax
    popq %rax
    movq %rax, -16(%rbp)
    movq -16(%rbp), %rax
    pushq %rax
    popq %rcx
    subq $32, %rsp
    callq L_build_fixture
    addq $32, %rsp
    movslq %eax, %rax
    pushq %rax
    popq %rax
    movq %rax, -24(%rbp)
    movslq -24(%rbp), %rax
    pushq %rax
    movabsq $0x0, %rax
    pushq %rax
    popq %rcx
    popq %rax
    cmpq %rcx, %rax
    setne %al
    movzbq %al, %rax
    pushq %rax
    popq %rax
    testq %rax, %rax
    jz L_if_end_31
    movq -16(%rbp), %rax
    pushq %rax
    popq %rcx
    subq $32, %rsp
    callq L_cleanup
    addq $32, %rsp
    movslq %eax, %rax
    pushq %rax
    popq %rax
    movabsq $0x64, %rax
    pushq %rax
    movslq -24(%rbp), %rax
    pushq %rax
    popq %rax
    pushq %rax
    popq %rcx
    popq %rax
    addq %rcx, %rax
    pushq %rax
    popq %rax
    movq %rbp, %rsp
    popq %rbp
    retq
    movq $0, %rax
    pushq %rax
    popq %rax
L_if_end_31:
    leaq L_P_COR(%rip), %rax
    pushq %rax
    popq %rax
    pushq %rax
    leaq L_P_MOD(%rip), %rax
    pushq %rax
    popq %rax
    pushq %rax
    movq -16(%rbp), %rax
    pushq %rax
    popq %rcx
    popq %rdx
    popq %r8
    subq $32, %rsp
    callq sm_build
    addq $32, %rsp
    pushq %rax
    popq %rax
    movq %rax, -32(%rbp)
    leaq L_RB1(%rip), %rax
    pushq %rax
    popq %rax
    pushq %rax
    popq %rcx
    subq $32, %rsp
    callq sm_root
    addq $32, %rsp
    movslq %eax, %rax
    pushq %rax
    popq %rax
    movabsq $0x2, %rax
    pushq %rax
    leaq L_str_32(%rip), %rax
    pushq %rax
    popq %rax
    pushq %rax
    popq %rcx
    popq %rdx
    subq $32, %rsp
    callq L_find_node
    addq $32, %rsp
    pushq %rax
    popq %rax
    movq %rax, -40(%rbp)
    movabsq $0x2, %rax
    pushq %rax
    leaq L_str_33(%rip), %rax
    pushq %rax
    popq %rax
    pushq %rax
    popq %rcx
    popq %rdx
    subq $32, %rsp
    callq L_find_node
    addq $32, %rsp
    pushq %rax
    popq %rax
    movq %rax, -48(%rbp)
    movabsq $0x2, %rax
    pushq %rax
    leaq L_str_34(%rip), %rax
    pushq %rax
    popq %rax
    pushq %rax
    popq %rcx
    popq %rdx
    subq $32, %rsp
    callq L_find_node
    addq $32, %rsp
    pushq %rax
    popq %rax
    movq %rax, -56(%rbp)
    movabsq $0x0, %rax
    pushq %rax
    popq %rax
    movq %rax, -64(%rbp)
    movabsq $0x0, %rax
    pushq %rax
    popq %rax
    movq %rax, -72(%rbp)
    movq -56(%rbp), %rax
    pushq %rax
    movq L_SENT(%rip), %rax
    pushq %rax
    popq %rcx
    popq %rax
    cmpq %rcx, %rax
    setne %al
    movzbq %al, %rax
    pushq %rax
    popq %rax
    testq %rax, %rax
    jz L_if_end_33
    movq -56(%rbp), %rax
    pushq %rax
    popq %rcx
    subq $32, %rsp
    callq sm_node_dark
    addq $32, %rsp
    movzbq %al, %rax
    pushq %rax
    popq %rax
    movq %rax, -64(%rbp)
    movq $0, %rax
    pushq %rax
    popq %rax
L_if_end_33:
    movq -48(%rbp), %rax
    pushq %rax
    movq L_SENT(%rip), %rax
    pushq %rax
    popq %rcx
    popq %rax
    cmpq %rcx, %rax
    setne %al
    movzbq %al, %rax
    pushq %rax
    popq %rax
    testq %rax, %rax
    jz L_if_end_35
    movq -40(%rbp), %rax
    pushq %rax
    movq L_SENT(%rip), %rax
    pushq %rax
    popq %rcx
    popq %rax
    cmpq %rcx, %rax
    setne %al
    movzbq %al, %rax
    pushq %rax
    popq %rax
    testq %rax, %rax
    jz L_if_end_37
    movq -40(%rbp), %rax
    pushq %rax
    movq -48(%rbp), %rax
    pushq %rax
    popq %rcx
    popq %rdx
    subq $32, %rsp
    callq L_has_callee
    addq $32, %rsp
    movzbq %al, %rax
    pushq %rax
    popq %rax
    movq %rax, -72(%rbp)
    movq $0, %rax
    pushq %rax
    popq %rax
L_if_end_37:
    movq $0, %rax
    pushq %rax
    popq %rax
L_if_end_35:
    leaq L_P_COR(%rip), %rax
    pushq %rax
    popq %rax
    pushq %rax
    leaq L_P_MOD(%rip), %rax
    pushq %rax
    popq %rax
    pushq %rax
    movq -16(%rbp), %rax
    pushq %rax
    popq %rcx
    popq %rdx
    popq %r8
    subq $32, %rsp
    callq sm_build
    addq $32, %rsp
    pushq %rax
    popq %rax
    movq %rax, -80(%rbp)
    leaq L_RB2(%rip), %rax
    pushq %rax
    popq %rax
    pushq %rax
    popq %rcx
    subq $32, %rsp
    callq sm_root
    addq $32, %rsp
    movslq %eax, %rax
    pushq %rax
    popq %rax
    leaq L_RB2(%rip), %rax
    pushq %rax
    popq %rax
    pushq %rax
    leaq L_RB1(%rip), %rax
    pushq %rax
    popq %rax
    pushq %rax
    popq %rcx
    popq %rdx
    subq $32, %rsp
    callq sm_diff
    addq $32, %rsp
    pushq %rax
    popq %rax
    movq %rax, -88(%rbp)
    movq -40(%rbp), %rax
    pushq %rax
    movq L_SENT(%rip), %rax
    pushq %rax
    popq %rcx
    popq %rax
    cmpq %rcx, %rax
    setne %al
    movzbq %al, %rax
    pushq %rax
    popq %rax
    testq %rax, %rax
    jz L_if_end_39
    movabsq $0x1, %rax
    pushq %rax
    movq -40(%rbp), %rax
    pushq %rax
    popq %rcx
    popq %rdx
    subq $32, %rsp
    callq sm_mark_proven
    addq $32, %rsp
    movslq %eax, %rax
    pushq %rax
    popq %rax
    movq $0, %rax
    pushq %rax
    popq %rax
L_if_end_39:
    leaq L_RB2(%rip), %rax
    pushq %rax
    popq %rax
    pushq %rax
    popq %rcx
    subq $32, %rsp
    callq sm_root
    addq $32, %rsp
    movslq %eax, %rax
    pushq %rax
    popq %rax
    leaq L_RB2(%rip), %rax
    pushq %rax
    popq %rax
    pushq %rax
    leaq L_RB1(%rip), %rax
    pushq %rax
    popq %rax
    pushq %rax
    popq %rcx
    popq %rdx
    subq $32, %rsp
    callq sm_diff
    addq $32, %rsp
    pushq %rax
    popq %rax
    movq %rax, -96(%rbp)
    movq -48(%rbp), %rax
    pushq %rax
    popq %rcx
    subq $32, %rsp
    callq sm_node_covered
    addq $32, %rsp
    movzbq %al, %rax
    pushq %rax
    popq %rax
    movq %rax, -104(%rbp)
    movq -48(%rbp), %rax
    pushq %rax
    popq %rcx
    subq $32, %rsp
    callq sm_node_cost
    addq $32, %rsp
    pushq %rax
    popq %rax
    movq %rax, -112(%rbp)
    subq $32, %rsp
    callq sm_next_gap
    addq $32, %rsp
    pushq %rax
    popq %rax
    movq %rax, -120(%rbp)
    movq -40(%rbp), %rax
    pushq %rax
    popq %rcx
    subq $32, %rsp
    callq sm_node_proven
    addq $32, %rsp
    movzbq %al, %rax
    pushq %rax
    popq %rax
    movq %rax, -128(%rbp)
    leaq L_NMBUF(%rip), %rax
    pushq %rax
    popq %rax
    pushq %rax
    movq -40(%rbp), %rax
    pushq %rax
    popq %rcx
    popq %rdx
    subq $32, %rsp
    callq sm_node_addr
    addq $32, %rsp
    movslq %eax, %rax
    pushq %rax
    popq %rax
    movq -16(%rbp), %rax
    pushq %rax
    popq %rcx
    subq $32, %rsp
    callq L_cleanup
    addq $32, %rsp
    movslq %eax, %rax
    pushq %rax
    popq %rax
    movq -32(%rbp), %rax
    pushq %rax
    movabsq $0x3, %rax
    pushq %rax
    popq %rcx
    popq %rax
    cmpq %rcx, %rax
    setb %al
    movzbq %al, %rax
    pushq %rax
    popq %rax
    testq %rax, %rax
    jz L_if_end_41
    movabsq $0xa, %rax
    pushq %rax
    popq %rax
    movq %rbp, %rsp
    popq %rbp
    retq
    movq $0, %rax
    pushq %rax
    popq %rax
L_if_end_41:
    movq -80(%rbp), %rax
    pushq %rax
    movq -32(%rbp), %rax
    pushq %rax
    popq %rcx
    popq %rax
    cmpq %rcx, %rax
    setne %al
    movzbq %al, %rax
    pushq %rax
    popq %rax
    testq %rax, %rax
    jz L_if_end_43
    movabsq $0xb, %rax
    pushq %rax
    popq %rax
    movq %rbp, %rsp
    popq %rbp
    retq
    movq $0, %rax
    pushq %rax
    popq %rax
L_if_end_43:
    movq -40(%rbp), %rax
    pushq %rax
    movq L_SENT(%rip), %rax
    pushq %rax
    popq %rcx
    popq %rax
    cmpq %rcx, %rax
    sete %al
    movzbq %al, %rax
    pushq %rax
    popq %rax
    testq %rax, %rax
    jz L_if_end_45
    movabsq $0xc, %rax
    pushq %rax
    popq %rax
    movq %rbp, %rsp
    popq %rbp
    retq
    movq $0, %rax
    pushq %rax
    popq %rax
L_if_end_45:
    movq -48(%rbp), %rax
    pushq %rax
    movq L_SENT(%rip), %rax
    pushq %rax
    popq %rcx
    popq %rax
    cmpq %rcx, %rax
    sete %al
    movzbq %al, %rax
    pushq %rax
    popq %rax
    testq %rax, %rax
    jz L_if_end_47
    movabsq $0xd, %rax
    pushq %rax
    popq %rax
    movq %rbp, %rsp
    popq %rbp
    retq
    movq $0, %rax
    pushq %rax
    popq %rax
L_if_end_47:
    movq -56(%rbp), %rax
    pushq %rax
    movq L_SENT(%rip), %rax
    pushq %rax
    popq %rcx
    popq %rax
    cmpq %rcx, %rax
    sete %al
    movzbq %al, %rax
    pushq %rax
    popq %rax
    testq %rax, %rax
    jz L_if_end_49
    movabsq $0xe, %rax
    pushq %rax
    popq %rax
    movq %rbp, %rsp
    popq %rbp
    retq
    movq $0, %rax
    pushq %rax
    popq %rax
L_if_end_49:
    movzbq -72(%rbp), %rax
    pushq %rax
    movabsq $0x1, %rax
    pushq %rax
    popq %rcx
    popq %rax
    cmpq %rcx, %rax
    setne %al
    movzbq %al, %rax
    pushq %rax
    popq %rax
    testq %rax, %rax
    jz L_if_end_51
    movabsq $0xf, %rax
    pushq %rax
    popq %rax
    movq %rbp, %rsp
    popq %rbp
    retq
    movq $0, %rax
    pushq %rax
    popq %rax
L_if_end_51:
    movzbq -64(%rbp), %rax
    pushq %rax
    movabsq $0x1, %rax
    pushq %rax
    popq %rcx
    popq %rax
    cmpq %rcx, %rax
    setne %al
    movzbq %al, %rax
    pushq %rax
    popq %rax
    testq %rax, %rax
    jz L_if_end_53
    movabsq $0x10, %rax
    pushq %rax
    popq %rax
    movq %rbp, %rsp
    popq %rbp
    retq
    movq $0, %rax
    pushq %rax
    popq %rax
L_if_end_53:
    movq -88(%rbp), %rax
    pushq %rax
    movabsq $0x0, %rax
    pushq %rax
    popq %rcx
    popq %rax
    cmpq %rcx, %rax
    setne %al
    movzbq %al, %rax
    pushq %rax
    popq %rax
    testq %rax, %rax
    jz L_if_end_55
    movabsq $0x11, %rax
    pushq %rax
    popq %rax
    movq %rbp, %rsp
    popq %rbp
    retq
    movq $0, %rax
    pushq %rax
    popq %rax
L_if_end_55:
    movq -96(%rbp), %rax
    pushq %rax
    movabsq $0x1, %rax
    pushq %rax
    popq %rcx
    popq %rax
    cmpq %rcx, %rax
    setne %al
    movzbq %al, %rax
    pushq %rax
    popq %rax
    testq %rax, %rax
    jz L_if_end_57
    movabsq $0x12, %rax
    pushq %rax
    popq %rax
    movq %rbp, %rsp
    popq %rbp
    retq
    movq $0, %rax
    pushq %rax
    popq %rax
L_if_end_57:
    movzbq -104(%rbp), %rax
    pushq %rax
    movabsq $0x1, %rax
    pushq %rax
    popq %rcx
    popq %rax
    cmpq %rcx, %rax
    setne %al
    movzbq %al, %rax
    pushq %rax
    popq %rax
    testq %rax, %rax
    jz L_if_end_59
    movabsq $0x13, %rax
    pushq %rax
    popq %rax
    movq %rbp, %rsp
    popq %rbp
    retq
    movq $0, %rax
    pushq %rax
    popq %rax
L_if_end_59:
    movq -112(%rbp), %rax
    pushq %rax
    movabsq $0x1, %rax
    pushq %rax
    popq %rcx
    popq %rax
    cmpq %rcx, %rax
    setb %al
    movzbq %al, %rax
    pushq %rax
    popq %rax
    testq %rax, %rax
    jz L_if_end_61
    movabsq $0x14, %rax
    pushq %rax
    popq %rax
    movq %rbp, %rsp
    popq %rbp
    retq
    movq $0, %rax
    pushq %rax
    popq %rax
L_if_end_61:
    movq -120(%rbp), %rax
    pushq %rax
    movq -32(%rbp), %rax
    pushq %rax
    popq %rcx
    popq %rax
    cmpq %rcx, %rax
    setae %al
    movzbq %al, %rax
    pushq %rax
    popq %rax
    testq %rax, %rax
    jz L_if_end_63
    movabsq $0x15, %rax
    pushq %rax
    popq %rax
    movq %rbp, %rsp
    popq %rbp
    retq
    movq $0, %rax
    pushq %rax
    popq %rax
L_if_end_63:
    movzbq -128(%rbp), %rax
    pushq %rax
    movabsq $0x1, %rax
    pushq %rax
    popq %rcx
    popq %rax
    cmpq %rcx, %rax
    setne %al
    movzbq %al, %rax
    pushq %rax
    popq %rax
    testq %rax, %rax
    jz L_if_end_65
    movabsq $0x16, %rax
    pushq %rax
    popq %rax
    movq %rbp, %rsp
    popq %rbp
    retq
    movq $0, %rax
    pushq %rax
    popq %rax
L_if_end_65:
    movabsq $0x63, %rax
    pushq %rax
    popq %rax
    movq %rbp, %rsp
    popq %rbp
    retq
    movq $0, %rax
    pushq %rax
    movq $0, %rax
    movq %rbp, %rsp
    popq %rbp
    retq
    .seh_endproc
