# III Stage-0 Ring-3 codegen output
# Microsoft x64 ABI; gas syntax (AT&T); PE/COFF target
    .att_syntax
    .file 1 "<iii-source>"
    .section .rodata
L_str_0:
    .ascii "msvcrt\0"
L_str_1:
    .ascii "msvcrt\0"
L_str_2:
    .ascii "bench.iii\0"
L_str_3:
    .ascii "bench.iii\0"
L_str_4:
    .ascii "hip.iii\0"
L_str_5:
    .ascii "hip.iii\0"
L_str_6:
    .ascii "hip.iii\0"
L_str_7:
    .ascii "hip.iii\0"
L_str_8:
    .ascii "idoc.iii\0"
L_str_9:
    .ascii "idoc.iii\0"
L_str_10:
    .ascii "idoc.iii\0"
L_str_11:
    .ascii "idoc.iii\0"
L_str_12:
    .ascii "babel_wire.iii\0"
L_str_13:
    .ascii "babel_wire.iii\0"
L_str_14:
    .ascii "babel_wire.iii\0"
L_str_15:
    .ascii "babel_wire.iii\0"
L_str_16:
    .ascii "babel_wire.iii\0"
L_str_17:
    .ascii "babel_wire.iii\0"
    .section .bss
    .global L_BENCH_HIP_DELTAS
L_BENCH_HIP_DELTAS:
    .zero 6400
    .section .rodata
L_C244_BUDGET_UNIQUE:
    .quad 0x7530
L_C244_BUDGET_AMBIGUOUS:
    .quad 0x88b8
L_C244_BUDGET_NO_MATCH:
    .quad 0x3a98
L_C244_BUDGET_IDOC:
    .quad 0x2ee0
L_C244_SAMPLES:
    .quad 0x64
    .section .bss
    .global L_C244_CANDS_PTR
L_C244_CANDS_PTR:
    .zero 64
    .global L_C244_META_PTR
L_C244_META_PTR:
    .zero 64
    .global L_C244_IDOC_ENV_PTR
L_C244_IDOC_ENV_PTR:
    .zero 64
    .global L_C244_IDOC_FIDS_PTR
L_C244_IDOC_FIDS_PTR:
    .zero 64
    .global L_C244_IDOC_FDPA_PTR
L_C244_IDOC_FDPA_PTR:
    .zero 64
    .global L_C244_IDOC_FLNA_PTR
L_C244_IDOC_FLNA_PTR:
    .zero 64
    .global L_C244_IDOC_OFD_PTR
L_C244_IDOC_OFD_PTR:
    .zero 64
    .global L_C244_IDOC_OFL_PTR
L_C244_IDOC_OFL_PTR:
    .zero 64
    .global L_C244_IDOC_DIG_PTR
L_C244_IDOC_DIG_PTR:
    .zero 64
    .section .iii.ring3,"n"
    .asciz "_read_u64"
    .text
    .seh_proc L__read_u64
L__read_u64:
    pushq %rbp
    .seh_pushreg %rbp
    movq %rsp, %rbp
    .seh_setframe %rbp, 0
    subq $1024, %rsp
    .seh_stackalloc 1024
    .seh_endprologue
    movq %rcx, -8(%rbp)
    movq %rdx, -16(%rbp)
    movq -8(%rbp), %rax
    pushq %rax
    popq %rax
    movq %rax, -24(%rbp)
    movq -16(%rbp), %rax
    pushq %rax
    popq %rax
    movq %rax, -32(%rbp)
    movabsq $0x0, %rax
    pushq %rax
    popq %rax
    movq %rax, -40(%rbp)
    movabsq $0x0, %rax
    pushq %rax
    popq %rax
    movq %rax, -48(%rbp)
L_loop_top_0:
    movq -48(%rbp), %rax
    pushq %rax
    movabsq $0x8, %rax
    pushq %rax
    popq %rcx
    popq %rax
    cmpq %rcx, %rax
    setb %al
    movzbq %al, %rax
    pushq %rax
    popq %rax
    testq %rax, %rax
    jz L_loop_end_1
    movq -24(%rbp), %rax
    pushq %rax
    movq -32(%rbp), %rax
    pushq %rax
    popq %rcx
    popq %rax
    addq %rcx, %rax
    pushq %rax
    movq -48(%rbp), %rax
    pushq %rax
    popq %rcx
    popq %rax
    addq %rcx, %rax
    pushq %rax
    popq %rax
    pushq %rax
    popq %rax
    movq %rax, -56(%rbp)
    movq -56(%rbp), %rax
    pushq %rax
    movabsq $0x0, %rax
    pushq %rax
    popq %rcx
    popq %rax
    movzbq (%rax,%rcx,1), %rax
    pushq %rax
    popq %rax
    pushq %rax
    movabsq $0xff, %rax
    pushq %rax
    popq %rcx
    popq %rax
    andq %rcx, %rax
    pushq %rax
    popq %rax
    movq %rax, -64(%rbp)
    movq -40(%rbp), %rax
    pushq %rax
    movq -64(%rbp), %rax
    pushq %rax
    movq -48(%rbp), %rax
    pushq %rax
    popq %rax
    shlq $3, %rax
    pushq %rax
    popq %rcx
    popq %rax
    shlq %cl, %rax
    pushq %rax
    popq %rcx
    popq %rax
    orq %rcx, %rax
    pushq %rax
    popq %rax
    movq %rax, -40(%rbp)
    movq -48(%rbp), %rax
    pushq %rax
    movabsq $0x1, %rax
    pushq %rax
    popq %rcx
    popq %rax
    addq %rcx, %rax
    pushq %rax
    popq %rax
    movq %rax, -48(%rbp)
    movq $0, %rax
    pushq %rax
    popq %rax
    jmp L_loop_top_0
L_loop_end_1:
    movq -40(%rbp), %rax
    pushq %rax
    popq %rax
    movq %rbp, %rsp
    popq %rbp
    retq
    movq $0, %rax
    pushq %rax
    movq $0, %rax
    movq %rbp, %rsp
    popq %rbp
    retq
    .seh_endproc
    .section .iii.ring3,"n"
    .asciz "_write_u64"
    .text
    .seh_proc L__write_u64
L__write_u64:
    pushq %rbp
    .seh_pushreg %rbp
    movq %rsp, %rbp
    .seh_setframe %rbp, 0
    subq $1024, %rsp
    .seh_stackalloc 1024
    .seh_endprologue
    movq %rcx, -8(%rbp)
    movq %rdx, -16(%rbp)
    movq %r8, -24(%rbp)
    movq -8(%rbp), %rax
    pushq %rax
    popq %rax
    movq %rax, -32(%rbp)
    movq -16(%rbp), %rax
    pushq %rax
    popq %rax
    movq %rax, -40(%rbp)
    movq -24(%rbp), %rax
    pushq %rax
    popq %rax
    movq %rax, -48(%rbp)
    movabsq $0x0, %rax
    pushq %rax
    popq %rax
    movq %rax, -56(%rbp)
L_loop_top_2:
    movq -56(%rbp), %rax
    pushq %rax
    movabsq $0x8, %rax
    pushq %rax
    popq %rcx
    popq %rax
    cmpq %rcx, %rax
    setb %al
    movzbq %al, %rax
    pushq %rax
    popq %rax
    testq %rax, %rax
    jz L_loop_end_3
    movq -32(%rbp), %rax
    pushq %rax
    movq -40(%rbp), %rax
    pushq %rax
    popq %rcx
    popq %rax
    addq %rcx, %rax
    pushq %rax
    movq -56(%rbp), %rax
    pushq %rax
    popq %rcx
    popq %rax
    addq %rcx, %rax
    pushq %rax
    popq %rax
    pushq %rax
    popq %rax
    movq %rax, -64(%rbp)
    movq -64(%rbp), %rax
    pushq %rax
    movabsq $0x0, %rax
    pushq %rax
    movq -48(%rbp), %rax
    pushq %rax
    movq -56(%rbp), %rax
    pushq %rax
    popq %rax
    shlq $3, %rax
    pushq %rax
    popq %rcx
    popq %rax
    shrq %cl, %rax
    pushq %rax
    movabsq $0xff, %rax
    pushq %rax
    popq %rcx
    popq %rax
    andq %rcx, %rax
    pushq %rax
    popq %rax
    movzbq %al, %rax
    pushq %rax
    popq %rdx
    popq %rcx
    popq %rax
    movb %dl, (%rax,%rcx,1)
    movq -56(%rbp), %rax
    pushq %rax
    movabsq $0x1, %rax
    pushq %rax
    popq %rcx
    popq %rax
    addq %rcx, %rax
    pushq %rax
    popq %rax
    movq %rax, -56(%rbp)
    movq $0, %rax
    pushq %rax
    popq %rax
    jmp L_loop_top_2
L_loop_end_3:
    movabsq $0x0, %rax
    pushq %rax
    popq %rax
    movq %rbp, %rsp
    popq %rbp
    retq
    movq $0, %rax
    pushq %rax
    movq $0, %rax
    movq %rbp, %rsp
    popq %rbp
    retq
    .seh_endproc
    .section .iii.ring3,"n"
    .asciz "_read_u32"
    .text
    .seh_proc L__read_u32
L__read_u32:
    pushq %rbp
    .seh_pushreg %rbp
    movq %rsp, %rbp
    .seh_setframe %rbp, 0
    subq $1024, %rsp
    .seh_stackalloc 1024
    .seh_endprologue
    movq %rcx, -8(%rbp)
    movq %rdx, -16(%rbp)
    movq -8(%rbp), %rax
    pushq %rax
    movq -16(%rbp), %rax
    pushq %rax
    popq %rcx
    popq %rax
    movzbq (%rax,%rcx,1), %rax
    pushq %rax
    popq %rax
    movl %eax, %eax
    pushq %rax
    movabsq $0xff, %rax
    pushq %rax
    popq %rcx
    popq %rax
    andq %rcx, %rax
    pushq %rax
    popq %rax
    movq %rax, -24(%rbp)
    movq -8(%rbp), %rax
    pushq %rax
    movq -16(%rbp), %rax
    pushq %rax
    movabsq $0x1, %rax
    pushq %rax
    popq %rcx
    popq %rax
    addq %rcx, %rax
    pushq %rax
    popq %rcx
    popq %rax
    movzbq (%rax,%rcx,1), %rax
    pushq %rax
    popq %rax
    movl %eax, %eax
    pushq %rax
    movabsq $0xff, %rax
    pushq %rax
    popq %rcx
    popq %rax
    andq %rcx, %rax
    pushq %rax
    popq %rax
    shlq $8, %rax
    movl %eax, %eax
    pushq %rax
    popq %rax
    movq %rax, -32(%rbp)
    movq -8(%rbp), %rax
    pushq %rax
    movq -16(%rbp), %rax
    pushq %rax
    movabsq $0x2, %rax
    pushq %rax
    popq %rcx
    popq %rax
    addq %rcx, %rax
    pushq %rax
    popq %rcx
    popq %rax
    movzbq (%rax,%rcx,1), %rax
    pushq %rax
    popq %rax
    movl %eax, %eax
    pushq %rax
    movabsq $0xff, %rax
    pushq %rax
    popq %rcx
    popq %rax
    andq %rcx, %rax
    pushq %rax
    popq %rax
    shlq $16, %rax
    movl %eax, %eax
    pushq %rax
    popq %rax
    movq %rax, -40(%rbp)
    movq -8(%rbp), %rax
    pushq %rax
    movq -16(%rbp), %rax
    pushq %rax
    movabsq $0x3, %rax
    pushq %rax
    popq %rcx
    popq %rax
    addq %rcx, %rax
    pushq %rax
    popq %rcx
    popq %rax
    movzbq (%rax,%rcx,1), %rax
    pushq %rax
    popq %rax
    movl %eax, %eax
    pushq %rax
    movabsq $0xff, %rax
    pushq %rax
    popq %rcx
    popq %rax
    andq %rcx, %rax
    pushq %rax
    popq %rax
    shlq $24, %rax
    movl %eax, %eax
    pushq %rax
    popq %rax
    movq %rax, -48(%rbp)
    movl -24(%rbp), %eax
    pushq %rax
    movl -32(%rbp), %eax
    pushq %rax
    popq %rcx
    popq %rax
    orq %rcx, %rax
    pushq %rax
    movl -40(%rbp), %eax
    pushq %rax
    popq %rcx
    popq %rax
    orq %rcx, %rax
    pushq %rax
    movl -48(%rbp), %eax
    pushq %rax
    popq %rcx
    popq %rax
    orq %rcx, %rax
    pushq %rax
    popq %rax
    movq %rbp, %rsp
    popq %rbp
    retq
    movq $0, %rax
    pushq %rax
    movq $0, %rax
    movq %rbp, %rsp
    popq %rbp
    retq
    .seh_endproc
    .section .iii.ring3,"n"
    .asciz "_put"
    .text
    .seh_proc L__put
L__put:
    pushq %rbp
    .seh_pushreg %rbp
    movq %rsp, %rbp
    .seh_setframe %rbp, 0
    subq $1024, %rsp
    .seh_stackalloc 1024
    .seh_endprologue
    movq %rcx, -8(%rbp)
    movq %rdx, -16(%rbp)
    movq %r8, -24(%rbp)
    movq -8(%rbp), %rax
    pushq %rax
    movq -16(%rbp), %rax
    pushq %rax
    movzbq -24(%rbp), %rax
    pushq %rax
    popq %rdx
    popq %rcx
    popq %rax
    movb %dl, (%rax,%rcx,1)
    movq -16(%rbp), %rax
    pushq %rax
    movabsq $0x1, %rax
    pushq %rax
    popq %rcx
    popq %rax
    addq %rcx, %rax
    pushq %rax
    popq %rax
    movq %rbp, %rsp
    popq %rbp
    retq
    movq $0, %rax
    pushq %rax
    movq $0, %rax
    movq %rbp, %rsp
    popq %rbp
    retq
    .seh_endproc
    .section .iii.ring3,"n"
    .asciz "_phrase_send_buffer"
    .text
    .seh_proc L__phrase_send_buffer
L__phrase_send_buffer:
    pushq %rbp
    .seh_pushreg %rbp
    movq %rsp, %rbp
    .seh_setframe %rbp, 0
    subq $1024, %rsp
    .seh_stackalloc 1024
    .seh_endprologue
    movq %rcx, -8(%rbp)
    movabsq $0x0, %rax
    pushq %rax
    popq %rax
    movq %rax, -16(%rbp)
    movabsq $0x73, %rax
    pushq %rax
    movq -16(%rbp), %rax
    pushq %rax
    movq -8(%rbp), %rax
    pushq %rax
    popq %rcx
    popq %rdx
    popq %r8
    subq $32, %rsp
    callq L__put
    addq $32, %rsp
    pushq %rax
    popq %rax
    movq %rax, -16(%rbp)
    movabsq $0x65, %rax
    pushq %rax
    movq -16(%rbp), %rax
    pushq %rax
    movq -8(%rbp), %rax
    pushq %rax
    popq %rcx
    popq %rdx
    popq %r8
    subq $32, %rsp
    callq L__put
    addq $32, %rsp
    pushq %rax
    popq %rax
    movq %rax, -16(%rbp)
    movabsq $0x6e, %rax
    pushq %rax
    movq -16(%rbp), %rax
    pushq %rax
    movq -8(%rbp), %rax
    pushq %rax
    popq %rcx
    popq %rdx
    popq %r8
    subq $32, %rsp
    callq L__put
    addq $32, %rsp
    pushq %rax
    popq %rax
    movq %rax, -16(%rbp)
    movabsq $0x64, %rax
    pushq %rax
    movq -16(%rbp), %rax
    pushq %rax
    movq -8(%rbp), %rax
    pushq %rax
    popq %rcx
    popq %rdx
    popq %r8
    subq $32, %rsp
    callq L__put
    addq $32, %rsp
    pushq %rax
    popq %rax
    movq %rax, -16(%rbp)
    movabsq $0x20, %rax
    pushq %rax
    movq -16(%rbp), %rax
    pushq %rax
    movq -8(%rbp), %rax
    pushq %rax
    popq %rcx
    popq %rdx
    popq %r8
    subq $32, %rsp
    callq L__put
    addq $32, %rsp
    pushq %rax
    popq %rax
    movq %rax, -16(%rbp)
    movabsq $0x62, %rax
    pushq %rax
    movq -16(%rbp), %rax
    pushq %rax
    movq -8(%rbp), %rax
    pushq %rax
    popq %rcx
    popq %rdx
    popq %r8
    subq $32, %rsp
    callq L__put
    addq $32, %rsp
    pushq %rax
    popq %rax
    movq %rax, -16(%rbp)
    movabsq $0x75, %rax
    pushq %rax
    movq -16(%rbp), %rax
    pushq %rax
    movq -8(%rbp), %rax
    pushq %rax
    popq %rcx
    popq %rdx
    popq %r8
    subq $32, %rsp
    callq L__put
    addq $32, %rsp
    pushq %rax
    popq %rax
    movq %rax, -16(%rbp)
    movabsq $0x66, %rax
    pushq %rax
    movq -16(%rbp), %rax
    pushq %rax
    movq -8(%rbp), %rax
    pushq %rax
    popq %rcx
    popq %rdx
    popq %r8
    subq $32, %rsp
    callq L__put
    addq $32, %rsp
    pushq %rax
    popq %rax
    movq %rax, -16(%rbp)
    movabsq $0x66, %rax
    pushq %rax
    movq -16(%rbp), %rax
    pushq %rax
    movq -8(%rbp), %rax
    pushq %rax
    popq %rcx
    popq %rdx
    popq %r8
    subq $32, %rsp
    callq L__put
    addq $32, %rsp
    pushq %rax
    popq %rax
    movq %rax, -16(%rbp)
    movabsq $0x65, %rax
    pushq %rax
    movq -16(%rbp), %rax
    pushq %rax
    movq -8(%rbp), %rax
    pushq %rax
    popq %rcx
    popq %rdx
    popq %r8
    subq $32, %rsp
    callq L__put
    addq $32, %rsp
    pushq %rax
    popq %rax
    movq %rax, -16(%rbp)
    movabsq $0x72, %rax
    pushq %rax
    movq -16(%rbp), %rax
    pushq %rax
    movq -8(%rbp), %rax
    pushq %rax
    popq %rcx
    popq %rdx
    popq %r8
    subq $32, %rsp
    callq L__put
    addq $32, %rsp
    pushq %rax
    popq %rax
    movq %rax, -16(%rbp)
    movq -16(%rbp), %rax
    pushq %rax
    popq %rax
    movl %eax, %eax
    pushq %rax
    popq %rax
    movq %rbp, %rsp
    popq %rbp
    retq
    movq $0, %rax
    pushq %rax
    movq $0, %rax
    movq %rbp, %rsp
    popq %rbp
    retq
    .seh_endproc
    .section .iii.ring3,"n"
    .asciz "_phrase_open_file"
    .text
    .seh_proc L__phrase_open_file
L__phrase_open_file:
    pushq %rbp
    .seh_pushreg %rbp
    movq %rsp, %rbp
    .seh_setframe %rbp, 0
    subq $1024, %rsp
    .seh_stackalloc 1024
    .seh_endprologue
    movq %rcx, -8(%rbp)
    movabsq $0x0, %rax
    pushq %rax
    popq %rax
    movq %rax, -16(%rbp)
    movabsq $0x6f, %rax
    pushq %rax
    movq -16(%rbp), %rax
    pushq %rax
    movq -8(%rbp), %rax
    pushq %rax
    popq %rcx
    popq %rdx
    popq %r8
    subq $32, %rsp
    callq L__put
    addq $32, %rsp
    pushq %rax
    popq %rax
    movq %rax, -16(%rbp)
    movabsq $0x70, %rax
    pushq %rax
    movq -16(%rbp), %rax
    pushq %rax
    movq -8(%rbp), %rax
    pushq %rax
    popq %rcx
    popq %rdx
    popq %r8
    subq $32, %rsp
    callq L__put
    addq $32, %rsp
    pushq %rax
    popq %rax
    movq %rax, -16(%rbp)
    movabsq $0x65, %rax
    pushq %rax
    movq -16(%rbp), %rax
    pushq %rax
    movq -8(%rbp), %rax
    pushq %rax
    popq %rcx
    popq %rdx
    popq %r8
    subq $32, %rsp
    callq L__put
    addq $32, %rsp
    pushq %rax
    popq %rax
    movq %rax, -16(%rbp)
    movabsq $0x6e, %rax
    pushq %rax
    movq -16(%rbp), %rax
    pushq %rax
    movq -8(%rbp), %rax
    pushq %rax
    popq %rcx
    popq %rdx
    popq %r8
    subq $32, %rsp
    callq L__put
    addq $32, %rsp
    pushq %rax
    popq %rax
    movq %rax, -16(%rbp)
    movabsq $0x20, %rax
    pushq %rax
    movq -16(%rbp), %rax
    pushq %rax
    movq -8(%rbp), %rax
    pushq %rax
    popq %rcx
    popq %rdx
    popq %r8
    subq $32, %rsp
    callq L__put
    addq $32, %rsp
    pushq %rax
    popq %rax
    movq %rax, -16(%rbp)
    movabsq $0x66, %rax
    pushq %rax
    movq -16(%rbp), %rax
    pushq %rax
    movq -8(%rbp), %rax
    pushq %rax
    popq %rcx
    popq %rdx
    popq %r8
    subq $32, %rsp
    callq L__put
    addq $32, %rsp
    pushq %rax
    popq %rax
    movq %rax, -16(%rbp)
    movabsq $0x69, %rax
    pushq %rax
    movq -16(%rbp), %rax
    pushq %rax
    movq -8(%rbp), %rax
    pushq %rax
    popq %rcx
    popq %rdx
    popq %r8
    subq $32, %rsp
    callq L__put
    addq $32, %rsp
    pushq %rax
    popq %rax
    movq %rax, -16(%rbp)
    movabsq $0x6c, %rax
    pushq %rax
    movq -16(%rbp), %rax
    pushq %rax
    movq -8(%rbp), %rax
    pushq %rax
    popq %rcx
    popq %rdx
    popq %r8
    subq $32, %rsp
    callq L__put
    addq $32, %rsp
    pushq %rax
    popq %rax
    movq %rax, -16(%rbp)
    movabsq $0x65, %rax
    pushq %rax
    movq -16(%rbp), %rax
    pushq %rax
    movq -8(%rbp), %rax
    pushq %rax
    popq %rcx
    popq %rdx
    popq %r8
    subq $32, %rsp
    callq L__put
    addq $32, %rsp
    pushq %rax
    popq %rax
    movq %rax, -16(%rbp)
    movq -16(%rbp), %rax
    pushq %rax
    popq %rax
    movl %eax, %eax
    pushq %rax
    popq %rax
    movq %rbp, %rsp
    popq %rbp
    retq
    movq $0, %rax
    pushq %rax
    movq $0, %rax
    movq %rbp, %rsp
    popq %rbp
    retq
    .seh_endproc
    .section .iii.ring3,"n"
    .asciz "_phrase_nomatch"
    .text
    .seh_proc L__phrase_nomatch
L__phrase_nomatch:
    pushq %rbp
    .seh_pushreg %rbp
    movq %rsp, %rbp
    .seh_setframe %rbp, 0
    subq $1024, %rsp
    .seh_stackalloc 1024
    .seh_endprologue
    movq %rcx, -8(%rbp)
    movabsq $0x0, %rax
    pushq %rax
    popq %rax
    movq %rax, -16(%rbp)
    movabsq $0x78, %rax
    pushq %rax
    movq -16(%rbp), %rax
    pushq %rax
    movq -8(%rbp), %rax
    pushq %rax
    popq %rcx
    popq %rdx
    popq %r8
    subq $32, %rsp
    callq L__put
    addq $32, %rsp
    pushq %rax
    popq %rax
    movq %rax, -16(%rbp)
    movabsq $0x79, %rax
    pushq %rax
    movq -16(%rbp), %rax
    pushq %rax
    movq -8(%rbp), %rax
    pushq %rax
    popq %rcx
    popq %rdx
    popq %r8
    subq $32, %rsp
    callq L__put
    addq $32, %rsp
    pushq %rax
    popq %rax
    movq %rax, -16(%rbp)
    movabsq $0x7a, %rax
    pushq %rax
    movq -16(%rbp), %rax
    pushq %rax
    movq -8(%rbp), %rax
    pushq %rax
    popq %rcx
    popq %rdx
    popq %r8
    subq $32, %rsp
    callq L__put
    addq $32, %rsp
    pushq %rax
    popq %rax
    movq %rax, -16(%rbp)
    movabsq $0x7a, %rax
    pushq %rax
    movq -16(%rbp), %rax
    pushq %rax
    movq -8(%rbp), %rax
    pushq %rax
    popq %rcx
    popq %rdx
    popq %r8
    subq $32, %rsp
    callq L__put
    addq $32, %rsp
    pushq %rax
    popq %rax
    movq %rax, -16(%rbp)
    movabsq $0x79, %rax
    pushq %rax
    movq -16(%rbp), %rax
    pushq %rax
    movq -8(%rbp), %rax
    pushq %rax
    popq %rcx
    popq %rdx
    popq %r8
    subq $32, %rsp
    callq L__put
    addq $32, %rsp
    pushq %rax
    popq %rax
    movq %rax, -16(%rbp)
    movabsq $0x20, %rax
    pushq %rax
    movq -16(%rbp), %rax
    pushq %rax
    movq -8(%rbp), %rax
    pushq %rax
    popq %rcx
    popq %rdx
    popq %r8
    subq $32, %rsp
    callq L__put
    addq $32, %rsp
    pushq %rax
    popq %rax
    movq %rax, -16(%rbp)
    movabsq $0x70, %rax
    pushq %rax
    movq -16(%rbp), %rax
    pushq %rax
    movq -8(%rbp), %rax
    pushq %rax
    popq %rcx
    popq %rdx
    popq %r8
    subq $32, %rsp
    callq L__put
    addq $32, %rsp
    pushq %rax
    popq %rax
    movq %rax, -16(%rbp)
    movabsq $0x6c, %rax
    pushq %rax
    movq -16(%rbp), %rax
    pushq %rax
    movq -8(%rbp), %rax
    pushq %rax
    popq %rcx
    popq %rdx
    popq %r8
    subq $32, %rsp
    callq L__put
    addq $32, %rsp
    pushq %rax
    popq %rax
    movq %rax, -16(%rbp)
    movabsq $0x75, %rax
    pushq %rax
    movq -16(%rbp), %rax
    pushq %rax
    movq -8(%rbp), %rax
    pushq %rax
    popq %rcx
    popq %rdx
    popq %r8
    subq $32, %rsp
    callq L__put
    addq $32, %rsp
    pushq %rax
    popq %rax
    movq %rax, -16(%rbp)
    movabsq $0x67, %rax
    pushq %rax
    movq -16(%rbp), %rax
    pushq %rax
    movq -8(%rbp), %rax
    pushq %rax
    popq %rcx
    popq %rdx
    popq %r8
    subq $32, %rsp
    callq L__put
    addq $32, %rsp
    pushq %rax
    popq %rax
    movq %rax, -16(%rbp)
    movabsq $0x68, %rax
    pushq %rax
    movq -16(%rbp), %rax
    pushq %rax
    movq -8(%rbp), %rax
    pushq %rax
    popq %rcx
    popq %rdx
    popq %r8
    subq $32, %rsp
    callq L__put
    addq $32, %rsp
    pushq %rax
    popq %rax
    movq %rax, -16(%rbp)
    movabsq $0x20, %rax
    pushq %rax
    movq -16(%rbp), %rax
    pushq %rax
    movq -8(%rbp), %rax
    pushq %rax
    popq %rcx
    popq %rdx
    popq %r8
    subq $32, %rsp
    callq L__put
    addq $32, %rsp
    pushq %rax
    popq %rax
    movq %rax, -16(%rbp)
    movabsq $0x66, %rax
    pushq %rax
    movq -16(%rbp), %rax
    pushq %rax
    movq -8(%rbp), %rax
    pushq %rax
    popq %rcx
    popq %rdx
    popq %r8
    subq $32, %rsp
    callq L__put
    addq $32, %rsp
    pushq %rax
    popq %rax
    movq %rax, -16(%rbp)
    movabsq $0x6f, %rax
    pushq %rax
    movq -16(%rbp), %rax
    pushq %rax
    movq -8(%rbp), %rax
    pushq %rax
    popq %rcx
    popq %rdx
    popq %r8
    subq $32, %rsp
    callq L__put
    addq $32, %rsp
    pushq %rax
    popq %rax
    movq %rax, -16(%rbp)
    movabsq $0x6f, %rax
    pushq %rax
    movq -16(%rbp), %rax
    pushq %rax
    movq -8(%rbp), %rax
    pushq %rax
    popq %rcx
    popq %rdx
    popq %r8
    subq $32, %rsp
    callq L__put
    addq $32, %rsp
    pushq %rax
    popq %rax
    movq %rax, -16(%rbp)
    movabsq $0x62, %rax
    pushq %rax
    movq -16(%rbp), %rax
    pushq %rax
    movq -8(%rbp), %rax
    pushq %rax
    popq %rcx
    popq %rdx
    popq %r8
    subq $32, %rsp
    callq L__put
    addq $32, %rsp
    pushq %rax
    popq %rax
    movq %rax, -16(%rbp)
    movabsq $0x61, %rax
    pushq %rax
    movq -16(%rbp), %rax
    pushq %rax
    movq -8(%rbp), %rax
    pushq %rax
    popq %rcx
    popq %rdx
    popq %r8
    subq $32, %rsp
    callq L__put
    addq $32, %rsp
    pushq %rax
    popq %rax
    movq %rax, -16(%rbp)
    movabsq $0x72, %rax
    pushq %rax
    movq -16(%rbp), %rax
    pushq %rax
    movq -8(%rbp), %rax
    pushq %rax
    popq %rcx
    popq %rdx
    popq %r8
    subq $32, %rsp
    callq L__put
    addq $32, %rsp
    pushq %rax
    popq %rax
    movq %rax, -16(%rbp)
    movq -16(%rbp), %rax
    pushq %rax
    popq %rax
    movl %eax, %eax
    pushq %rax
    popq %rax
    movq %rbp, %rsp
    popq %rbp
    retq
    movq $0, %rax
    pushq %rax
    movq $0, %rax
    movq %rbp, %rsp
    popq %rbp
    retq
    .seh_endproc
    .section .iii.ring3,"n"
    .asciz "_sort_deltas"
    .text
    .seh_proc L__sort_deltas
L__sort_deltas:
    pushq %rbp
    .seh_pushreg %rbp
    movq %rsp, %rbp
    .seh_setframe %rbp, 0
    subq $1024, %rsp
    .seh_stackalloc 1024
    .seh_endprologue
    movq %rcx, -8(%rbp)
    movl -8(%rbp), %eax
    pushq %rax
    popq %rax
    movq %rax, -16(%rbp)
    leaq L_BENCH_HIP_DELTAS(%rip), %rax
    pushq %rax
    popq %rax
    pushq %rax
    popq %rax
    movq %rax, -24(%rbp)
    movabsq $0x1, %rax
    pushq %rax
    popq %rax
    movq %rax, -32(%rbp)
L_loop_top_4:
    movl -32(%rbp), %eax
    pushq %rax
    movl -16(%rbp), %eax
    pushq %rax
    popq %rcx
    popq %rax
    cmpq %rcx, %rax
    setb %al
    movzbq %al, %rax
    pushq %rax
    popq %rax
    testq %rax, %rax
    jz L_loop_end_5
    movl -32(%rbp), %eax
    pushq %rax
    popq %rax
    pushq %rax
    popq %rax
    shlq $3, %rax
    pushq %rax
    movq -24(%rbp), %rax
    pushq %rax
    popq %rcx
    popq %rdx
    subq $32, %rsp
    callq L__read_u64
    addq $32, %rsp
    pushq %rax
    popq %rax
    movq %rax, -40(%rbp)
    movl -32(%rbp), %eax
    pushq %rax
    popq %rax
    movslq %eax, %rax
    pushq %rax
    movabsq $0x1, %rax
    pushq %rax
    popq %rcx
    popq %rax
    subq %rcx, %rax
    movl %eax, %eax
    pushq %rax
    popq %rax
    movq %rax, -48(%rbp)
    movabsq $0x0, %rax
    pushq %rax
    popq %rax
    movq %rax, -56(%rbp)
L_loop_top_6:
    movl -56(%rbp), %eax
    pushq %rax
    movabsq $0x0, %rax
    pushq %rax
    popq %rcx
    popq %rax
    cmpq %rcx, %rax
    sete %al
    movzbq %al, %rax
    pushq %rax
    popq %rax
    testq %rax, %rax
    jz L_loop_end_7
    movslq -48(%rbp), %rax
    pushq %rax
    movabsq $0x1, %rax
    pushq %rax
    popq %rax
    negq %rax
    pushq %rax
    popq %rcx
    popq %rax
    cmpq %rcx, %rax
    sete %al
    movzbq %al, %rax
    pushq %rax
    popq %rax
    testq %rax, %rax
    jz L_if_else_8
    movabsq $0x1, %rax
    pushq %rax
    popq %rax
    movq %rax, -56(%rbp)
    movq $0, %rax
    pushq %rax
    popq %rax
    jmp L_if_end_9
L_if_else_8:
    movslq -48(%rbp), %rax
    pushq %rax
    popq %rax
    pushq %rax
    movabsq $0xffffffff, %rax
    pushq %rax
    popq %rcx
    popq %rax
    andq %rcx, %rax
    pushq %rax
    popq %rax
    movq %rax, -64(%rbp)
    movq -64(%rbp), %rax
    pushq %rax
    popq %rax
    shlq $3, %rax
    pushq %rax
    movq -24(%rbp), %rax
    pushq %rax
    popq %rcx
    popq %rdx
    subq $32, %rsp
    callq L__read_u64
    addq $32, %rsp
    pushq %rax
    popq %rax
    movq %rax, -72(%rbp)
    movq -72(%rbp), %rax
    pushq %rax
    movq -40(%rbp), %rax
    pushq %rax
    popq %rcx
    popq %rax
    cmpq %rcx, %rax
    seta %al
    movzbq %al, %rax
    pushq %rax
    popq %rax
    testq %rax, %rax
    jz L_if_else_10
    movq -72(%rbp), %rax
    pushq %rax
    movq -64(%rbp), %rax
    pushq %rax
    movabsq $0x1, %rax
    pushq %rax
    popq %rcx
    popq %rax
    addq %rcx, %rax
    pushq %rax
    popq %rax
    shlq $3, %rax
    pushq %rax
    movq -24(%rbp), %rax
    pushq %rax
    popq %rcx
    popq %rdx
    popq %r8
    subq $32, %rsp
    callq L__write_u64
    addq $32, %rsp
    movslq %eax, %rax
    pushq %rax
    popq %rax
    movslq -48(%rbp), %rax
    pushq %rax
    movabsq $0x1, %rax
    pushq %rax
    popq %rcx
    popq %rax
    subq %rcx, %rax
    movl %eax, %eax
    pushq %rax
    popq %rax
    movq %rax, -48(%rbp)
    movq $0, %rax
    pushq %rax
    popq %rax
    jmp L_if_end_11
L_if_else_10:
    movabsq $0x1, %rax
    pushq %rax
    popq %rax
    movq %rax, -56(%rbp)
    movq $0, %rax
    pushq %rax
    popq %rax
L_if_end_11:
    movq $0, %rax
    pushq %rax
    popq %rax
L_if_end_9:
    movq $0, %rax
    pushq %rax
    popq %rax
    jmp L_loop_top_6
L_loop_end_7:
    movslq -48(%rbp), %rax
    pushq %rax
    movabsq $0x1, %rax
    pushq %rax
    popq %rcx
    popq %rax
    addq %rcx, %rax
    movl %eax, %eax
    pushq %rax
    popq %rax
    pushq %rax
    movabsq $0xffffffff, %rax
    pushq %rax
    popq %rcx
    popq %rax
    andq %rcx, %rax
    pushq %rax
    popq %rax
    movq %rax, -64(%rbp)
    movq -40(%rbp), %rax
    pushq %rax
    movq -64(%rbp), %rax
    pushq %rax
    popq %rax
    shlq $3, %rax
    pushq %rax
    movq -24(%rbp), %rax
    pushq %rax
    popq %rcx
    popq %rdx
    popq %r8
    subq $32, %rsp
    callq L__write_u64
    addq $32, %rsp
    movslq %eax, %rax
    pushq %rax
    popq %rax
    movl -32(%rbp), %eax
    pushq %rax
    movabsq $0x1, %rax
    pushq %rax
    popq %rcx
    popq %rax
    addq %rcx, %rax
    movl %eax, %eax
    pushq %rax
    popq %rax
    movq %rax, -32(%rbp)
    movq $0, %rax
    pushq %rax
    popq %rax
    jmp L_loop_top_4
L_loop_end_5:
    movabsq $0x0, %rax
    pushq %rax
    popq %rax
    movq %rbp, %rsp
    popq %rbp
    retq
    movq $0, %rax
    pushq %rax
    movq $0, %rax
    movq %rbp, %rsp
    popq %rbp
    retq
    .seh_endproc
    .section .iii.ring3,"n"
    .asciz "_median"
    .text
    .seh_proc L__median
L__median:
    pushq %rbp
    .seh_pushreg %rbp
    movq %rsp, %rbp
    .seh_setframe %rbp, 0
    subq $1024, %rsp
    .seh_stackalloc 1024
    .seh_endprologue
    movq %rcx, -8(%rbp)
    movl -8(%rbp), %eax
    pushq %rax
    popq %rax
    movq %rax, -16(%rbp)
    leaq L_BENCH_HIP_DELTAS(%rip), %rax
    pushq %rax
    popq %rax
    pushq %rax
    popq %rax
    movq %rax, -24(%rbp)
    movl -16(%rbp), %eax
    pushq %rax
    popq %rax
    pushq %rax
    movabsq $0x2, %rax
    pushq %rax
    popq %rcx
    popq %rax
    xorl %edx, %edx
    divq %rcx
    pushq %rax
    popq %rax
    movq %rax, -32(%rbp)
    movq -32(%rbp), %rax
    pushq %rax
    popq %rax
    shlq $3, %rax
    pushq %rax
    movq -24(%rbp), %rax
    pushq %rax
    popq %rcx
    popq %rdx
    subq $32, %rsp
    callq L__read_u64
    addq $32, %rsp
    pushq %rax
    popq %rax
    movq %rbp, %rsp
    popq %rbp
    retq
    movq $0, %rax
    pushq %rax
    movq $0, %rax
    movq %rbp, %rsp
    popq %rbp
    retq
    .seh_endproc
    .section .iii.ring3,"n"
    .asciz "_set_buffers"
    .text
    .seh_proc L__set_buffers
L__set_buffers:
    pushq %rbp
    .seh_pushreg %rbp
    movq %rsp, %rbp
    .seh_setframe %rbp, 0
    subq $1024, %rsp
    .seh_stackalloc 1024
    .seh_endprologue
    movq %rcx, -8(%rbp)
    movq %rdx, -16(%rbp)
    movq -8(%rbp), %rax
    pushq %rax
    movabsq $0x0, %rax
    pushq %rax
    leaq L_C244_CANDS_PTR(%rip), %rax
    pushq %rax
    popq %rax
    pushq %rax
    popq %rcx
    popq %rdx
    popq %r8
    subq $32, %rsp
    callq L__write_u64
    addq $32, %rsp
    movslq %eax, %rax
    pushq %rax
    popq %rax
    movq -16(%rbp), %rax
    pushq %rax
    movabsq $0x0, %rax
    pushq %rax
    leaq L_C244_META_PTR(%rip), %rax
    pushq %rax
    popq %rax
    pushq %rax
    popq %rcx
    popq %rdx
    popq %r8
    subq $32, %rsp
    callq L__write_u64
    addq $32, %rsp
    movslq %eax, %rax
    pushq %rax
    popq %rax
    movabsq $0x0, %rax
    pushq %rax
    popq %rax
    movq %rbp, %rsp
    popq %rbp
    retq
    movq $0, %rax
    pushq %rax
    movq $0, %rax
    movq %rbp, %rsp
    popq %rbp
    retq
    .seh_endproc
    .section .iii.ring3,"n"
    .asciz "_bench_hip"
    .text
    .seh_proc L__bench_hip
L__bench_hip:
    pushq %rbp
    .seh_pushreg %rbp
    movq %rsp, %rbp
    .seh_setframe %rbp, 0
    subq $1024, %rsp
    .seh_stackalloc 1024
    .seh_endprologue
    movq %rcx, -8(%rbp)
    movq %rdx, -16(%rbp)
    movq -8(%rbp), %rax
    pushq %rax
    popq %rax
    movq %rax, -24(%rbp)
    movl -16(%rbp), %eax
    pushq %rax
    popq %rax
    movq %rax, -32(%rbp)
    movabsq $0x0, %rax
    pushq %rax
    leaq L_C244_CANDS_PTR(%rip), %rax
    pushq %rax
    popq %rax
    pushq %rax
    popq %rcx
    popq %rdx
    subq $32, %rsp
    callq L__read_u64
    addq $32, %rsp
    pushq %rax
    popq %rax
    movq %rax, -40(%rbp)
    movabsq $0x0, %rax
    pushq %rax
    leaq L_C244_META_PTR(%rip), %rax
    pushq %rax
    popq %rax
    pushq %rax
    popq %rcx
    popq %rdx
    subq $32, %rsp
    callq L__read_u64
    addq $32, %rsp
    pushq %rax
    popq %rax
    movq %rax, -48(%rbp)
    leaq L_BENCH_HIP_DELTAS(%rip), %rax
    pushq %rax
    popq %rax
    pushq %rax
    popq %rax
    movq %rax, -56(%rbp)
    movabsq $0x0, %rax
    pushq %rax
    popq %rax
    movq %rax, -64(%rbp)
L_loop_top_12:
    movl -64(%rbp), %eax
    pushq %rax
    movl L_C244_SAMPLES(%rip), %eax
    pushq %rax
    popq %rcx
    popq %rax
    cmpq %rcx, %rax
    setb %al
    movzbq %al, %rax
    pushq %rax
    popq %rax
    testq %rax, %rax
    jz L_loop_end_13
    subq $32, %rsp
    callq bench_warmup
    addq $32, %rsp
    movslq %eax, %rax
    pushq %rax
    popq %rax
    subq $32, %rsp
    callq bench_now_p
    addq $32, %rsp
    pushq %rax
    popq %rax
    movq %rax, -72(%rbp)
    movq -48(%rbp), %rax
    pushq %rax
    movq -40(%rbp), %rax
    pushq %rax
    movl -32(%rbp), %eax
    pushq %rax
    movq -24(%rbp), %rax
    pushq %rax
    popq %rcx
    popq %rdx
    popq %r8
    popq %r9
    subq $32, %rsp
    callq hip_resolve
    addq $32, %rsp
    movslq %eax, %rax
    pushq %rax
    popq %rax
    subq $32, %rsp
    callq bench_now_p
    addq $32, %rsp
    pushq %rax
    popq %rax
    movq %rax, -80(%rbp)
    movq -80(%rbp), %rax
    pushq %rax
    movq -72(%rbp), %rax
    pushq %rax
    popq %rcx
    popq %rax
    subq %rcx, %rax
    pushq %rax
    popq %rax
    movq %rax, -88(%rbp)
    movq -88(%rbp), %rax
    pushq %rax
    movl -64(%rbp), %eax
    pushq %rax
    popq %rax
    pushq %rax
    popq %rax
    shlq $3, %rax
    pushq %rax
    movq -56(%rbp), %rax
    pushq %rax
    popq %rcx
    popq %rdx
    popq %r8
    subq $32, %rsp
    callq L__write_u64
    addq $32, %rsp
    movslq %eax, %rax
    pushq %rax
    popq %rax
    movl -64(%rbp), %eax
    pushq %rax
    movabsq $0x1, %rax
    pushq %rax
    popq %rcx
    popq %rax
    addq %rcx, %rax
    movl %eax, %eax
    pushq %rax
    popq %rax
    movq %rax, -64(%rbp)
    movq $0, %rax
    pushq %rax
    popq %rax
    jmp L_loop_top_12
L_loop_end_13:
    movl L_C244_SAMPLES(%rip), %eax
    pushq %rax
    popq %rcx
    subq $32, %rsp
    callq L__sort_deltas
    addq $32, %rsp
    movslq %eax, %rax
    pushq %rax
    popq %rax
    movl L_C244_SAMPLES(%rip), %eax
    pushq %rax
    popq %rcx
    subq $32, %rsp
    callq L__median
    addq $32, %rsp
    pushq %rax
    popq %rax
    movq %rbp, %rsp
    popq %rbp
    retq
    movq $0, %rax
    pushq %rax
    movq $0, %rax
    movq %rbp, %rsp
    popq %rbp
    retq
    .seh_endproc
    .section .iii.ring3,"n"
    .asciz "_idoc_set_env"
    .text
    .seh_proc L__idoc_set_env
L__idoc_set_env:
    pushq %rbp
    .seh_pushreg %rbp
    movq %rsp, %rbp
    .seh_setframe %rbp, 0
    subq $1024, %rsp
    .seh_stackalloc 1024
    .seh_endprologue
    movq %rcx, -8(%rbp)
    movq %rdx, -16(%rbp)
    movq -8(%rbp), %rax
    pushq %rax
    movabsq $0x0, %rax
    pushq %rax
    leaq L_C244_IDOC_ENV_PTR(%rip), %rax
    pushq %rax
    popq %rax
    pushq %rax
    popq %rcx
    popq %rdx
    popq %r8
    subq $32, %rsp
    callq L__write_u64
    addq $32, %rsp
    movslq %eax, %rax
    pushq %rax
    popq %rax
    movq -16(%rbp), %rax
    pushq %rax
    movabsq $0x0, %rax
    pushq %rax
    leaq L_C244_IDOC_DIG_PTR(%rip), %rax
    pushq %rax
    popq %rax
    pushq %rax
    popq %rcx
    popq %rdx
    popq %r8
    subq $32, %rsp
    callq L__write_u64
    addq $32, %rsp
    movslq %eax, %rax
    pushq %rax
    popq %rax
    movabsq $0x0, %rax
    pushq %rax
    popq %rax
    movq %rbp, %rsp
    popq %rbp
    retq
    movq $0, %rax
    pushq %rax
    movq $0, %rax
    movq %rbp, %rsp
    popq %rbp
    retq
    .seh_endproc
    .section .iii.ring3,"n"
    .asciz "_idoc_set_facets"
    .text
    .seh_proc L__idoc_set_facets
L__idoc_set_facets:
    pushq %rbp
    .seh_pushreg %rbp
    movq %rsp, %rbp
    .seh_setframe %rbp, 0
    subq $1024, %rsp
    .seh_stackalloc 1024
    .seh_endprologue
    movq %rcx, -8(%rbp)
    movq %rdx, -16(%rbp)
    movq %r8, -24(%rbp)
    movq -8(%rbp), %rax
    pushq %rax
    movabsq $0x0, %rax
    pushq %rax
    leaq L_C244_IDOC_FIDS_PTR(%rip), %rax
    pushq %rax
    popq %rax
    pushq %rax
    popq %rcx
    popq %rdx
    popq %r8
    subq $32, %rsp
    callq L__write_u64
    addq $32, %rsp
    movslq %eax, %rax
    pushq %rax
    popq %rax
    movq -16(%rbp), %rax
    pushq %rax
    movabsq $0x0, %rax
    pushq %rax
    leaq L_C244_IDOC_FDPA_PTR(%rip), %rax
    pushq %rax
    popq %rax
    pushq %rax
    popq %rcx
    popq %rdx
    popq %r8
    subq $32, %rsp
    callq L__write_u64
    addq $32, %rsp
    movslq %eax, %rax
    pushq %rax
    popq %rax
    movq -24(%rbp), %rax
    pushq %rax
    movabsq $0x0, %rax
    pushq %rax
    leaq L_C244_IDOC_FLNA_PTR(%rip), %rax
    pushq %rax
    popq %rax
    pushq %rax
    popq %rcx
    popq %rdx
    popq %r8
    subq $32, %rsp
    callq L__write_u64
    addq $32, %rsp
    movslq %eax, %rax
    pushq %rax
    popq %rax
    movabsq $0x0, %rax
    pushq %rax
    popq %rax
    movq %rbp, %rsp
    popq %rbp
    retq
    movq $0, %rax
    pushq %rax
    movq $0, %rax
    movq %rbp, %rsp
    popq %rbp
    retq
    .seh_endproc
    .section .iii.ring3,"n"
    .asciz "_idoc_set_outs"
    .text
    .seh_proc L__idoc_set_outs
L__idoc_set_outs:
    pushq %rbp
    .seh_pushreg %rbp
    movq %rsp, %rbp
    .seh_setframe %rbp, 0
    subq $1024, %rsp
    .seh_stackalloc 1024
    .seh_endprologue
    movq %rcx, -8(%rbp)
    movq %rdx, -16(%rbp)
    movq -8(%rbp), %rax
    pushq %rax
    movabsq $0x0, %rax
    pushq %rax
    leaq L_C244_IDOC_OFD_PTR(%rip), %rax
    pushq %rax
    popq %rax
    pushq %rax
    popq %rcx
    popq %rdx
    popq %r8
    subq $32, %rsp
    callq L__write_u64
    addq $32, %rsp
    movslq %eax, %rax
    pushq %rax
    popq %rax
    movq -16(%rbp), %rax
    pushq %rax
    movabsq $0x0, %rax
    pushq %rax
    leaq L_C244_IDOC_OFL_PTR(%rip), %rax
    pushq %rax
    popq %rax
    pushq %rax
    popq %rcx
    popq %rdx
    popq %r8
    subq $32, %rsp
    callq L__write_u64
    addq $32, %rsp
    movslq %eax, %rax
    pushq %rax
    popq %rax
    movabsq $0x0, %rax
    pushq %rax
    popq %rax
    movq %rbp, %rsp
    popq %rbp
    retq
    movq $0, %rax
    pushq %rax
    movq $0, %rax
    movq %rbp, %rsp
    popq %rbp
    retq
    .seh_endproc
    .section .iii.ring3,"n"
    .asciz "_idoc_one_roundtrip"
    .text
    .seh_proc L__idoc_one_roundtrip
L__idoc_one_roundtrip:
    pushq %rbp
    .seh_pushreg %rbp
    movq %rsp, %rbp
    .seh_setframe %rbp, 0
    subq $1024, %rsp
    .seh_stackalloc 1024
    .seh_endprologue
    movabsq $0x0, %rax
    pushq %rax
    leaq L_C244_IDOC_ENV_PTR(%rip), %rax
    pushq %rax
    popq %rax
    pushq %rax
    popq %rcx
    popq %rdx
    subq $32, %rsp
    callq L__read_u64
    addq $32, %rsp
    pushq %rax
    popq %rax
    movq %rax, -8(%rbp)
    movabsq $0x0, %rax
    pushq %rax
    leaq L_C244_IDOC_DIG_PTR(%rip), %rax
    pushq %rax
    popq %rax
    pushq %rax
    popq %rcx
    popq %rdx
    subq $32, %rsp
    callq L__read_u64
    addq $32, %rsp
    pushq %rax
    popq %rax
    movq %rax, -16(%rbp)
    movabsq $0x0, %rax
    pushq %rax
    leaq L_C244_IDOC_FIDS_PTR(%rip), %rax
    pushq %rax
    popq %rax
    pushq %rax
    popq %rcx
    popq %rdx
    subq $32, %rsp
    callq L__read_u64
    addq $32, %rsp
    pushq %rax
    popq %rax
    movq %rax, -24(%rbp)
    movabsq $0x0, %rax
    pushq %rax
    leaq L_C244_IDOC_FDPA_PTR(%rip), %rax
    pushq %rax
    popq %rax
    pushq %rax
    popq %rcx
    popq %rdx
    subq $32, %rsp
    callq L__read_u64
    addq $32, %rsp
    pushq %rax
    popq %rax
    movq %rax, -32(%rbp)
    movabsq $0x0, %rax
    pushq %rax
    leaq L_C244_IDOC_FLNA_PTR(%rip), %rax
    pushq %rax
    popq %rax
    pushq %rax
    popq %rcx
    popq %rdx
    subq $32, %rsp
    callq L__read_u64
    addq $32, %rsp
    pushq %rax
    popq %rax
    movq %rax, -40(%rbp)
    movabsq $0x0, %rax
    pushq %rax
    leaq L_C244_IDOC_OFD_PTR(%rip), %rax
    pushq %rax
    popq %rax
    pushq %rax
    popq %rcx
    popq %rdx
    subq $32, %rsp
    callq L__read_u64
    addq $32, %rsp
    pushq %rax
    popq %rax
    movq %rax, -48(%rbp)
    movabsq $0x0, %rax
    pushq %rax
    leaq L_C244_IDOC_OFL_PTR(%rip), %rax
    pushq %rax
    popq %rax
    pushq %rax
    popq %rcx
    popq %rdx
    subq $32, %rsp
    callq L__read_u64
    addq $32, %rsp
    pushq %rax
    popq %rax
    movq %rax, -56(%rbp)
    movq -8(%rbp), %rax
    pushq %rax
    popq %rcx
    subq $32, %rsp
    callq babel_wire_init
    addq $32, %rsp
    movslq %eax, %rax
    pushq %rax
    popq %rax
    movabsq $0xbeef244a, %rax
    pushq %rax
    movq -8(%rbp), %rax
    pushq %rax
    popq %rcx
    popq %rdx
    subq $32, %rsp
    callq babel_wire_set_seal_id
    addq $32, %rsp
    movslq %eax, %rax
    pushq %rax
    popq %rax
    movabsq $0x244b, %rax
    pushq %rax
    movq -8(%rbp), %rax
    pushq %rax
    popq %rcx
    popq %rdx
    subq $32, %rsp
    callq babel_wire_set_intent_id
    addq $32, %rsp
    movslq %eax, %rax
    pushq %rax
    popq %rax
    movq -16(%rbp), %rax
    pushq %rax
    movq -8(%rbp), %rax
    pushq %rax
    popq %rcx
    popq %rdx
    subq $32, %rsp
    callq babel_wire_set_ctx_digest
    addq $32, %rsp
    movslq %eax, %rax
    pushq %rax
    popq %rax
    movabsq $0xf, %rax
    pushq %rax
    movq -8(%rbp), %rax
    pushq %rax
    popq %rcx
    popq %rdx
    subq $32, %rsp
    callq babel_wire_set_facet
    addq $32, %rsp
    movslq %eax, %rax
    pushq %rax
    popq %rax
    subq $32, %rsp
    callq babel_wire_header_bytes
    addq $32, %rsp
    movl %eax, %eax
    pushq %rax
    popq %rax
    movq %rax, -64(%rbp)
    movq -8(%rbp), %rax
    pushq %rax
    movl -64(%rbp), %eax
    pushq %rax
    popq %rax
    pushq %rax
    popq %rcx
    popq %rax
    addq %rcx, %rax
    pushq %rax
    popq %rax
    movq %rax, -72(%rbp)
    subq $8, %rsp
    movabsq $0x200, %rax
    pushq %rax
    movl -64(%rbp), %eax
    pushq %rax
    popq %rcx
    popq %rax
    subq %rcx, %rax
    pushq %rax
    movq -72(%rbp), %rax
    pushq %rax
    movq -40(%rbp), %rax
    pushq %rax
    movq -32(%rbp), %rax
    pushq %rax
    movq -24(%rbp), %rax
    pushq %rax
    popq %rcx
    popq %rdx
    popq %r8
    popq %r9
    subq $32, %rsp
    callq idoc_pack_payload
    addq $32, %rsp
    addq $8, %rsp
    addq $8, %rsp
    movl %eax, %eax
    pushq %rax
    popq %rax
    movq %rax, -80(%rbp)
    movl -80(%rbp), %eax
    pushq %rax
    movq -8(%rbp), %rax
    pushq %rax
    popq %rcx
    popq %rdx
    subq $32, %rsp
    callq idoc_finalize
    addq $32, %rsp
    movl %eax, %eax
    pushq %rax
    popq %rax
    movq %rax, -88(%rbp)
    movl -88(%rbp), %eax
    pushq %rax
    movq -8(%rbp), %rax
    pushq %rax
    popq %rcx
    popq %rdx
    subq $32, %rsp
    callq idoc_validate
    addq $32, %rsp
    movzbq %al, %rax
    pushq %rax
    popq %rax
    movq %rax, -96(%rbp)
    movzbq -96(%rbp), %rax
    pushq %rax
    movabsq $0x0, %rax
    pushq %rax
    popq %rcx
    popq %rax
    cmpq %rcx, %rax
    sete %al
    movzbq %al, %rax
    pushq %rax
    popq %rax
    testq %rax, %rax
    jz L_if_end_15
    movabsq $0x0, %rax
    pushq %rax
    popq %rax
    movq %rbp, %rsp
    popq %rbp
    retq
    movq $0, %rax
    pushq %rax
    popq %rax
L_if_end_15:
    movq -56(%rbp), %rax
    pushq %rax
    movq -48(%rbp), %rax
    pushq %rax
    movabsq $0x1, %rax
    pushq %rax
    movq -8(%rbp), %rax
    pushq %rax
    popq %rcx
    popq %rdx
    popq %r8
    popq %r9
    subq $32, %rsp
    callq idoc_resolve_facet
    addq $32, %rsp
    movzbq %al, %rax
    pushq %rax
    popq %rax
    movq %rax, -104(%rbp)
    movzbq -104(%rbp), %rax
    pushq %rax
    movabsq $0x0, %rax
    pushq %rax
    popq %rcx
    popq %rax
    cmpq %rcx, %rax
    sete %al
    movzbq %al, %rax
    pushq %rax
    popq %rax
    testq %rax, %rax
    jz L_if_end_17
    movabsq $0x0, %rax
    pushq %rax
    popq %rax
    movq %rbp, %rsp
    popq %rbp
    retq
    movq $0, %rax
    pushq %rax
    popq %rax
L_if_end_17:
    movl -88(%rbp), %eax
    pushq %rax
    popq %rax
    movq %rbp, %rsp
    popq %rbp
    retq
    movq $0, %rax
    pushq %rax
    movq $0, %rax
    movq %rbp, %rsp
    popq %rbp
    retq
    .seh_endproc
    .section .iii.ring3,"n"
    .asciz "_bench_idoc"
    .text
    .seh_proc L__bench_idoc
L__bench_idoc:
    pushq %rbp
    .seh_pushreg %rbp
    movq %rsp, %rbp
    .seh_setframe %rbp, 0
    subq $1024, %rsp
    .seh_stackalloc 1024
    .seh_endprologue
    leaq L_BENCH_HIP_DELTAS(%rip), %rax
    pushq %rax
    popq %rax
    pushq %rax
    popq %rax
    movq %rax, -8(%rbp)
    movabsq $0x0, %rax
    pushq %rax
    popq %rax
    movq %rax, -16(%rbp)
L_loop_top_18:
    movl -16(%rbp), %eax
    pushq %rax
    movl L_C244_SAMPLES(%rip), %eax
    pushq %rax
    popq %rcx
    popq %rax
    cmpq %rcx, %rax
    setb %al
    movzbq %al, %rax
    pushq %rax
    popq %rax
    testq %rax, %rax
    jz L_loop_end_19
    subq $32, %rsp
    callq bench_warmup
    addq $32, %rsp
    movslq %eax, %rax
    pushq %rax
    popq %rax
    subq $32, %rsp
    callq bench_now_p
    addq $32, %rsp
    pushq %rax
    popq %rax
    movq %rax, -24(%rbp)
    subq $32, %rsp
    callq L__idoc_one_roundtrip
    addq $32, %rsp
    movl %eax, %eax
    pushq %rax
    popq %rax
    subq $32, %rsp
    callq bench_now_p
    addq $32, %rsp
    pushq %rax
    popq %rax
    movq %rax, -32(%rbp)
    movq -32(%rbp), %rax
    pushq %rax
    movq -24(%rbp), %rax
    pushq %rax
    popq %rcx
    popq %rax
    subq %rcx, %rax
    pushq %rax
    popq %rax
    movq %rax, -40(%rbp)
    movq -40(%rbp), %rax
    pushq %rax
    movl -16(%rbp), %eax
    pushq %rax
    popq %rax
    pushq %rax
    popq %rax
    shlq $3, %rax
    pushq %rax
    movq -8(%rbp), %rax
    pushq %rax
    popq %rcx
    popq %rdx
    popq %r8
    subq $32, %rsp
    callq L__write_u64
    addq $32, %rsp
    movslq %eax, %rax
    pushq %rax
    popq %rax
    movl -16(%rbp), %eax
    pushq %rax
    movabsq $0x1, %rax
    pushq %rax
    popq %rcx
    popq %rax
    addq %rcx, %rax
    movl %eax, %eax
    pushq %rax
    popq %rax
    movq %rax, -16(%rbp)
    movq $0, %rax
    pushq %rax
    popq %rax
    jmp L_loop_top_18
L_loop_end_19:
    movl L_C244_SAMPLES(%rip), %eax
    pushq %rax
    popq %rcx
    subq $32, %rsp
    callq L__sort_deltas
    addq $32, %rsp
    movslq %eax, %rax
    pushq %rax
    popq %rax
    movl L_C244_SAMPLES(%rip), %eax
    pushq %rax
    popq %rcx
    subq $32, %rsp
    callq L__median
    addq $32, %rsp
    pushq %rax
    popq %rax
    movq %rbp, %rsp
    popq %rbp
    retq
    movq $0, %rax
    pushq %rax
    movq $0, %rax
    movq %rbp, %rsp
    popq %rbp
    retq
    .seh_endproc
    .section .iii.ring3,"n"
    .asciz "main"
    .text
    .global main
    .seh_proc main
main:
    pushq %rbp
    .seh_pushreg %rbp
    movq %rsp, %rbp
    .seh_setframe %rbp, 0
    subq $1024, %rsp
    .seh_stackalloc 1024
    .seh_endprologue
    movabsq $0x40, %rax
    pushq %rax
    popq %rcx
    subq $32, %rsp
    callq malloc
    addq $32, %rsp
    pushq %rax
    popq %rax
    movq %rax, -8(%rbp)
    movq -8(%rbp), %rax
    pushq %rax
    popq %rax
    pushq %rax
    movabsq $0x0, %rax
    pushq %rax
    popq %rcx
    popq %rax
    cmpq %rcx, %rax
    sete %al
    movzbq %al, %rax
    pushq %rax
    popq %rax
    testq %rax, %rax
    jz L_if_end_21
    movabsq $0x1, %rax
    pushq %rax
    popq %rax
    movq %rbp, %rsp
    popq %rbp
    retq
    movq $0, %rax
    pushq %rax
    popq %rax
L_if_end_21:
    movabsq $0x40, %rax
    pushq %rax
    popq %rcx
    subq $32, %rsp
    callq malloc
    addq $32, %rsp
    pushq %rax
    popq %rax
    movq %rax, -16(%rbp)
    movq -16(%rbp), %rax
    pushq %rax
    popq %rax
    pushq %rax
    movabsq $0x0, %rax
    pushq %rax
    popq %rcx
    popq %rax
    cmpq %rcx, %rax
    sete %al
    movzbq %al, %rax
    pushq %rax
    popq %rax
    testq %rax, %rax
    jz L_if_end_23
    movabsq $0x2, %rax
    pushq %rax
    popq %rax
    movq %rbp, %rsp
    popq %rbp
    retq
    movq $0, %rax
    pushq %rax
    popq %rax
L_if_end_23:
    movabsq $0x10, %rax
    pushq %rax
    popq %rcx
    subq $32, %rsp
    callq malloc
    addq $32, %rsp
    pushq %rax
    popq %rax
    movq %rax, -24(%rbp)
    movq -24(%rbp), %rax
    pushq %rax
    popq %rax
    pushq %rax
    movabsq $0x0, %rax
    pushq %rax
    popq %rcx
    popq %rax
    cmpq %rcx, %rax
    sete %al
    movzbq %al, %rax
    pushq %rax
    popq %rax
    testq %rax, %rax
    jz L_if_end_25
    movabsq $0x3, %rax
    pushq %rax
    popq %rax
    movq %rbp, %rsp
    popq %rbp
    retq
    movq $0, %rax
    pushq %rax
    popq %rax
L_if_end_25:
    movabsq $0x0, %rax
    pushq %rax
    popq %rax
    movq %rax, -32(%rbp)
L_loop_top_26:
    movq -32(%rbp), %rax
    pushq %rax
    movabsq $0x10, %rax
    pushq %rax
    popq %rcx
    popq %rax
    cmpq %rcx, %rax
    setb %al
    movzbq %al, %rax
    pushq %rax
    popq %rax
    testq %rax, %rax
    jz L_loop_end_27
    movq -24(%rbp), %rax
    pushq %rax
    movq -32(%rbp), %rax
    pushq %rax
    movabsq $0x0, %rax
    pushq %rax
    popq %rdx
    popq %rcx
    popq %rax
    movb %dl, (%rax,%rcx,1)
    movq -32(%rbp), %rax
    pushq %rax
    movabsq $0x1, %rax
    pushq %rax
    popq %rcx
    popq %rax
    addq %rcx, %rax
    pushq %rax
    popq %rax
    movq %rax, -32(%rbp)
    movq $0, %rax
    pushq %rax
    popq %rax
    jmp L_loop_top_26
L_loop_end_27:
    movq -24(%rbp), %rax
    pushq %rax
    popq %rax
    pushq %rax
    movq -16(%rbp), %rax
    pushq %rax
    popq %rax
    pushq %rax
    popq %rcx
    popq %rdx
    subq $32, %rsp
    callq L__set_buffers
    addq $32, %rsp
    movslq %eax, %rax
    pushq %rax
    popq %rax
    movq -8(%rbp), %rax
    pushq %rax
    popq %rcx
    subq $32, %rsp
    callq L__phrase_send_buffer
    addq $32, %rsp
    movl %eax, %eax
    pushq %rax
    popq %rax
    movq %rax, -40(%rbp)
    movq -24(%rbp), %rax
    pushq %rax
    popq %rax
    pushq %rax
    movq -16(%rbp), %rax
    pushq %rax
    popq %rax
    pushq %rax
    movl -40(%rbp), %eax
    pushq %rax
    movq -8(%rbp), %rax
    pushq %rax
    popq %rax
    pushq %rax
    popq %rcx
    popq %rdx
    popq %r8
    popq %r9
    subq $32, %rsp
    callq hip_resolve
    addq $32, %rsp
    movslq %eax, %rax
    pushq %rax
    popq %rax
    movq %rax, -48(%rbp)
    movslq -48(%rbp), %rax
    pushq %rax
    movabsq $0x0, %rax
    pushq %rax
    popq %rcx
    popq %rax
    cmpq %rcx, %rax
    setne %al
    movzbq %al, %rax
    pushq %rax
    popq %rax
    testq %rax, %rax
    jz L_if_end_29
    movabsq $0xa, %rax
    pushq %rax
    popq %rax
    movq %rbp, %rsp
    popq %rbp
    retq
    movq $0, %rax
    pushq %rax
    popq %rax
L_if_end_29:
    movl -40(%rbp), %eax
    pushq %rax
    movq -8(%rbp), %rax
    pushq %rax
    popq %rax
    pushq %rax
    popq %rcx
    popq %rdx
    subq $32, %rsp
    callq L__bench_hip
    addq $32, %rsp
    pushq %rax
    popq %rax
    movq %rax, -56(%rbp)
    movq -56(%rbp), %rax
    pushq %rax
    movq L_C244_BUDGET_UNIQUE(%rip), %rax
    pushq %rax
    popq %rcx
    popq %rax
    cmpq %rcx, %rax
    setae %al
    movzbq %al, %rax
    pushq %rax
    popq %rax
    testq %rax, %rax
    jz L_if_end_31
    movabsq $0xf, %rax
    pushq %rax
    popq %rax
    movq %rbp, %rsp
    popq %rbp
    retq
    movq $0, %rax
    pushq %rax
    popq %rax
L_if_end_31:
    movq -8(%rbp), %rax
    pushq %rax
    popq %rcx
    subq $32, %rsp
    callq L__phrase_open_file
    addq $32, %rsp
    movl %eax, %eax
    pushq %rax
    popq %rax
    movq %rax, -64(%rbp)
    movq -24(%rbp), %rax
    pushq %rax
    popq %rax
    pushq %rax
    movq -16(%rbp), %rax
    pushq %rax
    popq %rax
    pushq %rax
    movl -64(%rbp), %eax
    pushq %rax
    movq -8(%rbp), %rax
    pushq %rax
    popq %rax
    pushq %rax
    popq %rcx
    popq %rdx
    popq %r8
    popq %r9
    subq $32, %rsp
    callq hip_resolve
    addq $32, %rsp
    movslq %eax, %rax
    pushq %rax
    popq %rax
    movq %rax, -72(%rbp)
    movslq -72(%rbp), %rax
    pushq %rax
    movabsq $0x0, %rax
    pushq %rax
    popq %rcx
    popq %rax
    cmpq %rcx, %rax
    setne %al
    movzbq %al, %rax
    pushq %rax
    popq %rax
    testq %rax, %rax
    jz L_if_end_33
    movabsq $0xb, %rax
    pushq %rax
    popq %rax
    movq %rbp, %rsp
    popq %rbp
    retq
    movq $0, %rax
    pushq %rax
    popq %rax
L_if_end_33:
    movl -64(%rbp), %eax
    pushq %rax
    movq -8(%rbp), %rax
    pushq %rax
    popq %rax
    pushq %rax
    popq %rcx
    popq %rdx
    subq $32, %rsp
    callq L__bench_hip
    addq $32, %rsp
    pushq %rax
    popq %rax
    movq %rax, -80(%rbp)
    movq -80(%rbp), %rax
    pushq %rax
    movq L_C244_BUDGET_AMBIGUOUS(%rip), %rax
    pushq %rax
    popq %rcx
    popq %rax
    cmpq %rcx, %rax
    setae %al
    movzbq %al, %rax
    pushq %rax
    popq %rax
    testq %rax, %rax
    jz L_if_end_35
    movabsq $0x10, %rax
    pushq %rax
    popq %rax
    movq %rbp, %rsp
    popq %rbp
    retq
    movq $0, %rax
    pushq %rax
    popq %rax
L_if_end_35:
    movq -8(%rbp), %rax
    pushq %rax
    popq %rcx
    subq $32, %rsp
    callq L__phrase_nomatch
    addq $32, %rsp
    movl %eax, %eax
    pushq %rax
    popq %rax
    movq %rax, -88(%rbp)
    movq -24(%rbp), %rax
    pushq %rax
    popq %rax
    pushq %rax
    movq -16(%rbp), %rax
    pushq %rax
    popq %rax
    pushq %rax
    movl -88(%rbp), %eax
    pushq %rax
    movq -8(%rbp), %rax
    pushq %rax
    popq %rax
    pushq %rax
    popq %rcx
    popq %rdx
    popq %r8
    popq %r9
    subq $32, %rsp
    callq hip_resolve
    addq $32, %rsp
    movslq %eax, %rax
    pushq %rax
    popq %rax
    movq %rax, -96(%rbp)
    movslq -96(%rbp), %rax
    pushq %rax
    movabsq $0x0, %rax
    pushq %rax
    popq %rcx
    popq %rax
    cmpq %rcx, %rax
    setne %al
    movzbq %al, %rax
    pushq %rax
    popq %rax
    testq %rax, %rax
    jz L_if_end_37
    movabsq $0xc, %rax
    pushq %rax
    popq %rax
    movq %rbp, %rsp
    popq %rbp
    retq
    movq $0, %rax
    pushq %rax
    popq %rax
L_if_end_37:
    movl -88(%rbp), %eax
    pushq %rax
    movq -8(%rbp), %rax
    pushq %rax
    popq %rax
    pushq %rax
    popq %rcx
    popq %rdx
    subq $32, %rsp
    callq L__bench_hip
    addq $32, %rsp
    pushq %rax
    popq %rax
    movq %rax, -104(%rbp)
    movq -104(%rbp), %rax
    pushq %rax
    movq L_C244_BUDGET_NO_MATCH(%rip), %rax
    pushq %rax
    popq %rcx
    popq %rax
    cmpq %rcx, %rax
    setae %al
    movzbq %al, %rax
    pushq %rax
    popq %rax
    testq %rax, %rax
    jz L_if_end_39
    movabsq $0x11, %rax
    pushq %rax
    popq %rax
    movq %rbp, %rsp
    popq %rbp
    retq
    movq $0, %rax
    pushq %rax
    popq %rax
L_if_end_39:
    movabsq $0x200, %rax
    pushq %rax
    popq %rcx
    subq $32, %rsp
    callq malloc
    addq $32, %rsp
    pushq %rax
    popq %rax
    movq %rax, -112(%rbp)
    movq -112(%rbp), %rax
    pushq %rax
    popq %rax
    pushq %rax
    movabsq $0x0, %rax
    pushq %rax
    popq %rcx
    popq %rax
    cmpq %rcx, %rax
    sete %al
    movzbq %al, %rax
    pushq %rax
    popq %rax
    testq %rax, %rax
    jz L_if_end_41
    movabsq $0x4, %rax
    pushq %rax
    popq %rax
    movq %rbp, %rsp
    popq %rbp
    retq
    movq $0, %rax
    pushq %rax
    popq %rax
L_if_end_41:
    movabsq $0x20, %rax
    pushq %rax
    popq %rcx
    subq $32, %rsp
    callq malloc
    addq $32, %rsp
    pushq %rax
    popq %rax
    movq %rax, -120(%rbp)
    movq -120(%rbp), %rax
    pushq %rax
    popq %rax
    pushq %rax
    movabsq $0x0, %rax
    pushq %rax
    popq %rcx
    popq %rax
    cmpq %rcx, %rax
    sete %al
    movzbq %al, %rax
    pushq %rax
    popq %rax
    testq %rax, %rax
    jz L_if_end_43
    movabsq $0x5, %rax
    pushq %rax
    popq %rax
    movq %rbp, %rsp
    popq %rbp
    retq
    movq $0, %rax
    pushq %rax
    popq %rax
L_if_end_43:
    movabsq $0x0, %rax
    pushq %rax
    popq %rax
    movq %rax, -128(%rbp)
L_loop_top_44:
    movq -128(%rbp), %rax
    pushq %rax
    movabsq $0x20, %rax
    pushq %rax
    popq %rcx
    popq %rax
    cmpq %rcx, %rax
    setb %al
    movzbq %al, %rax
    pushq %rax
    popq %rax
    testq %rax, %rax
    jz L_loop_end_45
    movq -120(%rbp), %rax
    pushq %rax
    movq -128(%rbp), %rax
    pushq %rax
    movabsq $0xc0, %rax
    pushq %rax
    movq -128(%rbp), %rax
    pushq %rax
    popq %rcx
    popq %rax
    addq %rcx, %rax
    pushq %rax
    movabsq $0xff, %rax
    pushq %rax
    popq %rcx
    popq %rax
    andq %rcx, %rax
    pushq %rax
    popq %rax
    movzbq %al, %rax
    pushq %rax
    popq %rdx
    popq %rcx
    popq %rax
    movb %dl, (%rax,%rcx,1)
    movq -128(%rbp), %rax
    pushq %rax
    movabsq $0x1, %rax
    pushq %rax
    popq %rcx
    popq %rax
    addq %rcx, %rax
    pushq %rax
    popq %rax
    movq %rax, -128(%rbp)
    movq $0, %rax
    pushq %rax
    popq %rax
    jmp L_loop_top_44
L_loop_end_45:
    movabsq $0x8, %rax
    pushq %rax
    popq %rcx
    subq $32, %rsp
    callq malloc
    addq $32, %rsp
    pushq %rax
    popq %rax
    movq %rax, -136(%rbp)
    movq -136(%rbp), %rax
    pushq %rax
    popq %rax
    pushq %rax
    movabsq $0x0, %rax
    pushq %rax
    popq %rcx
    popq %rax
    cmpq %rcx, %rax
    sete %al
    movzbq %al, %rax
    pushq %rax
    popq %rax
    testq %rax, %rax
    jz L_if_end_47
    movabsq $0x6, %rax
    pushq %rax
    popq %rax
    movq %rbp, %rsp
    popq %rbp
    retq
    movq $0, %rax
    pushq %rax
    popq %rax
L_if_end_47:
    movabsq $0xc, %rax
    pushq %rax
    popq %rcx
    subq $32, %rsp
    callq malloc
    addq $32, %rsp
    pushq %rax
    popq %rax
    movq %rax, -144(%rbp)
    movq -144(%rbp), %rax
    pushq %rax
    popq %rax
    pushq %rax
    movabsq $0x0, %rax
    pushq %rax
    popq %rcx
    popq %rax
    cmpq %rcx, %rax
    sete %al
    movzbq %al, %rax
    pushq %rax
    popq %rax
    testq %rax, %rax
    jz L_if_end_49
    movabsq $0x6, %rax
    pushq %rax
    popq %rax
    movq %rbp, %rsp
    popq %rbp
    retq
    movq $0, %rax
    pushq %rax
    popq %rax
L_if_end_49:
    movabsq $0x4, %rax
    pushq %rax
    popq %rcx
    subq $32, %rsp
    callq malloc
    addq $32, %rsp
    pushq %rax
    popq %rax
    movq %rax, -152(%rbp)
    movq -152(%rbp), %rax
    pushq %rax
    popq %rax
    pushq %rax
    movabsq $0x0, %rax
    pushq %rax
    popq %rcx
    popq %rax
    cmpq %rcx, %rax
    sete %al
    movzbq %al, %rax
    pushq %rax
    popq %rax
    testq %rax, %rax
    jz L_if_end_51
    movabsq $0x6, %rax
    pushq %rax
    popq %rax
    movq %rbp, %rsp
    popq %rbp
    retq
    movq $0, %rax
    pushq %rax
    popq %rax
L_if_end_51:
    movabsq $0x10, %rax
    pushq %rax
    popq %rcx
    subq $32, %rsp
    callq malloc
    addq $32, %rsp
    pushq %rax
    popq %rax
    movq %rax, -160(%rbp)
    movq -160(%rbp), %rax
    pushq %rax
    popq %rax
    pushq %rax
    movabsq $0x0, %rax
    pushq %rax
    popq %rcx
    popq %rax
    cmpq %rcx, %rax
    sete %al
    movzbq %al, %rax
    pushq %rax
    popq %rax
    testq %rax, %rax
    jz L_if_end_53
    movabsq $0x6, %rax
    pushq %rax
    popq %rax
    movq %rbp, %rsp
    popq %rbp
    retq
    movq $0, %rax
    pushq %rax
    popq %rax
L_if_end_53:
    movq -136(%rbp), %rax
    pushq %rax
    movabsq $0x0, %rax
    pushq %rax
    movabsq $0x52, %rax
    pushq %rax
    popq %rdx
    popq %rcx
    popq %rax
    movb %dl, (%rax,%rcx,1)
    movq -136(%rbp), %rax
    pushq %rax
    movabsq $0x1, %rax
    pushq %rax
    movabsq $0x45, %rax
    pushq %rax
    popq %rdx
    popq %rcx
    popq %rax
    movb %dl, (%rax,%rcx,1)
    movq -136(%rbp), %rax
    pushq %rax
    movabsq $0x2, %rax
    pushq %rax
    movabsq $0x4e, %rax
    pushq %rax
    popq %rdx
    popq %rcx
    popq %rax
    movb %dl, (%rax,%rcx,1)
    movq -136(%rbp), %rax
    pushq %rax
    movabsq $0x3, %rax
    pushq %rax
    movabsq $0x44, %rax
    pushq %rax
    popq %rdx
    popq %rcx
    popq %rax
    movb %dl, (%rax,%rcx,1)
    movq -136(%rbp), %rax
    pushq %rax
    movabsq $0x4, %rax
    pushq %rax
    movabsq $0x45, %rax
    pushq %rax
    popq %rdx
    popq %rcx
    popq %rax
    movb %dl, (%rax,%rcx,1)
    movq -136(%rbp), %rax
    pushq %rax
    movabsq $0x5, %rax
    pushq %rax
    movabsq $0x52, %rax
    pushq %rax
    popq %rdx
    popq %rcx
    popq %rax
    movb %dl, (%rax,%rcx,1)
    movq -136(%rbp), %rax
    pushq %rax
    movabsq $0x6, %rax
    pushq %rax
    movabsq $0x21, %rax
    pushq %rax
    popq %rdx
    popq %rcx
    popq %rax
    movb %dl, (%rax,%rcx,1)
    movq -136(%rbp), %rax
    pushq %rax
    movabsq $0x7, %rax
    pushq %rax
    movabsq $0x21, %rax
    pushq %rax
    popq %rdx
    popq %rcx
    popq %rax
    movb %dl, (%rax,%rcx,1)
    movq -144(%rbp), %rax
    pushq %rax
    movabsq $0x0, %rax
    pushq %rax
    movabsq $0x4a, %rax
    pushq %rax
    popq %rdx
    popq %rcx
    popq %rax
    movb %dl, (%rax,%rcx,1)
    movq -144(%rbp), %rax
    pushq %rax
    movabsq $0x1, %rax
    pushq %rax
    movabsq $0x53, %rax
    pushq %rax
    popq %rdx
    popq %rcx
    popq %rax
    movb %dl, (%rax,%rcx,1)
    movq -144(%rbp), %rax
    pushq %rax
    movabsq $0x2, %rax
    pushq %rax
    movabsq $0x4f, %rax
    pushq %rax
    popq %rdx
    popq %rcx
    popq %rax
    movb %dl, (%rax,%rcx,1)
    movq -144(%rbp), %rax
    pushq %rax
    movabsq $0x3, %rax
    pushq %rax
    movabsq $0x4e, %rax
    pushq %rax
    popq %rdx
    popq %rcx
    popq %rax
    movb %dl, (%rax,%rcx,1)
    movq -144(%rbp), %rax
    pushq %rax
    movabsq $0x4, %rax
    pushq %rax
    movabsq $0x5f, %rax
    pushq %rax
    popq %rdx
    popq %rcx
    popq %rax
    movb %dl, (%rax,%rcx,1)
    movq -144(%rbp), %rax
    pushq %rax
    movabsq $0x5, %rax
    pushq %rax
    movabsq $0x50, %rax
    pushq %rax
    popq %rdx
    popq %rcx
    popq %rax
    movb %dl, (%rax,%rcx,1)
    movq -144(%rbp), %rax
    pushq %rax
    movabsq $0x6, %rax
    pushq %rax
    movabsq $0x41, %rax
    pushq %rax
    popq %rdx
    popq %rcx
    popq %rax
    movb %dl, (%rax,%rcx,1)
    movq -144(%rbp), %rax
    pushq %rax
    movabsq $0x7, %rax
    pushq %rax
    movabsq $0x59, %rax
    pushq %rax
    popq %rdx
    popq %rcx
    popq %rax
    movb %dl, (%rax,%rcx,1)
    movq -144(%rbp), %rax
    pushq %rax
    movabsq $0x8, %rax
    pushq %rax
    movabsq $0x4c, %rax
    pushq %rax
    popq %rdx
    popq %rcx
    popq %rax
    movb %dl, (%rax,%rcx,1)
    movq -144(%rbp), %rax
    pushq %rax
    movabsq $0x9, %rax
    pushq %rax
    movabsq $0x4f, %rax
    pushq %rax
    popq %rdx
    popq %rcx
    popq %rax
    movb %dl, (%rax,%rcx,1)
    movq -144(%rbp), %rax
    pushq %rax
    movabsq $0xa, %rax
    pushq %rax
    movabsq $0x41, %rax
    pushq %rax
    popq %rdx
    popq %rcx
    popq %rax
    movb %dl, (%rax,%rcx,1)
    movq -144(%rbp), %rax
    pushq %rax
    movabsq $0xb, %rax
    pushq %rax
    movabsq $0x44, %rax
    pushq %rax
    popq %rdx
    popq %rcx
    popq %rax
    movb %dl, (%rax,%rcx,1)
    movq -152(%rbp), %rax
    pushq %rax
    movabsq $0x0, %rax
    pushq %rax
    movabsq $0x45, %rax
    pushq %rax
    popq %rdx
    popq %rcx
    popq %rax
    movb %dl, (%rax,%rcx,1)
    movq -152(%rbp), %rax
    pushq %rax
    movabsq $0x1, %rax
    pushq %rax
    movabsq $0x58, %rax
    pushq %rax
    popq %rdx
    popq %rcx
    popq %rax
    movb %dl, (%rax,%rcx,1)
    movq -152(%rbp), %rax
    pushq %rax
    movabsq $0x2, %rax
    pushq %rax
    movabsq $0x45, %rax
    pushq %rax
    popq %rdx
    popq %rcx
    popq %rax
    movb %dl, (%rax,%rcx,1)
    movq -152(%rbp), %rax
    pushq %rax
    movabsq $0x3, %rax
    pushq %rax
    movabsq $0x43, %rax
    pushq %rax
    popq %rdx
    popq %rcx
    popq %rax
    movb %dl, (%rax,%rcx,1)
    movabsq $0x0, %rax
    pushq %rax
    popq %rax
    movq %rax, -168(%rbp)
L_loop_top_54:
    movq -168(%rbp), %rax
    pushq %rax
    movabsq $0x10, %rax
    pushq %rax
    popq %rcx
    popq %rax
    cmpq %rcx, %rax
    setb %al
    movzbq %al, %rax
    pushq %rax
    popq %rax
    testq %rax, %rax
    jz L_loop_end_55
    movq -160(%rbp), %rax
    pushq %rax
    movq -168(%rbp), %rax
    pushq %rax
    movabsq $0xaa, %rax
    pushq %rax
    popq %rdx
    popq %rcx
    popq %rax
    movb %dl, (%rax,%rcx,1)
    movq -168(%rbp), %rax
    pushq %rax
    movabsq $0x1, %rax
    pushq %rax
    popq %rcx
    popq %rax
    addq %rcx, %rax
    pushq %rax
    popq %rax
    movq %rax, -168(%rbp)
    movq $0, %rax
    pushq %rax
    popq %rax
    jmp L_loop_top_54
L_loop_end_55:
    movabsq $0x4, %rax
    pushq %rax
    popq %rcx
    subq $32, %rsp
    callq malloc
    addq $32, %rsp
    pushq %rax
    popq %rax
    movq %rax, -176(%rbp)
    movq -176(%rbp), %rax
    pushq %rax
    popq %rax
    pushq %rax
    movabsq $0x0, %rax
    pushq %rax
    popq %rcx
    popq %rax
    cmpq %rcx, %rax
    sete %al
    movzbq %al, %rax
    pushq %rax
    popq %rax
    testq %rax, %rax
    jz L_if_end_57
    movabsq $0x7, %rax
    pushq %rax
    popq %rax
    movq %rbp, %rsp
    popq %rbp
    retq
    movq $0, %rax
    pushq %rax
    popq %rax
L_if_end_57:
    movabsq $0x20, %rax
    pushq %rax
    popq %rcx
    subq $32, %rsp
    callq malloc
    addq $32, %rsp
    pushq %rax
    popq %rax
    movq %rax, -184(%rbp)
    movq -184(%rbp), %rax
    pushq %rax
    popq %rax
    pushq %rax
    movabsq $0x0, %rax
    pushq %rax
    popq %rcx
    popq %rax
    cmpq %rcx, %rax
    sete %al
    movzbq %al, %rax
    pushq %rax
    popq %rax
    testq %rax, %rax
    jz L_if_end_59
    movabsq $0x7, %rax
    pushq %rax
    popq %rax
    movq %rbp, %rsp
    popq %rbp
    retq
    movq $0, %rax
    pushq %rax
    popq %rax
L_if_end_59:
    movabsq $0x10, %rax
    pushq %rax
    popq %rcx
    subq $32, %rsp
    callq malloc
    addq $32, %rsp
    pushq %rax
    popq %rax
    movq %rax, -192(%rbp)
    movq -192(%rbp), %rax
    pushq %rax
    popq %rax
    pushq %rax
    movabsq $0x0, %rax
    pushq %rax
    popq %rcx
    popq %rax
    cmpq %rcx, %rax
    sete %al
    movzbq %al, %rax
    pushq %rax
    popq %rax
    testq %rax, %rax
    jz L_if_end_61
    movabsq $0x7, %rax
    pushq %rax
    popq %rax
    movq %rbp, %rsp
    popq %rbp
    retq
    movq $0, %rax
    pushq %rax
    popq %rax
L_if_end_61:
    movq -176(%rbp), %rax
    pushq %rax
    movabsq $0x0, %rax
    pushq %rax
    movabsq $0x1, %rax
    pushq %rax
    popq %rdx
    popq %rcx
    popq %rax
    movb %dl, (%rax,%rcx,1)
    movq -176(%rbp), %rax
    pushq %rax
    movabsq $0x1, %rax
    pushq %rax
    movabsq $0x2, %rax
    pushq %rax
    popq %rdx
    popq %rcx
    popq %rax
    movb %dl, (%rax,%rcx,1)
    movq -176(%rbp), %rax
    pushq %rax
    movabsq $0x2, %rax
    pushq %rax
    movabsq $0x4, %rax
    pushq %rax
    popq %rdx
    popq %rcx
    popq %rax
    movb %dl, (%rax,%rcx,1)
    movq -176(%rbp), %rax
    pushq %rax
    movabsq $0x3, %rax
    pushq %rax
    movabsq $0x8, %rax
    pushq %rax
    popq %rdx
    popq %rcx
    popq %rax
    movb %dl, (%rax,%rcx,1)
    movq -136(%rbp), %rax
    pushq %rax
    popq %rax
    pushq %rax
    popq %rax
    movq %rax, -200(%rbp)
    movq -144(%rbp), %rax
    pushq %rax
    popq %rax
    pushq %rax
    popq %rax
    movq %rax, -208(%rbp)
    movq -152(%rbp), %rax
    pushq %rax
    popq %rax
    pushq %rax
    popq %rax
    movq %rax, -216(%rbp)
    movq -160(%rbp), %rax
    pushq %rax
    popq %rax
    pushq %rax
    popq %rax
    movq %rax, -224(%rbp)
    movq -200(%rbp), %rax
    pushq %rax
    movabsq $0x0, %rax
    pushq %rax
    movq -184(%rbp), %rax
    pushq %rax
    popq %rax
    pushq %rax
    popq %rcx
    popq %rdx
    popq %r8
    subq $32, %rsp
    callq L__write_u64
    addq $32, %rsp
    movslq %eax, %rax
    pushq %rax
    popq %rax
    movq -208(%rbp), %rax
    pushq %rax
    movabsq $0x8, %rax
    pushq %rax
    movq -184(%rbp), %rax
    pushq %rax
    popq %rax
    pushq %rax
    popq %rcx
    popq %rdx
    popq %r8
    subq $32, %rsp
    callq L__write_u64
    addq $32, %rsp
    movslq %eax, %rax
    pushq %rax
    popq %rax
    movq -216(%rbp), %rax
    pushq %rax
    movabsq $0x10, %rax
    pushq %rax
    movq -184(%rbp), %rax
    pushq %rax
    popq %rax
    pushq %rax
    popq %rcx
    popq %rdx
    popq %r8
    subq $32, %rsp
    callq L__write_u64
    addq $32, %rsp
    movslq %eax, %rax
    pushq %rax
    popq %rax
    movq -224(%rbp), %rax
    pushq %rax
    movabsq $0x18, %rax
    pushq %rax
    movq -184(%rbp), %rax
    pushq %rax
    popq %rax
    pushq %rax
    popq %rcx
    popq %rdx
    popq %r8
    subq $32, %rsp
    callq L__write_u64
    addq $32, %rsp
    movslq %eax, %rax
    pushq %rax
    popq %rax
    movq -192(%rbp), %rax
    pushq %rax
    movabsq $0x0, %rax
    pushq %rax
    movabsq $0x8, %rax
    pushq %rax
    popq %rdx
    popq %rcx
    popq %rax
    movb %dl, (%rax,%rcx,1)
    movq -192(%rbp), %rax
    pushq %rax
    movabsq $0x1, %rax
    pushq %rax
    movabsq $0x0, %rax
    pushq %rax
    popq %rdx
    popq %rcx
    popq %rax
    movb %dl, (%rax,%rcx,1)
    movq -192(%rbp), %rax
    pushq %rax
    movabsq $0x2, %rax
    pushq %rax
    movabsq $0x0, %rax
    pushq %rax
    popq %rdx
    popq %rcx
    popq %rax
    movb %dl, (%rax,%rcx,1)
    movq -192(%rbp), %rax
    pushq %rax
    movabsq $0x3, %rax
    pushq %rax
    movabsq $0x0, %rax
    pushq %rax
    popq %rdx
    popq %rcx
    popq %rax
    movb %dl, (%rax,%rcx,1)
    movq -192(%rbp), %rax
    pushq %rax
    movabsq $0x4, %rax
    pushq %rax
    movabsq $0xc, %rax
    pushq %rax
    popq %rdx
    popq %rcx
    popq %rax
    movb %dl, (%rax,%rcx,1)
    movq -192(%rbp), %rax
    pushq %rax
    movabsq $0x5, %rax
    pushq %rax
    movabsq $0x0, %rax
    pushq %rax
    popq %rdx
    popq %rcx
    popq %rax
    movb %dl, (%rax,%rcx,1)
    movq -192(%rbp), %rax
    pushq %rax
    movabsq $0x6, %rax
    pushq %rax
    movabsq $0x0, %rax
    pushq %rax
    popq %rdx
    popq %rcx
    popq %rax
    movb %dl, (%rax,%rcx,1)
    movq -192(%rbp), %rax
    pushq %rax
    movabsq $0x7, %rax
    pushq %rax
    movabsq $0x0, %rax
    pushq %rax
    popq %rdx
    popq %rcx
    popq %rax
    movb %dl, (%rax,%rcx,1)
    movq -192(%rbp), %rax
    pushq %rax
    movabsq $0x8, %rax
    pushq %rax
    movabsq $0x4, %rax
    pushq %rax
    popq %rdx
    popq %rcx
    popq %rax
    movb %dl, (%rax,%rcx,1)
    movq -192(%rbp), %rax
    pushq %rax
    movabsq $0x9, %rax
    pushq %rax
    movabsq $0x0, %rax
    pushq %rax
    popq %rdx
    popq %rcx
    popq %rax
    movb %dl, (%rax,%rcx,1)
    movq -192(%rbp), %rax
    pushq %rax
    movabsq $0xa, %rax
    pushq %rax
    movabsq $0x0, %rax
    pushq %rax
    popq %rdx
    popq %rcx
    popq %rax
    movb %dl, (%rax,%rcx,1)
    movq -192(%rbp), %rax
    pushq %rax
    movabsq $0xb, %rax
    pushq %rax
    movabsq $0x0, %rax
    pushq %rax
    popq %rdx
    popq %rcx
    popq %rax
    movb %dl, (%rax,%rcx,1)
    movq -192(%rbp), %rax
    pushq %rax
    movabsq $0xc, %rax
    pushq %rax
    movabsq $0x10, %rax
    pushq %rax
    popq %rdx
    popq %rcx
    popq %rax
    movb %dl, (%rax,%rcx,1)
    movq -192(%rbp), %rax
    pushq %rax
    movabsq $0xd, %rax
    pushq %rax
    movabsq $0x0, %rax
    pushq %rax
    popq %rdx
    popq %rcx
    popq %rax
    movb %dl, (%rax,%rcx,1)
    movq -192(%rbp), %rax
    pushq %rax
    movabsq $0xe, %rax
    pushq %rax
    movabsq $0x0, %rax
    pushq %rax
    popq %rdx
    popq %rcx
    popq %rax
    movb %dl, (%rax,%rcx,1)
    movq -192(%rbp), %rax
    pushq %rax
    movabsq $0xf, %rax
    pushq %rax
    movabsq $0x0, %rax
    pushq %rax
    popq %rdx
    popq %rcx
    popq %rax
    movb %dl, (%rax,%rcx,1)
    movabsq $0x8, %rax
    pushq %rax
    popq %rcx
    subq $32, %rsp
    callq malloc
    addq $32, %rsp
    pushq %rax
    popq %rax
    movq %rax, -232(%rbp)
    movq -232(%rbp), %rax
    pushq %rax
    popq %rax
    pushq %rax
    movabsq $0x0, %rax
    pushq %rax
    popq %rcx
    popq %rax
    cmpq %rcx, %rax
    sete %al
    movzbq %al, %rax
    pushq %rax
    popq %rax
    testq %rax, %rax
    jz L_if_end_63
    movabsq $0x8, %rax
    pushq %rax
    popq %rax
    movq %rbp, %rsp
    popq %rbp
    retq
    movq $0, %rax
    pushq %rax
    popq %rax
L_if_end_63:
    movabsq $0x4, %rax
    pushq %rax
    popq %rcx
    subq $32, %rsp
    callq malloc
    addq $32, %rsp
    pushq %rax
    popq %rax
    movq %rax, -240(%rbp)
    movq -240(%rbp), %rax
    pushq %rax
    popq %rax
    pushq %rax
    movabsq $0x0, %rax
    pushq %rax
    popq %rcx
    popq %rax
    cmpq %rcx, %rax
    sete %al
    movzbq %al, %rax
    pushq %rax
    popq %rax
    testq %rax, %rax
    jz L_if_end_65
    movabsq $0x8, %rax
    pushq %rax
    popq %rax
    movq %rbp, %rsp
    popq %rbp
    retq
    movq $0, %rax
    pushq %rax
    popq %rax
L_if_end_65:
    movq -120(%rbp), %rax
    pushq %rax
    popq %rax
    pushq %rax
    movq -112(%rbp), %rax
    pushq %rax
    popq %rax
    pushq %rax
    popq %rcx
    popq %rdx
    subq $32, %rsp
    callq L__idoc_set_env
    addq $32, %rsp
    movslq %eax, %rax
    pushq %rax
    popq %rax
    movq -192(%rbp), %rax
    pushq %rax
    popq %rax
    pushq %rax
    movq -184(%rbp), %rax
    pushq %rax
    popq %rax
    pushq %rax
    movq -176(%rbp), %rax
    pushq %rax
    popq %rax
    pushq %rax
    popq %rcx
    popq %rdx
    popq %r8
    subq $32, %rsp
    callq L__idoc_set_facets
    addq $32, %rsp
    movslq %eax, %rax
    pushq %rax
    popq %rax
    movq -240(%rbp), %rax
    pushq %rax
    popq %rax
    pushq %rax
    movq -232(%rbp), %rax
    pushq %rax
    popq %rax
    pushq %rax
    popq %rcx
    popq %rdx
    subq $32, %rsp
    callq L__idoc_set_outs
    addq $32, %rsp
    movslq %eax, %rax
    pushq %rax
    popq %rax
    movq -112(%rbp), %rax
    pushq %rax
    popq %rax
    pushq %rax
    popq %rcx
    subq $32, %rsp
    callq babel_wire_init
    addq $32, %rsp
    movslq %eax, %rax
    pushq %rax
    popq %rax
    movabsq $0xbeef244a, %rax
    pushq %rax
    movq -112(%rbp), %rax
    pushq %rax
    popq %rax
    pushq %rax
    popq %rcx
    popq %rdx
    subq $32, %rsp
    callq babel_wire_set_seal_id
    addq $32, %rsp
    movslq %eax, %rax
    pushq %rax
    popq %rax
    movabsq $0x244b, %rax
    pushq %rax
    movq -112(%rbp), %rax
    pushq %rax
    popq %rax
    pushq %rax
    popq %rcx
    popq %rdx
    subq $32, %rsp
    callq babel_wire_set_intent_id
    addq $32, %rsp
    movslq %eax, %rax
    pushq %rax
    popq %rax
    movq -120(%rbp), %rax
    pushq %rax
    popq %rax
    pushq %rax
    movq -112(%rbp), %rax
    pushq %rax
    popq %rax
    pushq %rax
    popq %rcx
    popq %rdx
    subq $32, %rsp
    callq babel_wire_set_ctx_digest
    addq $32, %rsp
    movslq %eax, %rax
    pushq %rax
    popq %rax
    movabsq $0xf, %rax
    pushq %rax
    movq -112(%rbp), %rax
    pushq %rax
    popq %rax
    pushq %rax
    popq %rcx
    popq %rdx
    subq $32, %rsp
    callq babel_wire_set_facet
    addq $32, %rsp
    movslq %eax, %rax
    pushq %rax
    popq %rax
    subq $32, %rsp
    callq babel_wire_header_bytes
    addq $32, %rsp
    movl %eax, %eax
    pushq %rax
    popq %rax
    movq %rax, -248(%rbp)
    movq -112(%rbp), %rax
    pushq %rax
    popq %rax
    pushq %rax
    movl -248(%rbp), %eax
    pushq %rax
    popq %rax
    pushq %rax
    popq %rcx
    popq %rax
    addq %rcx, %rax
    pushq %rax
    popq %rax
    movq %rax, -256(%rbp)
    subq $8, %rsp
    movabsq $0x200, %rax
    pushq %rax
    movl -248(%rbp), %eax
    pushq %rax
    popq %rcx
    popq %rax
    subq %rcx, %rax
    pushq %rax
    movq -256(%rbp), %rax
    pushq %rax
    movq -192(%rbp), %rax
    pushq %rax
    popq %rax
    pushq %rax
    movq -184(%rbp), %rax
    pushq %rax
    popq %rax
    pushq %rax
    movq -176(%rbp), %rax
    pushq %rax
    popq %rax
    pushq %rax
    popq %rcx
    popq %rdx
    popq %r8
    popq %r9
    subq $32, %rsp
    callq idoc_pack_payload
    addq $32, %rsp
    addq $8, %rsp
    addq $8, %rsp
    movl %eax, %eax
    pushq %rax
    popq %rax
    movq %rax, -264(%rbp)
    movl -264(%rbp), %eax
    pushq %rax
    movabsq $0x3c, %rax
    pushq %rax
    popq %rcx
    popq %rax
    cmpq %rcx, %rax
    setne %al
    movzbq %al, %rax
    pushq %rax
    popq %rax
    testq %rax, %rax
    jz L_if_end_67
    movabsq $0x12, %rax
    pushq %rax
    popq %rax
    movq %rbp, %rsp
    popq %rbp
    retq
    movq $0, %rax
    pushq %rax
    popq %rax
L_if_end_67:
    movl -264(%rbp), %eax
    pushq %rax
    movq -112(%rbp), %rax
    pushq %rax
    popq %rax
    pushq %rax
    popq %rcx
    popq %rdx
    subq $32, %rsp
    callq idoc_finalize
    addq $32, %rsp
    movl %eax, %eax
    pushq %rax
    popq %rax
    movq %rax, -272(%rbp)
    movl -272(%rbp), %eax
    pushq %rax
    movl -248(%rbp), %eax
    pushq %rax
    movl -264(%rbp), %eax
    pushq %rax
    popq %rcx
    popq %rax
    addq %rcx, %rax
    movl %eax, %eax
    pushq %rax
    popq %rcx
    popq %rax
    cmpq %rcx, %rax
    setne %al
    movzbq %al, %rax
    pushq %rax
    popq %rax
    testq %rax, %rax
    jz L_if_end_69
    movabsq $0x13, %rax
    pushq %rax
    popq %rax
    movq %rbp, %rsp
    popq %rbp
    retq
    movq $0, %rax
    pushq %rax
    popq %rax
L_if_end_69:
    movl -272(%rbp), %eax
    pushq %rax
    movq -112(%rbp), %rax
    pushq %rax
    popq %rax
    pushq %rax
    popq %rcx
    popq %rdx
    subq $32, %rsp
    callq idoc_validate
    addq $32, %rsp
    movzbq %al, %rax
    pushq %rax
    movabsq $0x1, %rax
    pushq %rax
    popq %rcx
    popq %rax
    cmpq %rcx, %rax
    setne %al
    movzbq %al, %rax
    pushq %rax
    popq %rax
    testq %rax, %rax
    jz L_if_end_71
    movabsq $0x14, %rax
    pushq %rax
    popq %rax
    movq %rbp, %rsp
    popq %rbp
    retq
    movq $0, %rax
    pushq %rax
    popq %rax
L_if_end_71:
    movq -240(%rbp), %rax
    pushq %rax
    popq %rax
    pushq %rax
    movq -232(%rbp), %rax
    pushq %rax
    popq %rax
    pushq %rax
    movabsq $0x1, %rax
    pushq %rax
    movq -112(%rbp), %rax
    pushq %rax
    popq %rax
    pushq %rax
    popq %rcx
    popq %rdx
    popq %r8
    popq %r9
    subq $32, %rsp
    callq idoc_resolve_facet
    addq $32, %rsp
    movzbq %al, %rax
    pushq %rax
    popq %rax
    movq %rax, -280(%rbp)
    movzbq -280(%rbp), %rax
    pushq %rax
    movabsq $0x1, %rax
    pushq %rax
    popq %rcx
    popq %rax
    cmpq %rcx, %rax
    setne %al
    movzbq %al, %rax
    pushq %rax
    popq %rax
    testq %rax, %rax
    jz L_if_end_73
    movabsq $0x15, %rax
    pushq %rax
    popq %rax
    movq %rbp, %rsp
    popq %rbp
    retq
    movq $0, %rax
    pushq %rax
    popq %rax
L_if_end_73:
    movabsq $0x0, %rax
    pushq %rax
    movq -240(%rbp), %rax
    pushq %rax
    popq %rcx
    popq %rdx
    subq $32, %rsp
    callq L__read_u32
    addq $32, %rsp
    movl %eax, %eax
    pushq %rax
    popq %rax
    movq %rax, -288(%rbp)
    movl -288(%rbp), %eax
    pushq %rax
    movabsq $0x8, %rax
    pushq %rax
    popq %rcx
    popq %rax
    cmpq %rcx, %rax
    setne %al
    movzbq %al, %rax
    pushq %rax
    popq %rax
    testq %rax, %rax
    jz L_if_end_75
    movabsq $0x16, %rax
    pushq %rax
    popq %rax
    movq %rbp, %rsp
    popq %rbp
    retq
    movq $0, %rax
    pushq %rax
    popq %rax
L_if_end_75:
    subq $32, %rsp
    callq L__bench_idoc
    addq $32, %rsp
    pushq %rax
    popq %rax
    movq %rax, -296(%rbp)
    movq -296(%rbp), %rax
    pushq %rax
    movq L_C244_BUDGET_IDOC(%rip), %rax
    pushq %rax
    popq %rcx
    popq %rax
    cmpq %rcx, %rax
    setae %al
    movzbq %al, %rax
    pushq %rax
    popq %rax
    testq %rax, %rax
    jz L_if_end_77
    movabsq $0x18, %rax
    pushq %rax
    popq %rax
    movq %rbp, %rsp
    popq %rbp
    retq
    movq $0, %rax
    pushq %rax
    popq %rax
L_if_end_77:
    movq -8(%rbp), %rax
    pushq %rax
    popq %rcx
    subq $32, %rsp
    callq free
    addq $32, %rsp
    pushq %rax
    popq %rax
    movq -16(%rbp), %rax
    pushq %rax
    popq %rcx
    subq $32, %rsp
    callq free
    addq $32, %rsp
    pushq %rax
    popq %rax
    movq -24(%rbp), %rax
    pushq %rax
    popq %rcx
    subq $32, %rsp
    callq free
    addq $32, %rsp
    pushq %rax
    popq %rax
    movq -112(%rbp), %rax
    pushq %rax
    popq %rcx
    subq $32, %rsp
    callq free
    addq $32, %rsp
    pushq %rax
    popq %rax
    movq -120(%rbp), %rax
    pushq %rax
    popq %rcx
    subq $32, %rsp
    callq free
    addq $32, %rsp
    pushq %rax
    popq %rax
    movq -136(%rbp), %rax
    pushq %rax
    popq %rcx
    subq $32, %rsp
    callq free
    addq $32, %rsp
    pushq %rax
    popq %rax
    movq -144(%rbp), %rax
    pushq %rax
    popq %rcx
    subq $32, %rsp
    callq free
    addq $32, %rsp
    pushq %rax
    popq %rax
    movq -152(%rbp), %rax
    pushq %rax
    popq %rcx
    subq $32, %rsp
    callq free
    addq $32, %rsp
    pushq %rax
    popq %rax
    movq -160(%rbp), %rax
    pushq %rax
    popq %rcx
    subq $32, %rsp
    callq free
    addq $32, %rsp
    pushq %rax
    popq %rax
    movq -176(%rbp), %rax
    pushq %rax
    popq %rcx
    subq $32, %rsp
    callq free
    addq $32, %rsp
    pushq %rax
    popq %rax
    movq -184(%rbp), %rax
    pushq %rax
    popq %rcx
    subq $32, %rsp
    callq free
    addq $32, %rsp
    pushq %rax
    popq %rax
    movq -192(%rbp), %rax
    pushq %rax
    popq %rcx
    subq $32, %rsp
    callq free
    addq $32, %rsp
    pushq %rax
    popq %rax
    movq -232(%rbp), %rax
    pushq %rax
    popq %rcx
    subq $32, %rsp
    callq free
    addq $32, %rsp
    pushq %rax
    popq %rax
    movq -240(%rbp), %rax
    pushq %rax
    popq %rcx
    subq $32, %rsp
    callq free
    addq $32, %rsp
    pushq %rax
    popq %rax
    movabsq $0x63, %rax
    pushq %rax
    popq %rax
    movq %rbp, %rsp
    popq %rbp
    retq
    movq $0, %rax
    pushq %rax
    movq $0, %rax
    movq %rbp, %rsp
    popq %rbp
    retq
    .seh_endproc
