# III Stage-0 Ring-3 codegen output
# Microsoft x64 ABI; gas syntax (AT&T); PE/COFF target
    .att_syntax
    .file 1 "<iii-source>"
    .section .rodata
L_str_0:
    .ascii "msvcrtegraph.iiiegraph.iiiegraph.iiiegraph.iiiegraph.iiiegraph.iiiegraph.iiioptinvoke.iiioptinvoke.iii\0"
L_str_1:
    .ascii "egraph.iiiegraph.iiiegraph.iiiegraph.iiiegraph.iiiegraph.iiiegraph.iiioptinvoke.iiioptinvoke.iii\0"
L_str_2:
    .ascii "egraph.iiiegraph.iiiegraph.iiiegraph.iiiegraph.iiiegraph.iiioptinvoke.iiioptinvoke.iii\0"
L_str_3:
    .ascii "egraph.iiiegraph.iiiegraph.iiiegraph.iiiegraph.iiioptinvoke.iiioptinvoke.iii\0"
L_str_4:
    .ascii "egraph.iiiegraph.iiiegraph.iiiegraph.iiioptinvoke.iiioptinvoke.iii\0"
L_str_5:
    .ascii "egraph.iiiegraph.iiiegraph.iiioptinvoke.iiioptinvoke.iii\0"
L_str_6:
    .ascii "egraph.iiiegraph.iiioptinvoke.iiioptinvoke.iii\0"
L_str_7:
    .ascii "egraph.iiioptinvoke.iiioptinvoke.iii\0"
L_str_8:
    .ascii "optinvoke.iiioptinvoke.iii\0"
L_str_9:
    .ascii "optinvoke.iii\0"
    .section .iii.ring3,"n"
    .asciz "kset_sym"
    .text
    .global L_kset_sym
    .seh_proc L_kset_sym
L_kset_sym:
    pushq %rbp
    .seh_pushreg %rbp
    movq %rsp, %rbp
    .seh_setframe %rbp, 0
    subq $1024, %rsp
    .seh_stackalloc 1024
    .seh_endprologue
    movq %rcx, -8(%rbp)
    movq %rdx, -16(%rbp)
    movabsq $0x0, %rax
    pushq %rax
    popq %rax
    movq %rax, -24(%rbp)
L_loop_top_0:
    movq -24(%rbp), %rax
    pushq %rax
    movabsq $0x20, %rax
    pushq %rax
    popq %rcx
    popq %rax
    cmpq %rcx, %rax
    setb %al
    movzbq %al, %rax
    pushq %rax
    popq %rax
    testq %rax, %rax
    jz L_loop_end_1
    movq -8(%rbp), %rax
    pushq %rax
    movq -24(%rbp), %rax
    pushq %rax
    movabsq $0x0, %rax
    pushq %rax
    popq %rdx
    popq %rcx
    popq %rax
    movb %dl, (%rax,%rcx,1)
    movq -24(%rbp), %rax
    pushq %rax
    movabsq $0x1, %rax
    pushq %rax
    popq %rcx
    popq %rax
    addq %rcx, %rax
    pushq %rax
    popq %rax
    movq %rax, -24(%rbp)
    movq $0, %rax
    pushq %rax
    popq %rax
    jmp L_loop_top_0
L_loop_end_1:
    movq -8(%rbp), %rax
    pushq %rax
    movabsq $0x0, %rax
    pushq %rax
    movzbq -16(%rbp), %rax
    pushq %rax
    popq %rdx
    popq %rcx
    popq %rax
    movb %dl, (%rax,%rcx,1)
    movabsq $0x0, %rax
    pushq %rax
    popq %rax
    movq %rbp, %rsp
    popq %rbp
    retq
    movq $0, %rax
    pushq %rax
    movq $0, %rax
    movq %rbp, %rsp
    popq %rbp
    retq
    .seh_endproc
    .section .iii.ring3,"n"
    .asciz "kfill"
    .text
    .global L_kfill
    .seh_proc L_kfill
L_kfill:
    pushq %rbp
    .seh_pushreg %rbp
    movq %rsp, %rbp
    .seh_setframe %rbp, 0
    subq $1024, %rsp
    .seh_stackalloc 1024
    .seh_endprologue
    movq %rcx, -8(%rbp)
    movq %rdx, -16(%rbp)
    movq %r8, -24(%rbp)
    movq %r9, -32(%rbp)
    movabsq $0x0, %rax
    pushq %rax
    popq %rax
    movq %rax, -40(%rbp)
L_loop_top_2:
    movq -40(%rbp), %rax
    pushq %rax
    movq -24(%rbp), %rax
    pushq %rax
    popq %rcx
    popq %rax
    cmpq %rcx, %rax
    setb %al
    movzbq %al, %rax
    pushq %rax
    popq %rax
    testq %rax, %rax
    jz L_loop_end_3
    movq -8(%rbp), %rax
    pushq %rax
    movq -16(%rbp), %rax
    pushq %rax
    movq -40(%rbp), %rax
    pushq %rax
    popq %rcx
    popq %rax
    addq %rcx, %rax
    pushq %rax
    movq -32(%rbp), %rax
    pushq %rax
    movq -40(%rbp), %rax
    pushq %rax
    popq %rcx
    popq %rax
    addq %rcx, %rax
    pushq %rax
    movabsq $0xff, %rax
    pushq %rax
    popq %rcx
    popq %rax
    andq %rcx, %rax
    pushq %rax
    popq %rax
    movzbq %al, %rax
    pushq %rax
    popq %rdx
    popq %rcx
    popq %rax
    movb %dl, (%rax,%rcx,1)
    movq -40(%rbp), %rax
    pushq %rax
    movabsq $0x1, %rax
    pushq %rax
    popq %rcx
    popq %rax
    addq %rcx, %rax
    pushq %rax
    popq %rax
    movq %rax, -40(%rbp)
    movq $0, %rax
    pushq %rax
    popq %rax
    jmp L_loop_top_2
L_loop_end_3:
    movabsq $0x0, %rax
    pushq %rax
    popq %rax
    movq %rbp, %rsp
    popq %rbp
    retq
    movq $0, %rax
    pushq %rax
    movq $0, %rax
    movq %rbp, %rsp
    popq %rbp
    retq
    .seh_endproc
    .section .iii.ring3,"n"
    .asciz "kst_u64"
    .text
    .global L_kst_u64
    .seh_proc L_kst_u64
L_kst_u64:
    pushq %rbp
    .seh_pushreg %rbp
    movq %rsp, %rbp
    .seh_setframe %rbp, 0
    subq $1024, %rsp
    .seh_stackalloc 1024
    .seh_endprologue
    movq %rcx, -8(%rbp)
    movq %rdx, -16(%rbp)
    movq %r8, -24(%rbp)
    movabsq $0x0, %rax
    pushq %rax
    popq %rax
    movq %rax, -32(%rbp)
    movq -24(%rbp), %rax
    pushq %rax
    popq %rax
    movq %rax, -40(%rbp)
L_loop_top_4:
    movq -32(%rbp), %rax
    pushq %rax
    movabsq $0x8, %rax
    pushq %rax
    popq %rcx
    popq %rax
    cmpq %rcx, %rax
    setb %al
    movzbq %al, %rax
    pushq %rax
    popq %rax
    testq %rax, %rax
    jz L_loop_end_5
    movq -8(%rbp), %rax
    pushq %rax
    movq -16(%rbp), %rax
    pushq %rax
    movq -32(%rbp), %rax
    pushq %rax
    popq %rcx
    popq %rax
    addq %rcx, %rax
    pushq %rax
    movq -40(%rbp), %rax
    pushq %rax
    movabsq $0xff, %rax
    pushq %rax
    popq %rcx
    popq %rax
    andq %rcx, %rax
    pushq %rax
    popq %rax
    movzbq %al, %rax
    pushq %rax
    popq %rdx
    popq %rcx
    popq %rax
    movb %dl, (%rax,%rcx,1)
    movq -40(%rbp), %rax
    pushq %rax
    movabsq $0x8, %rax
    pushq %rax
    popq %rcx
    popq %rax
    shrq %cl, %rax
    pushq %rax
    popq %rax
    movq %rax, -40(%rbp)
    movq -32(%rbp), %rax
    pushq %rax
    movabsq $0x1, %rax
    pushq %rax
    popq %rcx
    popq %rax
    addq %rcx, %rax
    pushq %rax
    popq %rax
    movq %rax, -32(%rbp)
    movq $0, %rax
    pushq %rax
    popq %rax
    jmp L_loop_top_4
L_loop_end_5:
    movabsq $0x0, %rax
    pushq %rax
    popq %rax
    movq %rbp, %rsp
    popq %rbp
    retq
    movq $0, %rax
    pushq %rax
    movq $0, %rax
    movq %rbp, %rsp
    popq %rbp
    retq
    .seh_endproc
    .section .iii.ring3,"n"
    .asciz "kcand"
    .text
    .global L_kcand
    .seh_proc L_kcand
L_kcand:
    pushq %rbp
    .seh_pushreg %rbp
    movq %rsp, %rbp
    .seh_setframe %rbp, 0
    subq $1024, %rsp
    .seh_stackalloc 1024
    .seh_endprologue
    movq %rcx, -8(%rbp)
    movq %rdx, -16(%rbp)
    movq %r8, -24(%rbp)
    movq %r9, -32(%rbp)
    movq 48(%rbp), %rax
    movq %rax, -40(%rbp)
    movq 56(%rbp), %rax
    movq %rax, -48(%rbp)
    movq -16(%rbp), %rax
    pushq %rax
    movabsq $0x50, %rax
    pushq %rax
    popq %rcx
    popq %rax
    imulq %rcx, %rax
    pushq %rax
    popq %rax
    movq %rax, -56(%rbp)
    movq -24(%rbp), %rax
    pushq %rax
    movabsq $0x20, %rax
    pushq %rax
    movq -56(%rbp), %rax
    pushq %rax
    movq -8(%rbp), %rax
    pushq %rax
    popq %rcx
    popq %rdx
    popq %r8
    popq %r9
    subq $32, %rsp
    callq L_kfill
    addq $32, %rsp
    pushq %rax
    popq %rax
    movq -32(%rbp), %rax
    pushq %rax
    movabsq $0x20, %rax
    pushq %rax
    movq -56(%rbp), %rax
    pushq %rax
    movabsq $0x20, %rax
    pushq %rax
    popq %rcx
    popq %rax
    addq %rcx, %rax
    pushq %rax
    movq -8(%rbp), %rax
    pushq %rax
    popq %rcx
    popq %rdx
    popq %r8
    popq %r9
    subq $32, %rsp
    callq L_kfill
    addq $32, %rsp
    pushq %rax
    popq %rax
    movq -40(%rbp), %rax
    pushq %rax
    movq -56(%rbp), %rax
    pushq %rax
    movabsq $0x40, %rax
    pushq %rax
    popq %rcx
    popq %rax
    addq %rcx, %rax
    pushq %rax
    movq -8(%rbp), %rax
    pushq %rax
    popq %rcx
    popq %rdx
    popq %r8
    subq $32, %rsp
    callq L_kst_u64
    addq $32, %rsp
    pushq %rax
    popq %rax
    movq -8(%rbp), %rax
    pushq %rax
    movq -56(%rbp), %rax
    pushq %rax
    movabsq $0x48, %rax
    pushq %rax
    popq %rcx
    popq %rax
    addq %rcx, %rax
    pushq %rax
    movzbq -48(%rbp), %rax
    pushq %rax
    popq %rdx
    popq %rcx
    popq %rax
    movb %dl, (%rax,%rcx,1)
    movabsq $0x0, %rax
    pushq %rax
    popq %rax
    movq %rbp, %rsp
    popq %rbp
    retq
    movq $0, %rax
    pushq %rax
    movq $0, %rax
    movq %rbp, %rsp
    popq %rbp
    retq
    .seh_endproc
    .section .iii.ring3,"n"
    .asciz "enc_sym"
    .text
    .global L_enc_sym
    .seh_proc L_enc_sym
L_enc_sym:
    pushq %rbp
    .seh_pushreg %rbp
    movq %rsp, %rbp
    .seh_setframe %rbp, 0
    subq $1024, %rsp
    .seh_stackalloc 1024
    .seh_endprologue
    movq %rcx, -8(%rbp)
    movq %rdx, -16(%rbp)
    movl -8(%rbp), %eax
    pushq %rax
    movabsq $0x1, %rax
    pushq %rax
    popq %rcx
    popq %rax
    shlq %cl, %rax
    movl %eax, %eax
    pushq %rax
    movl -16(%rbp), %eax
    pushq %rax
    movabsq $0x10, %rax
    pushq %rax
    popq %rcx
    popq %rax
    shlq %cl, %rax
    movl %eax, %eax
    pushq %rax
    popq %rcx
    popq %rax
    orq %rcx, %rax
    pushq %rax
    popq %rax
    movq %rbp, %rsp
    popq %rbp
    retq
    movq $0, %rax
    pushq %rax
    movq $0, %rax
    movq %rbp, %rsp
    popq %rbp
    retq
    .seh_endproc
    .section .iii.ring3,"n"
    .asciz "enc_var"
    .text
    .global L_enc_var
    .seh_proc L_enc_var
L_enc_var:
    pushq %rbp
    .seh_pushreg %rbp
    movq %rsp, %rbp
    .seh_setframe %rbp, 0
    subq $1024, %rsp
    .seh_stackalloc 1024
    .seh_endprologue
    movq %rcx, -8(%rbp)
    movl -8(%rbp), %eax
    pushq %rax
    movabsq $0x1, %rax
    pushq %rax
    popq %rcx
    popq %rax
    shlq %cl, %rax
    movl %eax, %eax
    pushq %rax
    movabsq $0x1, %rax
    pushq %rax
    popq %rcx
    popq %rax
    orq %rcx, %rax
    pushq %rax
    popq %rax
    movq %rbp, %rsp
    popq %rbp
    retq
    movq $0, %rax
    pushq %rax
    movq $0, %rax
    movq %rbp, %rsp
    popq %rbp
    retq
    .seh_endproc
    .section .iii.ring3,"n"
    .asciz "main"
    .text
    .global main
    .seh_proc main
main:
    pushq %rbp
    .seh_pushreg %rbp
    movq %rsp, %rbp
    .seh_setframe %rbp, 0
    subq $1024, %rsp
    .seh_stackalloc 1024
    .seh_endprologue
    movabsq $0x20, %rax
    pushq %rax
    popq %rcx
    subq $32, %rsp
    callq malloc
    addq $32, %rsp
    pushq %rax
    popq %rax
    movq %rax, -8(%rbp)
    movabsq $0x40, %rax
    pushq %rax
    popq %rcx
    subq $32, %rsp
    callq malloc
    addq $32, %rsp
    pushq %rax
    popq %rax
    movq %rax, -16(%rbp)
    movq -16(%rbp), %rax
    pushq %rax
    popq %rax
    pushq %rax
    popq %rax
    pushq %rax
    popq %rax
    movq %rax, -24(%rbp)
    movabsq $0x80, %rax
    pushq %rax
    popq %rcx
    subq $32, %rsp
    callq malloc
    addq $32, %rsp
    pushq %rax
    popq %rax
    movq %rax, -32(%rbp)
    movq -32(%rbp), %rax
    pushq %rax
    popq %rax
    pushq %rax
    popq %rax
    pushq %rax
    popq %rax
    movq %rax, -40(%rbp)
    movabsq $0x200, %rax
    pushq %rax
    popq %rcx
    subq $32, %rsp
    callq malloc
    addq $32, %rsp
    pushq %rax
    popq %rax
    movq %rax, -48(%rbp)
    movq -48(%rbp), %rax
    pushq %rax
    popq %rax
    pushq %rax
    popq %rax
    pushq %rax
    popq %rax
    movq %rax, -56(%rbp)
    movabsq $0x80, %rax
    pushq %rax
    popq %rcx
    subq $32, %rsp
    callq malloc
    addq $32, %rsp
    pushq %rax
    popq %rax
    movq %rax, -64(%rbp)
    movq -64(%rbp), %rax
    pushq %rax
    popq %rax
    pushq %rax
    popq %rax
    pushq %rax
    popq %rax
    movq %rax, -72(%rbp)
    movabsq $0x20, %rax
    pushq %rax
    popq %rcx
    subq $32, %rsp
    callq malloc
    addq $32, %rsp
    pushq %rax
    popq %rax
    movq %rax, -80(%rbp)
    movq -80(%rbp), %rax
    pushq %rax
    popq %rax
    pushq %rax
    popq %rax
    pushq %rax
    popq %rax
    movq %rax, -88(%rbp)
    movabsq $0x2, %rax
    pushq %rax
    movabsq $0x50, %rax
    pushq %rax
    popq %rcx
    popq %rax
    imulq %rcx, %rax
    pushq %rax
    popq %rcx
    subq $32, %rsp
    callq malloc
    addq $32, %rsp
    pushq %rax
    popq %rax
    movq %rax, -96(%rbp)
    movabsq $0x20, %rax
    pushq %rax
    popq %rcx
    subq $32, %rsp
    callq malloc
    addq $32, %rsp
    pushq %rax
    popq %rax
    movq %rax, -104(%rbp)
    subq $32, %rsp
    callq eg_init
    addq $32, %rsp
    movslq %eax, %rax
    pushq %rax
    popq %rax
    movabsq $0xc, %rax
    pushq %rax
    movq -8(%rbp), %rax
    pushq %rax
    popq %rcx
    popq %rdx
    subq $32, %rsp
    callq L_kset_sym
    addq $32, %rsp
    pushq %rax
    popq %rax
    movabsq $0x0, %rax
    pushq %rax
    movq -24(%rbp), %rax
    pushq %rax
    movq -8(%rbp), %rax
    pushq %rax
    popq %rcx
    popq %rdx
    popq %r8
    subq $32, %rsp
    callq eg_add
    addq $32, %rsp
    movl %eax, %eax
    pushq %rax
    popq %rax
    movq %rax, -112(%rbp)
    movabsq $0xd, %rax
    pushq %rax
    movq -8(%rbp), %rax
    pushq %rax
    popq %rcx
    popq %rdx
    subq $32, %rsp
    callq L_kset_sym
    addq $32, %rsp
    pushq %rax
    popq %rax
    movabsq $0x0, %rax
    pushq %rax
    movq -24(%rbp), %rax
    pushq %rax
    movq -8(%rbp), %rax
    pushq %rax
    popq %rcx
    popq %rdx
    popq %r8
    subq $32, %rsp
    callq eg_add
    addq $32, %rsp
    movl %eax, %eax
    pushq %rax
    popq %rax
    movq %rax, -120(%rbp)
    movabsq $0xe, %rax
    pushq %rax
    movq -8(%rbp), %rax
    pushq %rax
    popq %rcx
    popq %rdx
    subq $32, %rsp
    callq L_kset_sym
    addq $32, %rsp
    pushq %rax
    popq %rax
    movabsq $0x0, %rax
    pushq %rax
    movq -24(%rbp), %rax
    pushq %rax
    movq -8(%rbp), %rax
    pushq %rax
    popq %rcx
    popq %rdx
    popq %r8
    subq $32, %rsp
    callq eg_add
    addq $32, %rsp
    movl %eax, %eax
    pushq %rax
    popq %rax
    movq %rax, -128(%rbp)
    movabsq $0xa, %rax
    pushq %rax
    movq -8(%rbp), %rax
    pushq %rax
    popq %rcx
    popq %rdx
    subq $32, %rsp
    callq L_kset_sym
    addq $32, %rsp
    pushq %rax
    popq %rax
    movq -24(%rbp), %rax
    pushq %rax
    movabsq $0x0, %rax
    pushq %rax
    movl -112(%rbp), %eax
    pushq %rax
    popq %rdx
    popq %rcx
    popq %rax
    movl %edx, (%rax,%rcx,4)
    movq -24(%rbp), %rax
    pushq %rax
    movabsq $0x1, %rax
    pushq %rax
    movl -120(%rbp), %eax
    pushq %rax
    popq %rdx
    popq %rcx
    popq %rax
    movl %edx, (%rax,%rcx,4)
    movabsq $0x2, %rax
    pushq %rax
    movq -24(%rbp), %rax
    pushq %rax
    movq -8(%rbp), %rax
    pushq %rax
    popq %rcx
    popq %rdx
    popq %r8
    subq $32, %rsp
    callq eg_add
    addq $32, %rsp
    movl %eax, %eax
    pushq %rax
    popq %rax
    movq %rax, -136(%rbp)
    movabsq $0xb, %rax
    pushq %rax
    movq -8(%rbp), %rax
    pushq %rax
    popq %rcx
    popq %rdx
    subq $32, %rsp
    callq L_kset_sym
    addq $32, %rsp
    pushq %rax
    popq %rax
    movq -24(%rbp), %rax
    pushq %rax
    movabsq $0x0, %rax
    pushq %rax
    movl -112(%rbp), %eax
    pushq %rax
    popq %rdx
    popq %rcx
    popq %rax
    movl %edx, (%rax,%rcx,4)
    movq -24(%rbp), %rax
    pushq %rax
    movabsq $0x1, %rax
    pushq %rax
    movl -128(%rbp), %eax
    pushq %rax
    popq %rdx
    popq %rcx
    popq %rax
    movl %edx, (%rax,%rcx,4)
    movabsq $0x2, %rax
    pushq %rax
    movq -24(%rbp), %rax
    pushq %rax
    movq -8(%rbp), %rax
    pushq %rax
    popq %rcx
    popq %rdx
    popq %r8
    subq $32, %rsp
    callq eg_add
    addq $32, %rsp
    movl %eax, %eax
    pushq %rax
    popq %rax
    movq %rax, -144(%rbp)
    movabsq $0xa, %rax
    pushq %rax
    movq -8(%rbp), %rax
    pushq %rax
    popq %rcx
    popq %rdx
    subq $32, %rsp
    callq L_kset_sym
    addq $32, %rsp
    pushq %rax
    popq %rax
    movq -8(%rbp), %rax
    pushq %rax
    popq %rcx
    subq $32, %rsp
    callq eg_intern_symbol
    addq $32, %rsp
    movl %eax, %eax
    pushq %rax
    popq %rax
    movq %rax, -152(%rbp)
    movabsq $0xb, %rax
    pushq %rax
    movq -8(%rbp), %rax
    pushq %rax
    popq %rcx
    popq %rdx
    subq $32, %rsp
    callq L_kset_sym
    addq $32, %rsp
    pushq %rax
    popq %rax
    movq -8(%rbp), %rax
    pushq %rax
    popq %rcx
    subq $32, %rsp
    callq eg_intern_symbol
    addq $32, %rsp
    movl %eax, %eax
    pushq %rax
    popq %rax
    movq %rax, -160(%rbp)
    movabsq $0xd, %rax
    pushq %rax
    movq -8(%rbp), %rax
    pushq %rax
    popq %rcx
    popq %rdx
    subq $32, %rsp
    callq L_kset_sym
    addq $32, %rsp
    pushq %rax
    popq %rax
    movq -8(%rbp), %rax
    pushq %rax
    popq %rcx
    subq $32, %rsp
    callq eg_intern_symbol
    addq $32, %rsp
    movl %eax, %eax
    pushq %rax
    popq %rax
    movq %rax, -168(%rbp)
    movabsq $0xe, %rax
    pushq %rax
    movq -8(%rbp), %rax
    pushq %rax
    popq %rcx
    popq %rdx
    subq $32, %rsp
    callq L_kset_sym
    addq $32, %rsp
    pushq %rax
    popq %rax
    movq -8(%rbp), %rax
    pushq %rax
    popq %rcx
    subq $32, %rsp
    callq eg_intern_symbol
    addq $32, %rsp
    movl %eax, %eax
    pushq %rax
    popq %rax
    movq %rax, -176(%rbp)
    movabsq $0xc, %rax
    pushq %rax
    movq -8(%rbp), %rax
    pushq %rax
    popq %rcx
    popq %rdx
    subq $32, %rsp
    callq L_kset_sym
    addq $32, %rsp
    pushq %rax
    popq %rax
    movq -8(%rbp), %rax
    pushq %rax
    popq %rcx
    subq $32, %rsp
    callq eg_intern_symbol
    addq $32, %rsp
    movl %eax, %eax
    pushq %rax
    popq %rax
    movq %rax, -184(%rbp)
    movq -40(%rbp), %rax
    pushq %rax
    movabsq $0x0, %rax
    pushq %rax
    movabsq $0x3, %rax
    pushq %rax
    popq %rdx
    popq %rcx
    popq %rax
    movl %edx, (%rax,%rcx,4)
    movq -40(%rbp), %rax
    pushq %rax
    movabsq $0x1, %rax
    pushq %rax
    movabsq $0x3, %rax
    pushq %rax
    popq %rdx
    popq %rcx
    popq %rax
    movl %edx, (%rax,%rcx,4)
    movq -40(%rbp), %rax
    pushq %rax
    movabsq $0x2, %rax
    pushq %rax
    movabsq $0x2, %rax
    pushq %rax
    movl -152(%rbp), %eax
    pushq %rax
    popq %rcx
    popq %rdx
    subq $32, %rsp
    callq L_enc_sym
    addq $32, %rsp
    movl %eax, %eax
    pushq %rax
    popq %rdx
    popq %rcx
    popq %rax
    movl %edx, (%rax,%rcx,4)
    movq -40(%rbp), %rax
    pushq %rax
    movabsq $0x3, %rax
    pushq %rax
    movabsq $0x0, %rax
    pushq %rax
    popq %rcx
    subq $32, %rsp
    callq L_enc_var
    addq $32, %rsp
    movl %eax, %eax
    pushq %rax
    popq %rdx
    popq %rcx
    popq %rax
    movl %edx, (%rax,%rcx,4)
    movq -40(%rbp), %rax
    pushq %rax
    movabsq $0x4, %rax
    pushq %rax
    movabsq $0x0, %rax
    pushq %rax
    movl -168(%rbp), %eax
    pushq %rax
    popq %rcx
    popq %rdx
    subq $32, %rsp
    callq L_enc_sym
    addq $32, %rsp
    movl %eax, %eax
    pushq %rax
    popq %rdx
    popq %rcx
    popq %rax
    movl %edx, (%rax,%rcx,4)
    movq -40(%rbp), %rax
    pushq %rax
    movabsq $0x5, %rax
    pushq %rax
    movabsq $0x2, %rax
    pushq %rax
    movl -160(%rbp), %eax
    pushq %rax
    popq %rcx
    popq %rdx
    subq $32, %rsp
    callq L_enc_sym
    addq $32, %rsp
    movl %eax, %eax
    pushq %rax
    popq %rdx
    popq %rcx
    popq %rax
    movl %edx, (%rax,%rcx,4)
    movq -40(%rbp), %rax
    pushq %rax
    movabsq $0x6, %rax
    pushq %rax
    movabsq $0x0, %rax
    pushq %rax
    popq %rcx
    subq $32, %rsp
    callq L_enc_var
    addq $32, %rsp
    movl %eax, %eax
    pushq %rax
    popq %rdx
    popq %rcx
    popq %rax
    movl %edx, (%rax,%rcx,4)
    movq -40(%rbp), %rax
    pushq %rax
    movabsq $0x7, %rax
    pushq %rax
    movabsq $0x0, %rax
    pushq %rax
    movl -176(%rbp), %eax
    pushq %rax
    popq %rcx
    popq %rdx
    subq $32, %rsp
    callq L_enc_sym
    addq $32, %rsp
    movl %eax, %eax
    pushq %rax
    popq %rdx
    popq %rcx
    popq %rax
    movl %edx, (%rax,%rcx,4)
    movq -40(%rbp), %rax
    pushq %rax
    popq %rcx
    subq $32, %rsp
    callq eg_register_rule
    addq $32, %rsp
    movl %eax, %eax
    pushq %rax
    movabsq $0xffffffff, %rax
    pushq %rax
    popq %rcx
    popq %rax
    cmpq %rcx, %rax
    sete %al
    movzbq %al, %rax
    pushq %rax
    popq %rax
    testq %rax, %rax
    jz L_if_end_7
    movabsq $0xa, %rax
    pushq %rax
    popq %rax
    movq %rbp, %rsp
    popq %rbp
    retq
    movq $0, %rax
    pushq %rax
    popq %rax
L_if_end_7:
    movabsq $0x8, %rax
    pushq %rax
    popq %rcx
    subq $32, %rsp
    callq eg_saturate
    addq $32, %rsp
    movl %eax, %eax
    pushq %rax
    popq %rax
    movabsq $0x0, %rax
    pushq %rax
    popq %rax
    movq %rax, -192(%rbp)
L_loop_top_8:
    movq -192(%rbp), %rax
    pushq %rax
    movabsq $0x40, %rax
    pushq %rax
    popq %rcx
    popq %rax
    cmpq %rcx, %rax
    setb %al
    movzbq %al, %rax
    pushq %rax
    popq %rax
    testq %rax, %rax
    jz L_loop_end_9
    movq -56(%rbp), %rax
    pushq %rax
    movq -192(%rbp), %rax
    pushq %rax
    movabsq $0x0, %rax
    pushq %rax
    popq %rdx
    popq %rcx
    popq %rax
    movl %edx, (%rax,%rcx,4)
    movq -192(%rbp), %rax
    pushq %rax
    movabsq $0x1, %rax
    pushq %rax
    popq %rcx
    popq %rax
    addq %rcx, %rax
    pushq %rax
    popq %rax
    movq %rax, -192(%rbp)
    movq $0, %rax
    pushq %rax
    popq %rax
    jmp L_loop_top_8
L_loop_end_9:
    movl -152(%rbp), %eax
    pushq %rax
    popq %rax
    movq %rax, -200(%rbp)
    movl -160(%rbp), %eax
    pushq %rax
    movl -200(%rbp), %eax
    pushq %rax
    popq %rcx
    popq %rax
    cmpq %rcx, %rax
    seta %al
    movzbq %al, %rax
    pushq %rax
    popq %rax
    testq %rax, %rax
    jz L_if_end_11
    movl -160(%rbp), %eax
    pushq %rax
    popq %rax
    movq %rax, -200(%rbp)
    movq $0, %rax
    pushq %rax
    popq %rax
L_if_end_11:
    movl -168(%rbp), %eax
    pushq %rax
    movl -200(%rbp), %eax
    pushq %rax
    popq %rcx
    popq %rax
    cmpq %rcx, %rax
    seta %al
    movzbq %al, %rax
    pushq %rax
    popq %rax
    testq %rax, %rax
    jz L_if_end_13
    movl -168(%rbp), %eax
    pushq %rax
    popq %rax
    movq %rax, -200(%rbp)
    movq $0, %rax
    pushq %rax
    popq %rax
L_if_end_13:
    movl -176(%rbp), %eax
    pushq %rax
    movl -200(%rbp), %eax
    pushq %rax
    popq %rcx
    popq %rax
    cmpq %rcx, %rax
    seta %al
    movzbq %al, %rax
    pushq %rax
    popq %rax
    testq %rax, %rax
    jz L_if_end_15
    movl -176(%rbp), %eax
    pushq %rax
    popq %rax
    movq %rax, -200(%rbp)
    movq $0, %rax
    pushq %rax
    popq %rax
L_if_end_15:
    movl -184(%rbp), %eax
    pushq %rax
    movl -200(%rbp), %eax
    pushq %rax
    popq %rcx
    popq %rax
    cmpq %rcx, %rax
    seta %al
    movzbq %al, %rax
    pushq %rax
    popq %rax
    testq %rax, %rax
    jz L_if_end_17
    movl -184(%rbp), %eax
    pushq %rax
    popq %rax
    movq %rax, -200(%rbp)
    movq $0, %rax
    pushq %rax
    popq %rax
L_if_end_17:
    movq -56(%rbp), %rax
    pushq %rax
    movabsq $0x0, %rax
    pushq %rax
    movl -136(%rbp), %eax
    pushq %rax
    popq %rcx
    subq $32, %rsp
    callq eg_find
    addq $32, %rsp
    movl %eax, %eax
    pushq %rax
    popq %rdx
    popq %rcx
    popq %rax
    movl %edx, (%rax,%rcx,4)
    movq -56(%rbp), %rax
    pushq %rax
    movabsq $0x1, %rax
    pushq %rax
    movl -200(%rbp), %eax
    pushq %rax
    movabsq $0x1, %rax
    pushq %rax
    popq %rcx
    popq %rax
    addq %rcx, %rax
    movl %eax, %eax
    pushq %rax
    popq %rdx
    popq %rcx
    popq %rax
    movl %edx, (%rax,%rcx,4)
    movq -56(%rbp), %rax
    pushq %rax
    movl -152(%rbp), %eax
    pushq %rax
    popq %rax
    pushq %rax
    movabsq $0x2, %rax
    pushq %rax
    popq %rcx
    popq %rax
    addq %rcx, %rax
    pushq %rax
    movabsq $0xa, %rax
    pushq %rax
    popq %rdx
    popq %rcx
    popq %rax
    movl %edx, (%rax,%rcx,4)
    movq -56(%rbp), %rax
    pushq %rax
    movl -160(%rbp), %eax
    pushq %rax
    popq %rax
    pushq %rax
    movabsq $0x2, %rax
    pushq %rax
    popq %rcx
    popq %rax
    addq %rcx, %rax
    pushq %rax
    movabsq $0x1, %rax
    pushq %rax
    popq %rdx
    popq %rcx
    popq %rax
    movl %edx, (%rax,%rcx,4)
    movq -56(%rbp), %rax
    pushq %rax
    movl -184(%rbp), %eax
    pushq %rax
    popq %rax
    pushq %rax
    movabsq $0x2, %rax
    pushq %rax
    popq %rcx
    popq %rax
    addq %rcx, %rax
    pushq %rax
    movabsq $0x1, %rax
    pushq %rax
    popq %rdx
    popq %rcx
    popq %rax
    movl %edx, (%rax,%rcx,4)
    movq -56(%rbp), %rax
    pushq %rax
    movl -168(%rbp), %eax
    pushq %rax
    popq %rax
    pushq %rax
    movabsq $0x2, %rax
    pushq %rax
    popq %rcx
    popq %rax
    addq %rcx, %rax
    pushq %rax
    movabsq $0x1, %rax
    pushq %rax
    popq %rdx
    popq %rcx
    popq %rax
    movl %edx, (%rax,%rcx,4)
    movq -56(%rbp), %rax
    pushq %rax
    movl -176(%rbp), %eax
    pushq %rax
    popq %rax
    pushq %rax
    movabsq $0x2, %rax
    pushq %rax
    popq %rcx
    popq %rax
    addq %rcx, %rax
    pushq %rax
    movabsq $0x1, %rax
    pushq %rax
    popq %rdx
    popq %rcx
    popq %rax
    movl %edx, (%rax,%rcx,4)
    movq -72(%rbp), %rax
    pushq %rax
    movabsq $0x0, %rax
    pushq %rax
    movabsq $0xffffffff, %rax
    pushq %rax
    popq %rdx
    popq %rcx
    popq %rax
    movl %edx, (%rax,%rcx,4)
    movq -88(%rbp), %rax
    pushq %rax
    movq -72(%rbp), %rax
    pushq %rax
    movq -56(%rbp), %rax
    pushq %rax
    popq %rcx
    popq %rdx
    popq %r8
    subq $32, %rsp
    callq eg_extract
    addq $32, %rsp
    movslq %eax, %rax
    pushq %rax
    popq %rax
    movq %rax, -208(%rbp)
    movslq -208(%rbp), %rax
    pushq %rax
    movabsq $0x0, %rax
    pushq %rax
    popq %rcx
    popq %rax
    cmpq %rcx, %rax
    setne %al
    movzbq %al, %rax
    pushq %rax
    popq %rax
    testq %rax, %rax
    jz L_if_end_19
    movabsq $0xb, %rax
    pushq %rax
    popq %rax
    movq %rbp, %rsp
    popq %rbp
    retq
    movq $0, %rax
    pushq %rax
    popq %rax
L_if_end_19:
    movq -72(%rbp), %rax
    pushq %rax
    movabsq $0x0, %rax
    pushq %rax
    popq %rcx
    popq %rax
    movl (%rax,%rcx,4), %eax
    pushq %rax
    movl -160(%rbp), %eax
    pushq %rax
    popq %rcx
    popq %rax
    cmpq %rcx, %rax
    setne %al
    movzbq %al, %rax
    pushq %rax
    popq %rax
    testq %rax, %rax
    jz L_if_end_21
    movabsq $0xc, %rax
    pushq %rax
    popq %rax
    movq %rbp, %rsp
    popq %rbp
    retq
    movq $0, %rax
    pushq %rax
    popq %rax
L_if_end_21:
    movabsq $0x1, %rax
    pushq %rax
    movabsq $0x5, %rax
    pushq %rax
    movabsq $0x4d, %rax
    pushq %rax
    movabsq $0x1, %rax
    pushq %rax
    movabsq $0x0, %rax
    pushq %rax
    movq -96(%rbp), %rax
    pushq %rax
    popq %rcx
    popq %rdx
    popq %r8
    popq %r9
    subq $32, %rsp
    callq L_kcand
    addq $32, %rsp
    addq $16, %rsp
    pushq %rax
    popq %rax
    movabsq $0x1, %rax
    pushq %rax
    movabsq $0x2, %rax
    pushq %rax
    movabsq $0x4d, %rax
    pushq %rax
    movabsq $0x2, %rax
    pushq %rax
    movabsq $0x1, %rax
    pushq %rax
    movq -96(%rbp), %rax
    pushq %rax
    popq %rcx
    popq %rdx
    popq %r8
    popq %r9
    subq $32, %rsp
    callq L_kcand
    addq $32, %rsp
    addq $16, %rsp
    pushq %rax
    popq %rax
    movq -104(%rbp), %rax
    pushq %rax
    movabsq $0x2, %rax
    pushq %rax
    movq -96(%rbp), %rax
    pushq %rax
    popq %rcx
    popq %rdx
    popq %r8
    subq $32, %rsp
    callq oi_select
    addq $32, %rsp
    pushq %rax
    movabsq $0x1, %rax
    pushq %rax
    popq %rcx
    popq %rax
    cmpq %rcx, %rax
    setne %al
    movzbq %al, %rax
    pushq %rax
    popq %rax
    testq %rax, %rax
    jz L_if_end_23
    movabsq $0xd, %rax
    pushq %rax
    popq %rax
    movq %rbp, %rsp
    popq %rbp
    retq
    movq $0, %rax
    pushq %rax
    popq %rax
L_if_end_23:
    movabsq $0x2, %rax
    pushq %rax
    movq -96(%rbp), %rax
    pushq %rax
    popq %rcx
    popq %rdx
    subq $32, %rsp
    callq oi_selection_kind
    addq $32, %rsp
    pushq %rax
    movabsq $0x0, %rax
    pushq %rax
    popq %rcx
    popq %rax
    cmpq %rcx, %rax
    setne %al
    movzbq %al, %rax
    pushq %rax
    popq %rax
    testq %rax, %rax
    jz L_if_end_25
    movabsq $0xe, %rax
    pushq %rax
    popq %rax
    movq %rbp, %rsp
    popq %rbp
    retq
    movq $0, %rax
    pushq %rax
    popq %rax
L_if_end_25:
    movabsq $0x63, %rax
    pushq %rax
    popq %rax
    movq %rbp, %rsp
    popq %rbp
    retq
    movq $0, %rax
    pushq %rax
    movq $0, %rax
    movq %rbp, %rsp
    popq %rbp
    retq
    .seh_endproc
