# III Stage-0 Ring-3 codegen output
# Microsoft x64 ABI; gas syntax (AT&T); PE/COFF target
    .att_syntax
    .file 1 "<iii-source>"
    .section .rodata
L_str_0:
    .ascii "intent.iiipattern_table.iiicall_context.iiiresolver.iii\0"
L_str_1:
    .ascii "pattern_table.iiicall_context.iiiresolver.iii\0"
L_str_2:
    .ascii "call_context.iiiresolver.iii\0"
L_str_3:
    .ascii "resolver.iii\0"
    .section .iii.ring3,"n"
    .asciz "build_sha256_intent_via_helper"
    .text
    .global L_build_sha256_intent_via_helper
    .seh_proc L_build_sha256_intent_via_helper
L_build_sha256_intent_via_helper:
    pushq %rbp
    .seh_pushreg %rbp
    movq %rsp, %rbp
    .seh_setframe %rbp, 0
    subq $1024, %rsp
    .seh_stackalloc 1024
    .seh_endprologue
    movabsq $0x64, %rax
    pushq %rax
    popq %rcx
    subq $32, %rsp
    callq intent_form
    addq $32, %rsp
    pushq %rax
    popq %rax
    movq %rbp, %rsp
    popq %rbp
    retq
    movq $0, %rax
    pushq %rax
    movq $0, %rax
    movq %rbp, %rsp
    popq %rbp
    retq
    .seh_endproc
    .section .iii.ring3,"n"
    .asciz "use_cross_fn_pe"
    .text
    .global L_use_cross_fn_pe
    .seh_proc L_use_cross_fn_pe
L_use_cross_fn_pe:
    pushq %rbp
    .seh_pushreg %rbp
    movq %rsp, %rbp
    .seh_setframe %rbp, 0
    subq $1024, %rsp
    .seh_stackalloc 1024
    .seh_endprologue
    subq $32, %rsp
    callq pattern_set_global
    addq $32, %rsp
    pushq %rax
    popq %rax
    movq %rax, -8(%rbp)
    subq $32, %rsp
    callq call_context_new
    addq $32, %rsp
    pushq %rax
    popq %rax
    movq %rax, -16(%rbp)
    subq $32, %rsp
    callq L_build_sha256_intent_via_helper
    addq $32, %rsp
    pushq %rax
    popq %rax
    movq %rax, -24(%rbp)
    # III_PE_DIRECT_LOAD sha256_oneshot
    leaq sha256_oneshot(%rip), %rax
    pushq %rax
    popq %rax
    movq %rax, -32(%rbp)
    # III_PE_RECORD slot=3 -> sha256_oneshot
    movq -32(%rbp), %rax
    pushq %rax
    movabsq $0x0, %rax
    pushq %rax
    popq %rcx
    popq %rax
    cmpq %rcx, %rax
    sete %al
    movzbq %al, %rax
    pushq %rax
    popq %rax
    testq %rax, %rax
    jz L_if_end_1
    movabsq $0x1, %rax
    pushq %rax
    popq %rax
    movq %rbp, %rsp
    popq %rbp
    retq
    movq $0, %rax
    pushq %rax
    popq %rax
L_if_end_1:
    movabsq $0x0, %rax
    pushq %rax
    popq %rax
    movq %rbp, %rsp
    popq %rbp
    retq
    movq $0, %rax
    pushq %rax
    movq $0, %rax
    movq %rbp, %rsp
    popq %rbp
    retq
    .seh_endproc
    .section .iii.ring3,"n"
    .asciz "main"
    .text
    .global main
    .seh_proc main
main:
    pushq %rbp
    .seh_pushreg %rbp
    movq %rsp, %rbp
    .seh_setframe %rbp, 0
    subq $1024, %rsp
    .seh_stackalloc 1024
    .seh_endprologue
    subq $32, %rsp
    callq L_use_cross_fn_pe
    addq $32, %rsp
    pushq %rax
    popq %rax
    movq %rax, -8(%rbp)
    movq -8(%rbp), %rax
    pushq %rax
    movabsq $0x0, %rax
    pushq %rax
    popq %rcx
    popq %rax
    cmpq %rcx, %rax
    setne %al
    movzbq %al, %rax
    pushq %rax
    popq %rax
    testq %rax, %rax
    jz L_if_end_3
    movq -8(%rbp), %rax
    pushq %rax
    popq %rax
    movq %rbp, %rsp
    popq %rbp
    retq
    movq $0, %rax
    pushq %rax
    popq %rax
L_if_end_3:
    movabsq $0x63, %rax
    pushq %rax
    popq %rax
    movq %rbp, %rsp
    popq %rbp
    retq
    movq $0, %rax
    pushq %rax
    movq $0, %rax
    movq %rbp, %rsp
    popq %rbp
    retq
    .seh_endproc
