
KATABASIS-DEPLOY/build/obj/capability.o:     file format pe-x86-64


Disassembly of section .text:

0000000000000000 <L_p_cap_alloc_slot>:
       0:	55                   	push   rbp
       1:	48 89 e5             	mov    rbp,rsp
       4:	48 81 ec 00 04 00 00 	sub    rsp,0x400
       b:	48 c7 c1 01 00 00 00 	mov    rcx,0x1
      12:	48 83 ec 20          	sub    rsp,0x20
      16:	e8 00 00 00 00       	call   1b <L_p_cap_alloc_slot+0x1b>
      1b:	48 83 c4 20          	add    rsp,0x20
      1f:	48 b8 00 00 00 00 00 	movabs rax,0x0
      26:	00 00 00 
      29:	50                   	push   rax
      2a:	58                   	pop    rax
      2b:	48 89 45 f8          	mov    QWORD PTR [rbp-0x8],rax
      2f:	48 8b 45 f8          	mov    rax,QWORD PTR [rbp-0x8]
      33:	50                   	push   rax
      34:	48 8b 05 d0 00 00 00 	mov    rax,QWORD PTR [rip+0xd0]        # 10b <L_p_cap_slot_of+0x1e>
      3b:	50                   	push   rax
      3c:	59                   	pop    rcx
      3d:	58                   	pop    rax
      3e:	48 39 c8             	cmp    rax,rcx
      41:	0f 9c c0             	setl   al
      44:	48 0f b6 c0          	movzx  rax,al
      48:	50                   	push   rax
      49:	58                   	pop    rax
      4a:	48 85 c0             	test   rax,rax
      4d:	74 75                	je     c4 <L_p_cap_alloc_slot+0xc4>
      4f:	48 8d 05 00 20 00 00 	lea    rax,[rip+0x2000]        # 2056 <L_p_CAP_LIVE+0x56>
      56:	50                   	push   rax
      57:	48 8b 45 f8          	mov    rax,QWORD PTR [rbp-0x8]
      5b:	50                   	push   rax
      5c:	59                   	pop    rcx
      5d:	58                   	pop    rax
      5e:	48 8b 04 c8          	mov    rax,QWORD PTR [rax+rcx*8]
      62:	50                   	push   rax
      63:	48 b8 00 00 00 00 00 	movabs rax,0x0
      6a:	00 00 00 
      6d:	50                   	push   rax
      6e:	59                   	pop    rcx
      6f:	58                   	pop    rax
      70:	48 39 c8             	cmp    rax,rcx
      73:	0f 94 c0             	sete   al
      76:	48 0f b6 c0          	movzx  rax,al
      7a:	50                   	push   rax
      7b:	58                   	pop    rax
      7c:	48 85 c0             	test   rax,rax
      7f:	74 23                	je     a4 <L_p_cap_alloc_slot+0xa4>
      81:	48 8b 45 f8          	mov    rax,QWORD PTR [rbp-0x8]
      85:	50                   	push   rax
      86:	58                   	pop    rax
      87:	50                   	push   rax
      88:	50                   	push   rax
      89:	48 c7 c1 02 00 00 00 	mov    rcx,0x2
      90:	48 83 ec 20          	sub    rsp,0x20
      94:	e8 00 00 00 00       	call   99 <L_p_cap_alloc_slot+0x99>
      99:	48 83 c4 20          	add    rsp,0x20
      9d:	58                   	pop    rax
      9e:	58                   	pop    rax
      9f:	48 89 ec             	mov    rsp,rbp
      a2:	5d                   	pop    rbp
      a3:	c3                   	ret
      a4:	48 8b 45 f8          	mov    rax,QWORD PTR [rbp-0x8]
      a8:	50                   	push   rax
      a9:	48 b8 01 00 00 00 00 	movabs rax,0x1
      b0:	00 00 00 
      b3:	50                   	push   rax
      b4:	59                   	pop    rcx
      b5:	58                   	pop    rax
      b6:	48 01 c8             	add    rax,rcx
      b9:	50                   	push   rax
      ba:	58                   	pop    rax
      bb:	48 89 45 f8          	mov    QWORD PTR [rbp-0x8],rax
      bf:	e9 6b ff ff ff       	jmp    2f <L_p_cap_alloc_slot+0x2f>
      c4:	48 b8 ff ff ff ff 00 	movabs rax,0xffffffff
      cb:	00 00 00 
      ce:	50                   	push   rax
      cf:	58                   	pop    rax
      d0:	50                   	push   rax
      d1:	50                   	push   rax
      d2:	48 c7 c1 02 00 00 00 	mov    rcx,0x2
      d9:	48 83 ec 20          	sub    rsp,0x20
      dd:	e8 00 00 00 00       	call   e2 <L_p_cap_alloc_slot+0xe2>
      e2:	48 83 c4 20          	add    rsp,0x20
      e6:	58                   	pop    rax
      e7:	58                   	pop    rax
      e8:	48 89 ec             	mov    rsp,rbp
      eb:	5d                   	pop    rbp
      ec:	c3                   	ret

00000000000000ed <L_p_cap_slot_of>:
      ed:	55                   	push   rbp
      ee:	48 89 e5             	mov    rbp,rsp
      f1:	48 81 ec 00 04 00 00 	sub    rsp,0x400
      f8:	48 89 4d f8          	mov    QWORD PTR [rbp-0x8],rcx
      fc:	48 c7 c1 01 00 00 00 	mov    rcx,0x1
     103:	48 83 ec 20          	sub    rsp,0x20
     107:	e8 00 00 00 00       	call   10c <L_p_cap_slot_of+0x1f>
     10c:	48 83 c4 20          	add    rsp,0x20
     110:	48 8b 45 f8          	mov    rax,QWORD PTR [rbp-0x8]
     114:	50                   	push   rax
     115:	48 b8 00 00 00 00 00 	movabs rax,0x0
     11c:	00 00 00 
     11f:	50                   	push   rax
     120:	59                   	pop    rcx
     121:	58                   	pop    rax
     122:	48 39 c8             	cmp    rax,rcx
     125:	0f 94 c0             	sete   al
     128:	48 0f b6 c0          	movzx  rax,al
     12c:	50                   	push   rax
     12d:	58                   	pop    rax
     12e:	48 85 c0             	test   rax,rax
     131:	74 29                	je     15c <L_p_cap_slot_of+0x6f>
     133:	48 b8 ff ff ff ff 00 	movabs rax,0xffffffff
     13a:	00 00 00 
     13d:	50                   	push   rax
     13e:	58                   	pop    rax
     13f:	50                   	push   rax
     140:	50                   	push   rax
     141:	48 c7 c1 02 00 00 00 	mov    rcx,0x2
     148:	48 83 ec 20          	sub    rsp,0x20
     14c:	e8 00 00 00 00       	call   151 <L_p_cap_slot_of+0x64>
     151:	48 83 c4 20          	add    rsp,0x20
     155:	58                   	pop    rax
     156:	58                   	pop    rax
     157:	48 89 ec             	mov    rsp,rbp
     15a:	5d                   	pop    rbp
     15b:	c3                   	ret
     15c:	48 8b 45 f8          	mov    rax,QWORD PTR [rbp-0x8]
     160:	50                   	push   rax
     161:	48 b8 01 00 00 00 00 	movabs rax,0x1
     168:	00 00 00 
     16b:	50                   	push   rax
     16c:	59                   	pop    rcx
     16d:	58                   	pop    rax
     16e:	48 29 c8             	sub    rax,rcx
     171:	50                   	push   rax
     172:	58                   	pop    rax
     173:	48 89 45 f0          	mov    QWORD PTR [rbp-0x10],rax
     177:	48 8b 45 f0          	mov    rax,QWORD PTR [rbp-0x10]
     17b:	50                   	push   rax
     17c:	59                   	pop    rcx
     17d:	58                   	pop    rax
     17e:	48 39 c8             	cmp    rax,rcx
     181:	0f 9d c0             	setge  al
     184:	48 0f b6 c0          	movzx  rax,al
     188:	50                   	push   rax
     189:	58                   	pop    rax
     18a:	48 85 c0             	test   rax,rax
     18d:	74 29                	je     1b8 <L_p_cap_slot_of+0xcb>
     18f:	48 b8 ff ff ff ff 00 	movabs rax,0xffffffff
     196:	00 00 00 
     199:	50                   	push   rax
     19a:	58                   	pop    rax
     19b:	50                   	push   rax
     19c:	50                   	push   rax
     19d:	48 c7 c1 02 00 00 00 	mov    rcx,0x2
     1a4:	48 83 ec 20          	sub    rsp,0x20
     1a8:	e8 00 00 00 00       	call   1ad <L_p_cap_slot_of+0xc0>
     1ad:	48 83 c4 20          	add    rsp,0x20
     1b1:	58                   	pop    rax
     1b2:	58                   	pop    rax
     1b3:	48 89 ec             	mov    rsp,rbp
     1b6:	5d                   	pop    rbp
     1b7:	c3                   	ret
     1b8:	58                   	pop    rax
     1b9:	48 89 45 e8          	mov    QWORD PTR [rbp-0x18],rax
     1bd:	48 8d 05 00 20 00 00 	lea    rax,[rip+0x2000]        # 21c4 <L_p_CAP_LIVE+0x1c4>
     1c4:	50                   	push   rax
     1c5:	48 8b 45 e8          	mov    rax,QWORD PTR [rbp-0x18]
     1c9:	50                   	push   rax
     1ca:	59                   	pop    rcx
     1cb:	58                   	pop    rax
     1cc:	48 8b 04 c8          	mov    rax,QWORD PTR [rax+rcx*8]
     1d0:	50                   	push   rax
     1d1:	48 b8 00 00 00 00 00 	movabs rax,0x0
     1d8:	00 00 00 
     1db:	50                   	push   rax
     1dc:	59                   	pop    rcx
     1dd:	58                   	pop    rax
     1de:	48 39 c8             	cmp    rax,rcx
     1e1:	0f 94 c0             	sete   al
     1e4:	48 0f b6 c0          	movzx  rax,al
     1e8:	50                   	push   rax
     1e9:	58                   	pop    rax
     1ea:	48 85 c0             	test   rax,rax
     1ed:	74 29                	je     218 <L_p_cap_slot_of+0x12b>
     1ef:	48 b8 ff ff ff ff 00 	movabs rax,0xffffffff
     1f6:	00 00 00 
     1f9:	50                   	push   rax
     1fa:	58                   	pop    rax
     1fb:	50                   	push   rax
     1fc:	50                   	push   rax
     1fd:	48 c7 c1 02 00 00 00 	mov    rcx,0x2
     204:	48 83 ec 20          	sub    rsp,0x20
     208:	e8 00 00 00 00       	call   20d <L_p_cap_slot_of+0x120>
     20d:	48 83 c4 20          	add    rsp,0x20
     211:	58                   	pop    rax
     212:	58                   	pop    rax
     213:	48 89 ec             	mov    rsp,rbp
     216:	5d                   	pop    rbp
     217:	c3                   	ret
     218:	48 8b 45 e8          	mov    rax,QWORD PTR [rbp-0x18]
     21c:	50                   	push   rax
     21d:	58                   	pop    rax
     21e:	50                   	push   rax
     21f:	50                   	push   rax
     220:	48 c7 c1 02 00 00 00 	mov    rcx,0x2
     227:	48 83 ec 20          	sub    rsp,0x20
     22b:	e8 00 00 00 00       	call   230 <L_p_cap_slot_of+0x143>
     230:	48 83 c4 20          	add    rsp,0x20
     234:	58                   	pop    rax
     235:	58                   	pop    rax
     236:	48 89 ec             	mov    rsp,rbp
     239:	5d                   	pop    rbp
     23a:	c3                   	ret

000000000000023b <L_p_cap_env_init>:
     23b:	55                   	push   rbp
     23c:	48 89 e5             	mov    rbp,rsp
     23f:	48 81 ec 00 04 00 00 	sub    rsp,0x400
     246:	48 c7 c1 01 00 00 00 	mov    rcx,0x1
     24d:	48 83 ec 20          	sub    rsp,0x20
     251:	e8 00 00 00 00       	call   256 <L_p_cap_env_init+0x1b>
     256:	48 83 c4 20          	add    rsp,0x20
     25a:	48 8b 05 00 00 00 00 	mov    rax,QWORD PTR [rip+0x0]        # 261 <L_p_cap_env_init+0x26>
     261:	50                   	push   rax
     262:	48 b8 01 00 00 00 00 	movabs rax,0x1
     269:	00 00 00 
     26c:	50                   	push   rax
     26d:	59                   	pop    rcx
     26e:	58                   	pop    rax
     26f:	48 39 c8             	cmp    rax,rcx
     272:	0f 94 c0             	sete   al
     275:	48 0f b6 c0          	movzx  rax,al
     279:	50                   	push   rax
     27a:	58                   	pop    rax
     27b:	48 85 c0             	test   rax,rax
     27e:	74 26                	je     2a6 <L_p_cap_env_init+0x6b>
     280:	48 8b 05 08 00 00 00 	mov    rax,QWORD PTR [rip+0x8]        # 28f <L_p_cap_env_init+0x54>
     287:	50                   	push   rax
     288:	58                   	pop    rax
     289:	50                   	push   rax
     28a:	50                   	push   rax
     28b:	48 c7 c1 02 00 00 00 	mov    rcx,0x2
     292:	48 83 ec 20          	sub    rsp,0x20
     296:	e8 00 00 00 00       	call   29b <L_p_cap_env_init+0x60>
     29b:	48 83 c4 20          	add    rsp,0x20
     29f:	58                   	pop    rax
     2a0:	58                   	pop    rax
     2a1:	48 89 ec             	mov    rsp,rbp
     2a4:	5d                   	pop    rbp
     2a5:	c3                   	ret
     2a6:	48 b8 ff ff ff ff ff 	movabs rax,0xffffffffffffffff
     2ad:	ff ff ff 
     2b0:	50                   	push   rax
     2b1:	58                   	pop    rax
     2b2:	50                   	push   rax
     2b3:	48 8d 05 00 00 00 00 	lea    rax,[rip+0x0]        # 2ba <L_p_cap_env_init+0x7f>
     2ba:	50                   	push   rax
     2bb:	48 b8 00 00 00 00 00 	movabs rax,0x0
     2c2:	00 00 00 
     2c5:	50                   	push   rax
     2c6:	59                   	pop    rcx
     2c7:	58                   	pop    rax
     2c8:	5a                   	pop    rdx
     2c9:	48 89 14 c8          	mov    QWORD PTR [rax+rcx*8],rdx
     2cd:	48 b8 00 00 00 00 00 	movabs rax,0x0
     2d4:	00 00 00 
     2d7:	50                   	push   rax
     2d8:	58                   	pop    rax
     2d9:	50                   	push   rax
     2da:	48 8d 05 00 08 00 00 	lea    rax,[rip+0x800]        # ae1 <L_p_cap_revoke+0x12>
     2e1:	50                   	push   rax
     2e2:	48 b8 00 00 00 00 00 	movabs rax,0x0
     2e9:	00 00 00 
     2ec:	50                   	push   rax
     2ed:	59                   	pop    rcx
     2ee:	58                   	pop    rax
     2ef:	5a                   	pop    rdx
     2f0:	48 89 14 c8          	mov    QWORD PTR [rax+rcx*8],rdx
     2f4:	48 b8 00 00 00 00 00 	movabs rax,0x0
     2fb:	00 00 00 
     2fe:	50                   	push   rax
     2ff:	58                   	pop    rax
     300:	50                   	push   rax
     301:	48 8d 05 00 10 00 00 	lea    rax,[rip+0x1000]        # 1308 <L_p_cap_drop+0x240>
     308:	50                   	push   rax
     309:	48 b8 00 00 00 00 00 	movabs rax,0x0
     310:	00 00 00 
     313:	50                   	push   rax
     314:	59                   	pop    rcx
     315:	58                   	pop    rax
     316:	5a                   	pop    rdx
     317:	48 89 14 c8          	mov    QWORD PTR [rax+rcx*8],rdx
     31b:	48 b8 00 00 00 00 00 	movabs rax,0x0
     322:	00 00 00 
     325:	50                   	push   rax
     326:	58                   	pop    rax
     327:	50                   	push   rax
     328:	48 8d 05 00 18 00 00 	lea    rax,[rip+0x1800]        # 1b2f <L_p_CAP_REVOKED+0x32f>
     32f:	50                   	push   rax
     330:	48 b8 00 00 00 00 00 	movabs rax,0x0
     337:	00 00 00 
     33a:	50                   	push   rax
     33b:	59                   	pop    rcx
     33c:	58                   	pop    rax
     33d:	5a                   	pop    rdx
     33e:	48 89 14 c8          	mov    QWORD PTR [rax+rcx*8],rdx
     342:	48 b8 01 00 00 00 00 	movabs rax,0x1
     349:	00 00 00 
     34c:	50                   	push   rax
     34d:	58                   	pop    rax
     34e:	50                   	push   rax
     34f:	48 8d 05 00 20 00 00 	lea    rax,[rip+0x2000]        # 2356 <L_p_CAP_LIVE+0x356>
     356:	50                   	push   rax
     357:	48 b8 00 00 00 00 00 	movabs rax,0x0
     35e:	00 00 00 
     361:	50                   	push   rax
     362:	59                   	pop    rcx
     363:	58                   	pop    rax
     364:	5a                   	pop    rdx
     365:	48 89 14 c8          	mov    QWORD PTR [rax+rcx*8],rdx
     369:	48 b8 01 00 00 00 00 	movabs rax,0x1
     370:	00 00 00 
     373:	50                   	push   rax
     374:	58                   	pop    rax
     375:	48 89 05 00 00 00 00 	mov    QWORD PTR [rip+0x0],rax        # 37c <L_p_cap_env_init+0x141>
     37c:	48 8b 05 08 00 00 00 	mov    rax,QWORD PTR [rip+0x8]        # 38b <L_p_cap_env_init+0x150>
     383:	50                   	push   rax
     384:	58                   	pop    rax
     385:	50                   	push   rax
     386:	50                   	push   rax
     387:	48 c7 c1 02 00 00 00 	mov    rcx,0x2
     38e:	48 83 ec 20          	sub    rsp,0x20
     392:	e8 00 00 00 00       	call   397 <L_p_cap_env_init+0x15c>
     397:	48 83 c4 20          	add    rsp,0x20
     39b:	58                   	pop    rax
     39c:	58                   	pop    rax
     39d:	48 89 ec             	mov    rsp,rbp
     3a0:	5d                   	pop    rbp
     3a1:	c3                   	ret

00000000000003a2 <L_p_cap_attenuate>:
     3a2:	55                   	push   rbp
     3a3:	48 89 e5             	mov    rbp,rsp
     3a6:	48 81 ec 00 04 00 00 	sub    rsp,0x400
     3ad:	48 89 4d f8          	mov    QWORD PTR [rbp-0x8],rcx
     3b1:	48 89 55 f0          	mov    QWORD PTR [rbp-0x10],rdx
     3b5:	4c 89 45 e8          	mov    QWORD PTR [rbp-0x18],r8
     3b9:	48 c7 c1 01 00 00 00 	mov    rcx,0x1
     3c0:	48 83 ec 20          	sub    rsp,0x20
     3c4:	e8 00 00 00 00       	call   3c9 <L_p_cap_attenuate+0x27>
     3c9:	48 83 c4 20          	add    rsp,0x20
     3cd:	48 8b 45 f8          	mov    rax,QWORD PTR [rbp-0x8]
     3d1:	50                   	push   rax
     3d2:	59                   	pop    rcx
     3d3:	48 83 ec 20          	sub    rsp,0x20
     3d7:	e8 11 fd ff ff       	call   ed <L_p_cap_slot_of>
     3dc:	48 83 c4 20          	add    rsp,0x20
     3e0:	50                   	push   rax
     3e1:	58                   	pop    rax
     3e2:	48 89 45 e0          	mov    QWORD PTR [rbp-0x20],rax
     3e6:	48 8b 45 e0          	mov    rax,QWORD PTR [rbp-0x20]
     3ea:	50                   	push   rax
     3eb:	48 b8 ff ff ff ff 00 	movabs rax,0xffffffff
     3f2:	00 00 00 
     3f5:	50                   	push   rax
     3f6:	59                   	pop    rcx
     3f7:	58                   	pop    rax
     3f8:	48 39 c8             	cmp    rax,rcx
     3fb:	0f 94 c0             	sete   al
     3fe:	48 0f b6 c0          	movzx  rax,al
     402:	50                   	push   rax
     403:	58                   	pop    rax
     404:	48 85 c0             	test   rax,rax
     407:	74 26                	je     42f <L_p_cap_attenuate+0x8d>
     409:	48 8b 05 00 00 00 00 	mov    rax,QWORD PTR [rip+0x0]        # 410 <L_p_cap_attenuate+0x6e>
     410:	50                   	push   rax
     411:	58                   	pop    rax
     412:	50                   	push   rax
     413:	50                   	push   rax
     414:	48 c7 c1 02 00 00 00 	mov    rcx,0x2
     41b:	48 83 ec 20          	sub    rsp,0x20
     41f:	e8 00 00 00 00       	call   424 <L_p_cap_attenuate+0x82>
     424:	48 83 c4 20          	add    rsp,0x20
     428:	58                   	pop    rax
     429:	58                   	pop    rax
     42a:	48 89 ec             	mov    rsp,rbp
     42d:	5d                   	pop    rbp
     42e:	c3                   	ret
     42f:	48 8d 05 00 18 00 00 	lea    rax,[rip+0x1800]        # 1c36 <L_p_CAP_REVOKED+0x436>
     436:	50                   	push   rax
     437:	48 8b 45 e0          	mov    rax,QWORD PTR [rbp-0x20]
     43b:	50                   	push   rax
     43c:	59                   	pop    rcx
     43d:	58                   	pop    rax
     43e:	48 8b 04 c8          	mov    rax,QWORD PTR [rax+rcx*8]
     442:	50                   	push   rax
     443:	48 b8 01 00 00 00 00 	movabs rax,0x1
     44a:	00 00 00 
     44d:	50                   	push   rax
     44e:	59                   	pop    rcx
     44f:	58                   	pop    rax
     450:	48 39 c8             	cmp    rax,rcx
     453:	0f 94 c0             	sete   al
     456:	48 0f b6 c0          	movzx  rax,al
     45a:	50                   	push   rax
     45b:	58                   	pop    rax
     45c:	48 85 c0             	test   rax,rax
     45f:	74 26                	je     487 <L_p_cap_attenuate+0xe5>
     461:	48 8b 05 00 00 00 00 	mov    rax,QWORD PTR [rip+0x0]        # 468 <L_p_cap_attenuate+0xc6>
     468:	50                   	push   rax
     469:	58                   	pop    rax
     46a:	50                   	push   rax
     46b:	50                   	push   rax
     46c:	48 c7 c1 02 00 00 00 	mov    rcx,0x2
     473:	48 83 ec 20          	sub    rsp,0x20
     477:	e8 00 00 00 00       	call   47c <L_p_cap_attenuate+0xda>
     47c:	48 83 c4 20          	add    rsp,0x20
     480:	58                   	pop    rax
     481:	58                   	pop    rax
     482:	48 89 ec             	mov    rsp,rbp
     485:	5d                   	pop    rbp
     486:	c3                   	ret
     487:	48 b8 ff ff ff ff ff 	movabs rax,0x7fffffffffffffff
     48e:	ff ff 7f 
     491:	50                   	push   rax
     492:	58                   	pop    rax
     493:	48 89 45 d8          	mov    QWORD PTR [rbp-0x28],rax
     497:	48 8d 05 00 00 00 00 	lea    rax,[rip+0x0]        # 49e <L_p_cap_attenuate+0xfc>
     49e:	50                   	push   rax
     49f:	48 8b 45 e0          	mov    rax,QWORD PTR [rbp-0x20]
     4a3:	50                   	push   rax
     4a4:	59                   	pop    rcx
     4a5:	58                   	pop    rax
     4a6:	48 8b 04 c8          	mov    rax,QWORD PTR [rax+rcx*8]
     4aa:	50                   	push   rax
     4ab:	48 8b 45 d8          	mov    rax,QWORD PTR [rbp-0x28]
     4af:	50                   	push   rax
     4b0:	59                   	pop    rcx
     4b1:	58                   	pop    rax
     4b2:	48 21 c8             	and    rax,rcx
     4b5:	50                   	push   rax
     4b6:	58                   	pop    rax
     4b7:	48 89 45 d0          	mov    QWORD PTR [rbp-0x30],rax
     4bb:	48 8b 45 d0          	mov    rax,QWORD PTR [rbp-0x30]
     4bf:	50                   	push   rax
     4c0:	48 8b 45 f0          	mov    rax,QWORD PTR [rbp-0x10]
     4c4:	50                   	push   rax
     4c5:	59                   	pop    rcx
     4c6:	58                   	pop    rax
     4c7:	48 21 c8             	and    rax,rcx
     4ca:	50                   	push   rax
     4cb:	58                   	pop    rax
     4cc:	48 89 45 c8          	mov    QWORD PTR [rbp-0x38],rax
     4d0:	48 8d 05 00 10 00 00 	lea    rax,[rip+0x1000]        # 14d7 <L_p_cap_drop+0x40f>
     4d7:	50                   	push   rax
     4d8:	48 8b 45 e0          	mov    rax,QWORD PTR [rbp-0x20]
     4dc:	50                   	push   rax
     4dd:	59                   	pop    rcx
     4de:	58                   	pop    rax
     4df:	48 8b 04 c8          	mov    rax,QWORD PTR [rax+rcx*8]
     4e3:	50                   	push   rax
     4e4:	58                   	pop    rax
     4e5:	48 89 45 c0          	mov    QWORD PTR [rbp-0x40],rax
     4e9:	48 8b 45 e8          	mov    rax,QWORD PTR [rbp-0x18]
     4ed:	50                   	push   rax
     4ee:	58                   	pop    rax
     4ef:	48 89 45 b8          	mov    QWORD PTR [rbp-0x48],rax
     4f3:	48 8b 45 c0          	mov    rax,QWORD PTR [rbp-0x40]
     4f7:	50                   	push   rax
     4f8:	48 b8 00 00 00 00 00 	movabs rax,0x0
     4ff:	00 00 00 
     502:	50                   	push   rax
     503:	59                   	pop    rcx
     504:	58                   	pop    rax
     505:	48 39 c8             	cmp    rax,rcx
     508:	0f 95 c0             	setne  al
     50b:	48 0f b6 c0          	movzx  rax,al
     50f:	50                   	push   rax
     510:	58                   	pop    rax
     511:	48 85 c0             	test   rax,rax
     514:	74 54                	je     56a <L_p_cap_attenuate+0x1c8>
     516:	48 8b 45 b8          	mov    rax,QWORD PTR [rbp-0x48]
     51a:	50                   	push   rax
     51b:	48 b8 00 00 00 00 00 	movabs rax,0x0
     522:	00 00 00 
     525:	50                   	push   rax
     526:	59                   	pop    rcx
     527:	58                   	pop    rax
     528:	48 39 c8             	cmp    rax,rcx
     52b:	0f 94 c0             	sete   al
     52e:	48 0f b6 c0          	movzx  rax,al
     532:	50                   	push   rax
     533:	58                   	pop    rax
     534:	48 85 c0             	test   rax,rax
     537:	74 0a                	je     543 <L_p_cap_attenuate+0x1a1>
     539:	48 8b 45 c0          	mov    rax,QWORD PTR [rbp-0x40]
     53d:	50                   	push   rax
     53e:	58                   	pop    rax
     53f:	48 89 45 b8          	mov    QWORD PTR [rbp-0x48],rax
     543:	48 8b 45 b8          	mov    rax,QWORD PTR [rbp-0x48]
     547:	50                   	push   rax
     548:	48 8b 45 c0          	mov    rax,QWORD PTR [rbp-0x40]
     54c:	50                   	push   rax
     54d:	59                   	pop    rcx
     54e:	58                   	pop    rax
     54f:	48 39 c8             	cmp    rax,rcx
     552:	0f 9f c0             	setg   al
     555:	48 0f b6 c0          	movzx  rax,al
     559:	50                   	push   rax
     55a:	58                   	pop    rax
     55b:	48 85 c0             	test   rax,rax
     55e:	74 0a                	je     56a <L_p_cap_attenuate+0x1c8>
     560:	48 8b 45 c0          	mov    rax,QWORD PTR [rbp-0x40]
     564:	50                   	push   rax
     565:	58                   	pop    rax
     566:	48 89 45 b8          	mov    QWORD PTR [rbp-0x48],rax
     56a:	48 83 ec 20          	sub    rsp,0x20
     56e:	e8 8d fa ff ff       	call   0 <L_p_cap_alloc_slot>
     573:	48 83 c4 20          	add    rsp,0x20
     577:	50                   	push   rax
     578:	58                   	pop    rax
     579:	48 89 45 b0          	mov    QWORD PTR [rbp-0x50],rax
     57d:	48 8b 45 b0          	mov    rax,QWORD PTR [rbp-0x50]
     581:	50                   	push   rax
     582:	48 b8 ff ff ff ff 00 	movabs rax,0xffffffff
     589:	00 00 00 
     58c:	50                   	push   rax
     58d:	59                   	pop    rcx
     58e:	58                   	pop    rax
     58f:	48 39 c8             	cmp    rax,rcx
     592:	0f 94 c0             	sete   al
     595:	48 0f b6 c0          	movzx  rax,al
     599:	50                   	push   rax
     59a:	58                   	pop    rax
     59b:	48 85 c0             	test   rax,rax
     59e:	74 26                	je     5c6 <L_p_cap_attenuate+0x224>
     5a0:	48 8b 05 00 00 00 00 	mov    rax,QWORD PTR [rip+0x0]        # 5a7 <L_p_cap_attenuate+0x205>
     5a7:	50                   	push   rax
     5a8:	58                   	pop    rax
     5a9:	50                   	push   rax
     5aa:	50                   	push   rax
     5ab:	48 c7 c1 02 00 00 00 	mov    rcx,0x2
     5b2:	48 83 ec 20          	sub    rsp,0x20
     5b6:	e8 00 00 00 00       	call   5bb <L_p_cap_attenuate+0x219>
     5bb:	48 83 c4 20          	add    rsp,0x20
     5bf:	58                   	pop    rax
     5c0:	58                   	pop    rax
     5c1:	48 89 ec             	mov    rsp,rbp
     5c4:	5d                   	pop    rbp
     5c5:	c3                   	ret
     5c6:	48 8b 45 c8          	mov    rax,QWORD PTR [rbp-0x38]
     5ca:	50                   	push   rax
     5cb:	58                   	pop    rax
     5cc:	50                   	push   rax
     5cd:	48 8d 05 00 00 00 00 	lea    rax,[rip+0x0]        # 5d4 <L_p_cap_attenuate+0x232>
     5d4:	50                   	push   rax
     5d5:	48 8b 45 b0          	mov    rax,QWORD PTR [rbp-0x50]
     5d9:	50                   	push   rax
     5da:	59                   	pop    rcx
     5db:	58                   	pop    rax
     5dc:	5a                   	pop    rdx
     5dd:	48 89 14 c8          	mov    QWORD PTR [rax+rcx*8],rdx
     5e1:	48 8b 45 f8          	mov    rax,QWORD PTR [rbp-0x8]
     5e5:	50                   	push   rax
     5e6:	58                   	pop    rax
     5e7:	50                   	push   rax
     5e8:	48 8d 05 00 08 00 00 	lea    rax,[rip+0x800]        # def <L_p_cap_rights+0xf>
     5ef:	50                   	push   rax
     5f0:	48 8b 45 b0          	mov    rax,QWORD PTR [rbp-0x50]
     5f4:	50                   	push   rax
     5f5:	59                   	pop    rcx
     5f6:	58                   	pop    rax
     5f7:	5a                   	pop    rdx
     5f8:	48 89 14 c8          	mov    QWORD PTR [rax+rcx*8],rdx
     5fc:	48 8b 45 b8          	mov    rax,QWORD PTR [rbp-0x48]
     600:	50                   	push   rax
     601:	58                   	pop    rax
     602:	50                   	push   rax
     603:	48 8d 05 00 10 00 00 	lea    rax,[rip+0x1000]        # 160a <L_p_cap_drop+0x542>
     60a:	50                   	push   rax
     60b:	48 8b 45 b0          	mov    rax,QWORD PTR [rbp-0x50]
     60f:	50                   	push   rax
     610:	59                   	pop    rcx
     611:	58                   	pop    rax
     612:	5a                   	pop    rdx
     613:	48 89 14 c8          	mov    QWORD PTR [rax+rcx*8],rdx
     617:	48 b8 00 00 00 00 00 	movabs rax,0x0
     61e:	00 00 00 
     621:	50                   	push   rax
     622:	58                   	pop    rax
     623:	50                   	push   rax
     624:	48 8d 05 00 18 00 00 	lea    rax,[rip+0x1800]        # 1e2b <L_p_CAP_REVOKED+0x62b>
     62b:	50                   	push   rax
     62c:	48 8b 45 b0          	mov    rax,QWORD PTR [rbp-0x50]
     630:	50                   	push   rax
     631:	59                   	pop    rcx
     632:	58                   	pop    rax
     633:	5a                   	pop    rdx
     634:	48 89 14 c8          	mov    QWORD PTR [rax+rcx*8],rdx
     638:	48 b8 01 00 00 00 00 	movabs rax,0x1
     63f:	00 00 00 
     642:	50                   	push   rax
     643:	58                   	pop    rax
     644:	50                   	push   rax
     645:	48 8d 05 00 20 00 00 	lea    rax,[rip+0x2000]        # 264c <L_p_CAP_LIVE+0x64c>
     64c:	50                   	push   rax
     64d:	48 8b 45 b0          	mov    rax,QWORD PTR [rbp-0x50]
     651:	50                   	push   rax
     652:	59                   	pop    rcx
     653:	58                   	pop    rax
     654:	5a                   	pop    rdx
     655:	48 89 14 c8          	mov    QWORD PTR [rax+rcx*8],rdx
     659:	48 b8 01 00 00 00 00 	movabs rax,0x1
     660:	00 00 00 
     663:	50                   	push   rax
     664:	59                   	pop    rcx
     665:	58                   	pop    rax
     666:	48 01 c8             	add    rax,rcx
     669:	50                   	push   rax
     66a:	58                   	pop    rax
     66b:	50                   	push   rax
     66c:	50                   	push   rax
     66d:	48 c7 c1 02 00 00 00 	mov    rcx,0x2
     674:	48 83 ec 20          	sub    rsp,0x20
     678:	e8 00 00 00 00       	call   67d <L_p_cap_attenuate+0x2db>
     67d:	48 83 c4 20          	add    rsp,0x20
     681:	58                   	pop    rax
     682:	58                   	pop    rax
     683:	48 89 ec             	mov    rsp,rbp
     686:	5d                   	pop    rbp
     687:	c3                   	ret

0000000000000688 <L_p_cap_verify_rights>:
     688:	55                   	push   rbp
     689:	48 89 e5             	mov    rbp,rsp
     68c:	48 81 ec 00 04 00 00 	sub    rsp,0x400
     693:	48 89 4d f8          	mov    QWORD PTR [rbp-0x8],rcx
     697:	48 89 55 f0          	mov    QWORD PTR [rbp-0x10],rdx
     69b:	48 c7 c1 01 00 00 00 	mov    rcx,0x1
     6a2:	48 83 ec 20          	sub    rsp,0x20
     6a6:	e8 00 00 00 00       	call   6ab <L_p_cap_verify_rights+0x23>
     6ab:	48 83 c4 20          	add    rsp,0x20
     6af:	48 8b 45 f8          	mov    rax,QWORD PTR [rbp-0x8]
     6b3:	50                   	push   rax
     6b4:	59                   	pop    rcx
     6b5:	48 83 ec 20          	sub    rsp,0x20
     6b9:	e8 2f fa ff ff       	call   ed <L_p_cap_slot_of>
     6be:	48 83 c4 20          	add    rsp,0x20
     6c2:	50                   	push   rax
     6c3:	58                   	pop    rax
     6c4:	48 89 45 e8          	mov    QWORD PTR [rbp-0x18],rax
     6c8:	48 8b 45 e8          	mov    rax,QWORD PTR [rbp-0x18]
     6cc:	50                   	push   rax
     6cd:	48 b8 ff ff ff ff 00 	movabs rax,0xffffffff
     6d4:	00 00 00 
     6d7:	50                   	push   rax
     6d8:	59                   	pop    rcx
     6d9:	58                   	pop    rax
     6da:	48 39 c8             	cmp    rax,rcx
     6dd:	0f 94 c0             	sete   al
     6e0:	48 0f b6 c0          	movzx  rax,al
     6e4:	50                   	push   rax
     6e5:	58                   	pop    rax
     6e6:	48 85 c0             	test   rax,rax
     6e9:	74 29                	je     714 <L_p_cap_verify_rights+0x8c>
     6eb:	48 b8 00 00 00 00 00 	movabs rax,0x0
     6f2:	00 00 00 
     6f5:	50                   	push   rax
     6f6:	58                   	pop    rax
     6f7:	50                   	push   rax
     6f8:	50                   	push   rax
     6f9:	48 c7 c1 02 00 00 00 	mov    rcx,0x2
     700:	48 83 ec 20          	sub    rsp,0x20
     704:	e8 00 00 00 00       	call   709 <L_p_cap_verify_rights+0x81>
     709:	48 83 c4 20          	add    rsp,0x20
     70d:	58                   	pop    rax
     70e:	58                   	pop    rax
     70f:	48 89 ec             	mov    rsp,rbp
     712:	5d                   	pop    rbp
     713:	c3                   	ret
     714:	48 8d 05 00 18 00 00 	lea    rax,[rip+0x1800]        # 1f1b <L_p_CAP_REVOKED+0x71b>
     71b:	50                   	push   rax
     71c:	48 8b 45 e8          	mov    rax,QWORD PTR [rbp-0x18]
     720:	50                   	push   rax
     721:	59                   	pop    rcx
     722:	58                   	pop    rax
     723:	48 8b 04 c8          	mov    rax,QWORD PTR [rax+rcx*8]
     727:	50                   	push   rax
     728:	48 b8 01 00 00 00 00 	movabs rax,0x1
     72f:	00 00 00 
     732:	50                   	push   rax
     733:	59                   	pop    rcx
     734:	58                   	pop    rax
     735:	48 39 c8             	cmp    rax,rcx
     738:	0f 94 c0             	sete   al
     73b:	48 0f b6 c0          	movzx  rax,al
     73f:	50                   	push   rax
     740:	58                   	pop    rax
     741:	48 85 c0             	test   rax,rax
     744:	74 29                	je     76f <L_p_cap_verify_rights+0xe7>
     746:	48 b8 00 00 00 00 00 	movabs rax,0x0
     74d:	00 00 00 
     750:	50                   	push   rax
     751:	58                   	pop    rax
     752:	50                   	push   rax
     753:	50                   	push   rax
     754:	48 c7 c1 02 00 00 00 	mov    rcx,0x2
     75b:	48 83 ec 20          	sub    rsp,0x20
     75f:	e8 00 00 00 00       	call   764 <L_p_cap_verify_rights+0xdc>
     764:	48 83 c4 20          	add    rsp,0x20
     768:	58                   	pop    rax
     769:	58                   	pop    rax
     76a:	48 89 ec             	mov    rsp,rbp
     76d:	5d                   	pop    rbp
     76e:	c3                   	ret
     76f:	48 8b 45 f8          	mov    rax,QWORD PTR [rbp-0x8]
     773:	50                   	push   rax
     774:	58                   	pop    rax
     775:	48 89 45 e0          	mov    QWORD PTR [rbp-0x20],rax
     779:	48 b8 00 00 00 00 00 	movabs rax,0x0
     780:	00 00 00 
     783:	50                   	push   rax
     784:	58                   	pop    rax
     785:	48 89 45 d8          	mov    QWORD PTR [rbp-0x28],rax
     789:	48 8b 45 e0          	mov    rax,QWORD PTR [rbp-0x20]
     78d:	50                   	push   rax
     78e:	48 b8 00 00 00 00 00 	movabs rax,0x0
     795:	00 00 00 
     798:	50                   	push   rax
     799:	59                   	pop    rcx
     79a:	58                   	pop    rax
     79b:	48 39 c8             	cmp    rax,rcx
     79e:	0f 95 c0             	setne  al
     7a1:	48 0f b6 c0          	movzx  rax,al
     7a5:	50                   	push   rax
     7a6:	58                   	pop    rax
     7a7:	48 85 c0             	test   rax,rax
     7aa:	0f 84 42 01 00 00    	je     8f2 <L_p_cap_verify_rights+0x26a>
     7b0:	48 8b 45 d8          	mov    rax,QWORD PTR [rbp-0x28]
     7b4:	50                   	push   rax
     7b5:	48 8b 05 d0 00 00 00 	mov    rax,QWORD PTR [rip+0xd0]        # 88c <L_p_cap_verify_rights+0x204>
     7bc:	50                   	push   rax
     7bd:	59                   	pop    rcx
     7be:	58                   	pop    rax
     7bf:	48 39 c8             	cmp    rax,rcx
     7c2:	0f 9f c0             	setg   al
     7c5:	48 0f b6 c0          	movzx  rax,al
     7c9:	50                   	push   rax
     7ca:	58                   	pop    rax
     7cb:	48 85 c0             	test   rax,rax
     7ce:	74 29                	je     7f9 <L_p_cap_verify_rights+0x171>
     7d0:	48 b8 00 00 00 00 00 	movabs rax,0x0
     7d7:	00 00 00 
     7da:	50                   	push   rax
     7db:	58                   	pop    rax
     7dc:	50                   	push   rax
     7dd:	50                   	push   rax
     7de:	48 c7 c1 02 00 00 00 	mov    rcx,0x2
     7e5:	48 83 ec 20          	sub    rsp,0x20
     7e9:	e8 00 00 00 00       	call   7ee <L_p_cap_verify_rights+0x166>
     7ee:	48 83 c4 20          	add    rsp,0x20
     7f2:	58                   	pop    rax
     7f3:	58                   	pop    rax
     7f4:	48 89 ec             	mov    rsp,rbp
     7f7:	5d                   	pop    rbp
     7f8:	c3                   	ret
     7f9:	48 8b 45 e0          	mov    rax,QWORD PTR [rbp-0x20]
     7fd:	50                   	push   rax
     7fe:	59                   	pop    rcx
     7ff:	48 83 ec 20          	sub    rsp,0x20
     803:	e8 e5 f8 ff ff       	call   ed <L_p_cap_slot_of>
     808:	48 83 c4 20          	add    rsp,0x20
     80c:	50                   	push   rax
     80d:	58                   	pop    rax
     80e:	48 89 45 d0          	mov    QWORD PTR [rbp-0x30],rax
     812:	48 8b 45 d0          	mov    rax,QWORD PTR [rbp-0x30]
     816:	50                   	push   rax
     817:	48 b8 ff ff ff ff 00 	movabs rax,0xffffffff
     81e:	00 00 00 
     821:	50                   	push   rax
     822:	59                   	pop    rcx
     823:	58                   	pop    rax
     824:	48 39 c8             	cmp    rax,rcx
     827:	0f 94 c0             	sete   al
     82a:	48 0f b6 c0          	movzx  rax,al
     82e:	50                   	push   rax
     82f:	58                   	pop    rax
     830:	48 85 c0             	test   rax,rax
     833:	74 29                	je     85e <L_p_cap_verify_rights+0x1d6>
     835:	48 b8 00 00 00 00 00 	movabs rax,0x0
     83c:	00 00 00 
     83f:	50                   	push   rax
     840:	58                   	pop    rax
     841:	50                   	push   rax
     842:	50                   	push   rax
     843:	48 c7 c1 02 00 00 00 	mov    rcx,0x2
     84a:	48 83 ec 20          	sub    rsp,0x20
     84e:	e8 00 00 00 00       	call   853 <L_p_cap_verify_rights+0x1cb>
     853:	48 83 c4 20          	add    rsp,0x20
     857:	58                   	pop    rax
     858:	58                   	pop    rax
     859:	48 89 ec             	mov    rsp,rbp
     85c:	5d                   	pop    rbp
     85d:	c3                   	ret
     85e:	48 8d 05 00 18 00 00 	lea    rax,[rip+0x1800]        # 2065 <L_p_CAP_LIVE+0x65>
     865:	50                   	push   rax
     866:	48 8b 45 d0          	mov    rax,QWORD PTR [rbp-0x30]
     86a:	50                   	push   rax
     86b:	59                   	pop    rcx
     86c:	58                   	pop    rax
     86d:	48 8b 04 c8          	mov    rax,QWORD PTR [rax+rcx*8]
     871:	50                   	push   rax
     872:	48 b8 01 00 00 00 00 	movabs rax,0x1
     879:	00 00 00 
     87c:	50                   	push   rax
     87d:	59                   	pop    rcx
     87e:	58                   	pop    rax
     87f:	48 39 c8             	cmp    rax,rcx
     882:	0f 94 c0             	sete   al
     885:	48 0f b6 c0          	movzx  rax,al
     889:	50                   	push   rax
     88a:	58                   	pop    rax
     88b:	48 85 c0             	test   rax,rax
     88e:	74 29                	je     8b9 <L_p_cap_verify_rights+0x231>
     890:	48 b8 00 00 00 00 00 	movabs rax,0x0
     897:	00 00 00 
     89a:	50                   	push   rax
     89b:	58                   	pop    rax
     89c:	50                   	push   rax
     89d:	50                   	push   rax
     89e:	48 c7 c1 02 00 00 00 	mov    rcx,0x2
     8a5:	48 83 ec 20          	sub    rsp,0x20
     8a9:	e8 00 00 00 00       	call   8ae <L_p_cap_verify_rights+0x226>
     8ae:	48 83 c4 20          	add    rsp,0x20
     8b2:	58                   	pop    rax
     8b3:	58                   	pop    rax
     8b4:	48 89 ec             	mov    rsp,rbp
     8b7:	5d                   	pop    rbp
     8b8:	c3                   	ret
     8b9:	48 8d 05 00 08 00 00 	lea    rax,[rip+0x800]        # 10c0 <L_p_cap_expires_at+0xb2>
     8c0:	50                   	push   rax
     8c1:	48 8b 45 d0          	mov    rax,QWORD PTR [rbp-0x30]
     8c5:	50                   	push   rax
     8c6:	59                   	pop    rcx
     8c7:	58                   	pop    rax
     8c8:	48 8b 04 c8          	mov    rax,QWORD PTR [rax+rcx*8]
     8cc:	50                   	push   rax
     8cd:	58                   	pop    rax
     8ce:	48 89 45 e0          	mov    QWORD PTR [rbp-0x20],rax
     8d2:	48 8b 45 d8          	mov    rax,QWORD PTR [rbp-0x28]
     8d6:	50                   	push   rax
     8d7:	48 b8 01 00 00 00 00 	movabs rax,0x1
     8de:	00 00 00 
     8e1:	50                   	push   rax
     8e2:	59                   	pop    rcx
     8e3:	58                   	pop    rax
     8e4:	48 01 c8             	add    rax,rcx
     8e7:	50                   	push   rax
     8e8:	58                   	pop    rax
     8e9:	48 89 45 d8          	mov    QWORD PTR [rbp-0x28],rax
     8ed:	e9 97 fe ff ff       	jmp    789 <L_p_cap_verify_rights+0x101>
     8f2:	48 8d 05 00 00 00 00 	lea    rax,[rip+0x0]        # 8f9 <L_p_cap_verify_rights+0x271>
     8f9:	50                   	push   rax
     8fa:	48 8b 45 e8          	mov    rax,QWORD PTR [rbp-0x18]
     8fe:	50                   	push   rax
     8ff:	59                   	pop    rcx
     900:	58                   	pop    rax
     901:	48 8b 04 c8          	mov    rax,QWORD PTR [rax+rcx*8]
     905:	50                   	push   rax
     906:	58                   	pop    rax
     907:	48 89 45 c8          	mov    QWORD PTR [rbp-0x38],rax
     90b:	48 8b 45 c8          	mov    rax,QWORD PTR [rbp-0x38]
     90f:	50                   	push   rax
     910:	48 8b 45 f0          	mov    rax,QWORD PTR [rbp-0x10]
     914:	50                   	push   rax
     915:	59                   	pop    rcx
     916:	58                   	pop    rax
     917:	48 21 c8             	and    rax,rcx
     91a:	50                   	push   rax
     91b:	48 8b 45 f0          	mov    rax,QWORD PTR [rbp-0x10]
     91f:	50                   	push   rax
     920:	59                   	pop    rcx
     921:	58                   	pop    rax
     922:	48 39 c8             	cmp    rax,rcx
     925:	0f 95 c0             	setne  al
     928:	48 0f b6 c0          	movzx  rax,al
     92c:	50                   	push   rax
     92d:	58                   	pop    rax
     92e:	48 85 c0             	test   rax,rax
     931:	74 29                	je     95c <L_p_cap_verify_rights+0x2d4>
     933:	48 b8 00 00 00 00 00 	movabs rax,0x0
     93a:	00 00 00 
     93d:	50                   	push   rax
     93e:	58                   	pop    rax
     93f:	50                   	push   rax
     940:	50                   	push   rax
     941:	48 c7 c1 02 00 00 00 	mov    rcx,0x2
     948:	48 83 ec 20          	sub    rsp,0x20
     94c:	e8 00 00 00 00       	call   951 <L_p_cap_verify_rights+0x2c9>
     951:	48 83 c4 20          	add    rsp,0x20
     955:	58                   	pop    rax
     956:	58                   	pop    rax
     957:	48 89 ec             	mov    rsp,rbp
     95a:	5d                   	pop    rbp
     95b:	c3                   	ret
     95c:	48 b8 01 00 00 00 00 	movabs rax,0x1
     963:	00 00 00 
     966:	50                   	push   rax
     967:	58                   	pop    rax
     968:	50                   	push   rax
     969:	50                   	push   rax
     96a:	48 c7 c1 02 00 00 00 	mov    rcx,0x2
     971:	48 83 ec 20          	sub    rsp,0x20
     975:	e8 00 00 00 00       	call   97a <L_p_cap_verify_rights+0x2f2>
     97a:	48 83 c4 20          	add    rsp,0x20
     97e:	58                   	pop    rax
     97f:	58                   	pop    rax
     980:	48 89 ec             	mov    rsp,rbp
     983:	5d                   	pop    rbp
     984:	c3                   	ret

0000000000000985 <L_p_cap_verify_at>:
     985:	55                   	push   rbp
     986:	48 89 e5             	mov    rbp,rsp
     989:	48 81 ec 00 04 00 00 	sub    rsp,0x400
     990:	48 89 4d f8          	mov    QWORD PTR [rbp-0x8],rcx
     994:	48 89 55 f0          	mov    QWORD PTR [rbp-0x10],rdx
     998:	4c 89 45 e8          	mov    QWORD PTR [rbp-0x18],r8
     99c:	48 c7 c1 01 00 00 00 	mov    rcx,0x1
     9a3:	48 83 ec 20          	sub    rsp,0x20
     9a7:	e8 00 00 00 00       	call   9ac <L_p_cap_verify_at+0x27>
     9ac:	48 83 c4 20          	add    rsp,0x20
     9b0:	48 8b 45 f8          	mov    rax,QWORD PTR [rbp-0x8]
     9b4:	50                   	push   rax
     9b5:	59                   	pop    rcx
     9b6:	48 83 ec 20          	sub    rsp,0x20
     9ba:	e8 2e f7 ff ff       	call   ed <L_p_cap_slot_of>
     9bf:	48 83 c4 20          	add    rsp,0x20
     9c3:	50                   	push   rax
     9c4:	58                   	pop    rax
     9c5:	48 89 45 e0          	mov    QWORD PTR [rbp-0x20],rax
     9c9:	48 8b 45 e0          	mov    rax,QWORD PTR [rbp-0x20]
     9cd:	50                   	push   rax
     9ce:	48 b8 ff ff ff ff 00 	movabs rax,0xffffffff
     9d5:	00 00 00 
     9d8:	50                   	push   rax
     9d9:	59                   	pop    rcx
     9da:	58                   	pop    rax
     9db:	48 39 c8             	cmp    rax,rcx
     9de:	0f 94 c0             	sete   al
     9e1:	48 0f b6 c0          	movzx  rax,al
     9e5:	50                   	push   rax
     9e6:	58                   	pop    rax
     9e7:	48 85 c0             	test   rax,rax
     9ea:	74 29                	je     a15 <L_p_cap_verify_at+0x90>
     9ec:	48 b8 00 00 00 00 00 	movabs rax,0x0
     9f3:	00 00 00 
     9f6:	50                   	push   rax
     9f7:	58                   	pop    rax
     9f8:	50                   	push   rax
     9f9:	50                   	push   rax
     9fa:	48 c7 c1 02 00 00 00 	mov    rcx,0x2
     a01:	48 83 ec 20          	sub    rsp,0x20
     a05:	e8 00 00 00 00       	call   a0a <L_p_cap_verify_at+0x85>
     a0a:	48 83 c4 20          	add    rsp,0x20
     a0e:	58                   	pop    rax
     a0f:	58                   	pop    rax
     a10:	48 89 ec             	mov    rsp,rbp
     a13:	5d                   	pop    rbp
     a14:	c3                   	ret
     a15:	48 8d 05 00 10 00 00 	lea    rax,[rip+0x1000]        # 1a1c <L_p_CAP_REVOKED+0x21c>
     a1c:	50                   	push   rax
     a1d:	48 8b 45 e0          	mov    rax,QWORD PTR [rbp-0x20]
     a21:	50                   	push   rax
     a22:	59                   	pop    rcx
     a23:	58                   	pop    rax
     a24:	48 8b 04 c8          	mov    rax,QWORD PTR [rax+rcx*8]
     a28:	50                   	push   rax
     a29:	58                   	pop    rax
     a2a:	48 89 45 d8          	mov    QWORD PTR [rbp-0x28],rax
     a2e:	48 8b 45 d8          	mov    rax,QWORD PTR [rbp-0x28]
     a32:	50                   	push   rax
     a33:	48 b8 00 00 00 00 00 	movabs rax,0x0
     a3a:	00 00 00 
     a3d:	50                   	push   rax
     a3e:	59                   	pop    rcx
     a3f:	58                   	pop    rax
     a40:	48 39 c8             	cmp    rax,rcx
     a43:	0f 95 c0             	setne  al
     a46:	48 0f b6 c0          	movzx  rax,al
     a4a:	50                   	push   rax
     a4b:	58                   	pop    rax
     a4c:	48 85 c0             	test   rax,rax
     a4f:	74 46                	je     a97 <L_p_cap_verify_at+0x112>
     a51:	48 8b 45 e8          	mov    rax,QWORD PTR [rbp-0x18]
     a55:	50                   	push   rax
     a56:	48 8b 45 d8          	mov    rax,QWORD PTR [rbp-0x28]
     a5a:	50                   	push   rax
     a5b:	59                   	pop    rcx
     a5c:	58                   	pop    rax
     a5d:	48 39 c8             	cmp    rax,rcx
     a60:	0f 9d c0             	setge  al
     a63:	48 0f b6 c0          	movzx  rax,al
     a67:	50                   	push   rax
     a68:	58                   	pop    rax
     a69:	48 85 c0             	test   rax,rax
     a6c:	74 29                	je     a97 <L_p_cap_verify_at+0x112>
     a6e:	48 b8 00 00 00 00 00 	movabs rax,0x0
     a75:	00 00 00 
     a78:	50                   	push   rax
     a79:	58                   	pop    rax
     a7a:	50                   	push   rax
     a7b:	50                   	push   rax
     a7c:	48 c7 c1 02 00 00 00 	mov    rcx,0x2
     a83:	48 83 ec 20          	sub    rsp,0x20
     a87:	e8 00 00 00 00       	call   a8c <L_p_cap_verify_at+0x107>
     a8c:	48 83 c4 20          	add    rsp,0x20
     a90:	58                   	pop    rax
     a91:	58                   	pop    rax
     a92:	48 89 ec             	mov    rsp,rbp
     a95:	5d                   	pop    rbp
     a96:	c3                   	ret
     a97:	48 8b 45 f8          	mov    rax,QWORD PTR [rbp-0x8]
     a9b:	50                   	push   rax
     a9c:	48 8b 45 f0          	mov    rax,QWORD PTR [rbp-0x10]
     aa0:	50                   	push   rax
     aa1:	5a                   	pop    rdx
     aa2:	59                   	pop    rcx
     aa3:	48 83 ec 20          	sub    rsp,0x20
     aa7:	e8 dc fb ff ff       	call   688 <L_p_cap_verify_rights>
     aac:	48 83 c4 20          	add    rsp,0x20
     ab0:	50                   	push   rax
     ab1:	58                   	pop    rax
     ab2:	50                   	push   rax
     ab3:	50                   	push   rax
     ab4:	48 c7 c1 02 00 00 00 	mov    rcx,0x2
     abb:	48 83 ec 20          	sub    rsp,0x20
     abf:	e8 00 00 00 00       	call   ac4 <L_p_cap_verify_at+0x13f>
     ac4:	48 83 c4 20          	add    rsp,0x20
     ac8:	58                   	pop    rax
     ac9:	58                   	pop    rax
     aca:	48 89 ec             	mov    rsp,rbp
     acd:	5d                   	pop    rbp
     ace:	c3                   	ret

0000000000000acf <L_p_cap_revoke>:
     acf:	55                   	push   rbp
     ad0:	48 89 e5             	mov    rbp,rsp
     ad3:	48 81 ec 00 04 00 00 	sub    rsp,0x400
     ada:	48 89 4d f8          	mov    QWORD PTR [rbp-0x8],rcx
     ade:	48 89 55 f0          	mov    QWORD PTR [rbp-0x10],rdx
     ae2:	48 c7 c1 01 00 00 00 	mov    rcx,0x1
     ae9:	48 83 ec 20          	sub    rsp,0x20
     aed:	e8 00 00 00 00       	call   af2 <L_p_cap_revoke+0x23>
     af2:	48 83 c4 20          	add    rsp,0x20
     af6:	48 8b 45 f8          	mov    rax,QWORD PTR [rbp-0x8]
     afa:	50                   	push   rax
     afb:	59                   	pop    rcx
     afc:	48 83 ec 20          	sub    rsp,0x20
     b00:	e8 e8 f5 ff ff       	call   ed <L_p_cap_slot_of>
     b05:	48 83 c4 20          	add    rsp,0x20
     b09:	50                   	push   rax
     b0a:	58                   	pop    rax
     b0b:	48 89 45 e8          	mov    QWORD PTR [rbp-0x18],rax
     b0f:	48 8b 45 e8          	mov    rax,QWORD PTR [rbp-0x18]
     b13:	50                   	push   rax
     b14:	48 b8 ff ff ff ff 00 	movabs rax,0xffffffff
     b1b:	00 00 00 
     b1e:	50                   	push   rax
     b1f:	59                   	pop    rcx
     b20:	58                   	pop    rax
     b21:	48 39 c8             	cmp    rax,rcx
     b24:	0f 94 c0             	sete   al
     b27:	48 0f b6 c0          	movzx  rax,al
     b2b:	50                   	push   rax
     b2c:	58                   	pop    rax
     b2d:	48 85 c0             	test   rax,rax
     b30:	74 26                	je     b58 <L_p_cap_revoke+0x89>
     b32:	48 8b 05 18 00 00 00 	mov    rax,QWORD PTR [rip+0x18]        # b51 <L_p_cap_revoke+0x82>
     b39:	50                   	push   rax
     b3a:	58                   	pop    rax
     b3b:	50                   	push   rax
     b3c:	50                   	push   rax
     b3d:	48 c7 c1 02 00 00 00 	mov    rcx,0x2
     b44:	48 83 ec 20          	sub    rsp,0x20
     b48:	e8 00 00 00 00       	call   b4d <L_p_cap_revoke+0x7e>
     b4d:	48 83 c4 20          	add    rsp,0x20
     b51:	58                   	pop    rax
     b52:	58                   	pop    rax
     b53:	48 89 ec             	mov    rsp,rbp
     b56:	5d                   	pop    rbp
     b57:	c3                   	ret
     b58:	48 8b 45 f0          	mov    rax,QWORD PTR [rbp-0x10]
     b5c:	50                   	push   rax
     b5d:	58                   	pop    rax
     b5e:	48 89 45 e0          	mov    QWORD PTR [rbp-0x20],rax
     b62:	48 b8 00 00 00 00 00 	movabs rax,0x0
     b69:	00 00 00 
     b6c:	50                   	push   rax
     b6d:	58                   	pop    rax
     b6e:	48 89 45 d8          	mov    QWORD PTR [rbp-0x28],rax
     b72:	48 b8 00 00 00 00 00 	movabs rax,0x0
     b79:	00 00 00 
     b7c:	50                   	push   rax
     b7d:	58                   	pop    rax
     b7e:	48 89 45 d0          	mov    QWORD PTR [rbp-0x30],rax
     b82:	48 8b 45 e0          	mov    rax,QWORD PTR [rbp-0x20]
     b86:	50                   	push   rax
     b87:	48 b8 00 00 00 00 00 	movabs rax,0x0
     b8e:	00 00 00 
     b91:	50                   	push   rax
     b92:	59                   	pop    rcx
     b93:	58                   	pop    rax
     b94:	48 39 c8             	cmp    rax,rcx
     b97:	0f 95 c0             	setne  al
     b9a:	48 0f b6 c0          	movzx  rax,al
     b9e:	50                   	push   rax
     b9f:	58                   	pop    rax
     ba0:	48 85 c0             	test   rax,rax
     ba3:	0f 84 45 01 00 00    	je     cee <L_p_cap_revoke+0x21f>
     ba9:	48 8b 45 d8          	mov    rax,QWORD PTR [rbp-0x28]
     bad:	50                   	push   rax
     bae:	48 8b 05 d0 00 00 00 	mov    rax,QWORD PTR [rip+0xd0]        # c85 <L_p_cap_revoke+0x1b6>
     bb5:	50                   	push   rax
     bb6:	59                   	pop    rcx
     bb7:	58                   	pop    rax
     bb8:	48 39 c8             	cmp    rax,rcx
     bbb:	0f 9f c0             	setg   al
     bbe:	48 0f b6 c0          	movzx  rax,al
     bc2:	50                   	push   rax
     bc3:	58                   	pop    rax
     bc4:	48 85 c0             	test   rax,rax
     bc7:	74 26                	je     bef <L_p_cap_revoke+0x120>
     bc9:	48 8b 05 18 00 00 00 	mov    rax,QWORD PTR [rip+0x18]        # be8 <L_p_cap_revoke+0x119>
     bd0:	50                   	push   rax
     bd1:	58                   	pop    rax
     bd2:	50                   	push   rax
     bd3:	50                   	push   rax
     bd4:	48 c7 c1 02 00 00 00 	mov    rcx,0x2
     bdb:	48 83 ec 20          	sub    rsp,0x20
     bdf:	e8 00 00 00 00       	call   be4 <L_p_cap_revoke+0x115>
     be4:	48 83 c4 20          	add    rsp,0x20
     be8:	58                   	pop    rax
     be9:	58                   	pop    rax
     bea:	48 89 ec             	mov    rsp,rbp
     bed:	5d                   	pop    rbp
     bee:	c3                   	ret
     bef:	48 8b 45 e0          	mov    rax,QWORD PTR [rbp-0x20]
     bf3:	50                   	push   rax
     bf4:	48 8b 45 f8          	mov    rax,QWORD PTR [rbp-0x8]
     bf8:	50                   	push   rax
     bf9:	59                   	pop    rcx
     bfa:	58                   	pop    rax
     bfb:	48 39 c8             	cmp    rax,rcx
     bfe:	0f 94 c0             	sete   al
     c01:	48 0f b6 c0          	movzx  rax,al
     c05:	50                   	push   rax
     c06:	58                   	pop    rax
     c07:	48 85 c0             	test   rax,rax
     c0a:	74 20                	je     c2c <L_p_cap_revoke+0x15d>
     c0c:	48 b8 01 00 00 00 00 	movabs rax,0x1
     c13:	00 00 00 
     c16:	50                   	push   rax
     c17:	58                   	pop    rax
     c18:	48 89 45 d0          	mov    QWORD PTR [rbp-0x30],rax
     c1c:	48 b8 00 00 00 00 00 	movabs rax,0x0
     c23:	00 00 00 
     c26:	50                   	push   rax
     c27:	58                   	pop    rax
     c28:	48 89 45 e0          	mov    QWORD PTR [rbp-0x20],rax
     c2c:	48 8b 45 e0          	mov    rax,QWORD PTR [rbp-0x20]
     c30:	50                   	push   rax
     c31:	48 b8 00 00 00 00 00 	movabs rax,0x0
     c38:	00 00 00 
     c3b:	50                   	push   rax
     c3c:	59                   	pop    rcx
     c3d:	58                   	pop    rax
     c3e:	48 39 c8             	cmp    rax,rcx
     c41:	0f 95 c0             	setne  al
     c44:	48 0f b6 c0          	movzx  rax,al
     c48:	50                   	push   rax
     c49:	58                   	pop    rax
     c4a:	48 85 c0             	test   rax,rax
     c4d:	0f 84 96 00 00 00    	je     ce9 <L_p_cap_revoke+0x21a>
     c53:	48 8b 45 e0          	mov    rax,QWORD PTR [rbp-0x20]
     c57:	50                   	push   rax
     c58:	59                   	pop    rcx
     c59:	48 83 ec 20          	sub    rsp,0x20
     c5d:	e8 8b f4 ff ff       	call   ed <L_p_cap_slot_of>
     c62:	48 83 c4 20          	add    rsp,0x20
     c66:	50                   	push   rax
     c67:	58                   	pop    rax
     c68:	48 89 45 c8          	mov    QWORD PTR [rbp-0x38],rax
     c6c:	48 8b 45 c8          	mov    rax,QWORD PTR [rbp-0x38]
     c70:	50                   	push   rax
     c71:	48 b8 ff ff ff ff 00 	movabs rax,0xffffffff
     c78:	00 00 00 
     c7b:	50                   	push   rax
     c7c:	59                   	pop    rcx
     c7d:	58                   	pop    rax
     c7e:	48 39 c8             	cmp    rax,rcx
     c81:	0f 94 c0             	sete   al
     c84:	48 0f b6 c0          	movzx  rax,al
     c88:	50                   	push   rax
     c89:	58                   	pop    rax
     c8a:	48 85 c0             	test   rax,rax
     c8d:	74 26                	je     cb5 <L_p_cap_revoke+0x1e6>
     c8f:	48 8b 05 18 00 00 00 	mov    rax,QWORD PTR [rip+0x18]        # cae <L_p_cap_revoke+0x1df>
     c96:	50                   	push   rax
     c97:	58                   	pop    rax
     c98:	50                   	push   rax
     c99:	50                   	push   rax
     c9a:	48 c7 c1 02 00 00 00 	mov    rcx,0x2
     ca1:	48 83 ec 20          	sub    rsp,0x20
     ca5:	e8 00 00 00 00       	call   caa <L_p_cap_revoke+0x1db>
     caa:	48 83 c4 20          	add    rsp,0x20
     cae:	58                   	pop    rax
     caf:	58                   	pop    rax
     cb0:	48 89 ec             	mov    rsp,rbp
     cb3:	5d                   	pop    rbp
     cb4:	c3                   	ret
     cb5:	48 8d 05 00 08 00 00 	lea    rax,[rip+0x800]        # 14bc <L_p_cap_drop+0x3f4>
     cbc:	50                   	push   rax
     cbd:	48 8b 45 c8          	mov    rax,QWORD PTR [rbp-0x38]
     cc1:	50                   	push   rax
     cc2:	59                   	pop    rcx
     cc3:	58                   	pop    rax
     cc4:	48 8b 04 c8          	mov    rax,QWORD PTR [rax+rcx*8]
     cc8:	50                   	push   rax
     cc9:	58                   	pop    rax
     cca:	48 89 45 e0          	mov    QWORD PTR [rbp-0x20],rax
     cce:	48 8b 45 d8          	mov    rax,QWORD PTR [rbp-0x28]
     cd2:	50                   	push   rax
     cd3:	48 b8 01 00 00 00 00 	movabs rax,0x1
     cda:	00 00 00 
     cdd:	50                   	push   rax
     cde:	59                   	pop    rcx
     cdf:	58                   	pop    rax
     ce0:	48 01 c8             	add    rax,rcx
     ce3:	50                   	push   rax
     ce4:	58                   	pop    rax
     ce5:	48 89 45 d8          	mov    QWORD PTR [rbp-0x28],rax
     ce9:	e9 94 fe ff ff       	jmp    b82 <L_p_cap_revoke+0xb3>
     cee:	48 8b 45 d0          	mov    rax,QWORD PTR [rbp-0x30]
     cf2:	50                   	push   rax
     cf3:	48 b8 00 00 00 00 00 	movabs rax,0x0
     cfa:	00 00 00 
     cfd:	50                   	push   rax
     cfe:	59                   	pop    rcx
     cff:	58                   	pop    rax
     d00:	48 39 c8             	cmp    rax,rcx
     d03:	0f 94 c0             	sete   al
     d06:	48 0f b6 c0          	movzx  rax,al
     d0a:	50                   	push   rax
     d0b:	58                   	pop    rax
     d0c:	48 85 c0             	test   rax,rax
     d0f:	74 26                	je     d37 <L_p_cap_revoke+0x268>
     d11:	48 8b 05 20 00 00 00 	mov    rax,QWORD PTR [rip+0x20]        # d38 <L_p_cap_revoke+0x269>
     d18:	50                   	push   rax
     d19:	58                   	pop    rax
     d1a:	50                   	push   rax
     d1b:	50                   	push   rax
     d1c:	48 c7 c1 02 00 00 00 	mov    rcx,0x2
     d23:	48 83 ec 20          	sub    rsp,0x20
     d27:	e8 00 00 00 00       	call   d2c <L_p_cap_revoke+0x25d>
     d2c:	48 83 c4 20          	add    rsp,0x20
     d30:	58                   	pop    rax
     d31:	58                   	pop    rax
     d32:	48 89 ec             	mov    rsp,rbp
     d35:	5d                   	pop    rbp
     d36:	c3                   	ret
     d37:	48 8b 45 f0          	mov    rax,QWORD PTR [rbp-0x10]
     d3b:	50                   	push   rax
     d3c:	59                   	pop    rcx
     d3d:	48 83 ec 20          	sub    rsp,0x20
     d41:	e8 a7 f3 ff ff       	call   ed <L_p_cap_slot_of>
     d46:	48 83 c4 20          	add    rsp,0x20
     d4a:	50                   	push   rax
     d4b:	58                   	pop    rax
     d4c:	48 89 45 c0          	mov    QWORD PTR [rbp-0x40],rax
     d50:	48 8b 45 c0          	mov    rax,QWORD PTR [rbp-0x40]
     d54:	50                   	push   rax
     d55:	48 b8 ff ff ff ff 00 	movabs rax,0xffffffff
     d5c:	00 00 00 
     d5f:	50                   	push   rax
     d60:	59                   	pop    rcx
     d61:	58                   	pop    rax
     d62:	48 39 c8             	cmp    rax,rcx
     d65:	0f 94 c0             	sete   al
     d68:	48 0f b6 c0          	movzx  rax,al
     d6c:	50                   	push   rax
     d6d:	58                   	pop    rax
     d6e:	48 85 c0             	test   rax,rax
     d71:	74 26                	je     d99 <L_p_cap_revoke+0x2ca>
     d73:	48 8b 05 18 00 00 00 	mov    rax,QWORD PTR [rip+0x18]        # d92 <L_p_cap_revoke+0x2c3>
     d7a:	50                   	push   rax
     d7b:	58                   	pop    rax
     d7c:	50                   	push   rax
     d7d:	50                   	push   rax
     d7e:	48 c7 c1 02 00 00 00 	mov    rcx,0x2
     d85:	48 83 ec 20          	sub    rsp,0x20
     d89:	e8 00 00 00 00       	call   d8e <L_p_cap_revoke+0x2bf>
     d8e:	48 83 c4 20          	add    rsp,0x20
     d92:	58                   	pop    rax
     d93:	58                   	pop    rax
     d94:	48 89 ec             	mov    rsp,rbp
     d97:	5d                   	pop    rbp
     d98:	c3                   	ret
     d99:	48 b8 01 00 00 00 00 	movabs rax,0x1
     da0:	00 00 00 
     da3:	50                   	push   rax
     da4:	58                   	pop    rax
     da5:	50                   	push   rax
     da6:	48 8d 05 00 18 00 00 	lea    rax,[rip+0x1800]        # 25ad <L_p_CAP_LIVE+0x5ad>
     dad:	50                   	push   rax
     dae:	48 8b 45 c0          	mov    rax,QWORD PTR [rbp-0x40]
     db2:	50                   	push   rax
     db3:	59                   	pop    rcx
     db4:	58                   	pop    rax
     db5:	5a                   	pop    rdx
     db6:	48 89 14 c8          	mov    QWORD PTR [rax+rcx*8],rdx
     dba:	48 8b 05 10 00 00 00 	mov    rax,QWORD PTR [rip+0x10]        # dd1 <L_p_cap_revoke+0x302>
     dc1:	50                   	push   rax
     dc2:	58                   	pop    rax
     dc3:	50                   	push   rax
     dc4:	50                   	push   rax
     dc5:	48 c7 c1 02 00 00 00 	mov    rcx,0x2
     dcc:	48 83 ec 20          	sub    rsp,0x20
     dd0:	e8 00 00 00 00       	call   dd5 <L_p_cap_revoke+0x306>
     dd5:	48 83 c4 20          	add    rsp,0x20
     dd9:	58                   	pop    rax
     dda:	58                   	pop    rax
     ddb:	48 89 ec             	mov    rsp,rbp
     dde:	5d                   	pop    rbp
     ddf:	c3                   	ret

0000000000000de0 <L_p_cap_rights>:
     de0:	55                   	push   rbp
     de1:	48 89 e5             	mov    rbp,rsp
     de4:	48 81 ec 00 04 00 00 	sub    rsp,0x400
     deb:	48 89 4d f8          	mov    QWORD PTR [rbp-0x8],rcx
     def:	48 c7 c1 01 00 00 00 	mov    rcx,0x1
     df6:	48 83 ec 20          	sub    rsp,0x20
     dfa:	e8 00 00 00 00       	call   dff <L_p_cap_rights+0x1f>
     dff:	48 83 c4 20          	add    rsp,0x20
     e03:	48 8b 45 f8          	mov    rax,QWORD PTR [rbp-0x8]
     e07:	50                   	push   rax
     e08:	59                   	pop    rcx
     e09:	48 83 ec 20          	sub    rsp,0x20
     e0d:	e8 db f2 ff ff       	call   ed <L_p_cap_slot_of>
     e12:	48 83 c4 20          	add    rsp,0x20
     e16:	50                   	push   rax
     e17:	58                   	pop    rax
     e18:	48 89 45 f0          	mov    QWORD PTR [rbp-0x10],rax
     e1c:	48 8b 45 f0          	mov    rax,QWORD PTR [rbp-0x10]
     e20:	50                   	push   rax
     e21:	48 b8 ff ff ff ff 00 	movabs rax,0xffffffff
     e28:	00 00 00 
     e2b:	50                   	push   rax
     e2c:	59                   	pop    rcx
     e2d:	58                   	pop    rax
     e2e:	48 39 c8             	cmp    rax,rcx
     e31:	0f 94 c0             	sete   al
     e34:	48 0f b6 c0          	movzx  rax,al
     e38:	50                   	push   rax
     e39:	58                   	pop    rax
     e3a:	48 85 c0             	test   rax,rax
     e3d:	74 29                	je     e68 <L_p_cap_rights+0x88>
     e3f:	48 b8 00 00 00 00 00 	movabs rax,0x0
     e46:	00 00 00 
     e49:	50                   	push   rax
     e4a:	58                   	pop    rax
     e4b:	50                   	push   rax
     e4c:	50                   	push   rax
     e4d:	48 c7 c1 02 00 00 00 	mov    rcx,0x2
     e54:	48 83 ec 20          	sub    rsp,0x20
     e58:	e8 00 00 00 00       	call   e5d <L_p_cap_rights+0x7d>
     e5d:	48 83 c4 20          	add    rsp,0x20
     e61:	58                   	pop    rax
     e62:	58                   	pop    rax
     e63:	48 89 ec             	mov    rsp,rbp
     e66:	5d                   	pop    rbp
     e67:	c3                   	ret
     e68:	48 8d 05 00 00 00 00 	lea    rax,[rip+0x0]        # e6f <L_p_cap_rights+0x8f>
     e6f:	50                   	push   rax
     e70:	48 8b 45 f0          	mov    rax,QWORD PTR [rbp-0x10]
     e74:	50                   	push   rax
     e75:	59                   	pop    rcx
     e76:	58                   	pop    rax
     e77:	48 8b 04 c8          	mov    rax,QWORD PTR [rax+rcx*8]
     e7b:	50                   	push   rax
     e7c:	58                   	pop    rax
     e7d:	50                   	push   rax
     e7e:	50                   	push   rax
     e7f:	48 c7 c1 02 00 00 00 	mov    rcx,0x2
     e86:	48 83 ec 20          	sub    rsp,0x20
     e8a:	e8 00 00 00 00       	call   e8f <L_p_cap_rights+0xaf>
     e8f:	48 83 c4 20          	add    rsp,0x20
     e93:	58                   	pop    rax
     e94:	58                   	pop    rax
     e95:	48 89 ec             	mov    rsp,rbp
     e98:	5d                   	pop    rbp
     e99:	c3                   	ret

0000000000000e9a <L_p_cap_parent>:
     e9a:	55                   	push   rbp
     e9b:	48 89 e5             	mov    rbp,rsp
     e9e:	48 81 ec 00 04 00 00 	sub    rsp,0x400
     ea5:	48 89 4d f8          	mov    QWORD PTR [rbp-0x8],rcx
     ea9:	48 c7 c1 01 00 00 00 	mov    rcx,0x1
     eb0:	48 83 ec 20          	sub    rsp,0x20
     eb4:	e8 00 00 00 00       	call   eb9 <L_p_cap_parent+0x1f>
     eb9:	48 83 c4 20          	add    rsp,0x20
     ebd:	48 8b 45 f8          	mov    rax,QWORD PTR [rbp-0x8]
     ec1:	50                   	push   rax
     ec2:	59                   	pop    rcx
     ec3:	48 83 ec 20          	sub    rsp,0x20
     ec7:	e8 21 f2 ff ff       	call   ed <L_p_cap_slot_of>
     ecc:	48 83 c4 20          	add    rsp,0x20
     ed0:	50                   	push   rax
     ed1:	58                   	pop    rax
     ed2:	48 89 45 f0          	mov    QWORD PTR [rbp-0x10],rax
     ed6:	48 8b 45 f0          	mov    rax,QWORD PTR [rbp-0x10]
     eda:	50                   	push   rax
     edb:	48 b8 ff ff ff ff 00 	movabs rax,0xffffffff
     ee2:	00 00 00 
     ee5:	50                   	push   rax
     ee6:	59                   	pop    rcx
     ee7:	58                   	pop    rax
     ee8:	48 39 c8             	cmp    rax,rcx
     eeb:	0f 94 c0             	sete   al
     eee:	48 0f b6 c0          	movzx  rax,al
     ef2:	50                   	push   rax
     ef3:	58                   	pop    rax
     ef4:	48 85 c0             	test   rax,rax
     ef7:	74 29                	je     f22 <L_p_cap_parent+0x88>
     ef9:	48 b8 00 00 00 00 00 	movabs rax,0x0
     f00:	00 00 00 
     f03:	50                   	push   rax
     f04:	58                   	pop    rax
     f05:	50                   	push   rax
     f06:	50                   	push   rax
     f07:	48 c7 c1 02 00 00 00 	mov    rcx,0x2
     f0e:	48 83 ec 20          	sub    rsp,0x20
     f12:	e8 00 00 00 00       	call   f17 <L_p_cap_parent+0x7d>
     f17:	48 83 c4 20          	add    rsp,0x20
     f1b:	58                   	pop    rax
     f1c:	58                   	pop    rax
     f1d:	48 89 ec             	mov    rsp,rbp
     f20:	5d                   	pop    rbp
     f21:	c3                   	ret
     f22:	48 8d 05 00 08 00 00 	lea    rax,[rip+0x800]        # 1729 <L_p_cap_drop+0x661>
     f29:	50                   	push   rax
     f2a:	48 8b 45 f0          	mov    rax,QWORD PTR [rbp-0x10]
     f2e:	50                   	push   rax
     f2f:	59                   	pop    rcx
     f30:	58                   	pop    rax
     f31:	48 8b 04 c8          	mov    rax,QWORD PTR [rax+rcx*8]
     f35:	50                   	push   rax
     f36:	58                   	pop    rax
     f37:	50                   	push   rax
     f38:	50                   	push   rax
     f39:	48 c7 c1 02 00 00 00 	mov    rcx,0x2
     f40:	48 83 ec 20          	sub    rsp,0x20
     f44:	e8 00 00 00 00       	call   f49 <L_p_cap_parent+0xaf>
     f49:	48 83 c4 20          	add    rsp,0x20
     f4d:	58                   	pop    rax
     f4e:	58                   	pop    rax
     f4f:	48 89 ec             	mov    rsp,rbp
     f52:	5d                   	pop    rbp
     f53:	c3                   	ret

0000000000000f54 <L_p_cap_is_revoked>:
     f54:	55                   	push   rbp
     f55:	48 89 e5             	mov    rbp,rsp
     f58:	48 81 ec 00 04 00 00 	sub    rsp,0x400
     f5f:	48 89 4d f8          	mov    QWORD PTR [rbp-0x8],rcx
     f63:	48 c7 c1 01 00 00 00 	mov    rcx,0x1
     f6a:	48 83 ec 20          	sub    rsp,0x20
     f6e:	e8 00 00 00 00       	call   f73 <L_p_cap_is_revoked+0x1f>
     f73:	48 83 c4 20          	add    rsp,0x20
     f77:	48 8b 45 f8          	mov    rax,QWORD PTR [rbp-0x8]
     f7b:	50                   	push   rax
     f7c:	59                   	pop    rcx
     f7d:	48 83 ec 20          	sub    rsp,0x20
     f81:	e8 67 f1 ff ff       	call   ed <L_p_cap_slot_of>
     f86:	48 83 c4 20          	add    rsp,0x20
     f8a:	50                   	push   rax
     f8b:	58                   	pop    rax
     f8c:	48 89 45 f0          	mov    QWORD PTR [rbp-0x10],rax
     f90:	48 8b 45 f0          	mov    rax,QWORD PTR [rbp-0x10]
     f94:	50                   	push   rax
     f95:	48 b8 ff ff ff ff 00 	movabs rax,0xffffffff
     f9c:	00 00 00 
     f9f:	50                   	push   rax
     fa0:	59                   	pop    rcx
     fa1:	58                   	pop    rax
     fa2:	48 39 c8             	cmp    rax,rcx
     fa5:	0f 94 c0             	sete   al
     fa8:	48 0f b6 c0          	movzx  rax,al
     fac:	50                   	push   rax
     fad:	58                   	pop    rax
     fae:	48 85 c0             	test   rax,rax
     fb1:	74 29                	je     fdc <L_p_cap_is_revoked+0x88>
     fb3:	48 b8 01 00 00 00 00 	movabs rax,0x1
     fba:	00 00 00 
     fbd:	50                   	push   rax
     fbe:	58                   	pop    rax
     fbf:	50                   	push   rax
     fc0:	50                   	push   rax
     fc1:	48 c7 c1 02 00 00 00 	mov    rcx,0x2
     fc8:	48 83 ec 20          	sub    rsp,0x20
     fcc:	e8 00 00 00 00       	call   fd1 <L_p_cap_is_revoked+0x7d>
     fd1:	48 83 c4 20          	add    rsp,0x20
     fd5:	58                   	pop    rax
     fd6:	58                   	pop    rax
     fd7:	48 89 ec             	mov    rsp,rbp
     fda:	5d                   	pop    rbp
     fdb:	c3                   	ret
     fdc:	48 8d 05 00 18 00 00 	lea    rax,[rip+0x1800]        # 27e3 <L_p_CAP_LIVE+0x7e3>
     fe3:	50                   	push   rax
     fe4:	48 8b 45 f0          	mov    rax,QWORD PTR [rbp-0x10]
     fe8:	50                   	push   rax
     fe9:	59                   	pop    rcx
     fea:	58                   	pop    rax
     feb:	48 8b 04 c8          	mov    rax,QWORD PTR [rax+rcx*8]
     fef:	50                   	push   rax
     ff0:	58                   	pop    rax
     ff1:	50                   	push   rax
     ff2:	50                   	push   rax
     ff3:	48 c7 c1 02 00 00 00 	mov    rcx,0x2
     ffa:	48 83 ec 20          	sub    rsp,0x20
     ffe:	e8 00 00 00 00       	call   1003 <L_p_cap_is_revoked+0xaf>
    1003:	48 83 c4 20          	add    rsp,0x20
    1007:	58                   	pop    rax
    1008:	58                   	pop    rax
    1009:	48 89 ec             	mov    rsp,rbp
    100c:	5d                   	pop    rbp
    100d:	c3                   	ret

000000000000100e <L_p_cap_expires_at>:
    100e:	55                   	push   rbp
    100f:	48 89 e5             	mov    rbp,rsp
    1012:	48 81 ec 00 04 00 00 	sub    rsp,0x400
    1019:	48 89 4d f8          	mov    QWORD PTR [rbp-0x8],rcx
    101d:	48 c7 c1 01 00 00 00 	mov    rcx,0x1
    1024:	48 83 ec 20          	sub    rsp,0x20
    1028:	e8 00 00 00 00       	call   102d <L_p_cap_expires_at+0x1f>
    102d:	48 83 c4 20          	add    rsp,0x20
    1031:	48 8b 45 f8          	mov    rax,QWORD PTR [rbp-0x8]
    1035:	50                   	push   rax
    1036:	59                   	pop    rcx
    1037:	48 83 ec 20          	sub    rsp,0x20
    103b:	e8 ad f0 ff ff       	call   ed <L_p_cap_slot_of>
    1040:	48 83 c4 20          	add    rsp,0x20
    1044:	50                   	push   rax
    1045:	58                   	pop    rax
    1046:	48 89 45 f0          	mov    QWORD PTR [rbp-0x10],rax
    104a:	48 8b 45 f0          	mov    rax,QWORD PTR [rbp-0x10]
    104e:	50                   	push   rax
    104f:	48 b8 ff ff ff ff 00 	movabs rax,0xffffffff
    1056:	00 00 00 
    1059:	50                   	push   rax
    105a:	59                   	pop    rcx
    105b:	58                   	pop    rax
    105c:	48 39 c8             	cmp    rax,rcx
    105f:	0f 94 c0             	sete   al
    1062:	48 0f b6 c0          	movzx  rax,al
    1066:	50                   	push   rax
    1067:	58                   	pop    rax
    1068:	48 85 c0             	test   rax,rax
    106b:	74 29                	je     1096 <L_p_cap_expires_at+0x88>
    106d:	48 b8 00 00 00 00 00 	movabs rax,0x0
    1074:	00 00 00 
    1077:	50                   	push   rax
    1078:	58                   	pop    rax
    1079:	50                   	push   rax
    107a:	50                   	push   rax
    107b:	48 c7 c1 02 00 00 00 	mov    rcx,0x2
    1082:	48 83 ec 20          	sub    rsp,0x20
    1086:	e8 00 00 00 00       	call   108b <L_p_cap_expires_at+0x7d>
    108b:	48 83 c4 20          	add    rsp,0x20
    108f:	58                   	pop    rax
    1090:	58                   	pop    rax
    1091:	48 89 ec             	mov    rsp,rbp
    1094:	5d                   	pop    rbp
    1095:	c3                   	ret
    1096:	48 8d 05 00 10 00 00 	lea    rax,[rip+0x1000]        # 209d <L_p_CAP_LIVE+0x9d>
    109d:	50                   	push   rax
    109e:	48 8b 45 f0          	mov    rax,QWORD PTR [rbp-0x10]
    10a2:	50                   	push   rax
    10a3:	59                   	pop    rcx
    10a4:	58                   	pop    rax
    10a5:	48 8b 04 c8          	mov    rax,QWORD PTR [rax+rcx*8]
    10a9:	50                   	push   rax
    10aa:	58                   	pop    rax
    10ab:	50                   	push   rax
    10ac:	50                   	push   rax
    10ad:	48 c7 c1 02 00 00 00 	mov    rcx,0x2
    10b4:	48 83 ec 20          	sub    rsp,0x20
    10b8:	e8 00 00 00 00       	call   10bd <L_p_cap_expires_at+0xaf>
    10bd:	48 83 c4 20          	add    rsp,0x20
    10c1:	58                   	pop    rax
    10c2:	58                   	pop    rax
    10c3:	48 89 ec             	mov    rsp,rbp
    10c6:	5d                   	pop    rbp
    10c7:	c3                   	ret

00000000000010c8 <L_p_cap_drop>:
    10c8:	55                   	push   rbp
    10c9:	48 89 e5             	mov    rbp,rsp
    10cc:	48 81 ec 00 04 00 00 	sub    rsp,0x400
    10d3:	48 89 4d f8          	mov    QWORD PTR [rbp-0x8],rcx
    10d7:	48 c7 c1 01 00 00 00 	mov    rcx,0x1
    10de:	48 83 ec 20          	sub    rsp,0x20
    10e2:	e8 00 00 00 00       	call   10e7 <L_p_cap_drop+0x1f>
    10e7:	48 83 c4 20          	add    rsp,0x20
    10eb:	48 8b 45 f8          	mov    rax,QWORD PTR [rbp-0x8]
    10ef:	50                   	push   rax
    10f0:	59                   	pop    rcx
    10f1:	48 83 ec 20          	sub    rsp,0x20
    10f5:	e8 f3 ef ff ff       	call   ed <L_p_cap_slot_of>
    10fa:	48 83 c4 20          	add    rsp,0x20
    10fe:	50                   	push   rax
    10ff:	58                   	pop    rax
    1100:	48 89 45 f0          	mov    QWORD PTR [rbp-0x10],rax
    1104:	48 8b 45 f0          	mov    rax,QWORD PTR [rbp-0x10]
    1108:	50                   	push   rax
    1109:	48 b8 ff ff ff ff 00 	movabs rax,0xffffffff
    1110:	00 00 00 
    1113:	50                   	push   rax
    1114:	59                   	pop    rcx
    1115:	58                   	pop    rax
    1116:	48 39 c8             	cmp    rax,rcx
    1119:	0f 94 c0             	sete   al
    111c:	48 0f b6 c0          	movzx  rax,al
    1120:	50                   	push   rax
    1121:	58                   	pop    rax
    1122:	48 85 c0             	test   rax,rax
    1125:	74 26                	je     114d <L_p_cap_drop+0x85>
    1127:	48 8b 05 18 00 00 00 	mov    rax,QWORD PTR [rip+0x18]        # 1146 <L_p_cap_drop+0x7e>
    112e:	50                   	push   rax
    112f:	58                   	pop    rax
    1130:	50                   	push   rax
    1131:	50                   	push   rax
    1132:	48 c7 c1 02 00 00 00 	mov    rcx,0x2
    1139:	48 83 ec 20          	sub    rsp,0x20
    113d:	e8 00 00 00 00       	call   1142 <L_p_cap_drop+0x7a>
    1142:	48 83 c4 20          	add    rsp,0x20
    1146:	58                   	pop    rax
    1147:	58                   	pop    rax
    1148:	48 89 ec             	mov    rsp,rbp
    114b:	5d                   	pop    rbp
    114c:	c3                   	ret
    114d:	48 8b 45 f8          	mov    rax,QWORD PTR [rbp-0x8]
    1151:	50                   	push   rax
    1152:	48 8b 05 08 00 00 00 	mov    rax,QWORD PTR [rip+0x8]        # 1161 <L_p_cap_drop+0x99>
    1159:	50                   	push   rax
    115a:	59                   	pop    rcx
    115b:	58                   	pop    rax
    115c:	48 39 c8             	cmp    rax,rcx
    115f:	0f 94 c0             	sete   al
    1162:	48 0f b6 c0          	movzx  rax,al
    1166:	50                   	push   rax
    1167:	58                   	pop    rax
    1168:	48 85 c0             	test   rax,rax
    116b:	74 26                	je     1193 <L_p_cap_drop+0xcb>
    116d:	48 8b 05 20 00 00 00 	mov    rax,QWORD PTR [rip+0x20]        # 1194 <L_p_cap_drop+0xcc>
    1174:	50                   	push   rax
    1175:	58                   	pop    rax
    1176:	50                   	push   rax
    1177:	50                   	push   rax
    1178:	48 c7 c1 02 00 00 00 	mov    rcx,0x2
    117f:	48 83 ec 20          	sub    rsp,0x20
    1183:	e8 00 00 00 00       	call   1188 <L_p_cap_drop+0xc0>
    1188:	48 83 c4 20          	add    rsp,0x20
    118c:	58                   	pop    rax
    118d:	58                   	pop    rax
    118e:	48 89 ec             	mov    rsp,rbp
    1191:	5d                   	pop    rbp
    1192:	c3                   	ret
    1193:	48 b8 00 00 00 00 00 	movabs rax,0x0
    119a:	00 00 00 
    119d:	50                   	push   rax
    119e:	58                   	pop    rax
    119f:	50                   	push   rax
    11a0:	48 8d 05 00 20 00 00 	lea    rax,[rip+0x2000]        # 31a7 <L_p_CAP_LIVE+0x11a7>
    11a7:	50                   	push   rax
    11a8:	48 8b 45 f0          	mov    rax,QWORD PTR [rbp-0x10]
    11ac:	50                   	push   rax
    11ad:	59                   	pop    rcx
    11ae:	58                   	pop    rax
    11af:	5a                   	pop    rdx
    11b0:	48 89 14 c8          	mov    QWORD PTR [rax+rcx*8],rdx
    11b4:	48 b8 00 00 00 00 00 	movabs rax,0x0
    11bb:	00 00 00 
    11be:	50                   	push   rax
    11bf:	58                   	pop    rax
    11c0:	50                   	push   rax
    11c1:	48 8d 05 00 00 00 00 	lea    rax,[rip+0x0]        # 11c8 <L_p_cap_drop+0x100>
    11c8:	50                   	push   rax
    11c9:	48 8b 45 f0          	mov    rax,QWORD PTR [rbp-0x10]
    11cd:	50                   	push   rax
    11ce:	59                   	pop    rcx
    11cf:	58                   	pop    rax
    11d0:	5a                   	pop    rdx
    11d1:	48 89 14 c8          	mov    QWORD PTR [rax+rcx*8],rdx
    11d5:	48 b8 00 00 00 00 00 	movabs rax,0x0
    11dc:	00 00 00 
    11df:	50                   	push   rax
    11e0:	58                   	pop    rax
    11e1:	50                   	push   rax
    11e2:	48 8d 05 00 08 00 00 	lea    rax,[rip+0x800]        # 19e9 <L_p_CAP_REVOKED+0x1e9>
    11e9:	50                   	push   rax
    11ea:	48 8b 45 f0          	mov    rax,QWORD PTR [rbp-0x10]
    11ee:	50                   	push   rax
    11ef:	59                   	pop    rcx
    11f0:	58                   	pop    rax
    11f1:	5a                   	pop    rdx
    11f2:	48 89 14 c8          	mov    QWORD PTR [rax+rcx*8],rdx
    11f6:	48 b8 00 00 00 00 00 	movabs rax,0x0
    11fd:	00 00 00 
    1200:	50                   	push   rax
    1201:	58                   	pop    rax
    1202:	50                   	push   rax
    1203:	48 8d 05 00 10 00 00 	lea    rax,[rip+0x1000]        # 220a <L_p_CAP_LIVE+0x20a>
    120a:	50                   	push   rax
    120b:	48 8b 45 f0          	mov    rax,QWORD PTR [rbp-0x10]
    120f:	50                   	push   rax
    1210:	59                   	pop    rcx
    1211:	58                   	pop    rax
    1212:	5a                   	pop    rdx
    1213:	48 89 14 c8          	mov    QWORD PTR [rax+rcx*8],rdx
    1217:	48 b8 00 00 00 00 00 	movabs rax,0x0
    121e:	00 00 00 
    1221:	50                   	push   rax
    1222:	58                   	pop    rax
    1223:	50                   	push   rax
    1224:	48 8d 05 00 18 00 00 	lea    rax,[rip+0x1800]        # 2a2b <L_p_CAP_LIVE+0xa2b>
    122b:	50                   	push   rax
    122c:	48 8b 45 f0          	mov    rax,QWORD PTR [rbp-0x10]
    1230:	50                   	push   rax
    1231:	59                   	pop    rcx
    1232:	58                   	pop    rax
    1233:	5a                   	pop    rdx
    1234:	48 89 14 c8          	mov    QWORD PTR [rax+rcx*8],rdx
    1238:	48 8b 05 10 00 00 00 	mov    rax,QWORD PTR [rip+0x10]        # 124f <L_p_cap_drop+0x187>
    123f:	50                   	push   rax
    1240:	58                   	pop    rax
    1241:	50                   	push   rax
    1242:	50                   	push   rax
    1243:	48 c7 c1 02 00 00 00 	mov    rcx,0x2
    124a:	48 83 ec 20          	sub    rsp,0x20
    124e:	e8 00 00 00 00       	call   1253 <L_p_cap_drop+0x18b>
    1253:	48 83 c4 20          	add    rsp,0x20
    1257:	58                   	pop    rax
    1258:	58                   	pop    rax
    1259:	48 89 ec             	mov    rsp,rbp
    125c:	5d                   	pop    rbp
    125d:	c3                   	ret
    125e:	90                   	nop
    125f:	90                   	nop
