
KATABASIS-DEPLOY/build/obj/cpufeat_kernel.o:     file format pe-x86-64


Disassembly of section .text:

0000000000000000 <L_p_cpufeat_has_avx512f>:
   0:	55                   	push   rbp
   1:	48 89 e5             	mov    rbp,rsp
   4:	48 81 ec 00 04 00 00 	sub    rsp,0x400
   b:	48 c7 c1 01 00 00 00 	mov    rcx,0x1
  12:	48 83 ec 20          	sub    rsp,0x20
  16:	e8 00 00 00 00       	call   1b <L_p_cpufeat_has_avx512f+0x1b>
  1b:	48 83 c4 20          	add    rsp,0x20
  1f:	48 b8 00 00 00 00 00 	movabs rax,0x0
  26:	00 00 00 
  29:	50                   	push   rax
  2a:	58                   	pop    rax
  2b:	50                   	push   rax
  2c:	50                   	push   rax
  2d:	48 c7 c1 02 00 00 00 	mov    rcx,0x2
  34:	48 83 ec 20          	sub    rsp,0x20
  38:	e8 00 00 00 00       	call   3d <L_p_cpufeat_has_avx512f+0x3d>
  3d:	48 83 c4 20          	add    rsp,0x20
  41:	58                   	pop    rax
  42:	58                   	pop    rax
  43:	48 89 ec             	mov    rsp,rbp
  46:	5d                   	pop    rbp
  47:	c3                   	ret
  48:	90                   	nop
  49:	90                   	nop
  4a:	90                   	nop
  4b:	90                   	nop
  4c:	90                   	nop
  4d:	90                   	nop
  4e:	90                   	nop
  4f:	90                   	nop
