
KATABASIS-DEPLOY/build/obj/gate_driver.o:     file format pe-x86-64


Disassembly of section .text:

0000000000000000 <L_p_wdm_current_stack>:
   0:	55                   	push   rbp
   1:	48 89 e5             	mov    rbp,rsp
   4:	48 81 ec 00 04 00 00 	sub    rsp,0x400
   b:	48 89 4d f8          	mov    QWORD PTR [rbp-0x8],rcx
   f:	48 c7 c1 01 00 00 00 	mov    rcx,0x1
  16:	48 83 ec 20          	sub    rsp,0x20
  1a:	e8 00 00 00 00       	call   1f <L_p_wdm_current_stack+0x1f>
			1b: IMAGE_REL_AMD64_REL32	iii_witness_emit_kernel
  1f:	48 83 c4 20          	add    rsp,0x20
  23:	48 8b 45 f8          	mov    rax,QWORD PTR [rbp-0x8]
  27:	50                   	push   rax
  28:	48 b8 17 00 00 00 00 	movabs rax,0x17
  2f:	00 00 00 
  32:	50                   	push   rax
  33:	59                   	pop    rcx
  34:	58                   	pop    rax
  35:	48 8b 04 c8          	mov    rax,QWORD PTR [rax+rcx*8]
  39:	50                   	push   rax
  3a:	58                   	pop    rax
  3b:	50                   	push   rax
  3c:	50                   	push   rax
  3d:	48 c7 c1 02 00 00 00 	mov    rcx,0x2
  44:	48 83 ec 20          	sub    rsp,0x20
  48:	e8 00 00 00 00       	call   4d <L_p_wdm_current_stack+0x4d>
			49: IMAGE_REL_AMD64_REL32	iii_witness_emit_kernel
  4d:	48 83 c4 20          	add    rsp,0x20
  51:	58                   	pop    rax
  52:	58                   	pop    rax
  53:	48 89 ec             	mov    rsp,rbp
  56:	5d                   	pop    rbp
  57:	c3                   	ret

0000000000000058 <L_p_wdm_ioctl_code>:
  58:	55                   	push   rbp
  59:	48 89 e5             	mov    rbp,rsp
  5c:	48 81 ec 00 04 00 00 	sub    rsp,0x400
  63:	48 89 4d f8          	mov    QWORD PTR [rbp-0x8],rcx
  67:	48 c7 c1 01 00 00 00 	mov    rcx,0x1
  6e:	48 83 ec 20          	sub    rsp,0x20
  72:	e8 00 00 00 00       	call   77 <L_p_wdm_ioctl_code+0x1f>
			73: IMAGE_REL_AMD64_REL32	iii_witness_emit_kernel
  77:	48 83 c4 20          	add    rsp,0x20
  7b:	48 8b 45 f8          	mov    rax,QWORD PTR [rbp-0x8]
  7f:	50                   	push   rax
  80:	48 b8 03 00 00 00 00 	movabs rax,0x3
  87:	00 00 00 
  8a:	50                   	push   rax
  8b:	59                   	pop    rcx
  8c:	58                   	pop    rax
  8d:	48 8b 04 c8          	mov    rax,QWORD PTR [rax+rcx*8]
  91:	50                   	push   rax
  92:	48 b8 ff ff ff ff 00 	movabs rax,0xffffffff
  99:	00 00 00 
  9c:	50                   	push   rax
  9d:	59                   	pop    rcx
  9e:	58                   	pop    rax
  9f:	48 21 c8             	and    rax,rcx
  a2:	50                   	push   rax
  a3:	58                   	pop    rax
  a4:	50                   	push   rax
  a5:	50                   	push   rax
  a6:	48 c7 c1 02 00 00 00 	mov    rcx,0x2
  ad:	48 83 ec 20          	sub    rsp,0x20
  b1:	e8 00 00 00 00       	call   b6 <L_p_wdm_ioctl_code+0x5e>
			b2: IMAGE_REL_AMD64_REL32	iii_witness_emit_kernel
  b6:	48 83 c4 20          	add    rsp,0x20
  ba:	58                   	pop    rax
  bb:	58                   	pop    rax
  bc:	48 89 ec             	mov    rsp,rbp
  bf:	5d                   	pop    rbp
  c0:	c3                   	ret

00000000000000c1 <L_p_wdm_system_buffer>:
  c1:	55                   	push   rbp
  c2:	48 89 e5             	mov    rbp,rsp
  c5:	48 81 ec 00 04 00 00 	sub    rsp,0x400
  cc:	48 89 4d f8          	mov    QWORD PTR [rbp-0x8],rcx
  d0:	48 c7 c1 01 00 00 00 	mov    rcx,0x1
  d7:	48 83 ec 20          	sub    rsp,0x20
  db:	e8 00 00 00 00       	call   e0 <L_p_wdm_system_buffer+0x1f>
			dc: IMAGE_REL_AMD64_REL32	iii_witness_emit_kernel
  e0:	48 83 c4 20          	add    rsp,0x20
  e4:	48 8b 45 f8          	mov    rax,QWORD PTR [rbp-0x8]
  e8:	50                   	push   rax
  e9:	48 b8 03 00 00 00 00 	movabs rax,0x3
  f0:	00 00 00 
  f3:	50                   	push   rax
  f4:	59                   	pop    rcx
  f5:	58                   	pop    rax
  f6:	48 8b 04 c8          	mov    rax,QWORD PTR [rax+rcx*8]
  fa:	50                   	push   rax
  fb:	58                   	pop    rax
  fc:	50                   	push   rax
  fd:	50                   	push   rax
  fe:	48 c7 c1 02 00 00 00 	mov    rcx,0x2
 105:	48 83 ec 20          	sub    rsp,0x20
 109:	e8 00 00 00 00       	call   10e <L_p_wdm_system_buffer+0x4d>
			10a: IMAGE_REL_AMD64_REL32	iii_witness_emit_kernel
 10e:	48 83 c4 20          	add    rsp,0x20
 112:	58                   	pop    rax
 113:	58                   	pop    rax
 114:	48 89 ec             	mov    rsp,rbp
 117:	5d                   	pop    rbp
 118:	c3                   	ret

0000000000000119 <L_p_wdm_set_status>:
 119:	55                   	push   rbp
 11a:	48 89 e5             	mov    rbp,rsp
 11d:	48 81 ec 00 04 00 00 	sub    rsp,0x400
 124:	48 89 4d f8          	mov    QWORD PTR [rbp-0x8],rcx
 128:	48 89 55 f0          	mov    QWORD PTR [rbp-0x10],rdx
 12c:	4c 89 45 e8          	mov    QWORD PTR [rbp-0x18],r8
 130:	48 c7 c1 01 00 00 00 	mov    rcx,0x1
 137:	48 83 ec 20          	sub    rsp,0x20
 13b:	e8 00 00 00 00       	call   140 <L_p_wdm_set_status+0x27>
			13c: IMAGE_REL_AMD64_REL32	iii_witness_emit_kernel
 140:	48 83 c4 20          	add    rsp,0x20
 144:	48 8b 45 f0          	mov    rax,QWORD PTR [rbp-0x10]
 148:	50                   	push   rax
 149:	58                   	pop    rax
 14a:	50                   	push   rax
 14b:	48 8b 45 f8          	mov    rax,QWORD PTR [rbp-0x8]
 14f:	50                   	push   rax
 150:	48 b8 06 00 00 00 00 	movabs rax,0x6
 157:	00 00 00 
 15a:	50                   	push   rax
 15b:	59                   	pop    rcx
 15c:	58                   	pop    rax
 15d:	5a                   	pop    rdx
 15e:	48 89 14 c8          	mov    QWORD PTR [rax+rcx*8],rdx
 162:	48 8b 45 e8          	mov    rax,QWORD PTR [rbp-0x18]
 166:	50                   	push   rax
 167:	58                   	pop    rax
 168:	50                   	push   rax
 169:	48 8b 45 f8          	mov    rax,QWORD PTR [rbp-0x8]
 16d:	50                   	push   rax
 16e:	48 b8 07 00 00 00 00 	movabs rax,0x7
 175:	00 00 00 
 178:	50                   	push   rax
 179:	59                   	pop    rcx
 17a:	58                   	pop    rax
 17b:	5a                   	pop    rdx
 17c:	48 89 14 c8          	mov    QWORD PTR [rax+rcx*8],rdx
 180:	48 b8 00 00 00 00 00 	movabs rax,0x0
 187:	00 00 00 
 18a:	50                   	push   rax
 18b:	58                   	pop    rax
 18c:	50                   	push   rax
 18d:	50                   	push   rax
 18e:	48 c7 c1 02 00 00 00 	mov    rcx,0x2
 195:	48 83 ec 20          	sub    rsp,0x20
 199:	e8 00 00 00 00       	call   19e <L_p_wdm_set_status+0x85>
			19a: IMAGE_REL_AMD64_REL32	iii_witness_emit_kernel
 19e:	48 83 c4 20          	add    rsp,0x20
 1a2:	58                   	pop    rax
 1a3:	58                   	pop    rax
 1a4:	48 89 ec             	mov    rsp,rbp
 1a7:	5d                   	pop    rbp
 1a8:	c3                   	ret

00000000000001a9 <L_p_gate_create>:
 1a9:	55                   	push   rbp
 1aa:	48 89 e5             	mov    rbp,rsp
 1ad:	48 81 ec 00 04 00 00 	sub    rsp,0x400
 1b4:	48 89 4d f8          	mov    QWORD PTR [rbp-0x8],rcx
 1b8:	48 89 55 f0          	mov    QWORD PTR [rbp-0x10],rdx
 1bc:	48 c7 c1 01 00 00 00 	mov    rcx,0x1
 1c3:	48 83 ec 20          	sub    rsp,0x20
 1c7:	e8 00 00 00 00       	call   1cc <L_p_gate_create+0x23>
			1c8: IMAGE_REL_AMD64_REL32	iii_witness_emit_kernel
 1cc:	48 83 c4 20          	add    rsp,0x20
 1d0:	48 8b 45 f0          	mov    rax,QWORD PTR [rbp-0x10]
 1d4:	50                   	push   rax
 1d5:	48 b8 00 00 00 00 00 	movabs rax,0x0
 1dc:	00 00 00 
 1df:	50                   	push   rax
 1e0:	48 b8 00 00 00 00 00 	movabs rax,0x0
 1e7:	00 00 00 
 1ea:	50                   	push   rax
 1eb:	41 58                	pop    r8
 1ed:	5a                   	pop    rdx
 1ee:	59                   	pop    rcx
 1ef:	48 83 ec 20          	sub    rsp,0x20
 1f3:	e8 21 ff ff ff       	call   119 <L_p_wdm_set_status>
 1f8:	48 83 c4 20          	add    rsp,0x20
 1fc:	50                   	push   rax
 1fd:	58                   	pop    rax
 1fe:	48 8b 45 f0          	mov    rax,QWORD PTR [rbp-0x10]
 202:	50                   	push   rax
 203:	48 b8 00 00 00 00 00 	movabs rax,0x0
 20a:	00 00 00 
 20d:	50                   	push   rax
 20e:	5a                   	pop    rdx
 20f:	59                   	pop    rcx
 210:	48 83 ec 20          	sub    rsp,0x20
 214:	e8 00 00 00 00       	call   219 <L_p_gate_create+0x70>
			215: IMAGE_REL_AMD64_REL32	L_p_iii_kio_complete_request
 219:	48 83 c4 20          	add    rsp,0x20
 21d:	50                   	push   rax
 21e:	58                   	pop    rax
 21f:	48 b8 00 00 00 00 00 	movabs rax,0x0
 226:	00 00 00 
 229:	50                   	push   rax
 22a:	58                   	pop    rax
 22b:	50                   	push   rax
 22c:	50                   	push   rax
 22d:	48 c7 c1 02 00 00 00 	mov    rcx,0x2
 234:	48 83 ec 20          	sub    rsp,0x20
 238:	e8 00 00 00 00       	call   23d <L_p_gate_create+0x94>
			239: IMAGE_REL_AMD64_REL32	iii_witness_emit_kernel
 23d:	48 83 c4 20          	add    rsp,0x20
 241:	58                   	pop    rax
 242:	58                   	pop    rax
 243:	48 89 ec             	mov    rsp,rbp
 246:	5d                   	pop    rbp
 247:	c3                   	ret

0000000000000248 <L_p_gate_close>:
 248:	55                   	push   rbp
 249:	48 89 e5             	mov    rbp,rsp
 24c:	48 81 ec 00 04 00 00 	sub    rsp,0x400
 253:	48 89 4d f8          	mov    QWORD PTR [rbp-0x8],rcx
 257:	48 89 55 f0          	mov    QWORD PTR [rbp-0x10],rdx
 25b:	48 c7 c1 01 00 00 00 	mov    rcx,0x1
 262:	48 83 ec 20          	sub    rsp,0x20
 266:	e8 00 00 00 00       	call   26b <L_p_gate_close+0x23>
			267: IMAGE_REL_AMD64_REL32	iii_witness_emit_kernel
 26b:	48 83 c4 20          	add    rsp,0x20
 26f:	48 8b 45 f0          	mov    rax,QWORD PTR [rbp-0x10]
 273:	50                   	push   rax
 274:	48 b8 00 00 00 00 00 	movabs rax,0x0
 27b:	00 00 00 
 27e:	50                   	push   rax
 27f:	48 b8 00 00 00 00 00 	movabs rax,0x0
 286:	00 00 00 
 289:	50                   	push   rax
 28a:	41 58                	pop    r8
 28c:	5a                   	pop    rdx
 28d:	59                   	pop    rcx
 28e:	48 83 ec 20          	sub    rsp,0x20
 292:	e8 82 fe ff ff       	call   119 <L_p_wdm_set_status>
 297:	48 83 c4 20          	add    rsp,0x20
 29b:	50                   	push   rax
 29c:	58                   	pop    rax
 29d:	48 8b 45 f0          	mov    rax,QWORD PTR [rbp-0x10]
 2a1:	50                   	push   rax
 2a2:	48 b8 00 00 00 00 00 	movabs rax,0x0
 2a9:	00 00 00 
 2ac:	50                   	push   rax
 2ad:	5a                   	pop    rdx
 2ae:	59                   	pop    rcx
 2af:	48 83 ec 20          	sub    rsp,0x20
 2b3:	e8 00 00 00 00       	call   2b8 <L_p_gate_close+0x70>
			2b4: IMAGE_REL_AMD64_REL32	L_p_iii_kio_complete_request
 2b8:	48 83 c4 20          	add    rsp,0x20
 2bc:	50                   	push   rax
 2bd:	58                   	pop    rax
 2be:	48 b8 00 00 00 00 00 	movabs rax,0x0
 2c5:	00 00 00 
 2c8:	50                   	push   rax
 2c9:	58                   	pop    rax
 2ca:	50                   	push   rax
 2cb:	50                   	push   rax
 2cc:	48 c7 c1 02 00 00 00 	mov    rcx,0x2
 2d3:	48 83 ec 20          	sub    rsp,0x20
 2d7:	e8 00 00 00 00       	call   2dc <L_p_gate_close+0x94>
			2d8: IMAGE_REL_AMD64_REL32	iii_witness_emit_kernel
 2dc:	48 83 c4 20          	add    rsp,0x20
 2e0:	58                   	pop    rax
 2e1:	58                   	pop    rax
 2e2:	48 89 ec             	mov    rsp,rbp
 2e5:	5d                   	pop    rbp
 2e6:	c3                   	ret

00000000000002e7 <L_p_gate_ioctl>:
 2e7:	55                   	push   rbp
 2e8:	48 89 e5             	mov    rbp,rsp
 2eb:	48 81 ec 00 04 00 00 	sub    rsp,0x400
 2f2:	48 89 4d f8          	mov    QWORD PTR [rbp-0x8],rcx
 2f6:	48 89 55 f0          	mov    QWORD PTR [rbp-0x10],rdx
 2fa:	48 c7 c1 01 00 00 00 	mov    rcx,0x1
 301:	48 83 ec 20          	sub    rsp,0x20
 305:	e8 00 00 00 00       	call   30a <L_p_gate_ioctl+0x23>
			306: IMAGE_REL_AMD64_REL32	iii_witness_emit_kernel
 30a:	48 83 c4 20          	add    rsp,0x20
 30e:	48 8b 45 f0          	mov    rax,QWORD PTR [rbp-0x10]
 312:	50                   	push   rax
 313:	59                   	pop    rcx
 314:	48 83 ec 20          	sub    rsp,0x20
 318:	e8 e3 fc ff ff       	call   0 <L_p_wdm_current_stack>
 31d:	48 83 c4 20          	add    rsp,0x20
 321:	50                   	push   rax
 322:	58                   	pop    rax
 323:	48 89 45 e8          	mov    QWORD PTR [rbp-0x18],rax
 327:	48 8b 45 e8          	mov    rax,QWORD PTR [rbp-0x18]
 32b:	50                   	push   rax
 32c:	59                   	pop    rcx
 32d:	48 83 ec 20          	sub    rsp,0x20
 331:	e8 22 fd ff ff       	call   58 <L_p_wdm_ioctl_code>
 336:	48 83 c4 20          	add    rsp,0x20
 33a:	50                   	push   rax
 33b:	58                   	pop    rax
 33c:	48 89 45 e0          	mov    QWORD PTR [rbp-0x20],rax
 340:	48 8b 45 f0          	mov    rax,QWORD PTR [rbp-0x10]
 344:	50                   	push   rax
 345:	59                   	pop    rcx
 346:	48 83 ec 20          	sub    rsp,0x20
 34a:	e8 72 fd ff ff       	call   c1 <L_p_wdm_system_buffer>
 34f:	48 83 c4 20          	add    rsp,0x20
 353:	50                   	push   rax
 354:	58                   	pop    rax
 355:	48 89 45 d8          	mov    QWORD PTR [rbp-0x28],rax
 359:	48 b8 10 00 00 c0 00 	movabs rax,0xc0000010
 360:	00 00 00 
 363:	50                   	push   rax
 364:	58                   	pop    rax
 365:	48 89 45 d0          	mov    QWORD PTR [rbp-0x30],rax
 369:	48 b8 00 00 00 00 00 	movabs rax,0x0
 370:	00 00 00 
 373:	50                   	push   rax
 374:	58                   	pop    rax
 375:	48 89 45 c8          	mov    QWORD PTR [rbp-0x38],rax
 379:	48 8b 45 e0          	mov    rax,QWORD PTR [rbp-0x20]
 37d:	50                   	push   rax
 37e:	48 b8 00 20 22 00 00 	movabs rax,0x222000
 385:	00 00 00 
 388:	50                   	push   rax
 389:	59                   	pop    rcx
 38a:	58                   	pop    rax
 38b:	48 39 c8             	cmp    rax,rcx
 38e:	0f 94 c0             	sete   al
 391:	48 0f b6 c0          	movzx  rax,al
 395:	50                   	push   rax
 396:	58                   	pop    rax
 397:	48 85 c0             	test   rax,rax
 39a:	0f 84 ac 02 00 00    	je     64c <L_p_gate_ioctl+0x365>
 3a0:	48 8b 45 d8          	mov    rax,QWORD PTR [rbp-0x28]
 3a4:	50                   	push   rax
 3a5:	48 b8 00 00 00 00 00 	movabs rax,0x0
 3ac:	00 00 00 
 3af:	50                   	push   rax
 3b0:	59                   	pop    rcx
 3b1:	58                   	pop    rax
 3b2:	48 8b 04 c8          	mov    rax,QWORD PTR [rax+rcx*8]
 3b6:	50                   	push   rax
 3b7:	58                   	pop    rax
 3b8:	48 89 45 c0          	mov    QWORD PTR [rbp-0x40],rax
 3bc:	48 8b 45 d8          	mov    rax,QWORD PTR [rbp-0x28]
 3c0:	50                   	push   rax
 3c1:	48 b8 01 00 00 00 00 	movabs rax,0x1
 3c8:	00 00 00 
 3cb:	50                   	push   rax
 3cc:	59                   	pop    rcx
 3cd:	58                   	pop    rax
 3ce:	48 8b 04 c8          	mov    rax,QWORD PTR [rax+rcx*8]
 3d2:	50                   	push   rax
 3d3:	58                   	pop    rax
 3d4:	48 89 45 b8          	mov    QWORD PTR [rbp-0x48],rax
 3d8:	48 8b 45 d8          	mov    rax,QWORD PTR [rbp-0x28]
 3dc:	50                   	push   rax
 3dd:	48 b8 02 00 00 00 00 	movabs rax,0x2
 3e4:	00 00 00 
 3e7:	50                   	push   rax
 3e8:	59                   	pop    rcx
 3e9:	58                   	pop    rax
 3ea:	48 8b 04 c8          	mov    rax,QWORD PTR [rax+rcx*8]
 3ee:	50                   	push   rax
 3ef:	58                   	pop    rax
 3f0:	48 89 45 b0          	mov    QWORD PTR [rbp-0x50],rax
 3f4:	48 8b 45 d8          	mov    rax,QWORD PTR [rbp-0x28]
 3f8:	50                   	push   rax
 3f9:	48 b8 03 00 00 00 00 	movabs rax,0x3
 400:	00 00 00 
 403:	50                   	push   rax
 404:	59                   	pop    rcx
 405:	58                   	pop    rax
 406:	48 8b 04 c8          	mov    rax,QWORD PTR [rax+rcx*8]
 40a:	50                   	push   rax
 40b:	58                   	pop    rax
 40c:	48 89 45 a8          	mov    QWORD PTR [rbp-0x58],rax
 410:	48 8b 45 d8          	mov    rax,QWORD PTR [rbp-0x28]
 414:	50                   	push   rax
 415:	48 b8 04 00 00 00 00 	movabs rax,0x4
 41c:	00 00 00 
 41f:	50                   	push   rax
 420:	59                   	pop    rcx
 421:	58                   	pop    rax
 422:	48 8b 04 c8          	mov    rax,QWORD PTR [rax+rcx*8]
 426:	50                   	push   rax
 427:	58                   	pop    rax
 428:	48 89 45 a0          	mov    QWORD PTR [rbp-0x60],rax
 42c:	48 8b 45 d8          	mov    rax,QWORD PTR [rbp-0x28]
 430:	50                   	push   rax
 431:	48 b8 05 00 00 00 00 	movabs rax,0x5
 438:	00 00 00 
 43b:	50                   	push   rax
 43c:	59                   	pop    rcx
 43d:	58                   	pop    rax
 43e:	48 8b 04 c8          	mov    rax,QWORD PTR [rax+rcx*8]
 442:	50                   	push   rax
 443:	58                   	pop    rax
 444:	48 89 45 98          	mov    QWORD PTR [rbp-0x68],rax
 448:	48 83 ec 20          	sub    rsp,0x20
 44c:	e8 00 00 00 00       	call   451 <L_p_gate_ioctl+0x16a>
			44d: IMAGE_REL_AMD64_REL32	L_p_xii_term_arena_reset
 451:	48 83 c4 20          	add    rsp,0x20
 455:	50                   	push   rax
 456:	58                   	pop    rax
 457:	48 83 ec 20          	sub    rsp,0x20
 45b:	e8 00 00 00 00       	call   460 <L_p_gate_ioctl+0x179>
			45c: IMAGE_REL_AMD64_REL32	L_p_cap_env_init
 460:	48 83 c4 20          	add    rsp,0x20
 464:	50                   	push   rax
 465:	58                   	pop    rax
 466:	48 89 45 90          	mov    QWORD PTR [rbp-0x70],rax
 46a:	48 8b 45 90          	mov    rax,QWORD PTR [rbp-0x70]
 46e:	50                   	push   rax
 46f:	48 8b 45 a0          	mov    rax,QWORD PTR [rbp-0x60]
 473:	50                   	push   rax
 474:	48 b8 00 00 00 00 00 	movabs rax,0x0
 47b:	00 00 00 
 47e:	50                   	push   rax
 47f:	41 58                	pop    r8
 481:	5a                   	pop    rdx
 482:	59                   	pop    rcx
 483:	48 83 ec 20          	sub    rsp,0x20
 487:	e8 00 00 00 00       	call   48c <L_p_gate_ioctl+0x1a5>
			488: IMAGE_REL_AMD64_REL32	L_p_cap_attenuate
 48c:	48 83 c4 20          	add    rsp,0x20
 490:	50                   	push   rax
 491:	58                   	pop    rax
 492:	48 89 45 88          	mov    QWORD PTR [rbp-0x78],rax
 496:	48 8b 45 c0          	mov    rax,QWORD PTR [rbp-0x40]
 49a:	50                   	push   rax
 49b:	48 8b 45 b8          	mov    rax,QWORD PTR [rbp-0x48]
 49f:	50                   	push   rax
 4a0:	48 8b 45 b0          	mov    rax,QWORD PTR [rbp-0x50]
 4a4:	50                   	push   rax
 4a5:	48 8b 45 a8          	mov    rax,QWORD PTR [rbp-0x58]
 4a9:	50                   	push   rax
 4aa:	41 59                	pop    r9
 4ac:	41 58                	pop    r8
 4ae:	5a                   	pop    rdx
 4af:	59                   	pop    rcx
 4b0:	48 83 ec 20          	sub    rsp,0x20
 4b4:	e8 00 00 00 00       	call   4b9 <L_p_gate_ioctl+0x1d2>
			4b5: IMAGE_REL_AMD64_REL32	L_p_katabasis_cycle_act
 4b9:	48 83 c4 20          	add    rsp,0x20
 4bd:	50                   	push   rax
 4be:	58                   	pop    rax
 4bf:	48 89 45 80          	mov    QWORD PTR [rbp-0x80],rax
 4c3:	48 8b 45 80          	mov    rax,QWORD PTR [rbp-0x80]
 4c7:	50                   	push   rax
 4c8:	48 8b 45 88          	mov    rax,QWORD PTR [rbp-0x78]
 4cc:	50                   	push   rax
 4cd:	5a                   	pop    rdx
 4ce:	59                   	pop    rcx
 4cf:	48 83 ec 20          	sub    rsp,0x20
 4d3:	e8 00 00 00 00       	call   4d8 <L_p_gate_ioctl+0x1f1>
			4d4: IMAGE_REL_AMD64_REL32	L_p_katabasis_cycle_under_cap
 4d8:	48 83 c4 20          	add    rsp,0x20
 4dc:	50                   	push   rax
 4dd:	58                   	pop    rax
 4de:	48 89 85 78 ff ff ff 	mov    QWORD PTR [rbp-0x88],rax
 4e5:	48 8b 85 78 ff ff ff 	mov    rax,QWORD PTR [rbp-0x88]
 4ec:	50                   	push   rax
 4ed:	48 8d 05 08 00 00 00 	lea    rax,[rip+0x8]        # 4fc <L_p_gate_ioctl+0x215>
			4f0: IMAGE_REL_AMD64_REL32	.bss
 4f4:	50                   	push   rax
 4f5:	58                   	pop    rax
 4f6:	50                   	push   rax
 4f7:	5a                   	pop    rdx
 4f8:	59                   	pop    rcx
 4f9:	48 83 ec 20          	sub    rsp,0x20
 4fd:	e8 00 00 00 00       	call   502 <L_p_gate_ioctl+0x21b>
			4fe: IMAGE_REL_AMD64_REL32	L_p_katabasis_cycle_seal
 502:	48 83 c4 20          	add    rsp,0x20
 506:	50                   	push   rax
 507:	58                   	pop    rax
 508:	48 8d 05 08 00 00 00 	lea    rax,[rip+0x8]        # 517 <L_p_gate_ioctl+0x230>
			50b: IMAGE_REL_AMD64_REL32	.bss
 50f:	50                   	push   rax
 510:	58                   	pop    rax
 511:	50                   	push   rax
 512:	58                   	pop    rax
 513:	48 89 85 70 ff ff ff 	mov    QWORD PTR [rbp-0x90],rax
 51a:	48 8b 45 98          	mov    rax,QWORD PTR [rbp-0x68]
 51e:	50                   	push   rax
 51f:	48 b8 01 00 00 00 00 	movabs rax,0x1
 526:	00 00 00 
 529:	50                   	push   rax
 52a:	59                   	pop    rcx
 52b:	58                   	pop    rax
 52c:	48 39 c8             	cmp    rax,rcx
 52f:	0f 94 c0             	sete   al
 532:	48 0f b6 c0          	movzx  rax,al
 536:	50                   	push   rax
 537:	58                   	pop    rax
 538:	48 85 c0             	test   rax,rax
 53b:	0f 84 a2 00 00 00    	je     5e3 <L_p_gate_ioctl+0x2fc>
 541:	48 b8 09 00 00 00 00 	movabs rax,0x9
 548:	00 00 00 
 54b:	50                   	push   rax
 54c:	48 b8 02 00 00 00 00 	movabs rax,0x2
 553:	00 00 00 
 556:	50                   	push   rax
 557:	48 b8 00 00 00 fb 00 	movabs rax,0xfb000000
 55e:	00 00 00 
 561:	50                   	push   rax
 562:	48 b8 d8 02 00 00 00 	movabs rax,0x2d8
 569:	00 00 00 
 56c:	50                   	push   rax
 56d:	41 59                	pop    r9
 56f:	41 58                	pop    r8
 571:	5a                   	pop    rdx
 572:	59                   	pop    rcx
 573:	48 83 ec 20          	sub    rsp,0x20
 577:	e8 00 00 00 00       	call   57c <L_p_gate_ioctl+0x295>
			578: IMAGE_REL_AMD64_REL32	L_p_katabasis_cycle_act
 57c:	48 83 c4 20          	add    rsp,0x20
 580:	50                   	push   rax
 581:	58                   	pop    rax
 582:	48 89 85 68 ff ff ff 	mov    QWORD PTR [rbp-0x98],rax
 589:	48 8b 85 68 ff ff ff 	mov    rax,QWORD PTR [rbp-0x98]
 590:	50                   	push   rax
 591:	48 8b 45 88          	mov    rax,QWORD PTR [rbp-0x78]
 595:	50                   	push   rax
 596:	5a                   	pop    rdx
 597:	59                   	pop    rcx
 598:	48 83 ec 20          	sub    rsp,0x20
 59c:	e8 00 00 00 00       	call   5a1 <L_p_gate_ioctl+0x2ba>
			59d: IMAGE_REL_AMD64_REL32	L_p_katabasis_cycle_under_cap
 5a1:	48 83 c4 20          	add    rsp,0x20
 5a5:	50                   	push   rax
 5a6:	58                   	pop    rax
 5a7:	48 89 85 60 ff ff ff 	mov    QWORD PTR [rbp-0xa0],rax
 5ae:	48 8b 85 60 ff ff ff 	mov    rax,QWORD PTR [rbp-0xa0]
 5b5:	50                   	push   rax
 5b6:	48 8d 05 08 01 00 00 	lea    rax,[rip+0x108]        # 6c5 <L_p_gate_unload+0x13>
			5b9: IMAGE_REL_AMD64_REL32	.bss
 5bd:	50                   	push   rax
 5be:	58                   	pop    rax
 5bf:	50                   	push   rax
 5c0:	5a                   	pop    rdx
 5c1:	59                   	pop    rcx
 5c2:	48 83 ec 20          	sub    rsp,0x20
 5c6:	e8 00 00 00 00       	call   5cb <L_p_gate_ioctl+0x2e4>
			5c7: IMAGE_REL_AMD64_REL32	L_p_katabasis_cycle_seal
 5cb:	48 83 c4 20          	add    rsp,0x20
 5cf:	50                   	push   rax
 5d0:	58                   	pop    rax
 5d1:	48 8d 05 08 01 00 00 	lea    rax,[rip+0x108]        # 6e0 <L_p_gate_unload+0x2e>
			5d4: IMAGE_REL_AMD64_REL32	.bss
 5d8:	50                   	push   rax
 5d9:	58                   	pop    rax
 5da:	50                   	push   rax
 5db:	58                   	pop    rax
 5dc:	48 89 85 70 ff ff ff 	mov    QWORD PTR [rbp-0x90],rax
 5e3:	48 8b 85 78 ff ff ff 	mov    rax,QWORD PTR [rbp-0x88]
 5ea:	50                   	push   rax
 5eb:	48 8b 85 70 ff ff ff 	mov    rax,QWORD PTR [rbp-0x90]
 5f2:	50                   	push   rax
 5f3:	5a                   	pop    rdx
 5f4:	59                   	pop    rcx
 5f5:	48 83 ec 20          	sub    rsp,0x20
 5f9:	e8 00 00 00 00       	call   5fe <L_p_gate_ioctl+0x317>
			5fa: IMAGE_REL_AMD64_REL32	L_p_katabasis_gate_admit
 5fe:	48 83 c4 20          	add    rsp,0x20
 602:	50                   	push   rax
 603:	58                   	pop    rax
 604:	48 89 85 58 ff ff ff 	mov    QWORD PTR [rbp-0xa8],rax
 60b:	48 8b 85 58 ff ff ff 	mov    rax,QWORD PTR [rbp-0xa8]
 612:	50                   	push   rax
 613:	58                   	pop    rax
 614:	50                   	push   rax
 615:	48 8b 45 d8          	mov    rax,QWORD PTR [rbp-0x28]
 619:	50                   	push   rax
 61a:	48 b8 00 00 00 00 00 	movabs rax,0x0
 621:	00 00 00 
 624:	50                   	push   rax
 625:	59                   	pop    rcx
 626:	58                   	pop    rax
 627:	5a                   	pop    rdx
 628:	48 89 14 c8          	mov    QWORD PTR [rax+rcx*8],rdx
 62c:	48 b8 00 00 00 00 00 	movabs rax,0x0
 633:	00 00 00 
 636:	50                   	push   rax
 637:	58                   	pop    rax
 638:	48 89 45 d0          	mov    QWORD PTR [rbp-0x30],rax
 63c:	48 b8 08 00 00 00 00 	movabs rax,0x8
 643:	00 00 00 
 646:	50                   	push   rax
 647:	58                   	pop    rax
 648:	48 89 45 c8          	mov    QWORD PTR [rbp-0x38],rax
 64c:	48 8b 45 f0          	mov    rax,QWORD PTR [rbp-0x10]
 650:	50                   	push   rax
 651:	48 8b 45 d0          	mov    rax,QWORD PTR [rbp-0x30]
 655:	50                   	push   rax
 656:	48 8b 45 c8          	mov    rax,QWORD PTR [rbp-0x38]
 65a:	50                   	push   rax
 65b:	41 58                	pop    r8
 65d:	5a                   	pop    rdx
 65e:	59                   	pop    rcx
 65f:	48 83 ec 20          	sub    rsp,0x20
 663:	e8 b1 fa ff ff       	call   119 <L_p_wdm_set_status>
 668:	48 83 c4 20          	add    rsp,0x20
 66c:	50                   	push   rax
 66d:	58                   	pop    rax
 66e:	48 8b 45 f0          	mov    rax,QWORD PTR [rbp-0x10]
 672:	50                   	push   rax
 673:	48 b8 00 00 00 00 00 	movabs rax,0x0
 67a:	00 00 00 
 67d:	50                   	push   rax
 67e:	5a                   	pop    rdx
 67f:	59                   	pop    rcx
 680:	48 83 ec 20          	sub    rsp,0x20
 684:	e8 00 00 00 00       	call   689 <L_p_gate_ioctl+0x3a2>
			685: IMAGE_REL_AMD64_REL32	L_p_iii_kio_complete_request
 689:	48 83 c4 20          	add    rsp,0x20
 68d:	50                   	push   rax
 68e:	58                   	pop    rax
 68f:	48 8b 45 d0          	mov    rax,QWORD PTR [rbp-0x30]
 693:	50                   	push   rax
 694:	58                   	pop    rax
 695:	50                   	push   rax
 696:	50                   	push   rax
 697:	48 c7 c1 02 00 00 00 	mov    rcx,0x2
 69e:	48 83 ec 20          	sub    rsp,0x20
 6a2:	e8 00 00 00 00       	call   6a7 <L_p_gate_ioctl+0x3c0>
			6a3: IMAGE_REL_AMD64_REL32	iii_witness_emit_kernel
 6a7:	48 83 c4 20          	add    rsp,0x20
 6ab:	58                   	pop    rax
 6ac:	58                   	pop    rax
 6ad:	48 89 ec             	mov    rsp,rbp
 6b0:	5d                   	pop    rbp
 6b1:	c3                   	ret

00000000000006b2 <L_p_gate_unload>:
 6b2:	55                   	push   rbp
 6b3:	48 89 e5             	mov    rbp,rsp
 6b6:	48 81 ec 00 04 00 00 	sub    rsp,0x400
 6bd:	48 89 4d f8          	mov    QWORD PTR [rbp-0x8],rcx
 6c1:	48 c7 c1 01 00 00 00 	mov    rcx,0x1
 6c8:	48 83 ec 20          	sub    rsp,0x20
 6cc:	e8 00 00 00 00       	call   6d1 <L_p_gate_unload+0x1f>
			6cd: IMAGE_REL_AMD64_REL32	iii_witness_emit_kernel
 6d1:	48 83 c4 20          	add    rsp,0x20
 6d5:	48 83 ec 20          	sub    rsp,0x20
 6d9:	e8 00 00 00 00       	call   6de <L_p_gate_unload+0x2c>
			6da: IMAGE_REL_AMD64_REL32	L_p_iii_kio_delete_symlink
 6de:	48 83 c4 20          	add    rsp,0x20
 6e2:	50                   	push   rax
 6e3:	58                   	pop    rax
 6e4:	48 8d 05 00 00 00 00 	lea    rax,[rip+0x0]        # 6eb <L_p_gate_unload+0x39>
			6e7: IMAGE_REL_AMD64_REL32	.bss
 6eb:	50                   	push   rax
 6ec:	48 b8 00 00 00 00 00 	movabs rax,0x0
 6f3:	00 00 00 
 6f6:	50                   	push   rax
 6f7:	59                   	pop    rcx
 6f8:	58                   	pop    rax
 6f9:	48 8b 04 c8          	mov    rax,QWORD PTR [rax+rcx*8]
 6fd:	50                   	push   rax
 6fe:	59                   	pop    rcx
 6ff:	48 83 ec 20          	sub    rsp,0x20
 703:	e8 00 00 00 00       	call   708 <L_p_gate_unload+0x56>
			704: IMAGE_REL_AMD64_REL32	L_p_iii_kio_delete_device
 708:	48 83 c4 20          	add    rsp,0x20
 70c:	50                   	push   rax
 70d:	58                   	pop    rax
 70e:	48 b8 00 00 00 00 00 	movabs rax,0x0
 715:	00 00 00 
 718:	50                   	push   rax
 719:	58                   	pop    rax
 71a:	50                   	push   rax
 71b:	50                   	push   rax
 71c:	48 c7 c1 02 00 00 00 	mov    rcx,0x2
 723:	48 83 ec 20          	sub    rsp,0x20
 727:	e8 00 00 00 00       	call   72c <L_p_gate_unload+0x7a>
			728: IMAGE_REL_AMD64_REL32	iii_witness_emit_kernel
 72c:	48 83 c4 20          	add    rsp,0x20
 730:	58                   	pop    rax
 731:	58                   	pop    rax
 732:	48 89 ec             	mov    rsp,rbp
 735:	5d                   	pop    rbp
 736:	c3                   	ret

0000000000000737 <DriverEntry>:
 737:	55                   	push   rbp
 738:	48 89 e5             	mov    rbp,rsp
 73b:	48 81 ec 00 04 00 00 	sub    rsp,0x400
 742:	48 89 4d f8          	mov    QWORD PTR [rbp-0x8],rcx
 746:	48 89 55 f0          	mov    QWORD PTR [rbp-0x10],rdx
 74a:	48 c7 c1 01 00 00 00 	mov    rcx,0x1
 751:	48 83 ec 20          	sub    rsp,0x20
 755:	e8 00 00 00 00       	call   75a <DriverEntry+0x23>
			756: IMAGE_REL_AMD64_REL32	iii_witness_emit_kernel
 75a:	48 83 c4 20          	add    rsp,0x20
 75e:	48 b8 01 00 00 00 00 	movabs rax,0x1
 765:	00 00 00 
 768:	50                   	push   rax
 769:	59                   	pop    rcx
 76a:	48 83 ec 20          	sub    rsp,0x20
 76e:	e8 00 00 00 00       	call   773 <DriverEntry+0x3c>
			76f: IMAGE_REL_AMD64_REL32	L_p_sha256_sched_force
 773:	48 83 c4 20          	add    rsp,0x20
 777:	50                   	push   rax
 778:	58                   	pop    rax
 779:	48 b8 01 00 00 00 00 	movabs rax,0x1
 780:	00 00 00 
 783:	50                   	push   rax
 784:	59                   	pop    rcx
 785:	48 83 ec 20          	sub    rsp,0x20
 789:	e8 00 00 00 00       	call   78e <DriverEntry+0x57>
			78a: IMAGE_REL_AMD64_REL32	L_p_keccak_chi_force_path
 78e:	48 83 c4 20          	add    rsp,0x20
 792:	50                   	push   rax
 793:	58                   	pop    rax
 794:	48 8b 45 f8          	mov    rax,QWORD PTR [rbp-0x8]
 798:	50                   	push   rax
 799:	48 8d 05 00 00 00 00 	lea    rax,[rip+0x0]        # 7a0 <DriverEntry+0x69>
			79c: IMAGE_REL_AMD64_REL32	.bss
 7a0:	50                   	push   rax
 7a1:	58                   	pop    rax
 7a2:	50                   	push   rax
 7a3:	5a                   	pop    rdx
 7a4:	59                   	pop    rcx
 7a5:	48 83 ec 20          	sub    rsp,0x20
 7a9:	e8 00 00 00 00       	call   7ae <DriverEntry+0x77>
			7aa: IMAGE_REL_AMD64_REL32	L_p_iii_kio_create_device
 7ae:	48 83 c4 20          	add    rsp,0x20
 7b2:	50                   	push   rax
 7b3:	58                   	pop    rax
 7b4:	48 8d 05 f7 fe ff ff 	lea    rax,[rip+0xfffffffffffffef7]        # 6b2 <L_p_gate_unload>
 7bb:	50                   	push   rax
 7bc:	58                   	pop    rax
 7bd:	50                   	push   rax
 7be:	58                   	pop    rax
 7bf:	50                   	push   rax
 7c0:	48 8b 45 f8          	mov    rax,QWORD PTR [rbp-0x8]
 7c4:	50                   	push   rax
 7c5:	48 b8 0d 00 00 00 00 	movabs rax,0xd
 7cc:	00 00 00 
 7cf:	50                   	push   rax
 7d0:	59                   	pop    rcx
 7d1:	58                   	pop    rax
 7d2:	5a                   	pop    rdx
 7d3:	48 89 14 c8          	mov    QWORD PTR [rax+rcx*8],rdx
 7d7:	48 8d 05 cb f9 ff ff 	lea    rax,[rip+0xfffffffffffff9cb]        # 1a9 <L_p_gate_create>
 7de:	50                   	push   rax
 7df:	58                   	pop    rax
 7e0:	50                   	push   rax
 7e1:	58                   	pop    rax
 7e2:	50                   	push   rax
 7e3:	48 8b 45 f8          	mov    rax,QWORD PTR [rbp-0x8]
 7e7:	50                   	push   rax
 7e8:	48 b8 0e 00 00 00 00 	movabs rax,0xe
 7ef:	00 00 00 
 7f2:	50                   	push   rax
 7f3:	59                   	pop    rcx
 7f4:	58                   	pop    rax
 7f5:	5a                   	pop    rdx
 7f6:	48 89 14 c8          	mov    QWORD PTR [rax+rcx*8],rdx
 7fa:	48 8d 05 47 fa ff ff 	lea    rax,[rip+0xfffffffffffffa47]        # 248 <L_p_gate_close>
 801:	50                   	push   rax
 802:	58                   	pop    rax
 803:	50                   	push   rax
 804:	58                   	pop    rax
 805:	50                   	push   rax
 806:	48 8b 45 f8          	mov    rax,QWORD PTR [rbp-0x8]
 80a:	50                   	push   rax
 80b:	48 b8 10 00 00 00 00 	movabs rax,0x10
 812:	00 00 00 
 815:	50                   	push   rax
 816:	59                   	pop    rcx
 817:	58                   	pop    rax
 818:	5a                   	pop    rdx
 819:	48 89 14 c8          	mov    QWORD PTR [rax+rcx*8],rdx
 81d:	48 8d 05 c3 fa ff ff 	lea    rax,[rip+0xfffffffffffffac3]        # 2e7 <L_p_gate_ioctl>
 824:	50                   	push   rax
 825:	58                   	pop    rax
 826:	50                   	push   rax
 827:	58                   	pop    rax
 828:	50                   	push   rax
 829:	48 8b 45 f8          	mov    rax,QWORD PTR [rbp-0x8]
 82d:	50                   	push   rax
 82e:	48 b8 1c 00 00 00 00 	movabs rax,0x1c
 835:	00 00 00 
 838:	50                   	push   rax
 839:	59                   	pop    rcx
 83a:	58                   	pop    rax
 83b:	5a                   	pop    rdx
 83c:	48 89 14 c8          	mov    QWORD PTR [rax+rcx*8],rdx
 840:	48 83 ec 20          	sub    rsp,0x20
 844:	e8 00 00 00 00       	call   849 <DriverEntry+0x112>
			845: IMAGE_REL_AMD64_REL32	L_p_iii_kio_create_symlink
 849:	48 83 c4 20          	add    rsp,0x20
 84d:	50                   	push   rax
 84e:	58                   	pop    rax
 84f:	48 b8 00 00 00 00 00 	movabs rax,0x0
 856:	00 00 00 
 859:	50                   	push   rax
 85a:	58                   	pop    rax
 85b:	50                   	push   rax
 85c:	50                   	push   rax
 85d:	48 c7 c1 02 00 00 00 	mov    rcx,0x2
 864:	48 83 ec 20          	sub    rsp,0x20
 868:	e8 00 00 00 00       	call   86d <DriverEntry+0x136>
			869: IMAGE_REL_AMD64_REL32	iii_witness_emit_kernel
 86d:	48 83 c4 20          	add    rsp,0x20
 871:	58                   	pop    rax
 872:	58                   	pop    rax
 873:	48 89 ec             	mov    rsp,rbp
 876:	5d                   	pop    rbp
 877:	c3                   	ret

0000000000000878 <.weak._iii_IrpNotImplemented.L_p_G_DEVOBJ>:
 878:	48 b8 bb 00 00 c0 00 	movabs rax,0xc00000bb
 87f:	00 00 00 
 882:	c3                   	ret
 883:	90                   	nop
 884:	90                   	nop
 885:	90                   	nop
 886:	90                   	nop
 887:	90                   	nop
 888:	90                   	nop
 889:	90                   	nop
 88a:	90                   	nop
 88b:	90                   	nop
 88c:	90                   	nop
 88d:	90                   	nop
 88e:	90                   	nop
 88f:	90                   	nop
