
KATABASIS-DEPLOY/build/gate_resident.sys:     file format pei-x86-64


Disassembly of section .text:

0000000140001000 <DriverEntry>:
   140001000:	55                   	push   rbp
   140001001:	48 89 e5             	mov    rbp,rsp
   140001004:	48 81 ec 00 04 00 00 	sub    rsp,0x400
   14000100b:	48 89 4d f8          	mov    QWORD PTR [rbp-0x8],rcx
   14000100f:	48 89 55 f0          	mov    QWORD PTR [rbp-0x10],rdx
   140001013:	48 c7 c1 01 00 00 00 	mov    rcx,0x1
   14000101a:	48 83 ec 20          	sub    rsp,0x20
   14000101e:	e8 cd fe 00 00       	call   140010ef0 <iii_witness_emit_kernel>
   140001023:	48 83 c4 20          	add    rsp,0x20
   140001027:	48 b8 01 00 00 00 00 	movabs rax,0x1
   14000102e:	00 00 00 
   140001031:	50                   	push   rax
   140001032:	59                   	pop    rcx
   140001033:	48 83 ec 20          	sub    rsp,0x20
   140001037:	e8 aa 5f 00 00       	call   140006fe6 <L_p_sha256_sched_force>
   14000103c:	48 83 c4 20          	add    rsp,0x20
   140001040:	50                   	push   rax
   140001041:	58                   	pop    rax
   140001042:	48 b8 01 00 00 00 00 	movabs rax,0x1
   140001049:	00 00 00 
   14000104c:	50                   	push   rax
   14000104d:	59                   	pop    rcx
   14000104e:	48 83 ec 20          	sub    rsp,0x20
   140001052:	e8 fa 9a 00 00       	call   14000ab51 <L_p_keccak_chi_force_path>
   140001057:	48 83 c4 20          	add    rsp,0x20
   14000105b:	50                   	push   rax
   14000105c:	58                   	pop    rax
   14000105d:	48 83 ec 20          	sub    rsp,0x20
   140001061:	e8 aa 2f 00 00       	call   140004010 <L_p_xii_term_arena_reset>
   140001066:	48 83 c4 20          	add    rsp,0x20
   14000106a:	50                   	push   rax
   14000106b:	58                   	pop    rax
   14000106c:	48 83 ec 20          	sub    rsp,0x20
   140001070:	e8 63 bd 00 00       	call   14000cdd8 <L_p_cap_env_init>
   140001075:	48 83 c4 20          	add    rsp,0x20
   140001079:	50                   	push   rax
   14000107a:	58                   	pop    rax
   14000107b:	48 89 45 e8          	mov    QWORD PTR [rbp-0x18],rax
   14000107f:	48 8b 45 e8          	mov    rax,QWORD PTR [rbp-0x18]
   140001083:	50                   	push   rax
   140001084:	48 b8 00 00 20 00 00 	movabs rax,0x200000
   14000108b:	00 00 00 
   14000108e:	50                   	push   rax
   14000108f:	48 b8 00 00 00 00 00 	movabs rax,0x0
   140001096:	00 00 00 
   140001099:	50                   	push   rax
   14000109a:	41 58                	pop    r8
   14000109c:	5a                   	pop    rdx
   14000109d:	59                   	pop    rcx
   14000109e:	48 83 ec 20          	sub    rsp,0x20
   1400010a2:	e8 98 be 00 00       	call   14000cf3f <L_p_cap_attenuate>
   1400010a7:	48 83 c4 20          	add    rsp,0x20
   1400010ab:	50                   	push   rax
   1400010ac:	58                   	pop    rax
   1400010ad:	48 89 45 e0          	mov    QWORD PTR [rbp-0x20],rax
   1400010b1:	48 8b 45 e8          	mov    rax,QWORD PTR [rbp-0x18]
   1400010b5:	50                   	push   rax
   1400010b6:	48 b8 00 00 80 00 00 	movabs rax,0x800000
   1400010bd:	00 00 00 
   1400010c0:	50                   	push   rax
   1400010c1:	48 b8 00 00 00 00 00 	movabs rax,0x0
   1400010c8:	00 00 00 
   1400010cb:	50                   	push   rax
   1400010cc:	41 58                	pop    r8
   1400010ce:	5a                   	pop    rdx
   1400010cf:	59                   	pop    rcx
   1400010d0:	48 83 ec 20          	sub    rsp,0x20
   1400010d4:	e8 66 be 00 00       	call   14000cf3f <L_p_cap_attenuate>
   1400010d9:	48 83 c4 20          	add    rsp,0x20
   1400010dd:	50                   	push   rax
   1400010de:	58                   	pop    rax
   1400010df:	48 89 45 d8          	mov    QWORD PTR [rbp-0x28],rax
   1400010e3:	48 b8 02 00 00 00 00 	movabs rax,0x2
   1400010ea:	00 00 00 
   1400010ed:	50                   	push   rax
   1400010ee:	48 b8 01 00 00 00 00 	movabs rax,0x1
   1400010f5:	00 00 00 
   1400010f8:	50                   	push   rax
   1400010f9:	48 b8 00 00 02 00 00 	movabs rax,0x20000
   140001100:	00 00 00 
   140001103:	50                   	push   rax
   140001104:	48 b8 d8 02 00 00 00 	movabs rax,0x2d8
   14000110b:	00 00 00 
   14000110e:	50                   	push   rax
   14000110f:	41 59                	pop    r9
   140001111:	41 58                	pop    r8
   140001113:	5a                   	pop    rdx
   140001114:	59                   	pop    rcx
   140001115:	48 83 ec 20          	sub    rsp,0x20
   140001119:	e8 d2 e5 00 00       	call   14000f6f0 <L_p_katabasis_cycle_act>
   14000111e:	48 83 c4 20          	add    rsp,0x20
   140001122:	50                   	push   rax
   140001123:	58                   	pop    rax
   140001124:	48 89 45 d0          	mov    QWORD PTR [rbp-0x30],rax
   140001128:	48 8b 45 d0          	mov    rax,QWORD PTR [rbp-0x30]
   14000112c:	50                   	push   rax
   14000112d:	48 8b 45 e0          	mov    rax,QWORD PTR [rbp-0x20]
   140001131:	50                   	push   rax
   140001132:	5a                   	pop    rdx
   140001133:	59                   	pop    rcx
   140001134:	48 83 ec 20          	sub    rsp,0x20
   140001138:	e8 03 e7 00 00       	call   14000f840 <L_p_katabasis_cycle_under_cap>
   14000113d:	48 83 c4 20          	add    rsp,0x20
   140001141:	50                   	push   rax
   140001142:	58                   	pop    rax
   140001143:	48 89 45 c8          	mov    QWORD PTR [rbp-0x38],rax
   140001147:	48 8b 45 c8          	mov    rax,QWORD PTR [rbp-0x38]
   14000114b:	50                   	push   rax
   14000114c:	48 8d 05 ad 4e 01 00 	lea    rax,[rip+0x14ead]        # 140016000 <L_p_G_SEAL>
   140001153:	50                   	push   rax
   140001154:	58                   	pop    rax
   140001155:	50                   	push   rax
   140001156:	5a                   	pop    rdx
   140001157:	59                   	pop    rcx
   140001158:	48 83 ec 20          	sub    rsp,0x20
   14000115c:	e8 6f ed 00 00       	call   14000fed0 <L_p_katabasis_cycle_seal>
   140001161:	48 83 c4 20          	add    rsp,0x20
   140001165:	50                   	push   rax
   140001166:	58                   	pop    rax
   140001167:	48 8b 45 c8          	mov    rax,QWORD PTR [rbp-0x38]
   14000116b:	50                   	push   rax
   14000116c:	48 8d 05 8d 4e 01 00 	lea    rax,[rip+0x14e8d]        # 140016000 <L_p_G_SEAL>
   140001173:	50                   	push   rax
   140001174:	58                   	pop    rax
   140001175:	50                   	push   rax
   140001176:	5a                   	pop    rdx
   140001177:	59                   	pop    rcx
   140001178:	48 83 ec 20          	sub    rsp,0x20
   14000117c:	e8 7f fc 00 00       	call   140010e00 <L_p_katabasis_gate_admit>
   140001181:	48 83 c4 20          	add    rsp,0x20
   140001185:	50                   	push   rax
   140001186:	48 b8 00 00 00 00 00 	movabs rax,0x0
   14000118d:	00 00 00 
   140001190:	50                   	push   rax
   140001191:	59                   	pop    rcx
   140001192:	58                   	pop    rax
   140001193:	48 39 c8             	cmp    rax,rcx
   140001196:	0f 95 c0             	setne  al
   140001199:	48 0f b6 c0          	movzx  rax,al
   14000119d:	50                   	push   rax
   14000119e:	58                   	pop    rax
   14000119f:	48 85 c0             	test   rax,rax
   1400011a2:	74 29                	je     1400011cd <DriverEntry+0x1cd>
   1400011a4:	48 b8 e1 00 00 c0 00 	movabs rax,0xc00000e1
   1400011ab:	00 00 00 
   1400011ae:	50                   	push   rax
   1400011af:	58                   	pop    rax
   1400011b0:	50                   	push   rax
   1400011b1:	50                   	push   rax
   1400011b2:	48 c7 c1 02 00 00 00 	mov    rcx,0x2
   1400011b9:	48 83 ec 20          	sub    rsp,0x20
   1400011bd:	e8 2e fd 00 00       	call   140010ef0 <iii_witness_emit_kernel>
   1400011c2:	48 83 c4 20          	add    rsp,0x20
   1400011c6:	58                   	pop    rax
   1400011c7:	58                   	pop    rax
   1400011c8:	48 89 ec             	mov    rsp,rbp
   1400011cb:	5d                   	pop    rbp
   1400011cc:	c3                   	ret
   1400011cd:	48 b8 09 00 00 00 00 	movabs rax,0x9
   1400011d4:	00 00 00 
   1400011d7:	50                   	push   rax
   1400011d8:	48 b8 02 00 00 00 00 	movabs rax,0x2
   1400011df:	00 00 00 
   1400011e2:	50                   	push   rax
   1400011e3:	48 b8 00 00 00 fb 00 	movabs rax,0xfb000000
   1400011ea:	00 00 00 
   1400011ed:	50                   	push   rax
   1400011ee:	48 b8 d8 02 00 00 00 	movabs rax,0x2d8
   1400011f5:	00 00 00 
   1400011f8:	50                   	push   rax
   1400011f9:	41 59                	pop    r9
   1400011fb:	41 58                	pop    r8
   1400011fd:	5a                   	pop    rdx
   1400011fe:	59                   	pop    rcx
   1400011ff:	48 83 ec 20          	sub    rsp,0x20
   140001203:	e8 e8 e4 00 00       	call   14000f6f0 <L_p_katabasis_cycle_act>
   140001208:	48 83 c4 20          	add    rsp,0x20
   14000120c:	50                   	push   rax
   14000120d:	58                   	pop    rax
   14000120e:	48 89 45 c0          	mov    QWORD PTR [rbp-0x40],rax
   140001212:	48 8b 45 c0          	mov    rax,QWORD PTR [rbp-0x40]
   140001216:	50                   	push   rax
   140001217:	48 8b 45 e0          	mov    rax,QWORD PTR [rbp-0x20]
   14000121b:	50                   	push   rax
   14000121c:	5a                   	pop    rdx
   14000121d:	59                   	pop    rcx
   14000121e:	48 83 ec 20          	sub    rsp,0x20
   140001222:	e8 19 e6 00 00       	call   14000f840 <L_p_katabasis_cycle_under_cap>
   140001227:	48 83 c4 20          	add    rsp,0x20
   14000122b:	50                   	push   rax
   14000122c:	58                   	pop    rax
   14000122d:	48 89 45 b8          	mov    QWORD PTR [rbp-0x48],rax
   140001231:	48 8b 45 b8          	mov    rax,QWORD PTR [rbp-0x48]
   140001235:	50                   	push   rax
   140001236:	48 8d 05 c3 4e 01 00 	lea    rax,[rip+0x14ec3]        # 140016100 <L_p_G_WRONG>
   14000123d:	50                   	push   rax
   14000123e:	58                   	pop    rax
   14000123f:	50                   	push   rax
   140001240:	5a                   	pop    rdx
   140001241:	59                   	pop    rcx
   140001242:	48 83 ec 20          	sub    rsp,0x20
   140001246:	e8 85 ec 00 00       	call   14000fed0 <L_p_katabasis_cycle_seal>
   14000124b:	48 83 c4 20          	add    rsp,0x20
   14000124f:	50                   	push   rax
   140001250:	58                   	pop    rax
   140001251:	48 8b 45 c8          	mov    rax,QWORD PTR [rbp-0x38]
   140001255:	50                   	push   rax
   140001256:	48 8d 05 a3 4e 01 00 	lea    rax,[rip+0x14ea3]        # 140016100 <L_p_G_WRONG>
   14000125d:	50                   	push   rax
   14000125e:	58                   	pop    rax
   14000125f:	50                   	push   rax
   140001260:	5a                   	pop    rdx
   140001261:	59                   	pop    rcx
   140001262:	48 83 ec 20          	sub    rsp,0x20
   140001266:	e8 95 fb 00 00       	call   140010e00 <L_p_katabasis_gate_admit>
   14000126b:	48 83 c4 20          	add    rsp,0x20
   14000126f:	50                   	push   rax
   140001270:	48 b8 01 00 00 00 00 	movabs rax,0x1
   140001277:	00 00 00 
   14000127a:	50                   	push   rax
   14000127b:	59                   	pop    rcx
   14000127c:	58                   	pop    rax
   14000127d:	48 39 c8             	cmp    rax,rcx
   140001280:	0f 95 c0             	setne  al
   140001283:	48 0f b6 c0          	movzx  rax,al
   140001287:	50                   	push   rax
   140001288:	58                   	pop    rax
   140001289:	48 85 c0             	test   rax,rax
   14000128c:	74 29                	je     1400012b7 <DriverEntry+0x2b7>
   14000128e:	48 b8 e2 00 00 c0 00 	movabs rax,0xc00000e2
   140001295:	00 00 00 
   140001298:	50                   	push   rax
   140001299:	58                   	pop    rax
   14000129a:	50                   	push   rax
   14000129b:	50                   	push   rax
   14000129c:	48 c7 c1 02 00 00 00 	mov    rcx,0x2
   1400012a3:	48 83 ec 20          	sub    rsp,0x20
   1400012a7:	e8 44 fc 00 00       	call   140010ef0 <iii_witness_emit_kernel>
   1400012ac:	48 83 c4 20          	add    rsp,0x20
   1400012b0:	58                   	pop    rax
   1400012b1:	58                   	pop    rax
   1400012b2:	48 89 ec             	mov    rsp,rbp
   1400012b5:	5d                   	pop    rbp
   1400012b6:	c3                   	ret
   1400012b7:	48 b8 02 00 00 00 00 	movabs rax,0x2
   1400012be:	00 00 00 
   1400012c1:	50                   	push   rax
   1400012c2:	48 b8 01 00 00 00 00 	movabs rax,0x1
   1400012c9:	00 00 00 
   1400012cc:	50                   	push   rax
   1400012cd:	48 b8 00 00 02 00 00 	movabs rax,0x20000
   1400012d4:	00 00 00 
   1400012d7:	50                   	push   rax
   1400012d8:	48 b8 d8 02 00 00 00 	movabs rax,0x2d8
   1400012df:	00 00 00 
   1400012e2:	50                   	push   rax
   1400012e3:	41 59                	pop    r9
   1400012e5:	41 58                	pop    r8
   1400012e7:	5a                   	pop    rdx
   1400012e8:	59                   	pop    rcx
   1400012e9:	48 83 ec 20          	sub    rsp,0x20
   1400012ed:	e8 fe e3 00 00       	call   14000f6f0 <L_p_katabasis_cycle_act>
   1400012f2:	48 83 c4 20          	add    rsp,0x20
   1400012f6:	50                   	push   rax
   1400012f7:	58                   	pop    rax
   1400012f8:	48 89 45 b0          	mov    QWORD PTR [rbp-0x50],rax
   1400012fc:	48 8b 45 b0          	mov    rax,QWORD PTR [rbp-0x50]
   140001300:	50                   	push   rax
   140001301:	48 8b 45 d8          	mov    rax,QWORD PTR [rbp-0x28]
   140001305:	50                   	push   rax
   140001306:	5a                   	pop    rdx
   140001307:	59                   	pop    rcx
   140001308:	48 83 ec 20          	sub    rsp,0x20
   14000130c:	e8 2f e5 00 00       	call   14000f840 <L_p_katabasis_cycle_under_cap>
   140001311:	48 83 c4 20          	add    rsp,0x20
   140001315:	50                   	push   rax
   140001316:	58                   	pop    rax
   140001317:	48 89 45 a8          	mov    QWORD PTR [rbp-0x58],rax
   14000131b:	48 8b 45 a8          	mov    rax,QWORD PTR [rbp-0x58]
   14000131f:	50                   	push   rax
   140001320:	48 8d 05 d9 4c 01 00 	lea    rax,[rip+0x14cd9]        # 140016000 <L_p_G_SEAL>
   140001327:	50                   	push   rax
   140001328:	58                   	pop    rax
   140001329:	50                   	push   rax
   14000132a:	5a                   	pop    rdx
   14000132b:	59                   	pop    rcx
   14000132c:	48 83 ec 20          	sub    rsp,0x20
   140001330:	e8 9b eb 00 00       	call   14000fed0 <L_p_katabasis_cycle_seal>
   140001335:	48 83 c4 20          	add    rsp,0x20
   140001339:	50                   	push   rax
   14000133a:	58                   	pop    rax
   14000133b:	48 8b 45 a8          	mov    rax,QWORD PTR [rbp-0x58]
   14000133f:	50                   	push   rax
   140001340:	48 8d 05 b9 4c 01 00 	lea    rax,[rip+0x14cb9]        # 140016000 <L_p_G_SEAL>
   140001347:	50                   	push   rax
   140001348:	58                   	pop    rax
   140001349:	50                   	push   rax
   14000134a:	5a                   	pop    rdx
   14000134b:	59                   	pop    rcx
   14000134c:	48 83 ec 20          	sub    rsp,0x20
   140001350:	e8 ab fa 00 00       	call   140010e00 <L_p_katabasis_gate_admit>
   140001355:	48 83 c4 20          	add    rsp,0x20
   140001359:	50                   	push   rax
   14000135a:	48 b8 02 00 00 00 00 	movabs rax,0x2
   140001361:	00 00 00 
   140001364:	50                   	push   rax
   140001365:	59                   	pop    rcx
   140001366:	58                   	pop    rax
   140001367:	48 39 c8             	cmp    rax,rcx
   14000136a:	0f 95 c0             	setne  al
   14000136d:	48 0f b6 c0          	movzx  rax,al
   140001371:	50                   	push   rax
   140001372:	58                   	pop    rax
   140001373:	48 85 c0             	test   rax,rax
   140001376:	74 29                	je     1400013a1 <DriverEntry+0x3a1>
   140001378:	48 b8 e3 00 00 c0 00 	movabs rax,0xc00000e3
   14000137f:	00 00 00 
   140001382:	50                   	push   rax
   140001383:	58                   	pop    rax
   140001384:	50                   	push   rax
   140001385:	50                   	push   rax
   140001386:	48 c7 c1 02 00 00 00 	mov    rcx,0x2
   14000138d:	48 83 ec 20          	sub    rsp,0x20
   140001391:	e8 5a fb 00 00       	call   140010ef0 <iii_witness_emit_kernel>
   140001396:	48 83 c4 20          	add    rsp,0x20
   14000139a:	58                   	pop    rax
   14000139b:	58                   	pop    rax
   14000139c:	48 89 ec             	mov    rsp,rbp
   14000139f:	5d                   	pop    rbp
   1400013a0:	c3                   	ret
   1400013a1:	48 b8 02 00 00 00 00 	movabs rax,0x2
   1400013a8:	00 00 00 
   1400013ab:	50                   	push   rax
   1400013ac:	48 b8 01 00 00 00 00 	movabs rax,0x1
   1400013b3:	00 00 00 
   1400013b6:	50                   	push   rax
   1400013b7:	48 b8 00 10 00 00 00 	movabs rax,0x1000
   1400013be:	00 00 00 
   1400013c1:	50                   	push   rax
   1400013c2:	48 b8 d8 02 00 00 00 	movabs rax,0x2d8
   1400013c9:	00 00 00 
   1400013cc:	50                   	push   rax
   1400013cd:	41 59                	pop    r9
   1400013cf:	41 58                	pop    r8
   1400013d1:	5a                   	pop    rdx
   1400013d2:	59                   	pop    rcx
   1400013d3:	48 83 ec 20          	sub    rsp,0x20
   1400013d7:	e8 14 e3 00 00       	call   14000f6f0 <L_p_katabasis_cycle_act>
   1400013dc:	48 83 c4 20          	add    rsp,0x20
   1400013e0:	50                   	push   rax
   1400013e1:	58                   	pop    rax
   1400013e2:	48 89 45 a0          	mov    QWORD PTR [rbp-0x60],rax
   1400013e6:	48 8b 45 a0          	mov    rax,QWORD PTR [rbp-0x60]
   1400013ea:	50                   	push   rax
   1400013eb:	48 8b 45 e0          	mov    rax,QWORD PTR [rbp-0x20]
   1400013ef:	50                   	push   rax
   1400013f0:	5a                   	pop    rdx
   1400013f1:	59                   	pop    rcx
   1400013f2:	48 83 ec 20          	sub    rsp,0x20
   1400013f6:	e8 45 e4 00 00       	call   14000f840 <L_p_katabasis_cycle_under_cap>
   1400013fb:	48 83 c4 20          	add    rsp,0x20
   1400013ff:	50                   	push   rax
   140001400:	58                   	pop    rax
   140001401:	48 89 45 98          	mov    QWORD PTR [rbp-0x68],rax
   140001405:	48 8b 45 98          	mov    rax,QWORD PTR [rbp-0x68]
   140001409:	50                   	push   rax
   14000140a:	48 8d 05 ef 4b 01 00 	lea    rax,[rip+0x14bef]        # 140016000 <L_p_G_SEAL>
   140001411:	50                   	push   rax
   140001412:	58                   	pop    rax
   140001413:	50                   	push   rax
   140001414:	5a                   	pop    rdx
   140001415:	59                   	pop    rcx
   140001416:	48 83 ec 20          	sub    rsp,0x20
   14000141a:	e8 b1 ea 00 00       	call   14000fed0 <L_p_katabasis_cycle_seal>
   14000141f:	48 83 c4 20          	add    rsp,0x20
   140001423:	50                   	push   rax
   140001424:	58                   	pop    rax
   140001425:	48 8b 45 98          	mov    rax,QWORD PTR [rbp-0x68]
   140001429:	50                   	push   rax
   14000142a:	48 8d 05 cf 4b 01 00 	lea    rax,[rip+0x14bcf]        # 140016000 <L_p_G_SEAL>
   140001431:	50                   	push   rax
   140001432:	58                   	pop    rax
   140001433:	50                   	push   rax
   140001434:	5a                   	pop    rdx
   140001435:	59                   	pop    rcx
   140001436:	48 83 ec 20          	sub    rsp,0x20
   14000143a:	e8 c1 f9 00 00       	call   140010e00 <L_p_katabasis_gate_admit>
   14000143f:	48 83 c4 20          	add    rsp,0x20
   140001443:	50                   	push   rax
   140001444:	48 b8 03 00 00 00 00 	movabs rax,0x3
   14000144b:	00 00 00 
   14000144e:	50                   	push   rax
   14000144f:	59                   	pop    rcx
   140001450:	58                   	pop    rax
   140001451:	48 39 c8             	cmp    rax,rcx
   140001454:	0f 95 c0             	setne  al
   140001457:	48 0f b6 c0          	movzx  rax,al
   14000145b:	50                   	push   rax
   14000145c:	58                   	pop    rax
   14000145d:	48 85 c0             	test   rax,rax
   140001460:	74 29                	je     14000148b <DriverEntry+0x48b>
   140001462:	48 b8 e4 00 00 c0 00 	movabs rax,0xc00000e4
   140001469:	00 00 00 
   14000146c:	50                   	push   rax
   14000146d:	58                   	pop    rax
   14000146e:	50                   	push   rax
   14000146f:	50                   	push   rax
   140001470:	48 c7 c1 02 00 00 00 	mov    rcx,0x2
   140001477:	48 83 ec 20          	sub    rsp,0x20
   14000147b:	e8 70 fa 00 00       	call   140010ef0 <iii_witness_emit_kernel>
   140001480:	48 83 c4 20          	add    rsp,0x20
   140001484:	58                   	pop    rax
   140001485:	58                   	pop    rax
   140001486:	48 89 ec             	mov    rsp,rbp
   140001489:	5d                   	pop    rbp
   14000148a:	c3                   	ret
   14000148b:	48 b8 bb 00 00 c0 00 	movabs rax,0xc00000bb
   140001492:	00 00 00 
   140001495:	50                   	push   rax
   140001496:	58                   	pop    rax
   140001497:	50                   	push   rax
   140001498:	50                   	push   rax
   140001499:	48 c7 c1 02 00 00 00 	mov    rcx,0x2
   1400014a0:	48 83 ec 20          	sub    rsp,0x20
   1400014a4:	e8 47 fa 00 00       	call   140010ef0 <iii_witness_emit_kernel>
   1400014a9:	48 83 c4 20          	add    rsp,0x20
   1400014ad:	58                   	pop    rax
   1400014ae:	58                   	pop    rax
   1400014af:	48 89 ec             	mov    rsp,rbp
   1400014b2:	5d                   	pop    rbp
   1400014b3:	c3                   	ret

00000001400014b4 <.weak._iii_IrpNotImplemented.L_p_G_SEAL>:
   1400014b4:	48 b8 bb 00 00 c0 00 	movabs rax,0xc00000bb
   1400014bb:	00 00 00 
   1400014be:	c3                   	ret
   1400014bf:	90                   	nop

00000001400014c0 <L_p_cpufeat_has_avx512f>:
   1400014c0:	55                   	push   rbp
   1400014c1:	48 89 e5             	mov    rbp,rsp
   1400014c4:	48 81 ec 00 04 00 00 	sub    rsp,0x400
   1400014cb:	48 c7 c1 01 00 00 00 	mov    rcx,0x1
   1400014d2:	48 83 ec 20          	sub    rsp,0x20
   1400014d6:	e8 15 fa 00 00       	call   140010ef0 <iii_witness_emit_kernel>
   1400014db:	48 83 c4 20          	add    rsp,0x20
   1400014df:	48 b8 00 00 00 00 00 	movabs rax,0x0
   1400014e6:	00 00 00 
   1400014e9:	50                   	push   rax
   1400014ea:	58                   	pop    rax
   1400014eb:	50                   	push   rax
   1400014ec:	50                   	push   rax
   1400014ed:	48 c7 c1 02 00 00 00 	mov    rcx,0x2
   1400014f4:	48 83 ec 20          	sub    rsp,0x20
   1400014f8:	e8 f3 f9 00 00       	call   140010ef0 <iii_witness_emit_kernel>
   1400014fd:	48 83 c4 20          	add    rsp,0x20
   140001501:	58                   	pop    rax
   140001502:	58                   	pop    rax
   140001503:	48 89 ec             	mov    rsp,rbp
   140001506:	5d                   	pop    rbp
   140001507:	c3                   	ret
   140001508:	90                   	nop
   140001509:	90                   	nop
   14000150a:	90                   	nop
   14000150b:	90                   	nop
   14000150c:	90                   	nop
   14000150d:	90                   	nop
   14000150e:	90                   	nop
   14000150f:	90                   	nop

0000000140001510 <L_p_iii_trit_valid>:
   140001510:	55                   	push   rbp
   140001511:	48 89 e5             	mov    rbp,rsp
   140001514:	48 81 ec 00 04 00 00 	sub    rsp,0x400
   14000151b:	48 89 4d f8          	mov    QWORD PTR [rbp-0x8],rcx
   14000151f:	48 c7 c1 01 00 00 00 	mov    rcx,0x1
   140001526:	48 83 ec 20          	sub    rsp,0x20
   14000152a:	e8 c1 f9 00 00       	call   140010ef0 <iii_witness_emit_kernel>
   14000152f:	48 83 c4 20          	add    rsp,0x20
   140001533:	48 8b 45 f8          	mov    rax,QWORD PTR [rbp-0x8]
   140001537:	50                   	push   rax
   140001538:	48 b8 01 00 00 00 00 	movabs rax,0x1
   14000153f:	00 00 00 
   140001542:	50                   	push   rax
   140001543:	58                   	pop    rax
   140001544:	48 f7 d8             	neg    rax
   140001547:	50                   	push   rax
   140001548:	59                   	pop    rcx
   140001549:	58                   	pop    rax
   14000154a:	48 39 c8             	cmp    rax,rcx
   14000154d:	0f 94 c0             	sete   al
   140001550:	48 0f b6 c0          	movzx  rax,al
   140001554:	50                   	push   rax
   140001555:	58                   	pop    rax
   140001556:	48 85 c0             	test   rax,rax
   140001559:	74 29                	je     140001584 <L_p_iii_trit_valid+0x74>
   14000155b:	48 b8 01 00 00 00 00 	movabs rax,0x1
   140001562:	00 00 00 
   140001565:	50                   	push   rax
   140001566:	58                   	pop    rax
   140001567:	50                   	push   rax
   140001568:	50                   	push   rax
   140001569:	48 c7 c1 02 00 00 00 	mov    rcx,0x2
   140001570:	48 83 ec 20          	sub    rsp,0x20
   140001574:	e8 77 f9 00 00       	call   140010ef0 <iii_witness_emit_kernel>
   140001579:	48 83 c4 20          	add    rsp,0x20
   14000157d:	58                   	pop    rax
   14000157e:	58                   	pop    rax
   14000157f:	48 89 ec             	mov    rsp,rbp
   140001582:	5d                   	pop    rbp
   140001583:	c3                   	ret
   140001584:	48 8b 45 f8          	mov    rax,QWORD PTR [rbp-0x8]
   140001588:	50                   	push   rax
   140001589:	48 b8 00 00 00 00 00 	movabs rax,0x0
   140001590:	00 00 00 
   140001593:	50                   	push   rax
   140001594:	59                   	pop    rcx
   140001595:	58                   	pop    rax
   140001596:	48 39 c8             	cmp    rax,rcx
   140001599:	0f 94 c0             	sete   al
   14000159c:	48 0f b6 c0          	movzx  rax,al
   1400015a0:	50                   	push   rax
   1400015a1:	58                   	pop    rax
   1400015a2:	48 85 c0             	test   rax,rax
   1400015a5:	74 29                	je     1400015d0 <L_p_iii_trit_valid+0xc0>
   1400015a7:	48 b8 01 00 00 00 00 	movabs rax,0x1
   1400015ae:	00 00 00 
   1400015b1:	50                   	push   rax
   1400015b2:	58                   	pop    rax
   1400015b3:	50                   	push   rax
   1400015b4:	50                   	push   rax
   1400015b5:	48 c7 c1 02 00 00 00 	mov    rcx,0x2
   1400015bc:	48 83 ec 20          	sub    rsp,0x20
   1400015c0:	e8 2b f9 00 00       	call   140010ef0 <iii_witness_emit_kernel>
   1400015c5:	48 83 c4 20          	add    rsp,0x20
   1400015c9:	58                   	pop    rax
   1400015ca:	58                   	pop    rax
   1400015cb:	48 89 ec             	mov    rsp,rbp
   1400015ce:	5d                   	pop    rbp
   1400015cf:	c3                   	ret
   1400015d0:	48 8b 45 f8          	mov    rax,QWORD PTR [rbp-0x8]
   1400015d4:	50                   	push   rax
   1400015d5:	48 b8 01 00 00 00 00 	movabs rax,0x1
   1400015dc:	00 00 00 
   1400015df:	50                   	push   rax
   1400015e0:	59                   	pop    rcx
   1400015e1:	58                   	pop    rax
   1400015e2:	48 39 c8             	cmp    rax,rcx
   1400015e5:	0f 94 c0             	sete   al
   1400015e8:	48 0f b6 c0          	movzx  rax,al
   1400015ec:	50                   	push   rax
   1400015ed:	58                   	pop    rax
   1400015ee:	48 85 c0             	test   rax,rax
   1400015f1:	74 29                	je     14000161c <L_p_iii_trit_valid+0x10c>
   1400015f3:	48 b8 01 00 00 00 00 	movabs rax,0x1
   1400015fa:	00 00 00 
   1400015fd:	50                   	push   rax
   1400015fe:	58                   	pop    rax
   1400015ff:	50                   	push   rax
   140001600:	50                   	push   rax
   140001601:	48 c7 c1 02 00 00 00 	mov    rcx,0x2
   140001608:	48 83 ec 20          	sub    rsp,0x20
   14000160c:	e8 df f8 00 00       	call   140010ef0 <iii_witness_emit_kernel>
   140001611:	48 83 c4 20          	add    rsp,0x20
   140001615:	58                   	pop    rax
   140001616:	58                   	pop    rax
   140001617:	48 89 ec             	mov    rsp,rbp
   14000161a:	5d                   	pop    rbp
   14000161b:	c3                   	ret
   14000161c:	48 b8 00 00 00 00 00 	movabs rax,0x0
   140001623:	00 00 00 
   140001626:	50                   	push   rax
   140001627:	58                   	pop    rax
   140001628:	50                   	push   rax
   140001629:	50                   	push   rax
   14000162a:	48 c7 c1 02 00 00 00 	mov    rcx,0x2
   140001631:	48 83 ec 20          	sub    rsp,0x20
   140001635:	e8 b6 f8 00 00       	call   140010ef0 <iii_witness_emit_kernel>
   14000163a:	48 83 c4 20          	add    rsp,0x20
   14000163e:	58                   	pop    rax
   14000163f:	58                   	pop    rax
   140001640:	48 89 ec             	mov    rsp,rbp
   140001643:	5d                   	pop    rbp
   140001644:	c3                   	ret

0000000140001645 <L_p_iii_trit_weight>:
   140001645:	55                   	push   rbp
   140001646:	48 89 e5             	mov    rbp,rsp
   140001649:	48 81 ec 00 04 00 00 	sub    rsp,0x400
   140001650:	48 89 4d f8          	mov    QWORD PTR [rbp-0x8],rcx
   140001654:	48 c7 c1 01 00 00 00 	mov    rcx,0x1
   14000165b:	48 83 ec 20          	sub    rsp,0x20
   14000165f:	e8 8c f8 00 00       	call   140010ef0 <iii_witness_emit_kernel>
   140001664:	48 83 c4 20          	add    rsp,0x20
   140001668:	48 8b 45 f8          	mov    rax,QWORD PTR [rbp-0x8]
   14000166c:	50                   	push   rax
   14000166d:	48 b8 01 00 00 00 00 	movabs rax,0x1
   140001674:	00 00 00 
   140001677:	50                   	push   rax
   140001678:	58                   	pop    rax
   140001679:	48 f7 d8             	neg    rax
   14000167c:	50                   	push   rax
   14000167d:	59                   	pop    rcx
   14000167e:	58                   	pop    rax
   14000167f:	48 39 c8             	cmp    rax,rcx
   140001682:	0f 94 c0             	sete   al
   140001685:	48 0f b6 c0          	movzx  rax,al
   140001689:	50                   	push   rax
   14000168a:	58                   	pop    rax
   14000168b:	48 85 c0             	test   rax,rax
   14000168e:	74 2e                	je     1400016be <L_p_iii_trit_weight+0x79>
   140001690:	48 b8 02 00 00 00 00 	movabs rax,0x2
   140001697:	00 00 00 
   14000169a:	50                   	push   rax
   14000169b:	58                   	pop    rax
   14000169c:	48 f7 d8             	neg    rax
   14000169f:	50                   	push   rax
   1400016a0:	58                   	pop    rax
   1400016a1:	50                   	push   rax
   1400016a2:	50                   	push   rax
   1400016a3:	48 c7 c1 02 00 00 00 	mov    rcx,0x2
   1400016aa:	48 83 ec 20          	sub    rsp,0x20
   1400016ae:	e8 3d f8 00 00       	call   140010ef0 <iii_witness_emit_kernel>
   1400016b3:	48 83 c4 20          	add    rsp,0x20
   1400016b7:	58                   	pop    rax
   1400016b8:	58                   	pop    rax
   1400016b9:	48 89 ec             	mov    rsp,rbp
   1400016bc:	5d                   	pop    rbp
   1400016bd:	c3                   	ret
   1400016be:	48 8b 45 f8          	mov    rax,QWORD PTR [rbp-0x8]
   1400016c2:	50                   	push   rax
   1400016c3:	48 b8 01 00 00 00 00 	movabs rax,0x1
   1400016ca:	00 00 00 
   1400016cd:	50                   	push   rax
   1400016ce:	59                   	pop    rcx
   1400016cf:	58                   	pop    rax
   1400016d0:	48 39 c8             	cmp    rax,rcx
   1400016d3:	0f 94 c0             	sete   al
   1400016d6:	48 0f b6 c0          	movzx  rax,al
   1400016da:	50                   	push   rax
   1400016db:	58                   	pop    rax
   1400016dc:	48 85 c0             	test   rax,rax
   1400016df:	74 29                	je     14000170a <L_p_iii_trit_weight+0xc5>
   1400016e1:	48 b8 01 00 00 00 00 	movabs rax,0x1
   1400016e8:	00 00 00 
   1400016eb:	50                   	push   rax
   1400016ec:	58                   	pop    rax
   1400016ed:	50                   	push   rax
   1400016ee:	50                   	push   rax
   1400016ef:	48 c7 c1 02 00 00 00 	mov    rcx,0x2
   1400016f6:	48 83 ec 20          	sub    rsp,0x20
   1400016fa:	e8 f1 f7 00 00       	call   140010ef0 <iii_witness_emit_kernel>
   1400016ff:	48 83 c4 20          	add    rsp,0x20
   140001703:	58                   	pop    rax
   140001704:	58                   	pop    rax
   140001705:	48 89 ec             	mov    rsp,rbp
   140001708:	5d                   	pop    rbp
   140001709:	c3                   	ret
   14000170a:	48 b8 00 00 00 00 00 	movabs rax,0x0
   140001711:	00 00 00 
   140001714:	50                   	push   rax
   140001715:	58                   	pop    rax
   140001716:	50                   	push   rax
   140001717:	50                   	push   rax
   140001718:	48 c7 c1 02 00 00 00 	mov    rcx,0x2
   14000171f:	48 83 ec 20          	sub    rsp,0x20
   140001723:	e8 c8 f7 00 00       	call   140010ef0 <iii_witness_emit_kernel>
   140001728:	48 83 c4 20          	add    rsp,0x20
   14000172c:	58                   	pop    rax
   14000172d:	58                   	pop    rax
   14000172e:	48 89 ec             	mov    rsp,rbp
   140001731:	5d                   	pop    rbp
   140001732:	c3                   	ret

0000000140001733 <L_p_iii_trit_not>:
   140001733:	55                   	push   rbp
   140001734:	48 89 e5             	mov    rbp,rsp
   140001737:	48 81 ec 00 04 00 00 	sub    rsp,0x400
   14000173e:	48 89 4d f8          	mov    QWORD PTR [rbp-0x8],rcx
   140001742:	48 c7 c1 01 00 00 00 	mov    rcx,0x1
   140001749:	48 83 ec 20          	sub    rsp,0x20
   14000174d:	e8 9e f7 00 00       	call   140010ef0 <iii_witness_emit_kernel>
   140001752:	48 83 c4 20          	add    rsp,0x20
   140001756:	48 b8 00 00 00 00 00 	movabs rax,0x0
   14000175d:	00 00 00 
   140001760:	50                   	push   rax
   140001761:	48 8b 45 f8          	mov    rax,QWORD PTR [rbp-0x8]
   140001765:	50                   	push   rax
   140001766:	59                   	pop    rcx
   140001767:	58                   	pop    rax
   140001768:	48 29 c8             	sub    rax,rcx
   14000176b:	50                   	push   rax
   14000176c:	58                   	pop    rax
   14000176d:	50                   	push   rax
   14000176e:	50                   	push   rax
   14000176f:	48 c7 c1 02 00 00 00 	mov    rcx,0x2
   140001776:	48 83 ec 20          	sub    rsp,0x20
   14000177a:	e8 71 f7 00 00       	call   140010ef0 <iii_witness_emit_kernel>
   14000177f:	48 83 c4 20          	add    rsp,0x20
   140001783:	58                   	pop    rax
   140001784:	58                   	pop    rax
   140001785:	48 89 ec             	mov    rsp,rbp
   140001788:	5d                   	pop    rbp
   140001789:	c3                   	ret

000000014000178a <L_p_iii_trit_neg6>:
   14000178a:	55                   	push   rbp
   14000178b:	48 89 e5             	mov    rbp,rsp
   14000178e:	48 81 ec 00 04 00 00 	sub    rsp,0x400
   140001795:	48 89 4d f8          	mov    QWORD PTR [rbp-0x8],rcx
   140001799:	48 c7 c1 01 00 00 00 	mov    rcx,0x1
   1400017a0:	48 83 ec 20          	sub    rsp,0x20
   1400017a4:	e8 47 f7 00 00       	call   140010ef0 <iii_witness_emit_kernel>
   1400017a9:	48 83 c4 20          	add    rsp,0x20
   1400017ad:	48 b8 00 00 00 00 00 	movabs rax,0x0
   1400017b4:	00 00 00 
   1400017b7:	50                   	push   rax
   1400017b8:	48 8b 45 f8          	mov    rax,QWORD PTR [rbp-0x8]
   1400017bc:	50                   	push   rax
   1400017bd:	59                   	pop    rcx
   1400017be:	58                   	pop    rax
   1400017bf:	48 29 c8             	sub    rax,rcx
   1400017c2:	50                   	push   rax
   1400017c3:	58                   	pop    rax
   1400017c4:	50                   	push   rax
   1400017c5:	50                   	push   rax
   1400017c6:	48 c7 c1 02 00 00 00 	mov    rcx,0x2
   1400017cd:	48 83 ec 20          	sub    rsp,0x20
   1400017d1:	e8 1a f7 00 00       	call   140010ef0 <iii_witness_emit_kernel>
   1400017d6:	48 83 c4 20          	add    rsp,0x20
   1400017da:	58                   	pop    rax
   1400017db:	58                   	pop    rax
   1400017dc:	48 89 ec             	mov    rsp,rbp
   1400017df:	5d                   	pop    rbp
   1400017e0:	c3                   	ret

00000001400017e1 <L_p_iii_trit_and>:
   1400017e1:	55                   	push   rbp
   1400017e2:	48 89 e5             	mov    rbp,rsp
   1400017e5:	48 81 ec 00 04 00 00 	sub    rsp,0x400
   1400017ec:	48 89 4d f8          	mov    QWORD PTR [rbp-0x8],rcx
   1400017f0:	48 89 55 f0          	mov    QWORD PTR [rbp-0x10],rdx
   1400017f4:	48 c7 c1 01 00 00 00 	mov    rcx,0x1
   1400017fb:	48 83 ec 20          	sub    rsp,0x20
   1400017ff:	e8 ec f6 00 00       	call   140010ef0 <iii_witness_emit_kernel>
   140001804:	48 83 c4 20          	add    rsp,0x20
   140001808:	48 8b 45 f8          	mov    rax,QWORD PTR [rbp-0x8]
   14000180c:	50                   	push   rax
   14000180d:	48 b8 01 00 00 00 00 	movabs rax,0x1
   140001814:	00 00 00 
   140001817:	50                   	push   rax
   140001818:	58                   	pop    rax
   140001819:	48 f7 d8             	neg    rax
   14000181c:	50                   	push   rax
   14000181d:	59                   	pop    rcx
   14000181e:	58                   	pop    rax
   14000181f:	48 39 c8             	cmp    rax,rcx
   140001822:	0f 94 c0             	sete   al
   140001825:	48 0f b6 c0          	movzx  rax,al
   140001829:	50                   	push   rax
   14000182a:	58                   	pop    rax
   14000182b:	48 85 c0             	test   rax,rax
   14000182e:	74 2e                	je     14000185e <L_p_iii_trit_and+0x7d>
   140001830:	48 b8 01 00 00 00 00 	movabs rax,0x1
   140001837:	00 00 00 
   14000183a:	50                   	push   rax
   14000183b:	58                   	pop    rax
   14000183c:	48 f7 d8             	neg    rax
   14000183f:	50                   	push   rax
   140001840:	58                   	pop    rax
   140001841:	50                   	push   rax
   140001842:	50                   	push   rax
   140001843:	48 c7 c1 02 00 00 00 	mov    rcx,0x2
   14000184a:	48 83 ec 20          	sub    rsp,0x20
   14000184e:	e8 9d f6 00 00       	call   140010ef0 <iii_witness_emit_kernel>
   140001853:	48 83 c4 20          	add    rsp,0x20
   140001857:	58                   	pop    rax
   140001858:	58                   	pop    rax
   140001859:	48 89 ec             	mov    rsp,rbp
   14000185c:	5d                   	pop    rbp
   14000185d:	c3                   	ret
   14000185e:	48 8b 45 f0          	mov    rax,QWORD PTR [rbp-0x10]
   140001862:	50                   	push   rax
   140001863:	48 b8 01 00 00 00 00 	movabs rax,0x1
   14000186a:	00 00 00 
   14000186d:	50                   	push   rax
   14000186e:	58                   	pop    rax
   14000186f:	48 f7 d8             	neg    rax
   140001872:	50                   	push   rax
   140001873:	59                   	pop    rcx
   140001874:	58                   	pop    rax
   140001875:	48 39 c8             	cmp    rax,rcx
   140001878:	0f 94 c0             	sete   al
   14000187b:	48 0f b6 c0          	movzx  rax,al
   14000187f:	50                   	push   rax
   140001880:	58                   	pop    rax
   140001881:	48 85 c0             	test   rax,rax
   140001884:	74 2e                	je     1400018b4 <L_p_iii_trit_and+0xd3>
   140001886:	48 b8 01 00 00 00 00 	movabs rax,0x1
   14000188d:	00 00 00 
   140001890:	50                   	push   rax
   140001891:	58                   	pop    rax
   140001892:	48 f7 d8             	neg    rax
   140001895:	50                   	push   rax
   140001896:	58                   	pop    rax
   140001897:	50                   	push   rax
   140001898:	50                   	push   rax
   140001899:	48 c7 c1 02 00 00 00 	mov    rcx,0x2
   1400018a0:	48 83 ec 20          	sub    rsp,0x20
   1400018a4:	e8 47 f6 00 00       	call   140010ef0 <iii_witness_emit_kernel>
   1400018a9:	48 83 c4 20          	add    rsp,0x20
   1400018ad:	58                   	pop    rax
   1400018ae:	58                   	pop    rax
   1400018af:	48 89 ec             	mov    rsp,rbp
   1400018b2:	5d                   	pop    rbp
   1400018b3:	c3                   	ret
   1400018b4:	48 8b 45 f8          	mov    rax,QWORD PTR [rbp-0x8]
   1400018b8:	50                   	push   rax
   1400018b9:	48 b8 00 00 00 00 00 	movabs rax,0x0
   1400018c0:	00 00 00 
   1400018c3:	50                   	push   rax
   1400018c4:	59                   	pop    rcx
   1400018c5:	58                   	pop    rax
   1400018c6:	48 39 c8             	cmp    rax,rcx
   1400018c9:	0f 94 c0             	sete   al
   1400018cc:	48 0f b6 c0          	movzx  rax,al
   1400018d0:	50                   	push   rax
   1400018d1:	58                   	pop    rax
   1400018d2:	48 85 c0             	test   rax,rax
   1400018d5:	74 29                	je     140001900 <L_p_iii_trit_and+0x11f>
   1400018d7:	48 b8 00 00 00 00 00 	movabs rax,0x0
   1400018de:	00 00 00 
   1400018e1:	50                   	push   rax
   1400018e2:	58                   	pop    rax
   1400018e3:	50                   	push   rax
   1400018e4:	50                   	push   rax
   1400018e5:	48 c7 c1 02 00 00 00 	mov    rcx,0x2
   1400018ec:	48 83 ec 20          	sub    rsp,0x20
   1400018f0:	e8 fb f5 00 00       	call   140010ef0 <iii_witness_emit_kernel>
   1400018f5:	48 83 c4 20          	add    rsp,0x20
   1400018f9:	58                   	pop    rax
   1400018fa:	58                   	pop    rax
   1400018fb:	48 89 ec             	mov    rsp,rbp
   1400018fe:	5d                   	pop    rbp
   1400018ff:	c3                   	ret
   140001900:	48 8b 45 f0          	mov    rax,QWORD PTR [rbp-0x10]
   140001904:	50                   	push   rax
   140001905:	48 b8 00 00 00 00 00 	movabs rax,0x0
   14000190c:	00 00 00 
   14000190f:	50                   	push   rax
   140001910:	59                   	pop    rcx
   140001911:	58                   	pop    rax
   140001912:	48 39 c8             	cmp    rax,rcx
   140001915:	0f 94 c0             	sete   al
   140001918:	48 0f b6 c0          	movzx  rax,al
   14000191c:	50                   	push   rax
   14000191d:	58                   	pop    rax
   14000191e:	48 85 c0             	test   rax,rax
   140001921:	74 29                	je     14000194c <L_p_iii_trit_and+0x16b>
   140001923:	48 b8 00 00 00 00 00 	movabs rax,0x0
   14000192a:	00 00 00 
   14000192d:	50                   	push   rax
   14000192e:	58                   	pop    rax
   14000192f:	50                   	push   rax
   140001930:	50                   	push   rax
   140001931:	48 c7 c1 02 00 00 00 	mov    rcx,0x2
   140001938:	48 83 ec 20          	sub    rsp,0x20
   14000193c:	e8 af f5 00 00       	call   140010ef0 <iii_witness_emit_kernel>
   140001941:	48 83 c4 20          	add    rsp,0x20
   140001945:	58                   	pop    rax
   140001946:	58                   	pop    rax
   140001947:	48 89 ec             	mov    rsp,rbp
   14000194a:	5d                   	pop    rbp
   14000194b:	c3                   	ret
   14000194c:	48 b8 01 00 00 00 00 	movabs rax,0x1
   140001953:	00 00 00 
   140001956:	50                   	push   rax
   140001957:	58                   	pop    rax
   140001958:	50                   	push   rax
   140001959:	50                   	push   rax
   14000195a:	48 c7 c1 02 00 00 00 	mov    rcx,0x2
   140001961:	48 83 ec 20          	sub    rsp,0x20
   140001965:	e8 86 f5 00 00       	call   140010ef0 <iii_witness_emit_kernel>
   14000196a:	48 83 c4 20          	add    rsp,0x20
   14000196e:	58                   	pop    rax
   14000196f:	58                   	pop    rax
   140001970:	48 89 ec             	mov    rsp,rbp
   140001973:	5d                   	pop    rbp
   140001974:	c3                   	ret

0000000140001975 <L_p_iii_trit_or>:
   140001975:	55                   	push   rbp
   140001976:	48 89 e5             	mov    rbp,rsp
   140001979:	48 81 ec 00 04 00 00 	sub    rsp,0x400
   140001980:	48 89 4d f8          	mov    QWORD PTR [rbp-0x8],rcx
   140001984:	48 89 55 f0          	mov    QWORD PTR [rbp-0x10],rdx
   140001988:	48 c7 c1 01 00 00 00 	mov    rcx,0x1
   14000198f:	48 83 ec 20          	sub    rsp,0x20
   140001993:	e8 58 f5 00 00       	call   140010ef0 <iii_witness_emit_kernel>
   140001998:	48 83 c4 20          	add    rsp,0x20
   14000199c:	48 8b 45 f8          	mov    rax,QWORD PTR [rbp-0x8]
   1400019a0:	50                   	push   rax
   1400019a1:	48 b8 01 00 00 00 00 	movabs rax,0x1
   1400019a8:	00 00 00 
   1400019ab:	50                   	push   rax
   1400019ac:	59                   	pop    rcx
   1400019ad:	58                   	pop    rax
   1400019ae:	48 39 c8             	cmp    rax,rcx
   1400019b1:	0f 94 c0             	sete   al
   1400019b4:	48 0f b6 c0          	movzx  rax,al
   1400019b8:	50                   	push   rax
   1400019b9:	58                   	pop    rax
   1400019ba:	48 85 c0             	test   rax,rax
   1400019bd:	74 29                	je     1400019e8 <L_p_iii_trit_or+0x73>
   1400019bf:	48 b8 01 00 00 00 00 	movabs rax,0x1
   1400019c6:	00 00 00 
   1400019c9:	50                   	push   rax
   1400019ca:	58                   	pop    rax
   1400019cb:	50                   	push   rax
   1400019cc:	50                   	push   rax
   1400019cd:	48 c7 c1 02 00 00 00 	mov    rcx,0x2
   1400019d4:	48 83 ec 20          	sub    rsp,0x20
   1400019d8:	e8 13 f5 00 00       	call   140010ef0 <iii_witness_emit_kernel>
   1400019dd:	48 83 c4 20          	add    rsp,0x20
   1400019e1:	58                   	pop    rax
   1400019e2:	58                   	pop    rax
   1400019e3:	48 89 ec             	mov    rsp,rbp
   1400019e6:	5d                   	pop    rbp
   1400019e7:	c3                   	ret
   1400019e8:	48 8b 45 f0          	mov    rax,QWORD PTR [rbp-0x10]
   1400019ec:	50                   	push   rax
   1400019ed:	48 b8 01 00 00 00 00 	movabs rax,0x1
   1400019f4:	00 00 00 
   1400019f7:	50                   	push   rax
   1400019f8:	59                   	pop    rcx
   1400019f9:	58                   	pop    rax
   1400019fa:	48 39 c8             	cmp    rax,rcx
   1400019fd:	0f 94 c0             	sete   al
   140001a00:	48 0f b6 c0          	movzx  rax,al
   140001a04:	50                   	push   rax
   140001a05:	58                   	pop    rax
   140001a06:	48 85 c0             	test   rax,rax
   140001a09:	74 29                	je     140001a34 <L_p_iii_trit_or+0xbf>
   140001a0b:	48 b8 01 00 00 00 00 	movabs rax,0x1
   140001a12:	00 00 00 
   140001a15:	50                   	push   rax
   140001a16:	58                   	pop    rax
   140001a17:	50                   	push   rax
   140001a18:	50                   	push   rax
   140001a19:	48 c7 c1 02 00 00 00 	mov    rcx,0x2
   140001a20:	48 83 ec 20          	sub    rsp,0x20
   140001a24:	e8 c7 f4 00 00       	call   140010ef0 <iii_witness_emit_kernel>
   140001a29:	48 83 c4 20          	add    rsp,0x20
   140001a2d:	58                   	pop    rax
   140001a2e:	58                   	pop    rax
   140001a2f:	48 89 ec             	mov    rsp,rbp
   140001a32:	5d                   	pop    rbp
   140001a33:	c3                   	ret
   140001a34:	48 8b 45 f8          	mov    rax,QWORD PTR [rbp-0x8]
   140001a38:	50                   	push   rax
   140001a39:	48 b8 00 00 00 00 00 	movabs rax,0x0
   140001a40:	00 00 00 
   140001a43:	50                   	push   rax
   140001a44:	59                   	pop    rcx
   140001a45:	58                   	pop    rax
   140001a46:	48 39 c8             	cmp    rax,rcx
   140001a49:	0f 94 c0             	sete   al
   140001a4c:	48 0f b6 c0          	movzx  rax,al
   140001a50:	50                   	push   rax
   140001a51:	58                   	pop    rax
   140001a52:	48 85 c0             	test   rax,rax
   140001a55:	74 29                	je     140001a80 <L_p_iii_trit_or+0x10b>
   140001a57:	48 b8 00 00 00 00 00 	movabs rax,0x0
   140001a5e:	00 00 00 
   140001a61:	50                   	push   rax
   140001a62:	58                   	pop    rax
   140001a63:	50                   	push   rax
   140001a64:	50                   	push   rax
   140001a65:	48 c7 c1 02 00 00 00 	mov    rcx,0x2
   140001a6c:	48 83 ec 20          	sub    rsp,0x20
   140001a70:	e8 7b f4 00 00       	call   140010ef0 <iii_witness_emit_kernel>
   140001a75:	48 83 c4 20          	add    rsp,0x20
   140001a79:	58                   	pop    rax
   140001a7a:	58                   	pop    rax
   140001a7b:	48 89 ec             	mov    rsp,rbp
   140001a7e:	5d                   	pop    rbp
   140001a7f:	c3                   	ret
   140001a80:	48 8b 45 f0          	mov    rax,QWORD PTR [rbp-0x10]
   140001a84:	50                   	push   rax
   140001a85:	48 b8 00 00 00 00 00 	movabs rax,0x0
   140001a8c:	00 00 00 
   140001a8f:	50                   	push   rax
   140001a90:	59                   	pop    rcx
   140001a91:	58                   	pop    rax
   140001a92:	48 39 c8             	cmp    rax,rcx
   140001a95:	0f 94 c0             	sete   al
   140001a98:	48 0f b6 c0          	movzx  rax,al
   140001a9c:	50                   	push   rax
   140001a9d:	58                   	pop    rax
   140001a9e:	48 85 c0             	test   rax,rax
   140001aa1:	74 29                	je     140001acc <L_p_iii_trit_or+0x157>
   140001aa3:	48 b8 00 00 00 00 00 	movabs rax,0x0
   140001aaa:	00 00 00 
   140001aad:	50                   	push   rax
   140001aae:	58                   	pop    rax
   140001aaf:	50                   	push   rax
   140001ab0:	50                   	push   rax
   140001ab1:	48 c7 c1 02 00 00 00 	mov    rcx,0x2
   140001ab8:	48 83 ec 20          	sub    rsp,0x20
   140001abc:	e8 2f f4 00 00       	call   140010ef0 <iii_witness_emit_kernel>
   140001ac1:	48 83 c4 20          	add    rsp,0x20
   140001ac5:	58                   	pop    rax
   140001ac6:	58                   	pop    rax
   140001ac7:	48 89 ec             	mov    rsp,rbp
   140001aca:	5d                   	pop    rbp
   140001acb:	c3                   	ret
   140001acc:	48 b8 01 00 00 00 00 	movabs rax,0x1
   140001ad3:	00 00 00 
   140001ad6:	50                   	push   rax
   140001ad7:	58                   	pop    rax
   140001ad8:	48 f7 d8             	neg    rax
   140001adb:	50                   	push   rax
   140001adc:	58                   	pop    rax
   140001add:	50                   	push   rax
   140001ade:	50                   	push   rax
   140001adf:	48 c7 c1 02 00 00 00 	mov    rcx,0x2
   140001ae6:	48 83 ec 20          	sub    rsp,0x20
   140001aea:	e8 01 f4 00 00       	call   140010ef0 <iii_witness_emit_kernel>
   140001aef:	48 83 c4 20          	add    rsp,0x20
   140001af3:	58                   	pop    rax
   140001af4:	58                   	pop    rax
   140001af5:	48 89 ec             	mov    rsp,rbp
   140001af8:	5d                   	pop    rbp
   140001af9:	c3                   	ret

0000000140001afa <L_p_iii_trit_sum>:
   140001afa:	55                   	push   rbp
   140001afb:	48 89 e5             	mov    rbp,rsp
   140001afe:	48 81 ec 00 04 00 00 	sub    rsp,0x400
   140001b05:	48 89 4d f8          	mov    QWORD PTR [rbp-0x8],rcx
   140001b09:	48 89 55 f0          	mov    QWORD PTR [rbp-0x10],rdx
   140001b0d:	48 c7 c1 01 00 00 00 	mov    rcx,0x1
   140001b14:	48 83 ec 20          	sub    rsp,0x20
   140001b18:	e8 d3 f3 00 00       	call   140010ef0 <iii_witness_emit_kernel>
   140001b1d:	48 83 c4 20          	add    rsp,0x20
   140001b21:	48 8b 45 f8          	mov    rax,QWORD PTR [rbp-0x8]
   140001b25:	50                   	push   rax
   140001b26:	48 8b 45 f0          	mov    rax,QWORD PTR [rbp-0x10]
   140001b2a:	50                   	push   rax
   140001b2b:	59                   	pop    rcx
   140001b2c:	58                   	pop    rax
   140001b2d:	48 01 c8             	add    rax,rcx
   140001b30:	50                   	push   rax
   140001b31:	58                   	pop    rax
   140001b32:	48 89 45 e8          	mov    QWORD PTR [rbp-0x18],rax
   140001b36:	48 8b 45 e8          	mov    rax,QWORD PTR [rbp-0x18]
   140001b3a:	50                   	push   rax
   140001b3b:	48 b8 02 00 00 00 00 	movabs rax,0x2
   140001b42:	00 00 00 
   140001b45:	50                   	push   rax
   140001b46:	59                   	pop    rcx
   140001b47:	58                   	pop    rax
   140001b48:	48 39 c8             	cmp    rax,rcx
   140001b4b:	0f 94 c0             	sete   al
   140001b4e:	48 0f b6 c0          	movzx  rax,al
   140001b52:	50                   	push   rax
   140001b53:	58                   	pop    rax
   140001b54:	48 85 c0             	test   rax,rax
   140001b57:	74 29                	je     140001b82 <L_p_iii_trit_sum+0x88>
   140001b59:	48 b8 01 00 00 00 00 	movabs rax,0x1
   140001b60:	00 00 00 
   140001b63:	50                   	push   rax
   140001b64:	58                   	pop    rax
   140001b65:	50                   	push   rax
   140001b66:	50                   	push   rax
   140001b67:	48 c7 c1 02 00 00 00 	mov    rcx,0x2
   140001b6e:	48 83 ec 20          	sub    rsp,0x20
   140001b72:	e8 79 f3 00 00       	call   140010ef0 <iii_witness_emit_kernel>
   140001b77:	48 83 c4 20          	add    rsp,0x20
   140001b7b:	58                   	pop    rax
   140001b7c:	58                   	pop    rax
   140001b7d:	48 89 ec             	mov    rsp,rbp
   140001b80:	5d                   	pop    rbp
   140001b81:	c3                   	ret
   140001b82:	48 8b 45 e8          	mov    rax,QWORD PTR [rbp-0x18]
   140001b86:	50                   	push   rax
   140001b87:	48 b8 02 00 00 00 00 	movabs rax,0x2
   140001b8e:	00 00 00 
   140001b91:	50                   	push   rax
   140001b92:	58                   	pop    rax
   140001b93:	48 f7 d8             	neg    rax
   140001b96:	50                   	push   rax
   140001b97:	59                   	pop    rcx
   140001b98:	58                   	pop    rax
   140001b99:	48 39 c8             	cmp    rax,rcx
   140001b9c:	0f 94 c0             	sete   al
   140001b9f:	48 0f b6 c0          	movzx  rax,al
   140001ba3:	50                   	push   rax
   140001ba4:	58                   	pop    rax
   140001ba5:	48 85 c0             	test   rax,rax
   140001ba8:	74 2e                	je     140001bd8 <L_p_iii_trit_sum+0xde>
   140001baa:	48 b8 01 00 00 00 00 	movabs rax,0x1
   140001bb1:	00 00 00 
   140001bb4:	50                   	push   rax
   140001bb5:	58                   	pop    rax
   140001bb6:	48 f7 d8             	neg    rax
   140001bb9:	50                   	push   rax
   140001bba:	58                   	pop    rax
   140001bbb:	50                   	push   rax
   140001bbc:	50                   	push   rax
   140001bbd:	48 c7 c1 02 00 00 00 	mov    rcx,0x2
   140001bc4:	48 83 ec 20          	sub    rsp,0x20
   140001bc8:	e8 23 f3 00 00       	call   140010ef0 <iii_witness_emit_kernel>
   140001bcd:	48 83 c4 20          	add    rsp,0x20
   140001bd1:	58                   	pop    rax
   140001bd2:	58                   	pop    rax
   140001bd3:	48 89 ec             	mov    rsp,rbp
   140001bd6:	5d                   	pop    rbp
   140001bd7:	c3                   	ret
   140001bd8:	48 8b 45 e8          	mov    rax,QWORD PTR [rbp-0x18]
   140001bdc:	50                   	push   rax
   140001bdd:	58                   	pop    rax
   140001bde:	50                   	push   rax
   140001bdf:	50                   	push   rax
   140001be0:	48 c7 c1 02 00 00 00 	mov    rcx,0x2
   140001be7:	48 83 ec 20          	sub    rsp,0x20
   140001beb:	e8 00 f3 00 00       	call   140010ef0 <iii_witness_emit_kernel>
   140001bf0:	48 83 c4 20          	add    rsp,0x20
   140001bf4:	58                   	pop    rax
   140001bf5:	58                   	pop    rax
   140001bf6:	48 89 ec             	mov    rsp,rbp
   140001bf9:	5d                   	pop    rbp
   140001bfa:	c3                   	ret

0000000140001bfb <L_p_iii_trit_mul>:
   140001bfb:	55                   	push   rbp
   140001bfc:	48 89 e5             	mov    rbp,rsp
   140001bff:	48 81 ec 00 04 00 00 	sub    rsp,0x400
   140001c06:	48 89 4d f8          	mov    QWORD PTR [rbp-0x8],rcx
   140001c0a:	48 89 55 f0          	mov    QWORD PTR [rbp-0x10],rdx
   140001c0e:	48 c7 c1 01 00 00 00 	mov    rcx,0x1
   140001c15:	48 83 ec 20          	sub    rsp,0x20
   140001c19:	e8 d2 f2 00 00       	call   140010ef0 <iii_witness_emit_kernel>
   140001c1e:	48 83 c4 20          	add    rsp,0x20
   140001c22:	48 8b 45 f8          	mov    rax,QWORD PTR [rbp-0x8]
   140001c26:	50                   	push   rax
   140001c27:	48 8b 45 f0          	mov    rax,QWORD PTR [rbp-0x10]
   140001c2b:	50                   	push   rax
   140001c2c:	59                   	pop    rcx
   140001c2d:	58                   	pop    rax
   140001c2e:	48 0f af c1          	imul   rax,rcx
   140001c32:	50                   	push   rax
   140001c33:	58                   	pop    rax
   140001c34:	50                   	push   rax
   140001c35:	50                   	push   rax
   140001c36:	48 c7 c1 02 00 00 00 	mov    rcx,0x2
   140001c3d:	48 83 ec 20          	sub    rsp,0x20
   140001c41:	e8 aa f2 00 00       	call   140010ef0 <iii_witness_emit_kernel>
   140001c46:	48 83 c4 20          	add    rsp,0x20
   140001c4a:	58                   	pop    rax
   140001c4b:	58                   	pop    rax
   140001c4c:	48 89 ec             	mov    rsp,rbp
   140001c4f:	5d                   	pop    rbp
   140001c50:	c3                   	ret

0000000140001c51 <L_p_iii_trit_sub>:
   140001c51:	55                   	push   rbp
   140001c52:	48 89 e5             	mov    rbp,rsp
   140001c55:	48 81 ec 00 04 00 00 	sub    rsp,0x400
   140001c5c:	48 89 4d f8          	mov    QWORD PTR [rbp-0x8],rcx
   140001c60:	48 89 55 f0          	mov    QWORD PTR [rbp-0x10],rdx
   140001c64:	48 c7 c1 01 00 00 00 	mov    rcx,0x1
   140001c6b:	48 83 ec 20          	sub    rsp,0x20
   140001c6f:	e8 7c f2 00 00       	call   140010ef0 <iii_witness_emit_kernel>
   140001c74:	48 83 c4 20          	add    rsp,0x20
   140001c78:	48 8b 45 f8          	mov    rax,QWORD PTR [rbp-0x8]
   140001c7c:	50                   	push   rax
   140001c7d:	48 b8 00 00 00 00 00 	movabs rax,0x0
   140001c84:	00 00 00 
   140001c87:	50                   	push   rax
   140001c88:	48 8b 45 f0          	mov    rax,QWORD PTR [rbp-0x10]
   140001c8c:	50                   	push   rax
   140001c8d:	59                   	pop    rcx
   140001c8e:	58                   	pop    rax
   140001c8f:	48 29 c8             	sub    rax,rcx
   140001c92:	50                   	push   rax
   140001c93:	5a                   	pop    rdx
   140001c94:	59                   	pop    rcx
   140001c95:	48 83 ec 20          	sub    rsp,0x20
   140001c99:	e8 5c fe ff ff       	call   140001afa <L_p_iii_trit_sum>
   140001c9e:	48 83 c4 20          	add    rsp,0x20
   140001ca2:	50                   	push   rax
   140001ca3:	58                   	pop    rax
   140001ca4:	50                   	push   rax
   140001ca5:	50                   	push   rax
   140001ca6:	48 c7 c1 02 00 00 00 	mov    rcx,0x2
   140001cad:	48 83 ec 20          	sub    rsp,0x20
   140001cb1:	e8 3a f2 00 00       	call   140010ef0 <iii_witness_emit_kernel>
   140001cb6:	48 83 c4 20          	add    rsp,0x20
   140001cba:	58                   	pop    rax
   140001cbb:	58                   	pop    rax
   140001cbc:	48 89 ec             	mov    rsp,rbp
   140001cbf:	5d                   	pop    rbp
   140001cc0:	c3                   	ret

0000000140001cc1 <L_p_iii_hexad_pack6>:
   140001cc1:	55                   	push   rbp
   140001cc2:	48 89 e5             	mov    rbp,rsp
   140001cc5:	48 81 ec 00 04 00 00 	sub    rsp,0x400
   140001ccc:	48 89 4d f8          	mov    QWORD PTR [rbp-0x8],rcx
   140001cd0:	48 c7 c1 01 00 00 00 	mov    rcx,0x1
   140001cd7:	48 83 ec 20          	sub    rsp,0x20
   140001cdb:	e8 10 f2 00 00       	call   140010ef0 <iii_witness_emit_kernel>
   140001ce0:	48 83 c4 20          	add    rsp,0x20
   140001ce4:	48 8b 45 f8          	mov    rax,QWORD PTR [rbp-0x8]
   140001ce8:	50                   	push   rax
   140001ce9:	58                   	pop    rax
   140001cea:	48 89 45 f0          	mov    QWORD PTR [rbp-0x10],rax
   140001cee:	48 b8 00 00 00 00 00 	movabs rax,0x0
   140001cf5:	00 00 00 
   140001cf8:	50                   	push   rax
   140001cf9:	58                   	pop    rax
   140001cfa:	48 89 45 e8          	mov    QWORD PTR [rbp-0x18],rax
   140001cfe:	48 b8 01 00 00 00 00 	movabs rax,0x1
   140001d05:	00 00 00 
   140001d08:	50                   	push   rax
   140001d09:	58                   	pop    rax
   140001d0a:	48 89 45 e0          	mov    QWORD PTR [rbp-0x20],rax
   140001d0e:	48 b8 00 00 00 00 00 	movabs rax,0x0
   140001d15:	00 00 00 
   140001d18:	50                   	push   rax
   140001d19:	58                   	pop    rax
   140001d1a:	48 89 45 d8          	mov    QWORD PTR [rbp-0x28],rax
   140001d1e:	48 8b 45 d8          	mov    rax,QWORD PTR [rbp-0x28]
   140001d22:	50                   	push   rax
   140001d23:	48 b8 06 00 00 00 00 	movabs rax,0x6
   140001d2a:	00 00 00 
   140001d2d:	50                   	push   rax
   140001d2e:	59                   	pop    rcx
   140001d2f:	58                   	pop    rax
   140001d30:	48 39 c8             	cmp    rax,rcx
   140001d33:	0f 9c c0             	setl   al
   140001d36:	48 0f b6 c0          	movzx  rax,al
   140001d3a:	50                   	push   rax
   140001d3b:	58                   	pop    rax
   140001d3c:	48 85 c0             	test   rax,rax
   140001d3f:	0f 84 84 00 00 00    	je     140001dc9 <L_p_iii_hexad_pack6+0x108>
   140001d45:	48 8b 45 f0          	mov    rax,QWORD PTR [rbp-0x10]
   140001d49:	50                   	push   rax
   140001d4a:	48 8b 45 d8          	mov    rax,QWORD PTR [rbp-0x28]
   140001d4e:	50                   	push   rax
   140001d4f:	59                   	pop    rcx
   140001d50:	58                   	pop    rax
   140001d51:	48 8b 04 c8          	mov    rax,QWORD PTR [rax+rcx*8]
   140001d55:	50                   	push   rax
   140001d56:	48 b8 01 00 00 00 00 	movabs rax,0x1
   140001d5d:	00 00 00 
   140001d60:	50                   	push   rax
   140001d61:	59                   	pop    rcx
   140001d62:	58                   	pop    rax
   140001d63:	48 01 c8             	add    rax,rcx
   140001d66:	50                   	push   rax
   140001d67:	58                   	pop    rax
   140001d68:	48 89 45 d0          	mov    QWORD PTR [rbp-0x30],rax
   140001d6c:	48 8b 45 e8          	mov    rax,QWORD PTR [rbp-0x18]
   140001d70:	50                   	push   rax
   140001d71:	48 8b 45 d0          	mov    rax,QWORD PTR [rbp-0x30]
   140001d75:	50                   	push   rax
   140001d76:	48 8b 45 e0          	mov    rax,QWORD PTR [rbp-0x20]
   140001d7a:	50                   	push   rax
   140001d7b:	59                   	pop    rcx
   140001d7c:	58                   	pop    rax
   140001d7d:	48 0f af c1          	imul   rax,rcx
   140001d81:	50                   	push   rax
   140001d82:	59                   	pop    rcx
   140001d83:	58                   	pop    rax
   140001d84:	48 01 c8             	add    rax,rcx
   140001d87:	50                   	push   rax
   140001d88:	58                   	pop    rax
   140001d89:	48 89 45 e8          	mov    QWORD PTR [rbp-0x18],rax
   140001d8d:	48 8b 45 e0          	mov    rax,QWORD PTR [rbp-0x20]
   140001d91:	50                   	push   rax
   140001d92:	48 b8 03 00 00 00 00 	movabs rax,0x3
   140001d99:	00 00 00 
   140001d9c:	50                   	push   rax
   140001d9d:	59                   	pop    rcx
   140001d9e:	58                   	pop    rax
   140001d9f:	48 0f af c1          	imul   rax,rcx
   140001da3:	50                   	push   rax
   140001da4:	58                   	pop    rax
   140001da5:	48 89 45 e0          	mov    QWORD PTR [rbp-0x20],rax
   140001da9:	48 8b 45 d8          	mov    rax,QWORD PTR [rbp-0x28]
   140001dad:	50                   	push   rax
   140001dae:	48 b8 01 00 00 00 00 	movabs rax,0x1
   140001db5:	00 00 00 
   140001db8:	50                   	push   rax
   140001db9:	59                   	pop    rcx
   140001dba:	58                   	pop    rax
   140001dbb:	48 01 c8             	add    rax,rcx
   140001dbe:	50                   	push   rax
   140001dbf:	58                   	pop    rax
   140001dc0:	48 89 45 d8          	mov    QWORD PTR [rbp-0x28],rax
   140001dc4:	e9 55 ff ff ff       	jmp    140001d1e <L_p_iii_hexad_pack6+0x5d>
   140001dc9:	48 8b 45 e8          	mov    rax,QWORD PTR [rbp-0x18]
   140001dcd:	50                   	push   rax
   140001dce:	58                   	pop    rax
   140001dcf:	50                   	push   rax
   140001dd0:	50                   	push   rax
   140001dd1:	48 c7 c1 02 00 00 00 	mov    rcx,0x2
   140001dd8:	48 83 ec 20          	sub    rsp,0x20
   140001ddc:	e8 0f f1 00 00       	call   140010ef0 <iii_witness_emit_kernel>
   140001de1:	48 83 c4 20          	add    rsp,0x20
   140001de5:	58                   	pop    rax
   140001de6:	58                   	pop    rax
   140001de7:	48 89 ec             	mov    rsp,rbp
   140001dea:	5d                   	pop    rbp
   140001deb:	c3                   	ret

0000000140001dec <L_p_iii_hexad_unpack6>:
   140001dec:	55                   	push   rbp
   140001ded:	48 89 e5             	mov    rbp,rsp
   140001df0:	48 81 ec 00 04 00 00 	sub    rsp,0x400
   140001df7:	48 89 4d f8          	mov    QWORD PTR [rbp-0x8],rcx
   140001dfb:	48 89 55 f0          	mov    QWORD PTR [rbp-0x10],rdx
   140001dff:	48 c7 c1 01 00 00 00 	mov    rcx,0x1
   140001e06:	48 83 ec 20          	sub    rsp,0x20
   140001e0a:	e8 e1 f0 00 00       	call   140010ef0 <iii_witness_emit_kernel>
   140001e0f:	48 83 c4 20          	add    rsp,0x20
   140001e13:	48 8b 45 f8          	mov    rax,QWORD PTR [rbp-0x8]
   140001e17:	50                   	push   rax
   140001e18:	48 8b 05 f9 01 01 00 	mov    rax,QWORD PTR [rip+0x101f9]        # 140012018 <.rodata+0x18>
   140001e1f:	50                   	push   rax
   140001e20:	59                   	pop    rcx
   140001e21:	58                   	pop    rax
   140001e22:	48 39 c8             	cmp    rax,rcx
   140001e25:	0f 9d c0             	setge  al
   140001e28:	48 0f b6 c0          	movzx  rax,al
   140001e2c:	50                   	push   rax
   140001e2d:	58                   	pop    rax
   140001e2e:	48 85 c0             	test   rax,rax
   140001e31:	74 29                	je     140001e5c <L_p_iii_hexad_unpack6+0x70>
   140001e33:	48 b8 00 00 00 00 00 	movabs rax,0x0
   140001e3a:	00 00 00 
   140001e3d:	50                   	push   rax
   140001e3e:	58                   	pop    rax
   140001e3f:	50                   	push   rax
   140001e40:	50                   	push   rax
   140001e41:	48 c7 c1 02 00 00 00 	mov    rcx,0x2
   140001e48:	48 83 ec 20          	sub    rsp,0x20
   140001e4c:	e8 9f f0 00 00       	call   140010ef0 <iii_witness_emit_kernel>
   140001e51:	48 83 c4 20          	add    rsp,0x20
   140001e55:	58                   	pop    rax
   140001e56:	58                   	pop    rax
   140001e57:	48 89 ec             	mov    rsp,rbp
   140001e5a:	5d                   	pop    rbp
   140001e5b:	c3                   	ret
   140001e5c:	48 8b 45 f0          	mov    rax,QWORD PTR [rbp-0x10]
   140001e60:	50                   	push   rax
   140001e61:	58                   	pop    rax
   140001e62:	48 89 45 e8          	mov    QWORD PTR [rbp-0x18],rax
   140001e66:	48 8b 45 f8          	mov    rax,QWORD PTR [rbp-0x8]
   140001e6a:	50                   	push   rax
   140001e6b:	58                   	pop    rax
   140001e6c:	48 89 45 e0          	mov    QWORD PTR [rbp-0x20],rax
   140001e70:	48 b8 00 00 00 00 00 	movabs rax,0x0
   140001e77:	00 00 00 
   140001e7a:	50                   	push   rax
   140001e7b:	58                   	pop    rax
   140001e7c:	48 89 45 d8          	mov    QWORD PTR [rbp-0x28],rax
   140001e80:	48 8b 45 d8          	mov    rax,QWORD PTR [rbp-0x28]
   140001e84:	50                   	push   rax
   140001e85:	48 b8 06 00 00 00 00 	movabs rax,0x6
   140001e8c:	00 00 00 
   140001e8f:	50                   	push   rax
   140001e90:	59                   	pop    rcx
   140001e91:	58                   	pop    rax
   140001e92:	48 39 c8             	cmp    rax,rcx
   140001e95:	0f 9c c0             	setl   al
   140001e98:	48 0f b6 c0          	movzx  rax,al
   140001e9c:	50                   	push   rax
   140001e9d:	58                   	pop    rax
   140001e9e:	48 85 c0             	test   rax,rax
   140001ea1:	0f 84 97 00 00 00    	je     140001f3e <L_p_iii_hexad_unpack6+0x152>
   140001ea7:	48 8b 45 e0          	mov    rax,QWORD PTR [rbp-0x20]
   140001eab:	50                   	push   rax
   140001eac:	48 b8 03 00 00 00 00 	movabs rax,0x3
   140001eb3:	00 00 00 
   140001eb6:	50                   	push   rax
   140001eb7:	59                   	pop    rcx
   140001eb8:	58                   	pop    rax
   140001eb9:	48 99                	cqo
   140001ebb:	48 f7 f9             	idiv   rcx
   140001ebe:	50                   	push   rax
   140001ebf:	58                   	pop    rax
   140001ec0:	48 89 45 d0          	mov    QWORD PTR [rbp-0x30],rax
   140001ec4:	48 8b 45 e0          	mov    rax,QWORD PTR [rbp-0x20]
   140001ec8:	50                   	push   rax
   140001ec9:	48 8b 45 d0          	mov    rax,QWORD PTR [rbp-0x30]
   140001ecd:	50                   	push   rax
   140001ece:	48 b8 03 00 00 00 00 	movabs rax,0x3
   140001ed5:	00 00 00 
   140001ed8:	50                   	push   rax
   140001ed9:	59                   	pop    rcx
   140001eda:	58                   	pop    rax
   140001edb:	48 0f af c1          	imul   rax,rcx
   140001edf:	50                   	push   rax
   140001ee0:	59                   	pop    rcx
   140001ee1:	58                   	pop    rax
   140001ee2:	48 29 c8             	sub    rax,rcx
   140001ee5:	50                   	push   rax
   140001ee6:	58                   	pop    rax
   140001ee7:	48 89 45 c8          	mov    QWORD PTR [rbp-0x38],rax
   140001eeb:	48 8b 45 c8          	mov    rax,QWORD PTR [rbp-0x38]
   140001eef:	50                   	push   rax
   140001ef0:	48 b8 01 00 00 00 00 	movabs rax,0x1
   140001ef7:	00 00 00 
   140001efa:	50                   	push   rax
   140001efb:	59                   	pop    rcx
   140001efc:	58                   	pop    rax
   140001efd:	48 29 c8             	sub    rax,rcx
   140001f00:	50                   	push   rax
   140001f01:	58                   	pop    rax
   140001f02:	50                   	push   rax
   140001f03:	48 8b 45 e8          	mov    rax,QWORD PTR [rbp-0x18]
   140001f07:	50                   	push   rax
   140001f08:	48 8b 45 d8          	mov    rax,QWORD PTR [rbp-0x28]
   140001f0c:	50                   	push   rax
   140001f0d:	59                   	pop    rcx
   140001f0e:	58                   	pop    rax
   140001f0f:	5a                   	pop    rdx
   140001f10:	48 89 14 c8          	mov    QWORD PTR [rax+rcx*8],rdx
   140001f14:	48 8b 45 d0          	mov    rax,QWORD PTR [rbp-0x30]
   140001f18:	50                   	push   rax
   140001f19:	58                   	pop    rax
   140001f1a:	48 89 45 e0          	mov    QWORD PTR [rbp-0x20],rax
   140001f1e:	48 8b 45 d8          	mov    rax,QWORD PTR [rbp-0x28]
   140001f22:	50                   	push   rax
   140001f23:	48 b8 01 00 00 00 00 	movabs rax,0x1
   140001f2a:	00 00 00 
   140001f2d:	50                   	push   rax
   140001f2e:	59                   	pop    rcx
   140001f2f:	58                   	pop    rax
   140001f30:	48 01 c8             	add    rax,rcx
   140001f33:	50                   	push   rax
   140001f34:	58                   	pop    rax
   140001f35:	48 89 45 d8          	mov    QWORD PTR [rbp-0x28],rax
   140001f39:	e9 42 ff ff ff       	jmp    140001e80 <L_p_iii_hexad_unpack6+0x94>
   140001f3e:	48 b8 01 00 00 00 00 	movabs rax,0x1
   140001f45:	00 00 00 
   140001f48:	50                   	push   rax
   140001f49:	58                   	pop    rax
   140001f4a:	50                   	push   rax
   140001f4b:	50                   	push   rax
   140001f4c:	48 c7 c1 02 00 00 00 	mov    rcx,0x2
   140001f53:	48 83 ec 20          	sub    rsp,0x20
   140001f57:	e8 94 ef 00 00       	call   140010ef0 <iii_witness_emit_kernel>
   140001f5c:	48 83 c4 20          	add    rsp,0x20
   140001f60:	58                   	pop    rax
   140001f61:	58                   	pop    rax
   140001f62:	48 89 ec             	mov    rsp,rbp
   140001f65:	5d                   	pop    rbp
   140001f66:	c3                   	ret

0000000140001f67 <L_p_iii_hexad_pillar>:
   140001f67:	55                   	push   rbp
   140001f68:	48 89 e5             	mov    rbp,rsp
   140001f6b:	48 81 ec 00 04 00 00 	sub    rsp,0x400
   140001f72:	48 89 4d f8          	mov    QWORD PTR [rbp-0x8],rcx
   140001f76:	48 89 55 f0          	mov    QWORD PTR [rbp-0x10],rdx
   140001f7a:	48 c7 c1 01 00 00 00 	mov    rcx,0x1
   140001f81:	48 83 ec 20          	sub    rsp,0x20
   140001f85:	e8 66 ef 00 00       	call   140010ef0 <iii_witness_emit_kernel>
   140001f8a:	48 83 c4 20          	add    rsp,0x20
   140001f8e:	48 8b 45 f0          	mov    rax,QWORD PTR [rbp-0x10]
   140001f92:	50                   	push   rax
   140001f93:	48 b8 06 00 00 00 00 	movabs rax,0x6
   140001f9a:	00 00 00 
   140001f9d:	50                   	push   rax
   140001f9e:	59                   	pop    rcx
   140001f9f:	58                   	pop    rax
   140001fa0:	48 39 c8             	cmp    rax,rcx
   140001fa3:	0f 9d c0             	setge  al
   140001fa6:	48 0f b6 c0          	movzx  rax,al
   140001faa:	50                   	push   rax
   140001fab:	58                   	pop    rax
   140001fac:	48 85 c0             	test   rax,rax
   140001faf:	74 29                	je     140001fda <L_p_iii_hexad_pillar+0x73>
   140001fb1:	48 b8 00 00 00 00 00 	movabs rax,0x0
   140001fb8:	00 00 00 
   140001fbb:	50                   	push   rax
   140001fbc:	58                   	pop    rax
   140001fbd:	50                   	push   rax
   140001fbe:	50                   	push   rax
   140001fbf:	48 c7 c1 02 00 00 00 	mov    rcx,0x2
   140001fc6:	48 83 ec 20          	sub    rsp,0x20
   140001fca:	e8 21 ef 00 00       	call   140010ef0 <iii_witness_emit_kernel>
   140001fcf:	48 83 c4 20          	add    rsp,0x20
   140001fd3:	58                   	pop    rax
   140001fd4:	58                   	pop    rax
   140001fd5:	48 89 ec             	mov    rsp,rbp
   140001fd8:	5d                   	pop    rbp
   140001fd9:	c3                   	ret
   140001fda:	48 8b 45 f8          	mov    rax,QWORD PTR [rbp-0x8]
   140001fde:	50                   	push   rax
   140001fdf:	48 8d 05 1a 42 01 00 	lea    rax,[rip+0x1421a]        # 140016200 <L_p_HXA_TA>
   140001fe6:	50                   	push   rax
   140001fe7:	58                   	pop    rax
   140001fe8:	50                   	push   rax
   140001fe9:	5a                   	pop    rdx
   140001fea:	59                   	pop    rcx
   140001feb:	48 83 ec 20          	sub    rsp,0x20
   140001fef:	e8 f8 fd ff ff       	call   140001dec <L_p_iii_hexad_unpack6>
   140001ff4:	48 83 c4 20          	add    rsp,0x20
   140001ff8:	50                   	push   rax
   140001ff9:	48 b8 00 00 00 00 00 	movabs rax,0x0
   140002000:	00 00 00 
   140002003:	50                   	push   rax
   140002004:	59                   	pop    rcx
   140002005:	58                   	pop    rax
   140002006:	48 39 c8             	cmp    rax,rcx
   140002009:	0f 94 c0             	sete   al
   14000200c:	48 0f b6 c0          	movzx  rax,al
   140002010:	50                   	push   rax
   140002011:	58                   	pop    rax
   140002012:	48 85 c0             	test   rax,rax
   140002015:	74 29                	je     140002040 <L_p_iii_hexad_pillar+0xd9>
   140002017:	48 b8 00 00 00 00 00 	movabs rax,0x0
   14000201e:	00 00 00 
   140002021:	50                   	push   rax
   140002022:	58                   	pop    rax
   140002023:	50                   	push   rax
   140002024:	50                   	push   rax
   140002025:	48 c7 c1 02 00 00 00 	mov    rcx,0x2
   14000202c:	48 83 ec 20          	sub    rsp,0x20
   140002030:	e8 bb ee 00 00       	call   140010ef0 <iii_witness_emit_kernel>
   140002035:	48 83 c4 20          	add    rsp,0x20
   140002039:	58                   	pop    rax
   14000203a:	58                   	pop    rax
   14000203b:	48 89 ec             	mov    rsp,rbp
   14000203e:	5d                   	pop    rbp
   14000203f:	c3                   	ret
   140002040:	48 8d 05 b9 41 01 00 	lea    rax,[rip+0x141b9]        # 140016200 <L_p_HXA_TA>
   140002047:	50                   	push   rax
   140002048:	48 8b 45 f0          	mov    rax,QWORD PTR [rbp-0x10]
   14000204c:	50                   	push   rax
   14000204d:	59                   	pop    rcx
   14000204e:	58                   	pop    rax
   14000204f:	48 8b 04 c8          	mov    rax,QWORD PTR [rax+rcx*8]
   140002053:	50                   	push   rax
   140002054:	58                   	pop    rax
   140002055:	50                   	push   rax
   140002056:	50                   	push   rax
   140002057:	48 c7 c1 02 00 00 00 	mov    rcx,0x2
   14000205e:	48 83 ec 20          	sub    rsp,0x20
   140002062:	e8 89 ee 00 00       	call   140010ef0 <iii_witness_emit_kernel>
   140002067:	48 83 c4 20          	add    rsp,0x20
   14000206b:	58                   	pop    rax
   14000206c:	58                   	pop    rax
   14000206d:	48 89 ec             	mov    rsp,rbp
   140002070:	5d                   	pop    rbp
   140002071:	c3                   	ret

0000000140002072 <L_p_iii_hexad_eq6>:
   140002072:	55                   	push   rbp
   140002073:	48 89 e5             	mov    rbp,rsp
   140002076:	48 81 ec 00 04 00 00 	sub    rsp,0x400
   14000207d:	48 89 4d f8          	mov    QWORD PTR [rbp-0x8],rcx
   140002081:	48 89 55 f0          	mov    QWORD PTR [rbp-0x10],rdx
   140002085:	48 c7 c1 01 00 00 00 	mov    rcx,0x1
   14000208c:	48 83 ec 20          	sub    rsp,0x20
   140002090:	e8 5b ee 00 00       	call   140010ef0 <iii_witness_emit_kernel>
   140002095:	48 83 c4 20          	add    rsp,0x20
   140002099:	48 8b 45 f8          	mov    rax,QWORD PTR [rbp-0x8]
   14000209d:	50                   	push   rax
   14000209e:	48 8b 45 f0          	mov    rax,QWORD PTR [rbp-0x10]
   1400020a2:	50                   	push   rax
   1400020a3:	59                   	pop    rcx
   1400020a4:	58                   	pop    rax
   1400020a5:	48 39 c8             	cmp    rax,rcx
   1400020a8:	0f 94 c0             	sete   al
   1400020ab:	48 0f b6 c0          	movzx  rax,al
   1400020af:	50                   	push   rax
   1400020b0:	58                   	pop    rax
   1400020b1:	48 85 c0             	test   rax,rax
   1400020b4:	74 29                	je     1400020df <L_p_iii_hexad_eq6+0x6d>
   1400020b6:	48 b8 01 00 00 00 00 	movabs rax,0x1
   1400020bd:	00 00 00 
   1400020c0:	50                   	push   rax
   1400020c1:	58                   	pop    rax
   1400020c2:	50                   	push   rax
   1400020c3:	50                   	push   rax
   1400020c4:	48 c7 c1 02 00 00 00 	mov    rcx,0x2
   1400020cb:	48 83 ec 20          	sub    rsp,0x20
   1400020cf:	e8 1c ee 00 00       	call   140010ef0 <iii_witness_emit_kernel>
   1400020d4:	48 83 c4 20          	add    rsp,0x20
   1400020d8:	58                   	pop    rax
   1400020d9:	58                   	pop    rax
   1400020da:	48 89 ec             	mov    rsp,rbp
   1400020dd:	5d                   	pop    rbp
   1400020de:	c3                   	ret
   1400020df:	48 b8 00 00 00 00 00 	movabs rax,0x0
   1400020e6:	00 00 00 
   1400020e9:	50                   	push   rax
   1400020ea:	58                   	pop    rax
   1400020eb:	50                   	push   rax
   1400020ec:	50                   	push   rax
   1400020ed:	48 c7 c1 02 00 00 00 	mov    rcx,0x2
   1400020f4:	48 83 ec 20          	sub    rsp,0x20
   1400020f8:	e8 f3 ed 00 00       	call   140010ef0 <iii_witness_emit_kernel>
   1400020fd:	48 83 c4 20          	add    rsp,0x20
   140002101:	58                   	pop    rax
   140002102:	58                   	pop    rax
   140002103:	48 89 ec             	mov    rsp,rbp
   140002106:	5d                   	pop    rbp
   140002107:	c3                   	ret

0000000140002108 <L_p_iii_hexad_compose6>:
   140002108:	55                   	push   rbp
   140002109:	48 89 e5             	mov    rbp,rsp
   14000210c:	48 81 ec 00 04 00 00 	sub    rsp,0x400
   140002113:	48 89 4d f8          	mov    QWORD PTR [rbp-0x8],rcx
   140002117:	48 89 55 f0          	mov    QWORD PTR [rbp-0x10],rdx
   14000211b:	48 c7 c1 01 00 00 00 	mov    rcx,0x1
   140002122:	48 83 ec 20          	sub    rsp,0x20
   140002126:	e8 c5 ed 00 00       	call   140010ef0 <iii_witness_emit_kernel>
   14000212b:	48 83 c4 20          	add    rsp,0x20
   14000212f:	48 8b 45 f8          	mov    rax,QWORD PTR [rbp-0x8]
   140002133:	50                   	push   rax
   140002134:	48 8d 05 c5 40 01 00 	lea    rax,[rip+0x140c5]        # 140016200 <L_p_HXA_TA>
   14000213b:	50                   	push   rax
   14000213c:	58                   	pop    rax
   14000213d:	50                   	push   rax
   14000213e:	5a                   	pop    rdx
   14000213f:	59                   	pop    rcx
   140002140:	48 83 ec 20          	sub    rsp,0x20
   140002144:	e8 a3 fc ff ff       	call   140001dec <L_p_iii_hexad_unpack6>
   140002149:	48 83 c4 20          	add    rsp,0x20
   14000214d:	50                   	push   rax
   14000214e:	48 b8 00 00 00 00 00 	movabs rax,0x0
   140002155:	00 00 00 
   140002158:	50                   	push   rax
   140002159:	59                   	pop    rcx
   14000215a:	58                   	pop    rax
   14000215b:	48 39 c8             	cmp    rax,rcx
   14000215e:	0f 94 c0             	sete   al
   140002161:	48 0f b6 c0          	movzx  rax,al
   140002165:	50                   	push   rax
   140002166:	58                   	pop    rax
   140002167:	48 85 c0             	test   rax,rax
   14000216a:	74 29                	je     140002195 <L_p_iii_hexad_compose6+0x8d>
   14000216c:	48 b8 00 00 00 00 00 	movabs rax,0x0
   140002173:	00 00 00 
   140002176:	50                   	push   rax
   140002177:	58                   	pop    rax
   140002178:	50                   	push   rax
   140002179:	50                   	push   rax
   14000217a:	48 c7 c1 02 00 00 00 	mov    rcx,0x2
   140002181:	48 83 ec 20          	sub    rsp,0x20
   140002185:	e8 66 ed 00 00       	call   140010ef0 <iii_witness_emit_kernel>
   14000218a:	48 83 c4 20          	add    rsp,0x20
   14000218e:	58                   	pop    rax
   14000218f:	58                   	pop    rax
   140002190:	48 89 ec             	mov    rsp,rbp
   140002193:	5d                   	pop    rbp
   140002194:	c3                   	ret
   140002195:	48 8b 45 f0          	mov    rax,QWORD PTR [rbp-0x10]
   140002199:	50                   	push   rax
   14000219a:	48 8d 05 8f 40 01 00 	lea    rax,[rip+0x1408f]        # 140016230 <L_p_HXA_TB>
   1400021a1:	50                   	push   rax
   1400021a2:	58                   	pop    rax
   1400021a3:	50                   	push   rax
   1400021a4:	5a                   	pop    rdx
   1400021a5:	59                   	pop    rcx
   1400021a6:	48 83 ec 20          	sub    rsp,0x20
   1400021aa:	e8 3d fc ff ff       	call   140001dec <L_p_iii_hexad_unpack6>
   1400021af:	48 83 c4 20          	add    rsp,0x20
   1400021b3:	50                   	push   rax
   1400021b4:	48 b8 00 00 00 00 00 	movabs rax,0x0
   1400021bb:	00 00 00 
   1400021be:	50                   	push   rax
   1400021bf:	59                   	pop    rcx
   1400021c0:	58                   	pop    rax
   1400021c1:	48 39 c8             	cmp    rax,rcx
   1400021c4:	0f 94 c0             	sete   al
   1400021c7:	48 0f b6 c0          	movzx  rax,al
   1400021cb:	50                   	push   rax
   1400021cc:	58                   	pop    rax
   1400021cd:	48 85 c0             	test   rax,rax
   1400021d0:	74 29                	je     1400021fb <L_p_iii_hexad_compose6+0xf3>
   1400021d2:	48 b8 00 00 00 00 00 	movabs rax,0x0
   1400021d9:	00 00 00 
   1400021dc:	50                   	push   rax
   1400021dd:	58                   	pop    rax
   1400021de:	50                   	push   rax
   1400021df:	50                   	push   rax
   1400021e0:	48 c7 c1 02 00 00 00 	mov    rcx,0x2
   1400021e7:	48 83 ec 20          	sub    rsp,0x20
   1400021eb:	e8 00 ed 00 00       	call   140010ef0 <iii_witness_emit_kernel>
   1400021f0:	48 83 c4 20          	add    rsp,0x20
   1400021f4:	58                   	pop    rax
   1400021f5:	58                   	pop    rax
   1400021f6:	48 89 ec             	mov    rsp,rbp
   1400021f9:	5d                   	pop    rbp
   1400021fa:	c3                   	ret
   1400021fb:	48 b8 00 00 00 00 00 	movabs rax,0x0
   140002202:	00 00 00 
   140002205:	50                   	push   rax
   140002206:	58                   	pop    rax
   140002207:	48 89 45 e8          	mov    QWORD PTR [rbp-0x18],rax
   14000220b:	48 8b 45 e8          	mov    rax,QWORD PTR [rbp-0x18]
   14000220f:	50                   	push   rax
   140002210:	48 b8 04 00 00 00 00 	movabs rax,0x4
   140002217:	00 00 00 
   14000221a:	50                   	push   rax
   14000221b:	59                   	pop    rcx
   14000221c:	58                   	pop    rax
   14000221d:	48 39 c8             	cmp    rax,rcx
   140002220:	0f 9c c0             	setl   al
   140002223:	48 0f b6 c0          	movzx  rax,al
   140002227:	50                   	push   rax
   140002228:	58                   	pop    rax
   140002229:	48 85 c0             	test   rax,rax
   14000222c:	74 6e                	je     14000229c <L_p_iii_hexad_compose6+0x194>
   14000222e:	48 8d 05 cb 3f 01 00 	lea    rax,[rip+0x13fcb]        # 140016200 <L_p_HXA_TA>
   140002235:	50                   	push   rax
   140002236:	48 8b 45 e8          	mov    rax,QWORD PTR [rbp-0x18]
   14000223a:	50                   	push   rax
   14000223b:	59                   	pop    rcx
   14000223c:	58                   	pop    rax
   14000223d:	48 8b 04 c8          	mov    rax,QWORD PTR [rax+rcx*8]
   140002241:	50                   	push   rax
   140002242:	48 8d 05 e7 3f 01 00 	lea    rax,[rip+0x13fe7]        # 140016230 <L_p_HXA_TB>
   140002249:	50                   	push   rax
   14000224a:	48 8b 45 e8          	mov    rax,QWORD PTR [rbp-0x18]
   14000224e:	50                   	push   rax
   14000224f:	59                   	pop    rcx
   140002250:	58                   	pop    rax
   140002251:	48 8b 04 c8          	mov    rax,QWORD PTR [rax+rcx*8]
   140002255:	50                   	push   rax
   140002256:	5a                   	pop    rdx
   140002257:	59                   	pop    rcx
   140002258:	48 83 ec 20          	sub    rsp,0x20
   14000225c:	e8 80 f5 ff ff       	call   1400017e1 <L_p_iii_trit_and>
   140002261:	48 83 c4 20          	add    rsp,0x20
   140002265:	50                   	push   rax
   140002266:	58                   	pop    rax
   140002267:	50                   	push   rax
   140002268:	48 8d 05 f1 3f 01 00 	lea    rax,[rip+0x13ff1]        # 140016260 <L_p_HXA_TO>
   14000226f:	50                   	push   rax
   140002270:	48 8b 45 e8          	mov    rax,QWORD PTR [rbp-0x18]
   140002274:	50                   	push   rax
   140002275:	59                   	pop    rcx
   140002276:	58                   	pop    rax
   140002277:	5a                   	pop    rdx
   140002278:	48 89 14 c8          	mov    QWORD PTR [rax+rcx*8],rdx
   14000227c:	48 8b 45 e8          	mov    rax,QWORD PTR [rbp-0x18]
   140002280:	50                   	push   rax
   140002281:	48 b8 01 00 00 00 00 	movabs rax,0x1
   140002288:	00 00 00 
   14000228b:	50                   	push   rax
   14000228c:	59                   	pop    rcx
   14000228d:	58                   	pop    rax
   14000228e:	48 01 c8             	add    rax,rcx
   140002291:	50                   	push   rax
   140002292:	58                   	pop    rax
   140002293:	48 89 45 e8          	mov    QWORD PTR [rbp-0x18],rax
   140002297:	e9 6f ff ff ff       	jmp    14000220b <L_p_iii_hexad_compose6+0x103>
   14000229c:	48 b8 04 00 00 00 00 	movabs rax,0x4
   1400022a3:	00 00 00 
   1400022a6:	50                   	push   rax
   1400022a7:	58                   	pop    rax
   1400022a8:	48 89 45 e8          	mov    QWORD PTR [rbp-0x18],rax
   1400022ac:	48 8b 45 e8          	mov    rax,QWORD PTR [rbp-0x18]
   1400022b0:	50                   	push   rax
   1400022b1:	48 b8 06 00 00 00 00 	movabs rax,0x6
   1400022b8:	00 00 00 
   1400022bb:	50                   	push   rax
   1400022bc:	59                   	pop    rcx
   1400022bd:	58                   	pop    rax
   1400022be:	48 39 c8             	cmp    rax,rcx
   1400022c1:	0f 9c c0             	setl   al
   1400022c4:	48 0f b6 c0          	movzx  rax,al
   1400022c8:	50                   	push   rax
   1400022c9:	58                   	pop    rax
   1400022ca:	48 85 c0             	test   rax,rax
   1400022cd:	74 6e                	je     14000233d <L_p_iii_hexad_compose6+0x235>
   1400022cf:	48 8d 05 2a 3f 01 00 	lea    rax,[rip+0x13f2a]        # 140016200 <L_p_HXA_TA>
   1400022d6:	50                   	push   rax
   1400022d7:	48 8b 45 e8          	mov    rax,QWORD PTR [rbp-0x18]
   1400022db:	50                   	push   rax
   1400022dc:	59                   	pop    rcx
   1400022dd:	58                   	pop    rax
   1400022de:	48 8b 04 c8          	mov    rax,QWORD PTR [rax+rcx*8]
   1400022e2:	50                   	push   rax
   1400022e3:	48 8d 05 46 3f 01 00 	lea    rax,[rip+0x13f46]        # 140016230 <L_p_HXA_TB>
   1400022ea:	50                   	push   rax
   1400022eb:	48 8b 45 e8          	mov    rax,QWORD PTR [rbp-0x18]
   1400022ef:	50                   	push   rax
   1400022f0:	59                   	pop    rcx
   1400022f1:	58                   	pop    rax
   1400022f2:	48 8b 04 c8          	mov    rax,QWORD PTR [rax+rcx*8]
   1400022f6:	50                   	push   rax
   1400022f7:	5a                   	pop    rdx
   1400022f8:	59                   	pop    rcx
   1400022f9:	48 83 ec 20          	sub    rsp,0x20
   1400022fd:	e8 73 f6 ff ff       	call   140001975 <L_p_iii_trit_or>
   140002302:	48 83 c4 20          	add    rsp,0x20
   140002306:	50                   	push   rax
   140002307:	58                   	pop    rax
   140002308:	50                   	push   rax
   140002309:	48 8d 05 50 3f 01 00 	lea    rax,[rip+0x13f50]        # 140016260 <L_p_HXA_TO>
   140002310:	50                   	push   rax
   140002311:	48 8b 45 e8          	mov    rax,QWORD PTR [rbp-0x18]
   140002315:	50                   	push   rax
   140002316:	59                   	pop    rcx
   140002317:	58                   	pop    rax
   140002318:	5a                   	pop    rdx
   140002319:	48 89 14 c8          	mov    QWORD PTR [rax+rcx*8],rdx
   14000231d:	48 8b 45 e8          	mov    rax,QWORD PTR [rbp-0x18]
   140002321:	50                   	push   rax
   140002322:	48 b8 01 00 00 00 00 	movabs rax,0x1
   140002329:	00 00 00 
   14000232c:	50                   	push   rax
   14000232d:	59                   	pop    rcx
   14000232e:	58                   	pop    rax
   14000232f:	48 01 c8             	add    rax,rcx
   140002332:	50                   	push   rax
   140002333:	58                   	pop    rax
   140002334:	48 89 45 e8          	mov    QWORD PTR [rbp-0x18],rax
   140002338:	e9 6f ff ff ff       	jmp    1400022ac <L_p_iii_hexad_compose6+0x1a4>
   14000233d:	48 8d 05 1c 3f 01 00 	lea    rax,[rip+0x13f1c]        # 140016260 <L_p_HXA_TO>
   140002344:	50                   	push   rax
   140002345:	58                   	pop    rax
   140002346:	50                   	push   rax
   140002347:	59                   	pop    rcx
   140002348:	48 83 ec 20          	sub    rsp,0x20
   14000234c:	e8 70 f9 ff ff       	call   140001cc1 <L_p_iii_hexad_pack6>
   140002351:	48 83 c4 20          	add    rsp,0x20
   140002355:	50                   	push   rax
   140002356:	58                   	pop    rax
   140002357:	50                   	push   rax
   140002358:	50                   	push   rax
   140002359:	48 c7 c1 02 00 00 00 	mov    rcx,0x2
   140002360:	48 83 ec 20          	sub    rsp,0x20
   140002364:	e8 87 eb 00 00       	call   140010ef0 <iii_witness_emit_kernel>
   140002369:	48 83 c4 20          	add    rsp,0x20
   14000236d:	58                   	pop    rax
   14000236e:	58                   	pop    rax
   14000236f:	48 89 ec             	mov    rsp,rbp
   140002372:	5d                   	pop    rbp
   140002373:	c3                   	ret

0000000140002374 <L_p_iii_hexad_add>:
   140002374:	55                   	push   rbp
   140002375:	48 89 e5             	mov    rbp,rsp
   140002378:	48 81 ec 00 04 00 00 	sub    rsp,0x400
   14000237f:	48 89 4d f8          	mov    QWORD PTR [rbp-0x8],rcx
   140002383:	48 89 55 f0          	mov    QWORD PTR [rbp-0x10],rdx
   140002387:	48 c7 c1 01 00 00 00 	mov    rcx,0x1
   14000238e:	48 83 ec 20          	sub    rsp,0x20
   140002392:	e8 59 eb 00 00       	call   140010ef0 <iii_witness_emit_kernel>
   140002397:	48 83 c4 20          	add    rsp,0x20
   14000239b:	48 8b 45 f8          	mov    rax,QWORD PTR [rbp-0x8]
   14000239f:	50                   	push   rax
   1400023a0:	48 8d 05 59 3e 01 00 	lea    rax,[rip+0x13e59]        # 140016200 <L_p_HXA_TA>
   1400023a7:	50                   	push   rax
   1400023a8:	58                   	pop    rax
   1400023a9:	50                   	push   rax
   1400023aa:	5a                   	pop    rdx
   1400023ab:	59                   	pop    rcx
   1400023ac:	48 83 ec 20          	sub    rsp,0x20
   1400023b0:	e8 37 fa ff ff       	call   140001dec <L_p_iii_hexad_unpack6>
   1400023b5:	48 83 c4 20          	add    rsp,0x20
   1400023b9:	50                   	push   rax
   1400023ba:	48 b8 00 00 00 00 00 	movabs rax,0x0
   1400023c1:	00 00 00 
   1400023c4:	50                   	push   rax
   1400023c5:	59                   	pop    rcx
   1400023c6:	58                   	pop    rax
   1400023c7:	48 39 c8             	cmp    rax,rcx
   1400023ca:	0f 94 c0             	sete   al
   1400023cd:	48 0f b6 c0          	movzx  rax,al
   1400023d1:	50                   	push   rax
   1400023d2:	58                   	pop    rax
   1400023d3:	48 85 c0             	test   rax,rax
   1400023d6:	74 29                	je     140002401 <L_p_iii_hexad_add+0x8d>
   1400023d8:	48 b8 00 00 00 00 00 	movabs rax,0x0
   1400023df:	00 00 00 
   1400023e2:	50                   	push   rax
   1400023e3:	58                   	pop    rax
   1400023e4:	50                   	push   rax
   1400023e5:	50                   	push   rax
   1400023e6:	48 c7 c1 02 00 00 00 	mov    rcx,0x2
   1400023ed:	48 83 ec 20          	sub    rsp,0x20
   1400023f1:	e8 fa ea 00 00       	call   140010ef0 <iii_witness_emit_kernel>
   1400023f6:	48 83 c4 20          	add    rsp,0x20
   1400023fa:	58                   	pop    rax
   1400023fb:	58                   	pop    rax
   1400023fc:	48 89 ec             	mov    rsp,rbp
   1400023ff:	5d                   	pop    rbp
   140002400:	c3                   	ret
   140002401:	48 8b 45 f0          	mov    rax,QWORD PTR [rbp-0x10]
   140002405:	50                   	push   rax
   140002406:	48 8d 05 23 3e 01 00 	lea    rax,[rip+0x13e23]        # 140016230 <L_p_HXA_TB>
   14000240d:	50                   	push   rax
   14000240e:	58                   	pop    rax
   14000240f:	50                   	push   rax
   140002410:	5a                   	pop    rdx
   140002411:	59                   	pop    rcx
   140002412:	48 83 ec 20          	sub    rsp,0x20
   140002416:	e8 d1 f9 ff ff       	call   140001dec <L_p_iii_hexad_unpack6>
   14000241b:	48 83 c4 20          	add    rsp,0x20
   14000241f:	50                   	push   rax
   140002420:	48 b8 00 00 00 00 00 	movabs rax,0x0
   140002427:	00 00 00 
   14000242a:	50                   	push   rax
   14000242b:	59                   	pop    rcx
   14000242c:	58                   	pop    rax
   14000242d:	48 39 c8             	cmp    rax,rcx
   140002430:	0f 94 c0             	sete   al
   140002433:	48 0f b6 c0          	movzx  rax,al
   140002437:	50                   	push   rax
   140002438:	58                   	pop    rax
   140002439:	48 85 c0             	test   rax,rax
   14000243c:	74 29                	je     140002467 <L_p_iii_hexad_add+0xf3>
   14000243e:	48 b8 00 00 00 00 00 	movabs rax,0x0
   140002445:	00 00 00 
   140002448:	50                   	push   rax
   140002449:	58                   	pop    rax
   14000244a:	50                   	push   rax
   14000244b:	50                   	push   rax
   14000244c:	48 c7 c1 02 00 00 00 	mov    rcx,0x2
   140002453:	48 83 ec 20          	sub    rsp,0x20
   140002457:	e8 94 ea 00 00       	call   140010ef0 <iii_witness_emit_kernel>
   14000245c:	48 83 c4 20          	add    rsp,0x20
   140002460:	58                   	pop    rax
   140002461:	58                   	pop    rax
   140002462:	48 89 ec             	mov    rsp,rbp
   140002465:	5d                   	pop    rbp
   140002466:	c3                   	ret
   140002467:	48 b8 00 00 00 00 00 	movabs rax,0x0
   14000246e:	00 00 00 
   140002471:	50                   	push   rax
   140002472:	58                   	pop    rax
   140002473:	48 89 45 e8          	mov    QWORD PTR [rbp-0x18],rax
   140002477:	48 8b 45 e8          	mov    rax,QWORD PTR [rbp-0x18]
   14000247b:	50                   	push   rax
   14000247c:	48 b8 06 00 00 00 00 	movabs rax,0x6
   140002483:	00 00 00 
   140002486:	50                   	push   rax
   140002487:	59                   	pop    rcx
   140002488:	58                   	pop    rax
   140002489:	48 39 c8             	cmp    rax,rcx
   14000248c:	0f 9c c0             	setl   al
   14000248f:	48 0f b6 c0          	movzx  rax,al
   140002493:	50                   	push   rax
   140002494:	58                   	pop    rax
   140002495:	48 85 c0             	test   rax,rax
   140002498:	74 6e                	je     140002508 <L_p_iii_hexad_add+0x194>
   14000249a:	48 8d 05 5f 3d 01 00 	lea    rax,[rip+0x13d5f]        # 140016200 <L_p_HXA_TA>
   1400024a1:	50                   	push   rax
   1400024a2:	48 8b 45 e8          	mov    rax,QWORD PTR [rbp-0x18]
   1400024a6:	50                   	push   rax
   1400024a7:	59                   	pop    rcx
   1400024a8:	58                   	pop    rax
   1400024a9:	48 8b 04 c8          	mov    rax,QWORD PTR [rax+rcx*8]
   1400024ad:	50                   	push   rax
   1400024ae:	48 8d 05 7b 3d 01 00 	lea    rax,[rip+0x13d7b]        # 140016230 <L_p_HXA_TB>
   1400024b5:	50                   	push   rax
   1400024b6:	48 8b 45 e8          	mov    rax,QWORD PTR [rbp-0x18]
   1400024ba:	50                   	push   rax
   1400024bb:	59                   	pop    rcx
   1400024bc:	58                   	pop    rax
   1400024bd:	48 8b 04 c8          	mov    rax,QWORD PTR [rax+rcx*8]
   1400024c1:	50                   	push   rax
   1400024c2:	5a                   	pop    rdx
   1400024c3:	59                   	pop    rcx
   1400024c4:	48 83 ec 20          	sub    rsp,0x20
   1400024c8:	e8 2d f6 ff ff       	call   140001afa <L_p_iii_trit_sum>
   1400024cd:	48 83 c4 20          	add    rsp,0x20
   1400024d1:	50                   	push   rax
   1400024d2:	58                   	pop    rax
   1400024d3:	50                   	push   rax
   1400024d4:	48 8d 05 85 3d 01 00 	lea    rax,[rip+0x13d85]        # 140016260 <L_p_HXA_TO>
   1400024db:	50                   	push   rax
   1400024dc:	48 8b 45 e8          	mov    rax,QWORD PTR [rbp-0x18]
   1400024e0:	50                   	push   rax
   1400024e1:	59                   	pop    rcx
   1400024e2:	58                   	pop    rax
   1400024e3:	5a                   	pop    rdx
   1400024e4:	48 89 14 c8          	mov    QWORD PTR [rax+rcx*8],rdx
   1400024e8:	48 8b 45 e8          	mov    rax,QWORD PTR [rbp-0x18]
   1400024ec:	50                   	push   rax
   1400024ed:	48 b8 01 00 00 00 00 	movabs rax,0x1
   1400024f4:	00 00 00 
   1400024f7:	50                   	push   rax
   1400024f8:	59                   	pop    rcx
   1400024f9:	58                   	pop    rax
   1400024fa:	48 01 c8             	add    rax,rcx
   1400024fd:	50                   	push   rax
   1400024fe:	58                   	pop    rax
   1400024ff:	48 89 45 e8          	mov    QWORD PTR [rbp-0x18],rax
   140002503:	e9 6f ff ff ff       	jmp    140002477 <L_p_iii_hexad_add+0x103>
   140002508:	48 8d 05 51 3d 01 00 	lea    rax,[rip+0x13d51]        # 140016260 <L_p_HXA_TO>
   14000250f:	50                   	push   rax
   140002510:	58                   	pop    rax
   140002511:	50                   	push   rax
   140002512:	59                   	pop    rcx
   140002513:	48 83 ec 20          	sub    rsp,0x20
   140002517:	e8 a5 f7 ff ff       	call   140001cc1 <L_p_iii_hexad_pack6>
   14000251c:	48 83 c4 20          	add    rsp,0x20
   140002520:	50                   	push   rax
   140002521:	58                   	pop    rax
   140002522:	50                   	push   rax
   140002523:	50                   	push   rax
   140002524:	48 c7 c1 02 00 00 00 	mov    rcx,0x2
   14000252b:	48 83 ec 20          	sub    rsp,0x20
   14000252f:	e8 bc e9 00 00       	call   140010ef0 <iii_witness_emit_kernel>
   140002534:	48 83 c4 20          	add    rsp,0x20
   140002538:	58                   	pop    rax
   140002539:	58                   	pop    rax
   14000253a:	48 89 ec             	mov    rsp,rbp
   14000253d:	5d                   	pop    rbp
   14000253e:	c3                   	ret

000000014000253f <L_p_iii_hexad_sub>:
   14000253f:	55                   	push   rbp
   140002540:	48 89 e5             	mov    rbp,rsp
   140002543:	48 81 ec 00 04 00 00 	sub    rsp,0x400
   14000254a:	48 89 4d f8          	mov    QWORD PTR [rbp-0x8],rcx
   14000254e:	48 89 55 f0          	mov    QWORD PTR [rbp-0x10],rdx
   140002552:	48 c7 c1 01 00 00 00 	mov    rcx,0x1
   140002559:	48 83 ec 20          	sub    rsp,0x20
   14000255d:	e8 8e e9 00 00       	call   140010ef0 <iii_witness_emit_kernel>
   140002562:	48 83 c4 20          	add    rsp,0x20
   140002566:	48 8b 45 f8          	mov    rax,QWORD PTR [rbp-0x8]
   14000256a:	50                   	push   rax
   14000256b:	48 8d 05 8e 3c 01 00 	lea    rax,[rip+0x13c8e]        # 140016200 <L_p_HXA_TA>
   140002572:	50                   	push   rax
   140002573:	58                   	pop    rax
   140002574:	50                   	push   rax
   140002575:	5a                   	pop    rdx
   140002576:	59                   	pop    rcx
   140002577:	48 83 ec 20          	sub    rsp,0x20
   14000257b:	e8 6c f8 ff ff       	call   140001dec <L_p_iii_hexad_unpack6>
   140002580:	48 83 c4 20          	add    rsp,0x20
   140002584:	50                   	push   rax
   140002585:	48 b8 00 00 00 00 00 	movabs rax,0x0
   14000258c:	00 00 00 
   14000258f:	50                   	push   rax
   140002590:	59                   	pop    rcx
   140002591:	58                   	pop    rax
   140002592:	48 39 c8             	cmp    rax,rcx
   140002595:	0f 94 c0             	sete   al
   140002598:	48 0f b6 c0          	movzx  rax,al
   14000259c:	50                   	push   rax
   14000259d:	58                   	pop    rax
   14000259e:	48 85 c0             	test   rax,rax
   1400025a1:	74 29                	je     1400025cc <L_p_iii_hexad_sub+0x8d>
   1400025a3:	48 b8 00 00 00 00 00 	movabs rax,0x0
   1400025aa:	00 00 00 
   1400025ad:	50                   	push   rax
   1400025ae:	58                   	pop    rax
   1400025af:	50                   	push   rax
   1400025b0:	50                   	push   rax
   1400025b1:	48 c7 c1 02 00 00 00 	mov    rcx,0x2
   1400025b8:	48 83 ec 20          	sub    rsp,0x20
   1400025bc:	e8 2f e9 00 00       	call   140010ef0 <iii_witness_emit_kernel>
   1400025c1:	48 83 c4 20          	add    rsp,0x20
   1400025c5:	58                   	pop    rax
   1400025c6:	58                   	pop    rax
   1400025c7:	48 89 ec             	mov    rsp,rbp
   1400025ca:	5d                   	pop    rbp
   1400025cb:	c3                   	ret
   1400025cc:	48 8b 45 f0          	mov    rax,QWORD PTR [rbp-0x10]
   1400025d0:	50                   	push   rax
   1400025d1:	48 8d 05 58 3c 01 00 	lea    rax,[rip+0x13c58]        # 140016230 <L_p_HXA_TB>
   1400025d8:	50                   	push   rax
   1400025d9:	58                   	pop    rax
   1400025da:	50                   	push   rax
   1400025db:	5a                   	pop    rdx
   1400025dc:	59                   	pop    rcx
   1400025dd:	48 83 ec 20          	sub    rsp,0x20
   1400025e1:	e8 06 f8 ff ff       	call   140001dec <L_p_iii_hexad_unpack6>
   1400025e6:	48 83 c4 20          	add    rsp,0x20
   1400025ea:	50                   	push   rax
   1400025eb:	48 b8 00 00 00 00 00 	movabs rax,0x0
   1400025f2:	00 00 00 
   1400025f5:	50                   	push   rax
   1400025f6:	59                   	pop    rcx
   1400025f7:	58                   	pop    rax
   1400025f8:	48 39 c8             	cmp    rax,rcx
   1400025fb:	0f 94 c0             	sete   al
   1400025fe:	48 0f b6 c0          	movzx  rax,al
   140002602:	50                   	push   rax
   140002603:	58                   	pop    rax
   140002604:	48 85 c0             	test   rax,rax
   140002607:	74 29                	je     140002632 <L_p_iii_hexad_sub+0xf3>
   140002609:	48 b8 00 00 00 00 00 	movabs rax,0x0
   140002610:	00 00 00 
   140002613:	50                   	push   rax
   140002614:	58                   	pop    rax
   140002615:	50                   	push   rax
   140002616:	50                   	push   rax
   140002617:	48 c7 c1 02 00 00 00 	mov    rcx,0x2
   14000261e:	48 83 ec 20          	sub    rsp,0x20
   140002622:	e8 c9 e8 00 00       	call   140010ef0 <iii_witness_emit_kernel>
   140002627:	48 83 c4 20          	add    rsp,0x20
   14000262b:	58                   	pop    rax
   14000262c:	58                   	pop    rax
   14000262d:	48 89 ec             	mov    rsp,rbp
   140002630:	5d                   	pop    rbp
   140002631:	c3                   	ret
   140002632:	48 b8 00 00 00 00 00 	movabs rax,0x0
   140002639:	00 00 00 
   14000263c:	50                   	push   rax
   14000263d:	58                   	pop    rax
   14000263e:	48 89 45 e8          	mov    QWORD PTR [rbp-0x18],rax
   140002642:	48 8b 45 e8          	mov    rax,QWORD PTR [rbp-0x18]
   140002646:	50                   	push   rax
   140002647:	48 b8 06 00 00 00 00 	movabs rax,0x6
   14000264e:	00 00 00 
   140002651:	50                   	push   rax
   140002652:	59                   	pop    rcx
   140002653:	58                   	pop    rax
   140002654:	48 39 c8             	cmp    rax,rcx
   140002657:	0f 9c c0             	setl   al
   14000265a:	48 0f b6 c0          	movzx  rax,al
   14000265e:	50                   	push   rax
   14000265f:	58                   	pop    rax
   140002660:	48 85 c0             	test   rax,rax
   140002663:	74 6e                	je     1400026d3 <L_p_iii_hexad_sub+0x194>
   140002665:	48 8d 05 94 3b 01 00 	lea    rax,[rip+0x13b94]        # 140016200 <L_p_HXA_TA>
   14000266c:	50                   	push   rax
   14000266d:	48 8b 45 e8          	mov    rax,QWORD PTR [rbp-0x18]
   140002671:	50                   	push   rax
   140002672:	59                   	pop    rcx
   140002673:	58                   	pop    rax
   140002674:	48 8b 04 c8          	mov    rax,QWORD PTR [rax+rcx*8]
   140002678:	50                   	push   rax
   140002679:	48 8d 05 b0 3b 01 00 	lea    rax,[rip+0x13bb0]        # 140016230 <L_p_HXA_TB>
   140002680:	50                   	push   rax
   140002681:	48 8b 45 e8          	mov    rax,QWORD PTR [rbp-0x18]
   140002685:	50                   	push   rax
   140002686:	59                   	pop    rcx
   140002687:	58                   	pop    rax
   140002688:	48 8b 04 c8          	mov    rax,QWORD PTR [rax+rcx*8]
   14000268c:	50                   	push   rax
   14000268d:	5a                   	pop    rdx
   14000268e:	59                   	pop    rcx
   14000268f:	48 83 ec 20          	sub    rsp,0x20
   140002693:	e8 b9 f5 ff ff       	call   140001c51 <L_p_iii_trit_sub>
   140002698:	48 83 c4 20          	add    rsp,0x20
   14000269c:	50                   	push   rax
   14000269d:	58                   	pop    rax
   14000269e:	50                   	push   rax
   14000269f:	48 8d 05 ba 3b 01 00 	lea    rax,[rip+0x13bba]        # 140016260 <L_p_HXA_TO>
   1400026a6:	50                   	push   rax
   1400026a7:	48 8b 45 e8          	mov    rax,QWORD PTR [rbp-0x18]
   1400026ab:	50                   	push   rax
   1400026ac:	59                   	pop    rcx
   1400026ad:	58                   	pop    rax
   1400026ae:	5a                   	pop    rdx
   1400026af:	48 89 14 c8          	mov    QWORD PTR [rax+rcx*8],rdx
   1400026b3:	48 8b 45 e8          	mov    rax,QWORD PTR [rbp-0x18]
   1400026b7:	50                   	push   rax
   1400026b8:	48 b8 01 00 00 00 00 	movabs rax,0x1
   1400026bf:	00 00 00 
   1400026c2:	50                   	push   rax
   1400026c3:	59                   	pop    rcx
   1400026c4:	58                   	pop    rax
   1400026c5:	48 01 c8             	add    rax,rcx
   1400026c8:	50                   	push   rax
   1400026c9:	58                   	pop    rax
   1400026ca:	48 89 45 e8          	mov    QWORD PTR [rbp-0x18],rax
   1400026ce:	e9 6f ff ff ff       	jmp    140002642 <L_p_iii_hexad_sub+0x103>
   1400026d3:	48 8d 05 86 3b 01 00 	lea    rax,[rip+0x13b86]        # 140016260 <L_p_HXA_TO>
   1400026da:	50                   	push   rax
   1400026db:	58                   	pop    rax
   1400026dc:	50                   	push   rax
   1400026dd:	59                   	pop    rcx
   1400026de:	48 83 ec 20          	sub    rsp,0x20
   1400026e2:	e8 da f5 ff ff       	call   140001cc1 <L_p_iii_hexad_pack6>
   1400026e7:	48 83 c4 20          	add    rsp,0x20
   1400026eb:	50                   	push   rax
   1400026ec:	58                   	pop    rax
   1400026ed:	50                   	push   rax
   1400026ee:	50                   	push   rax
   1400026ef:	48 c7 c1 02 00 00 00 	mov    rcx,0x2
   1400026f6:	48 83 ec 20          	sub    rsp,0x20
   1400026fa:	e8 f1 e7 00 00       	call   140010ef0 <iii_witness_emit_kernel>
   1400026ff:	48 83 c4 20          	add    rsp,0x20
   140002703:	58                   	pop    rax
   140002704:	58                   	pop    rax
   140002705:	48 89 ec             	mov    rsp,rbp
   140002708:	5d                   	pop    rbp
   140002709:	c3                   	ret

000000014000270a <L_p_iii_hexad_mul>:
   14000270a:	55                   	push   rbp
   14000270b:	48 89 e5             	mov    rbp,rsp
   14000270e:	48 81 ec 00 04 00 00 	sub    rsp,0x400
   140002715:	48 89 4d f8          	mov    QWORD PTR [rbp-0x8],rcx
   140002719:	48 89 55 f0          	mov    QWORD PTR [rbp-0x10],rdx
   14000271d:	48 c7 c1 01 00 00 00 	mov    rcx,0x1
   140002724:	48 83 ec 20          	sub    rsp,0x20
   140002728:	e8 c3 e7 00 00       	call   140010ef0 <iii_witness_emit_kernel>
   14000272d:	48 83 c4 20          	add    rsp,0x20
   140002731:	48 8b 45 f8          	mov    rax,QWORD PTR [rbp-0x8]
   140002735:	50                   	push   rax
   140002736:	48 8d 05 c3 3a 01 00 	lea    rax,[rip+0x13ac3]        # 140016200 <L_p_HXA_TA>
   14000273d:	50                   	push   rax
   14000273e:	58                   	pop    rax
   14000273f:	50                   	push   rax
   140002740:	5a                   	pop    rdx
   140002741:	59                   	pop    rcx
   140002742:	48 83 ec 20          	sub    rsp,0x20
   140002746:	e8 a1 f6 ff ff       	call   140001dec <L_p_iii_hexad_unpack6>
   14000274b:	48 83 c4 20          	add    rsp,0x20
   14000274f:	50                   	push   rax
   140002750:	48 b8 00 00 00 00 00 	movabs rax,0x0
   140002757:	00 00 00 
   14000275a:	50                   	push   rax
   14000275b:	59                   	pop    rcx
   14000275c:	58                   	pop    rax
   14000275d:	48 39 c8             	cmp    rax,rcx
   140002760:	0f 94 c0             	sete   al
   140002763:	48 0f b6 c0          	movzx  rax,al
   140002767:	50                   	push   rax
   140002768:	58                   	pop    rax
   140002769:	48 85 c0             	test   rax,rax
   14000276c:	74 29                	je     140002797 <L_p_iii_hexad_mul+0x8d>
   14000276e:	48 b8 00 00 00 00 00 	movabs rax,0x0
   140002775:	00 00 00 
   140002778:	50                   	push   rax
   140002779:	58                   	pop    rax
   14000277a:	50                   	push   rax
   14000277b:	50                   	push   rax
   14000277c:	48 c7 c1 02 00 00 00 	mov    rcx,0x2
   140002783:	48 83 ec 20          	sub    rsp,0x20
   140002787:	e8 64 e7 00 00       	call   140010ef0 <iii_witness_emit_kernel>
   14000278c:	48 83 c4 20          	add    rsp,0x20
   140002790:	58                   	pop    rax
   140002791:	58                   	pop    rax
   140002792:	48 89 ec             	mov    rsp,rbp
   140002795:	5d                   	pop    rbp
   140002796:	c3                   	ret
   140002797:	48 8b 45 f0          	mov    rax,QWORD PTR [rbp-0x10]
   14000279b:	50                   	push   rax
   14000279c:	48 8d 05 8d 3a 01 00 	lea    rax,[rip+0x13a8d]        # 140016230 <L_p_HXA_TB>
   1400027a3:	50                   	push   rax
   1400027a4:	58                   	pop    rax
   1400027a5:	50                   	push   rax
   1400027a6:	5a                   	pop    rdx
   1400027a7:	59                   	pop    rcx
   1400027a8:	48 83 ec 20          	sub    rsp,0x20
   1400027ac:	e8 3b f6 ff ff       	call   140001dec <L_p_iii_hexad_unpack6>
   1400027b1:	48 83 c4 20          	add    rsp,0x20
   1400027b5:	50                   	push   rax
   1400027b6:	48 b8 00 00 00 00 00 	movabs rax,0x0
   1400027bd:	00 00 00 
   1400027c0:	50                   	push   rax
   1400027c1:	59                   	pop    rcx
   1400027c2:	58                   	pop    rax
   1400027c3:	48 39 c8             	cmp    rax,rcx
   1400027c6:	0f 94 c0             	sete   al
   1400027c9:	48 0f b6 c0          	movzx  rax,al
   1400027cd:	50                   	push   rax
   1400027ce:	58                   	pop    rax
   1400027cf:	48 85 c0             	test   rax,rax
   1400027d2:	74 29                	je     1400027fd <L_p_iii_hexad_mul+0xf3>
   1400027d4:	48 b8 00 00 00 00 00 	movabs rax,0x0
   1400027db:	00 00 00 
   1400027de:	50                   	push   rax
   1400027df:	58                   	pop    rax
   1400027e0:	50                   	push   rax
   1400027e1:	50                   	push   rax
   1400027e2:	48 c7 c1 02 00 00 00 	mov    rcx,0x2
   1400027e9:	48 83 ec 20          	sub    rsp,0x20
   1400027ed:	e8 fe e6 00 00       	call   140010ef0 <iii_witness_emit_kernel>
   1400027f2:	48 83 c4 20          	add    rsp,0x20
   1400027f6:	58                   	pop    rax
   1400027f7:	58                   	pop    rax
   1400027f8:	48 89 ec             	mov    rsp,rbp
   1400027fb:	5d                   	pop    rbp
   1400027fc:	c3                   	ret
   1400027fd:	48 b8 00 00 00 00 00 	movabs rax,0x0
   140002804:	00 00 00 
   140002807:	50                   	push   rax
   140002808:	58                   	pop    rax
   140002809:	48 89 45 e8          	mov    QWORD PTR [rbp-0x18],rax
   14000280d:	48 8b 45 e8          	mov    rax,QWORD PTR [rbp-0x18]
   140002811:	50                   	push   rax
   140002812:	48 b8 06 00 00 00 00 	movabs rax,0x6
   140002819:	00 00 00 
   14000281c:	50                   	push   rax
   14000281d:	59                   	pop    rcx
   14000281e:	58                   	pop    rax
   14000281f:	48 39 c8             	cmp    rax,rcx
   140002822:	0f 9c c0             	setl   al
   140002825:	48 0f b6 c0          	movzx  rax,al
   140002829:	50                   	push   rax
   14000282a:	58                   	pop    rax
   14000282b:	48 85 c0             	test   rax,rax
   14000282e:	74 6e                	je     14000289e <L_p_iii_hexad_mul+0x194>
   140002830:	48 8d 05 c9 39 01 00 	lea    rax,[rip+0x139c9]        # 140016200 <L_p_HXA_TA>
   140002837:	50                   	push   rax
   140002838:	48 8b 45 e8          	mov    rax,QWORD PTR [rbp-0x18]
   14000283c:	50                   	push   rax
   14000283d:	59                   	pop    rcx
   14000283e:	58                   	pop    rax
   14000283f:	48 8b 04 c8          	mov    rax,QWORD PTR [rax+rcx*8]
   140002843:	50                   	push   rax
   140002844:	48 8d 05 e5 39 01 00 	lea    rax,[rip+0x139e5]        # 140016230 <L_p_HXA_TB>
   14000284b:	50                   	push   rax
   14000284c:	48 8b 45 e8          	mov    rax,QWORD PTR [rbp-0x18]
   140002850:	50                   	push   rax
   140002851:	59                   	pop    rcx
   140002852:	58                   	pop    rax
   140002853:	48 8b 04 c8          	mov    rax,QWORD PTR [rax+rcx*8]
   140002857:	50                   	push   rax
   140002858:	5a                   	pop    rdx
   140002859:	59                   	pop    rcx
   14000285a:	48 83 ec 20          	sub    rsp,0x20
   14000285e:	e8 98 f3 ff ff       	call   140001bfb <L_p_iii_trit_mul>
   140002863:	48 83 c4 20          	add    rsp,0x20
   140002867:	50                   	push   rax
   140002868:	58                   	pop    rax
   140002869:	50                   	push   rax
   14000286a:	48 8d 05 ef 39 01 00 	lea    rax,[rip+0x139ef]        # 140016260 <L_p_HXA_TO>
   140002871:	50                   	push   rax
   140002872:	48 8b 45 e8          	mov    rax,QWORD PTR [rbp-0x18]
   140002876:	50                   	push   rax
   140002877:	59                   	pop    rcx
   140002878:	58                   	pop    rax
   140002879:	5a                   	pop    rdx
   14000287a:	48 89 14 c8          	mov    QWORD PTR [rax+rcx*8],rdx
   14000287e:	48 8b 45 e8          	mov    rax,QWORD PTR [rbp-0x18]
   140002882:	50                   	push   rax
   140002883:	48 b8 01 00 00 00 00 	movabs rax,0x1
   14000288a:	00 00 00 
   14000288d:	50                   	push   rax
   14000288e:	59                   	pop    rcx
   14000288f:	58                   	pop    rax
   140002890:	48 01 c8             	add    rax,rcx
   140002893:	50                   	push   rax
   140002894:	58                   	pop    rax
   140002895:	48 89 45 e8          	mov    QWORD PTR [rbp-0x18],rax
   140002899:	e9 6f ff ff ff       	jmp    14000280d <L_p_iii_hexad_mul+0x103>
   14000289e:	48 8d 05 bb 39 01 00 	lea    rax,[rip+0x139bb]        # 140016260 <L_p_HXA_TO>
   1400028a5:	50                   	push   rax
   1400028a6:	58                   	pop    rax
   1400028a7:	50                   	push   rax
   1400028a8:	59                   	pop    rcx
   1400028a9:	48 83 ec 20          	sub    rsp,0x20
   1400028ad:	e8 0f f4 ff ff       	call   140001cc1 <L_p_iii_hexad_pack6>
   1400028b2:	48 83 c4 20          	add    rsp,0x20
   1400028b6:	50                   	push   rax
   1400028b7:	58                   	pop    rax
   1400028b8:	50                   	push   rax
   1400028b9:	50                   	push   rax
   1400028ba:	48 c7 c1 02 00 00 00 	mov    rcx,0x2
   1400028c1:	48 83 ec 20          	sub    rsp,0x20
   1400028c5:	e8 26 e6 00 00       	call   140010ef0 <iii_witness_emit_kernel>
   1400028ca:	48 83 c4 20          	add    rsp,0x20
   1400028ce:	58                   	pop    rax
   1400028cf:	58                   	pop    rax
   1400028d0:	48 89 ec             	mov    rsp,rbp
   1400028d3:	5d                   	pop    rbp
   1400028d4:	c3                   	ret

00000001400028d5 <L_p_iii_hexad_neg6>:
   1400028d5:	55                   	push   rbp
   1400028d6:	48 89 e5             	mov    rbp,rsp
   1400028d9:	48 81 ec 00 04 00 00 	sub    rsp,0x400
   1400028e0:	48 89 4d f8          	mov    QWORD PTR [rbp-0x8],rcx
   1400028e4:	48 c7 c1 01 00 00 00 	mov    rcx,0x1
   1400028eb:	48 83 ec 20          	sub    rsp,0x20
   1400028ef:	e8 fc e5 00 00       	call   140010ef0 <iii_witness_emit_kernel>
   1400028f4:	48 83 c4 20          	add    rsp,0x20
   1400028f8:	48 8b 45 f8          	mov    rax,QWORD PTR [rbp-0x8]
   1400028fc:	50                   	push   rax
   1400028fd:	48 8d 05 fc 38 01 00 	lea    rax,[rip+0x138fc]        # 140016200 <L_p_HXA_TA>
   140002904:	50                   	push   rax
   140002905:	58                   	pop    rax
   140002906:	50                   	push   rax
   140002907:	5a                   	pop    rdx
   140002908:	59                   	pop    rcx
   140002909:	48 83 ec 20          	sub    rsp,0x20
   14000290d:	e8 da f4 ff ff       	call   140001dec <L_p_iii_hexad_unpack6>
   140002912:	48 83 c4 20          	add    rsp,0x20
   140002916:	50                   	push   rax
   140002917:	48 b8 00 00 00 00 00 	movabs rax,0x0
   14000291e:	00 00 00 
   140002921:	50                   	push   rax
   140002922:	59                   	pop    rcx
   140002923:	58                   	pop    rax
   140002924:	48 39 c8             	cmp    rax,rcx
   140002927:	0f 94 c0             	sete   al
   14000292a:	48 0f b6 c0          	movzx  rax,al
   14000292e:	50                   	push   rax
   14000292f:	58                   	pop    rax
   140002930:	48 85 c0             	test   rax,rax
   140002933:	74 29                	je     14000295e <L_p_iii_hexad_neg6+0x89>
   140002935:	48 b8 00 00 00 00 00 	movabs rax,0x0
   14000293c:	00 00 00 
   14000293f:	50                   	push   rax
   140002940:	58                   	pop    rax
   140002941:	50                   	push   rax
   140002942:	50                   	push   rax
   140002943:	48 c7 c1 02 00 00 00 	mov    rcx,0x2
   14000294a:	48 83 ec 20          	sub    rsp,0x20
   14000294e:	e8 9d e5 00 00       	call   140010ef0 <iii_witness_emit_kernel>
   140002953:	48 83 c4 20          	add    rsp,0x20
   140002957:	58                   	pop    rax
   140002958:	58                   	pop    rax
   140002959:	48 89 ec             	mov    rsp,rbp
   14000295c:	5d                   	pop    rbp
   14000295d:	c3                   	ret
   14000295e:	48 b8 00 00 00 00 00 	movabs rax,0x0
   140002965:	00 00 00 
   140002968:	50                   	push   rax
   140002969:	58                   	pop    rax
   14000296a:	48 89 45 f0          	mov    QWORD PTR [rbp-0x10],rax
   14000296e:	48 8b 45 f0          	mov    rax,QWORD PTR [rbp-0x10]
   140002972:	50                   	push   rax
   140002973:	48 b8 06 00 00 00 00 	movabs rax,0x6
   14000297a:	00 00 00 
   14000297d:	50                   	push   rax
   14000297e:	59                   	pop    rcx
   14000297f:	58                   	pop    rax
   140002980:	48 39 c8             	cmp    rax,rcx
   140002983:	0f 9c c0             	setl   al
   140002986:	48 0f b6 c0          	movzx  rax,al
   14000298a:	50                   	push   rax
   14000298b:	58                   	pop    rax
   14000298c:	48 85 c0             	test   rax,rax
   14000298f:	74 58                	je     1400029e9 <L_p_iii_hexad_neg6+0x114>
   140002991:	48 b8 00 00 00 00 00 	movabs rax,0x0
   140002998:	00 00 00 
   14000299b:	50                   	push   rax
   14000299c:	48 8d 05 5d 38 01 00 	lea    rax,[rip+0x1385d]        # 140016200 <L_p_HXA_TA>
   1400029a3:	50                   	push   rax
   1400029a4:	48 8b 45 f0          	mov    rax,QWORD PTR [rbp-0x10]
   1400029a8:	50                   	push   rax
   1400029a9:	59                   	pop    rcx
   1400029aa:	58                   	pop    rax
   1400029ab:	48 8b 04 c8          	mov    rax,QWORD PTR [rax+rcx*8]
   1400029af:	50                   	push   rax
   1400029b0:	59                   	pop    rcx
   1400029b1:	58                   	pop    rax
   1400029b2:	48 29 c8             	sub    rax,rcx
   1400029b5:	50                   	push   rax
   1400029b6:	58                   	pop    rax
   1400029b7:	50                   	push   rax
   1400029b8:	48 8d 05 a1 38 01 00 	lea    rax,[rip+0x138a1]        # 140016260 <L_p_HXA_TO>
   1400029bf:	50                   	push   rax
   1400029c0:	48 8b 45 f0          	mov    rax,QWORD PTR [rbp-0x10]
   1400029c4:	50                   	push   rax
   1400029c5:	59                   	pop    rcx
   1400029c6:	58                   	pop    rax
   1400029c7:	5a                   	pop    rdx
   1400029c8:	48 89 14 c8          	mov    QWORD PTR [rax+rcx*8],rdx
   1400029cc:	48 8b 45 f0          	mov    rax,QWORD PTR [rbp-0x10]
   1400029d0:	50                   	push   rax
   1400029d1:	48 b8 01 00 00 00 00 	movabs rax,0x1
   1400029d8:	00 00 00 
   1400029db:	50                   	push   rax
   1400029dc:	59                   	pop    rcx
   1400029dd:	58                   	pop    rax
   1400029de:	48 01 c8             	add    rax,rcx
   1400029e1:	50                   	push   rax
   1400029e2:	58                   	pop    rax
   1400029e3:	48 89 45 f0          	mov    QWORD PTR [rbp-0x10],rax
   1400029e7:	eb 85                	jmp    14000296e <L_p_iii_hexad_neg6+0x99>
   1400029e9:	48 8d 05 70 38 01 00 	lea    rax,[rip+0x13870]        # 140016260 <L_p_HXA_TO>
   1400029f0:	50                   	push   rax
   1400029f1:	58                   	pop    rax
   1400029f2:	50                   	push   rax
   1400029f3:	59                   	pop    rcx
   1400029f4:	48 83 ec 20          	sub    rsp,0x20
   1400029f8:	e8 c4 f2 ff ff       	call   140001cc1 <L_p_iii_hexad_pack6>
   1400029fd:	48 83 c4 20          	add    rsp,0x20
   140002a01:	50                   	push   rax
   140002a02:	58                   	pop    rax
   140002a03:	50                   	push   rax
   140002a04:	50                   	push   rax
   140002a05:	48 c7 c1 02 00 00 00 	mov    rcx,0x2
   140002a0c:	48 83 ec 20          	sub    rsp,0x20
   140002a10:	e8 db e4 00 00       	call   140010ef0 <iii_witness_emit_kernel>
   140002a15:	48 83 c4 20          	add    rsp,0x20
   140002a19:	58                   	pop    rax
   140002a1a:	58                   	pop    rax
   140002a1b:	48 89 ec             	mov    rsp,rbp
   140002a1e:	5d                   	pop    rbp
   140002a1f:	c3                   	ret

0000000140002a20 <L_p_iii_hexad_active_neg>:
   140002a20:	55                   	push   rbp
   140002a21:	48 89 e5             	mov    rbp,rsp
   140002a24:	48 81 ec 00 04 00 00 	sub    rsp,0x400
   140002a2b:	48 89 4d f8          	mov    QWORD PTR [rbp-0x8],rcx
   140002a2f:	48 c7 c1 01 00 00 00 	mov    rcx,0x1
   140002a36:	48 83 ec 20          	sub    rsp,0x20
   140002a3a:	e8 b1 e4 00 00       	call   140010ef0 <iii_witness_emit_kernel>
   140002a3f:	48 83 c4 20          	add    rsp,0x20
   140002a43:	48 8b 45 f8          	mov    rax,QWORD PTR [rbp-0x8]
   140002a47:	50                   	push   rax
   140002a48:	48 8d 05 b1 37 01 00 	lea    rax,[rip+0x137b1]        # 140016200 <L_p_HXA_TA>
   140002a4f:	50                   	push   rax
   140002a50:	58                   	pop    rax
   140002a51:	50                   	push   rax
   140002a52:	5a                   	pop    rdx
   140002a53:	59                   	pop    rcx
   140002a54:	48 83 ec 20          	sub    rsp,0x20
   140002a58:	e8 8f f3 ff ff       	call   140001dec <L_p_iii_hexad_unpack6>
   140002a5d:	48 83 c4 20          	add    rsp,0x20
   140002a61:	50                   	push   rax
   140002a62:	48 b8 00 00 00 00 00 	movabs rax,0x0
   140002a69:	00 00 00 
   140002a6c:	50                   	push   rax
   140002a6d:	59                   	pop    rcx
   140002a6e:	58                   	pop    rax
   140002a6f:	48 39 c8             	cmp    rax,rcx
   140002a72:	0f 94 c0             	sete   al
   140002a75:	48 0f b6 c0          	movzx  rax,al
   140002a79:	50                   	push   rax
   140002a7a:	58                   	pop    rax
   140002a7b:	48 85 c0             	test   rax,rax
   140002a7e:	74 29                	je     140002aa9 <L_p_iii_hexad_active_neg+0x89>
   140002a80:	48 b8 00 00 00 00 00 	movabs rax,0x0
   140002a87:	00 00 00 
   140002a8a:	50                   	push   rax
   140002a8b:	58                   	pop    rax
   140002a8c:	50                   	push   rax
   140002a8d:	50                   	push   rax
   140002a8e:	48 c7 c1 02 00 00 00 	mov    rcx,0x2
   140002a95:	48 83 ec 20          	sub    rsp,0x20
   140002a99:	e8 52 e4 00 00       	call   140010ef0 <iii_witness_emit_kernel>
   140002a9e:	48 83 c4 20          	add    rsp,0x20
   140002aa2:	58                   	pop    rax
   140002aa3:	58                   	pop    rax
   140002aa4:	48 89 ec             	mov    rsp,rbp
   140002aa7:	5d                   	pop    rbp
   140002aa8:	c3                   	ret
   140002aa9:	48 b8 00 00 00 00 00 	movabs rax,0x0
   140002ab0:	00 00 00 
   140002ab3:	50                   	push   rax
   140002ab4:	58                   	pop    rax
   140002ab5:	48 89 45 f0          	mov    QWORD PTR [rbp-0x10],rax
   140002ab9:	48 8b 45 f0          	mov    rax,QWORD PTR [rbp-0x10]
   140002abd:	50                   	push   rax
   140002abe:	48 b8 06 00 00 00 00 	movabs rax,0x6
   140002ac5:	00 00 00 
   140002ac8:	50                   	push   rax
   140002ac9:	59                   	pop    rcx
   140002aca:	58                   	pop    rax
   140002acb:	48 39 c8             	cmp    rax,rcx
   140002ace:	0f 9c c0             	setl   al
   140002ad1:	48 0f b6 c0          	movzx  rax,al
   140002ad5:	50                   	push   rax
   140002ad6:	58                   	pop    rax
   140002ad7:	48 85 c0             	test   rax,rax
   140002ada:	74 47                	je     140002b23 <L_p_iii_hexad_active_neg+0x103>
   140002adc:	48 8d 05 1d 37 01 00 	lea    rax,[rip+0x1371d]        # 140016200 <L_p_HXA_TA>
   140002ae3:	50                   	push   rax
   140002ae4:	48 8b 45 f0          	mov    rax,QWORD PTR [rbp-0x10]
   140002ae8:	50                   	push   rax
   140002ae9:	59                   	pop    rcx
   140002aea:	58                   	pop    rax
   140002aeb:	48 8b 04 c8          	mov    rax,QWORD PTR [rax+rcx*8]
   140002aef:	50                   	push   rax
   140002af0:	58                   	pop    rax
   140002af1:	50                   	push   rax
   140002af2:	48 8d 05 67 37 01 00 	lea    rax,[rip+0x13767]        # 140016260 <L_p_HXA_TO>
   140002af9:	50                   	push   rax
   140002afa:	48 8b 45 f0          	mov    rax,QWORD PTR [rbp-0x10]
   140002afe:	50                   	push   rax
   140002aff:	59                   	pop    rcx
   140002b00:	58                   	pop    rax
   140002b01:	5a                   	pop    rdx
   140002b02:	48 89 14 c8          	mov    QWORD PTR [rax+rcx*8],rdx
   140002b06:	48 8b 45 f0          	mov    rax,QWORD PTR [rbp-0x10]
   140002b0a:	50                   	push   rax
   140002b0b:	48 b8 01 00 00 00 00 	movabs rax,0x1
   140002b12:	00 00 00 
   140002b15:	50                   	push   rax
   140002b16:	59                   	pop    rcx
   140002b17:	58                   	pop    rax
   140002b18:	48 01 c8             	add    rax,rcx
   140002b1b:	50                   	push   rax
   140002b1c:	58                   	pop    rax
   140002b1d:	48 89 45 f0          	mov    QWORD PTR [rbp-0x10],rax
   140002b21:	eb 96                	jmp    140002ab9 <L_p_iii_hexad_active_neg+0x99>
   140002b23:	48 b8 01 00 00 00 00 	movabs rax,0x1
   140002b2a:	00 00 00 
   140002b2d:	50                   	push   rax
   140002b2e:	58                   	pop    rax
   140002b2f:	48 89 45 f0          	mov    QWORD PTR [rbp-0x10],rax
   140002b33:	48 8b 45 f0          	mov    rax,QWORD PTR [rbp-0x10]
   140002b37:	50                   	push   rax
   140002b38:	48 b8 05 00 00 00 00 	movabs rax,0x5
   140002b3f:	00 00 00 
   140002b42:	50                   	push   rax
   140002b43:	59                   	pop    rcx
   140002b44:	58                   	pop    rax
   140002b45:	48 39 c8             	cmp    rax,rcx
   140002b48:	0f 9c c0             	setl   al
   140002b4b:	48 0f b6 c0          	movzx  rax,al
   140002b4f:	50                   	push   rax
   140002b50:	58                   	pop    rax
   140002b51:	48 85 c0             	test   rax,rax
   140002b54:	74 58                	je     140002bae <L_p_iii_hexad_active_neg+0x18e>
   140002b56:	48 b8 00 00 00 00 00 	movabs rax,0x0
   140002b5d:	00 00 00 
   140002b60:	50                   	push   rax
   140002b61:	48 8d 05 98 36 01 00 	lea    rax,[rip+0x13698]        # 140016200 <L_p_HXA_TA>
   140002b68:	50                   	push   rax
   140002b69:	48 8b 45 f0          	mov    rax,QWORD PTR [rbp-0x10]
   140002b6d:	50                   	push   rax
   140002b6e:	59                   	pop    rcx
   140002b6f:	58                   	pop    rax
   140002b70:	48 8b 04 c8          	mov    rax,QWORD PTR [rax+rcx*8]
   140002b74:	50                   	push   rax
   140002b75:	59                   	pop    rcx
   140002b76:	58                   	pop    rax
   140002b77:	48 29 c8             	sub    rax,rcx
   140002b7a:	50                   	push   rax
   140002b7b:	58                   	pop    rax
   140002b7c:	50                   	push   rax
   140002b7d:	48 8d 05 dc 36 01 00 	lea    rax,[rip+0x136dc]        # 140016260 <L_p_HXA_TO>
   140002b84:	50                   	push   rax
   140002b85:	48 8b 45 f0          	mov    rax,QWORD PTR [rbp-0x10]
   140002b89:	50                   	push   rax
   140002b8a:	59                   	pop    rcx
   140002b8b:	58                   	pop    rax
   140002b8c:	5a                   	pop    rdx
   140002b8d:	48 89 14 c8          	mov    QWORD PTR [rax+rcx*8],rdx
   140002b91:	48 8b 45 f0          	mov    rax,QWORD PTR [rbp-0x10]
   140002b95:	50                   	push   rax
   140002b96:	48 b8 01 00 00 00 00 	movabs rax,0x1
   140002b9d:	00 00 00 
   140002ba0:	50                   	push   rax
   140002ba1:	59                   	pop    rcx
   140002ba2:	58                   	pop    rax
   140002ba3:	48 01 c8             	add    rax,rcx
   140002ba6:	50                   	push   rax
   140002ba7:	58                   	pop    rax
   140002ba8:	48 89 45 f0          	mov    QWORD PTR [rbp-0x10],rax
   140002bac:	eb 85                	jmp    140002b33 <L_p_iii_hexad_active_neg+0x113>
   140002bae:	48 8d 05 ab 36 01 00 	lea    rax,[rip+0x136ab]        # 140016260 <L_p_HXA_TO>
   140002bb5:	50                   	push   rax
   140002bb6:	58                   	pop    rax
   140002bb7:	50                   	push   rax
   140002bb8:	59                   	pop    rcx
   140002bb9:	48 83 ec 20          	sub    rsp,0x20
   140002bbd:	e8 ff f0 ff ff       	call   140001cc1 <L_p_iii_hexad_pack6>
   140002bc2:	48 83 c4 20          	add    rsp,0x20
   140002bc6:	50                   	push   rax
   140002bc7:	58                   	pop    rax
   140002bc8:	50                   	push   rax
   140002bc9:	50                   	push   rax
   140002bca:	48 c7 c1 02 00 00 00 	mov    rcx,0x2
   140002bd1:	48 83 ec 20          	sub    rsp,0x20
   140002bd5:	e8 16 e3 00 00       	call   140010ef0 <iii_witness_emit_kernel>
   140002bda:	48 83 c4 20          	add    rsp,0x20
   140002bde:	58                   	pop    rax
   140002bdf:	58                   	pop    rax
   140002be0:	48 89 ec             	mov    rsp,rbp
   140002be3:	5d                   	pop    rbp
   140002be4:	c3                   	ret
   140002be5:	90                   	nop
   140002be6:	90                   	nop
   140002be7:	90                   	nop
   140002be8:	90                   	nop
   140002be9:	90                   	nop
   140002bea:	90                   	nop
   140002beb:	90                   	nop
   140002bec:	90                   	nop
   140002bed:	90                   	nop
   140002bee:	90                   	nop
   140002bef:	90                   	nop

0000000140002bf0 <L_p__hxp_fill>:
   140002bf0:	55                   	push   rbp
   140002bf1:	48 89 e5             	mov    rbp,rsp
   140002bf4:	48 81 ec 00 04 00 00 	sub    rsp,0x400
   140002bfb:	48 89 4d f8          	mov    QWORD PTR [rbp-0x8],rcx
   140002bff:	48 c7 c1 01 00 00 00 	mov    rcx,0x1
   140002c06:	48 83 ec 20          	sub    rsp,0x20
   140002c0a:	e8 e1 e2 00 00       	call   140010ef0 <iii_witness_emit_kernel>
   140002c0f:	48 83 c4 20          	add    rsp,0x20
   140002c13:	48 b8 00 00 00 00 00 	movabs rax,0x0
   140002c1a:	00 00 00 
   140002c1d:	50                   	push   rax
   140002c1e:	58                   	pop    rax
   140002c1f:	50                   	push   rax
   140002c20:	48 8d 05 69 36 01 00 	lea    rax,[rip+0x13669]        # 140016290 <L_p_HXP_PILLARS>
   140002c27:	50                   	push   rax
   140002c28:	48 b8 00 00 00 00 00 	movabs rax,0x0
   140002c2f:	00 00 00 
   140002c32:	50                   	push   rax
   140002c33:	59                   	pop    rcx
   140002c34:	58                   	pop    rax
   140002c35:	5a                   	pop    rdx
   140002c36:	48 89 14 c8          	mov    QWORD PTR [rax+rcx*8],rdx
   140002c3a:	48 b8 00 00 00 00 00 	movabs rax,0x0
   140002c41:	00 00 00 
   140002c44:	50                   	push   rax
   140002c45:	58                   	pop    rax
   140002c46:	50                   	push   rax
   140002c47:	48 8d 05 42 36 01 00 	lea    rax,[rip+0x13642]        # 140016290 <L_p_HXP_PILLARS>
   140002c4e:	50                   	push   rax
   140002c4f:	48 b8 01 00 00 00 00 	movabs rax,0x1
   140002c56:	00 00 00 
   140002c59:	50                   	push   rax
   140002c5a:	59                   	pop    rcx
   140002c5b:	58                   	pop    rax
   140002c5c:	5a                   	pop    rdx
   140002c5d:	48 89 14 c8          	mov    QWORD PTR [rax+rcx*8],rdx
   140002c61:	48 b8 00 00 00 00 00 	movabs rax,0x0
   140002c68:	00 00 00 
   140002c6b:	50                   	push   rax
   140002c6c:	58                   	pop    rax
   140002c6d:	50                   	push   rax
   140002c6e:	48 8d 05 1b 36 01 00 	lea    rax,[rip+0x1361b]        # 140016290 <L_p_HXP_PILLARS>
   140002c75:	50                   	push   rax
   140002c76:	48 b8 02 00 00 00 00 	movabs rax,0x2
   140002c7d:	00 00 00 
   140002c80:	50                   	push   rax
   140002c81:	59                   	pop    rcx
   140002c82:	58                   	pop    rax
   140002c83:	5a                   	pop    rdx
   140002c84:	48 89 14 c8          	mov    QWORD PTR [rax+rcx*8],rdx
   140002c88:	48 b8 00 00 00 00 00 	movabs rax,0x0
   140002c8f:	00 00 00 
   140002c92:	50                   	push   rax
   140002c93:	58                   	pop    rax
   140002c94:	50                   	push   rax
   140002c95:	48 8d 05 f4 35 01 00 	lea    rax,[rip+0x135f4]        # 140016290 <L_p_HXP_PILLARS>
   140002c9c:	50                   	push   rax
   140002c9d:	48 b8 03 00 00 00 00 	movabs rax,0x3
   140002ca4:	00 00 00 
   140002ca7:	50                   	push   rax
   140002ca8:	59                   	pop    rcx
   140002ca9:	58                   	pop    rax
   140002caa:	5a                   	pop    rdx
   140002cab:	48 89 14 c8          	mov    QWORD PTR [rax+rcx*8],rdx
   140002caf:	48 b8 00 00 00 00 00 	movabs rax,0x0
   140002cb6:	00 00 00 
   140002cb9:	50                   	push   rax
   140002cba:	58                   	pop    rax
   140002cbb:	50                   	push   rax
   140002cbc:	48 8d 05 cd 35 01 00 	lea    rax,[rip+0x135cd]        # 140016290 <L_p_HXP_PILLARS>
   140002cc3:	50                   	push   rax
   140002cc4:	48 b8 04 00 00 00 00 	movabs rax,0x4
   140002ccb:	00 00 00 
   140002cce:	50                   	push   rax
   140002ccf:	59                   	pop    rcx
   140002cd0:	58                   	pop    rax
   140002cd1:	5a                   	pop    rdx
   140002cd2:	48 89 14 c8          	mov    QWORD PTR [rax+rcx*8],rdx
   140002cd6:	48 b8 00 00 00 00 00 	movabs rax,0x0
   140002cdd:	00 00 00 
   140002ce0:	50                   	push   rax
   140002ce1:	58                   	pop    rax
   140002ce2:	50                   	push   rax
   140002ce3:	48 8d 05 a6 35 01 00 	lea    rax,[rip+0x135a6]        # 140016290 <L_p_HXP_PILLARS>
   140002cea:	50                   	push   rax
   140002ceb:	48 b8 05 00 00 00 00 	movabs rax,0x5
   140002cf2:	00 00 00 
   140002cf5:	50                   	push   rax
   140002cf6:	59                   	pop    rcx
   140002cf7:	58                   	pop    rax
   140002cf8:	5a                   	pop    rdx
   140002cf9:	48 89 14 c8          	mov    QWORD PTR [rax+rcx*8],rdx
   140002cfd:	48 8b 45 f8          	mov    rax,QWORD PTR [rbp-0x8]
   140002d01:	50                   	push   rax
   140002d02:	48 b8 01 00 00 00 00 	movabs rax,0x1
   140002d09:	00 00 00 
   140002d0c:	50                   	push   rax
   140002d0d:	59                   	pop    rcx
   140002d0e:	58                   	pop    rax
   140002d0f:	48 39 c8             	cmp    rax,rcx
   140002d12:	0f 94 c0             	sete   al
   140002d15:	48 0f b6 c0          	movzx  rax,al
   140002d19:	50                   	push   rax
   140002d1a:	58                   	pop    rax
   140002d1b:	48 85 c0             	test   rax,rax
   140002d1e:	0f 84 d9 00 00 00    	je     140002dfd <L_p__hxp_fill+0x20d>
   140002d24:	48 b8 01 00 00 00 00 	movabs rax,0x1
   140002d2b:	00 00 00 
   140002d2e:	50                   	push   rax
   140002d2f:	58                   	pop    rax
   140002d30:	48 f7 d8             	neg    rax
   140002d33:	50                   	push   rax
   140002d34:	58                   	pop    rax
   140002d35:	50                   	push   rax
   140002d36:	48 8d 05 53 35 01 00 	lea    rax,[rip+0x13553]        # 140016290 <L_p_HXP_PILLARS>
   140002d3d:	50                   	push   rax
   140002d3e:	48 b8 00 00 00 00 00 	movabs rax,0x0
   140002d45:	00 00 00 
   140002d48:	50                   	push   rax
   140002d49:	59                   	pop    rcx
   140002d4a:	58                   	pop    rax
   140002d4b:	5a                   	pop    rdx
   140002d4c:	48 89 14 c8          	mov    QWORD PTR [rax+rcx*8],rdx
   140002d50:	48 b8 01 00 00 00 00 	movabs rax,0x1
   140002d57:	00 00 00 
   140002d5a:	50                   	push   rax
   140002d5b:	58                   	pop    rax
   140002d5c:	48 f7 d8             	neg    rax
   140002d5f:	50                   	push   rax
   140002d60:	58                   	pop    rax
   140002d61:	50                   	push   rax
   140002d62:	48 8d 05 27 35 01 00 	lea    rax,[rip+0x13527]        # 140016290 <L_p_HXP_PILLARS>
   140002d69:	50                   	push   rax
   140002d6a:	48 b8 01 00 00 00 00 	movabs rax,0x1
   140002d71:	00 00 00 
   140002d74:	50                   	push   rax
   140002d75:	59                   	pop    rcx
   140002d76:	58                   	pop    rax
   140002d77:	5a                   	pop    rdx
   140002d78:	48 89 14 c8          	mov    QWORD PTR [rax+rcx*8],rdx
   140002d7c:	48 b8 01 00 00 00 00 	movabs rax,0x1
   140002d83:	00 00 00 
   140002d86:	50                   	push   rax
   140002d87:	58                   	pop    rax
   140002d88:	48 f7 d8             	neg    rax
   140002d8b:	50                   	push   rax
   140002d8c:	58                   	pop    rax
   140002d8d:	50                   	push   rax
   140002d8e:	48 8d 05 fb 34 01 00 	lea    rax,[rip+0x134fb]        # 140016290 <L_p_HXP_PILLARS>
   140002d95:	50                   	push   rax
   140002d96:	48 b8 02 00 00 00 00 	movabs rax,0x2
   140002d9d:	00 00 00 
   140002da0:	50                   	push   rax
   140002da1:	59                   	pop    rcx
   140002da2:	58                   	pop    rax
   140002da3:	5a                   	pop    rdx
   140002da4:	48 89 14 c8          	mov    QWORD PTR [rax+rcx*8],rdx
   140002da8:	48 b8 01 00 00 00 00 	movabs rax,0x1
   140002daf:	00 00 00 
   140002db2:	50                   	push   rax
   140002db3:	58                   	pop    rax
   140002db4:	48 f7 d8             	neg    rax
   140002db7:	50                   	push   rax
   140002db8:	58                   	pop    rax
   140002db9:	50                   	push   rax
   140002dba:	48 8d 05 cf 34 01 00 	lea    rax,[rip+0x134cf]        # 140016290 <L_p_HXP_PILLARS>
   140002dc1:	50                   	push   rax
   140002dc2:	48 b8 03 00 00 00 00 	movabs rax,0x3
   140002dc9:	00 00 00 
   140002dcc:	50                   	push   rax
   140002dcd:	59                   	pop    rcx
   140002dce:	58                   	pop    rax
   140002dcf:	5a                   	pop    rdx
   140002dd0:	48 89 14 c8          	mov    QWORD PTR [rax+rcx*8],rdx
   140002dd4:	48 b8 01 00 00 00 00 	movabs rax,0x1
   140002ddb:	00 00 00 
   140002dde:	50                   	push   rax
   140002ddf:	58                   	pop    rax
   140002de0:	50                   	push   rax
   140002de1:	50                   	push   rax
   140002de2:	48 c7 c1 02 00 00 00 	mov    rcx,0x2
   140002de9:	48 83 ec 20          	sub    rsp,0x20
   140002ded:	e8 fe e0 00 00       	call   140010ef0 <iii_witness_emit_kernel>
   140002df2:	48 83 c4 20          	add    rsp,0x20
   140002df6:	58                   	pop    rax
   140002df7:	58                   	pop    rax
   140002df8:	48 89 ec             	mov    rsp,rbp
   140002dfb:	5d                   	pop    rbp
   140002dfc:	c3                   	ret
   140002dfd:	48 8b 45 f8          	mov    rax,QWORD PTR [rbp-0x8]
   140002e01:	50                   	push   rax
   140002e02:	48 b8 02 00 00 00 00 	movabs rax,0x2
   140002e09:	00 00 00 
   140002e0c:	50                   	push   rax
   140002e0d:	59                   	pop    rcx
   140002e0e:	58                   	pop    rax
   140002e0f:	48 39 c8             	cmp    rax,rcx
   140002e12:	0f 94 c0             	sete   al
   140002e15:	48 0f b6 c0          	movzx  rax,al
   140002e19:	50                   	push   rax
   140002e1a:	58                   	pop    rax
   140002e1b:	48 85 c0             	test   rax,rax
   140002e1e:	0f 84 ad 00 00 00    	je     140002ed1 <L_p__hxp_fill+0x2e1>
   140002e24:	48 b8 01 00 00 00 00 	movabs rax,0x1
   140002e2b:	00 00 00 
   140002e2e:	50                   	push   rax
   140002e2f:	58                   	pop    rax
   140002e30:	48 f7 d8             	neg    rax
   140002e33:	50                   	push   rax
   140002e34:	58                   	pop    rax
   140002e35:	50                   	push   rax
   140002e36:	48 8d 05 53 34 01 00 	lea    rax,[rip+0x13453]        # 140016290 <L_p_HXP_PILLARS>
   140002e3d:	50                   	push   rax
   140002e3e:	48 b8 00 00 00 00 00 	movabs rax,0x0
   140002e45:	00 00 00 
   140002e48:	50                   	push   rax
   140002e49:	59                   	pop    rcx
   140002e4a:	58                   	pop    rax
   140002e4b:	5a                   	pop    rdx
   140002e4c:	48 89 14 c8          	mov    QWORD PTR [rax+rcx*8],rdx
   140002e50:	48 b8 01 00 00 00 00 	movabs rax,0x1
   140002e57:	00 00 00 
   140002e5a:	50                   	push   rax
   140002e5b:	58                   	pop    rax
   140002e5c:	48 f7 d8             	neg    rax
   140002e5f:	50                   	push   rax
   140002e60:	58                   	pop    rax
   140002e61:	50                   	push   rax
   140002e62:	48 8d 05 27 34 01 00 	lea    rax,[rip+0x13427]        # 140016290 <L_p_HXP_PILLARS>
   140002e69:	50                   	push   rax
   140002e6a:	48 b8 01 00 00 00 00 	movabs rax,0x1
   140002e71:	00 00 00 
   140002e74:	50                   	push   rax
   140002e75:	59                   	pop    rcx
   140002e76:	58                   	pop    rax
   140002e77:	5a                   	pop    rdx
   140002e78:	48 89 14 c8          	mov    QWORD PTR [rax+rcx*8],rdx
   140002e7c:	48 b8 01 00 00 00 00 	movabs rax,0x1
   140002e83:	00 00 00 
   140002e86:	50                   	push   rax
   140002e87:	58                   	pop    rax
   140002e88:	48 f7 d8             	neg    rax
   140002e8b:	50                   	push   rax
   140002e8c:	58                   	pop    rax
   140002e8d:	50                   	push   rax
   140002e8e:	48 8d 05 fb 33 01 00 	lea    rax,[rip+0x133fb]        # 140016290 <L_p_HXP_PILLARS>
   140002e95:	50                   	push   rax
   140002e96:	48 b8 02 00 00 00 00 	movabs rax,0x2
   140002e9d:	00 00 00 
   140002ea0:	50                   	push   rax
   140002ea1:	59                   	pop    rcx
   140002ea2:	58                   	pop    rax
   140002ea3:	5a                   	pop    rdx
   140002ea4:	48 89 14 c8          	mov    QWORD PTR [rax+rcx*8],rdx
   140002ea8:	48 b8 01 00 00 00 00 	movabs rax,0x1
   140002eaf:	00 00 00 
   140002eb2:	50                   	push   rax
   140002eb3:	58                   	pop    rax
   140002eb4:	50                   	push   rax
   140002eb5:	50                   	push   rax
   140002eb6:	48 c7 c1 02 00 00 00 	mov    rcx,0x2
   140002ebd:	48 83 ec 20          	sub    rsp,0x20
   140002ec1:	e8 2a e0 00 00       	call   140010ef0 <iii_witness_emit_kernel>
   140002ec6:	48 83 c4 20          	add    rsp,0x20
   140002eca:	58                   	pop    rax
   140002ecb:	58                   	pop    rax
   140002ecc:	48 89 ec             	mov    rsp,rbp
   140002ecf:	5d                   	pop    rbp
   140002ed0:	c3                   	ret
   140002ed1:	48 8b 45 f8          	mov    rax,QWORD PTR [rbp-0x8]
   140002ed5:	50                   	push   rax
   140002ed6:	48 b8 03 00 00 00 00 	movabs rax,0x3
   140002edd:	00 00 00 
   140002ee0:	50                   	push   rax
   140002ee1:	59                   	pop    rcx
   140002ee2:	58                   	pop    rax
   140002ee3:	48 39 c8             	cmp    rax,rcx
   140002ee6:	0f 94 c0             	sete   al
   140002ee9:	48 0f b6 c0          	movzx  rax,al
   140002eed:	50                   	push   rax
   140002eee:	58                   	pop    rax
   140002eef:	48 85 c0             	test   rax,rax
   140002ef2:	0f 84 ad 00 00 00    	je     140002fa5 <L_p__hxp_fill+0x3b5>
   140002ef8:	48 b8 01 00 00 00 00 	movabs rax,0x1
   140002eff:	00 00 00 
   140002f02:	50                   	push   rax
   140002f03:	58                   	pop    rax
   140002f04:	48 f7 d8             	neg    rax
   140002f07:	50                   	push   rax
   140002f08:	58                   	pop    rax
   140002f09:	50                   	push   rax
   140002f0a:	48 8d 05 7f 33 01 00 	lea    rax,[rip+0x1337f]        # 140016290 <L_p_HXP_PILLARS>
   140002f11:	50                   	push   rax
   140002f12:	48 b8 00 00 00 00 00 	movabs rax,0x0
   140002f19:	00 00 00 
   140002f1c:	50                   	push   rax
   140002f1d:	59                   	pop    rcx
   140002f1e:	58                   	pop    rax
   140002f1f:	5a                   	pop    rdx
   140002f20:	48 89 14 c8          	mov    QWORD PTR [rax+rcx*8],rdx
   140002f24:	48 b8 01 00 00 00 00 	movabs rax,0x1
   140002f2b:	00 00 00 
   140002f2e:	50                   	push   rax
   140002f2f:	58                   	pop    rax
   140002f30:	48 f7 d8             	neg    rax
   140002f33:	50                   	push   rax
   140002f34:	58                   	pop    rax
   140002f35:	50                   	push   rax
   140002f36:	48 8d 05 53 33 01 00 	lea    rax,[rip+0x13353]        # 140016290 <L_p_HXP_PILLARS>
   140002f3d:	50                   	push   rax
   140002f3e:	48 b8 01 00 00 00 00 	movabs rax,0x1
   140002f45:	00 00 00 
   140002f48:	50                   	push   rax
   140002f49:	59                   	pop    rcx
   140002f4a:	58                   	pop    rax
   140002f4b:	5a                   	pop    rdx
   140002f4c:	48 89 14 c8          	mov    QWORD PTR [rax+rcx*8],rdx
   140002f50:	48 b8 01 00 00 00 00 	movabs rax,0x1
   140002f57:	00 00 00 
   140002f5a:	50                   	push   rax
   140002f5b:	58                   	pop    rax
   140002f5c:	48 f7 d8             	neg    rax
   140002f5f:	50                   	push   rax
   140002f60:	58                   	pop    rax
   140002f61:	50                   	push   rax
   140002f62:	48 8d 05 27 33 01 00 	lea    rax,[rip+0x13327]        # 140016290 <L_p_HXP_PILLARS>
   140002f69:	50                   	push   rax
   140002f6a:	48 b8 03 00 00 00 00 	movabs rax,0x3
   140002f71:	00 00 00 
   140002f74:	50                   	push   rax
   140002f75:	59                   	pop    rcx
   140002f76:	58                   	pop    rax
   140002f77:	5a                   	pop    rdx
   140002f78:	48 89 14 c8          	mov    QWORD PTR [rax+rcx*8],rdx
   140002f7c:	48 b8 01 00 00 00 00 	movabs rax,0x1
   140002f83:	00 00 00 
   140002f86:	50                   	push   rax
   140002f87:	58                   	pop    rax
   140002f88:	50                   	push   rax
   140002f89:	50                   	push   rax
   140002f8a:	48 c7 c1 02 00 00 00 	mov    rcx,0x2
   140002f91:	48 83 ec 20          	sub    rsp,0x20
   140002f95:	e8 56 df 00 00       	call   140010ef0 <iii_witness_emit_kernel>
   140002f9a:	48 83 c4 20          	add    rsp,0x20
   140002f9e:	58                   	pop    rax
   140002f9f:	58                   	pop    rax
   140002fa0:	48 89 ec             	mov    rsp,rbp
   140002fa3:	5d                   	pop    rbp
   140002fa4:	c3                   	ret
   140002fa5:	48 8b 45 f8          	mov    rax,QWORD PTR [rbp-0x8]
   140002fa9:	50                   	push   rax
   140002faa:	48 b8 04 00 00 00 00 	movabs rax,0x4
   140002fb1:	00 00 00 
   140002fb4:	50                   	push   rax
   140002fb5:	59                   	pop    rcx
   140002fb6:	58                   	pop    rax
   140002fb7:	48 39 c8             	cmp    rax,rcx
   140002fba:	0f 94 c0             	sete   al
   140002fbd:	48 0f b6 c0          	movzx  rax,al
   140002fc1:	50                   	push   rax
   140002fc2:	58                   	pop    rax
   140002fc3:	48 85 c0             	test   rax,rax
   140002fc6:	0f 84 ad 00 00 00    	je     140003079 <L_p__hxp_fill+0x489>
   140002fcc:	48 b8 01 00 00 00 00 	movabs rax,0x1
   140002fd3:	00 00 00 
   140002fd6:	50                   	push   rax
   140002fd7:	58                   	pop    rax
   140002fd8:	48 f7 d8             	neg    rax
   140002fdb:	50                   	push   rax
   140002fdc:	58                   	pop    rax
   140002fdd:	50                   	push   rax
   140002fde:	48 8d 05 ab 32 01 00 	lea    rax,[rip+0x132ab]        # 140016290 <L_p_HXP_PILLARS>
   140002fe5:	50                   	push   rax
   140002fe6:	48 b8 00 00 00 00 00 	movabs rax,0x0
   140002fed:	00 00 00 
   140002ff0:	50                   	push   rax
   140002ff1:	59                   	pop    rcx
   140002ff2:	58                   	pop    rax
   140002ff3:	5a                   	pop    rdx
   140002ff4:	48 89 14 c8          	mov    QWORD PTR [rax+rcx*8],rdx
   140002ff8:	48 b8 01 00 00 00 00 	movabs rax,0x1
   140002fff:	00 00 00 
   140003002:	50                   	push   rax
   140003003:	58                   	pop    rax
   140003004:	48 f7 d8             	neg    rax
   140003007:	50                   	push   rax
   140003008:	58                   	pop    rax
   140003009:	50                   	push   rax
   14000300a:	48 8d 05 7f 32 01 00 	lea    rax,[rip+0x1327f]        # 140016290 <L_p_HXP_PILLARS>
   140003011:	50                   	push   rax
   140003012:	48 b8 02 00 00 00 00 	movabs rax,0x2
   140003019:	00 00 00 
   14000301c:	50                   	push   rax
   14000301d:	59                   	pop    rcx
   14000301e:	58                   	pop    rax
   14000301f:	5a                   	pop    rdx
   140003020:	48 89 14 c8          	mov    QWORD PTR [rax+rcx*8],rdx
   140003024:	48 b8 01 00 00 00 00 	movabs rax,0x1
   14000302b:	00 00 00 
   14000302e:	50                   	push   rax
   14000302f:	58                   	pop    rax
   140003030:	48 f7 d8             	neg    rax
   140003033:	50                   	push   rax
   140003034:	58                   	pop    rax
   140003035:	50                   	push   rax
   140003036:	48 8d 05 53 32 01 00 	lea    rax,[rip+0x13253]        # 140016290 <L_p_HXP_PILLARS>
   14000303d:	50                   	push   rax
   14000303e:	48 b8 03 00 00 00 00 	movabs rax,0x3
   140003045:	00 00 00 
   140003048:	50                   	push   rax
   140003049:	59                   	pop    rcx
   14000304a:	58                   	pop    rax
   14000304b:	5a                   	pop    rdx
   14000304c:	48 89 14 c8          	mov    QWORD PTR [rax+rcx*8],rdx
   140003050:	48 b8 01 00 00 00 00 	movabs rax,0x1
   140003057:	00 00 00 
   14000305a:	50                   	push   rax
   14000305b:	58                   	pop    rax
   14000305c:	50                   	push   rax
   14000305d:	50                   	push   rax
   14000305e:	48 c7 c1 02 00 00 00 	mov    rcx,0x2
   140003065:	48 83 ec 20          	sub    rsp,0x20
   140003069:	e8 82 de 00 00       	call   140010ef0 <iii_witness_emit_kernel>
   14000306e:	48 83 c4 20          	add    rsp,0x20
   140003072:	58                   	pop    rax
   140003073:	58                   	pop    rax
   140003074:	48 89 ec             	mov    rsp,rbp
   140003077:	5d                   	pop    rbp
   140003078:	c3                   	ret
   140003079:	48 8b 45 f8          	mov    rax,QWORD PTR [rbp-0x8]
   14000307d:	50                   	push   rax
   14000307e:	48 b8 05 00 00 00 00 	movabs rax,0x5
   140003085:	00 00 00 
   140003088:	50                   	push   rax
   140003089:	59                   	pop    rcx
   14000308a:	58                   	pop    rax
   14000308b:	48 39 c8             	cmp    rax,rcx
   14000308e:	0f 94 c0             	sete   al
   140003091:	48 0f b6 c0          	movzx  rax,al
   140003095:	50                   	push   rax
   140003096:	58                   	pop    rax
   140003097:	48 85 c0             	test   rax,rax
   14000309a:	0f 84 ad 00 00 00    	je     14000314d <L_p__hxp_fill+0x55d>
   1400030a0:	48 b8 01 00 00 00 00 	movabs rax,0x1
   1400030a7:	00 00 00 
   1400030aa:	50                   	push   rax
   1400030ab:	58                   	pop    rax
   1400030ac:	48 f7 d8             	neg    rax
   1400030af:	50                   	push   rax
   1400030b0:	58                   	pop    rax
   1400030b1:	50                   	push   rax
   1400030b2:	48 8d 05 d7 31 01 00 	lea    rax,[rip+0x131d7]        # 140016290 <L_p_HXP_PILLARS>
   1400030b9:	50                   	push   rax
   1400030ba:	48 b8 01 00 00 00 00 	movabs rax,0x1
   1400030c1:	00 00 00 
   1400030c4:	50                   	push   rax
   1400030c5:	59                   	pop    rcx
   1400030c6:	58                   	pop    rax
   1400030c7:	5a                   	pop    rdx
   1400030c8:	48 89 14 c8          	mov    QWORD PTR [rax+rcx*8],rdx
   1400030cc:	48 b8 01 00 00 00 00 	movabs rax,0x1
   1400030d3:	00 00 00 
   1400030d6:	50                   	push   rax
   1400030d7:	58                   	pop    rax
   1400030d8:	48 f7 d8             	neg    rax
   1400030db:	50                   	push   rax
   1400030dc:	58                   	pop    rax
   1400030dd:	50                   	push   rax
   1400030de:	48 8d 05 ab 31 01 00 	lea    rax,[rip+0x131ab]        # 140016290 <L_p_HXP_PILLARS>
   1400030e5:	50                   	push   rax
   1400030e6:	48 b8 02 00 00 00 00 	movabs rax,0x2
   1400030ed:	00 00 00 
   1400030f0:	50                   	push   rax
   1400030f1:	59                   	pop    rcx
   1400030f2:	58                   	pop    rax
   1400030f3:	5a                   	pop    rdx
   1400030f4:	48 89 14 c8          	mov    QWORD PTR [rax+rcx*8],rdx
   1400030f8:	48 b8 01 00 00 00 00 	movabs rax,0x1
   1400030ff:	00 00 00 
   140003102:	50                   	push   rax
   140003103:	58                   	pop    rax
   140003104:	48 f7 d8             	neg    rax
   140003107:	50                   	push   rax
   140003108:	58                   	pop    rax
   140003109:	50                   	push   rax
   14000310a:	48 8d 05 7f 31 01 00 	lea    rax,[rip+0x1317f]        # 140016290 <L_p_HXP_PILLARS>
   140003111:	50                   	push   rax
   140003112:	48 b8 03 00 00 00 00 	movabs rax,0x3
   140003119:	00 00 00 
   14000311c:	50                   	push   rax
   14000311d:	59                   	pop    rcx
   14000311e:	58                   	pop    rax
   14000311f:	5a                   	pop    rdx
   140003120:	48 89 14 c8          	mov    QWORD PTR [rax+rcx*8],rdx
   140003124:	48 b8 01 00 00 00 00 	movabs rax,0x1
   14000312b:	00 00 00 
   14000312e:	50                   	push   rax
   14000312f:	58                   	pop    rax
   140003130:	50                   	push   rax
   140003131:	50                   	push   rax
   140003132:	48 c7 c1 02 00 00 00 	mov    rcx,0x2
   140003139:	48 83 ec 20          	sub    rsp,0x20
   14000313d:	e8 ae dd 00 00       	call   140010ef0 <iii_witness_emit_kernel>
   140003142:	48 83 c4 20          	add    rsp,0x20
   140003146:	58                   	pop    rax
   140003147:	58                   	pop    rax
   140003148:	48 89 ec             	mov    rsp,rbp
   14000314b:	5d                   	pop    rbp
   14000314c:	c3                   	ret
   14000314d:	48 8b 45 f8          	mov    rax,QWORD PTR [rbp-0x8]
   140003151:	50                   	push   rax
   140003152:	48 b8 06 00 00 00 00 	movabs rax,0x6
   140003159:	00 00 00 
   14000315c:	50                   	push   rax
   14000315d:	59                   	pop    rcx
   14000315e:	58                   	pop    rax
   14000315f:	48 39 c8             	cmp    rax,rcx
   140003162:	0f 94 c0             	sete   al
   140003165:	48 0f b6 c0          	movzx  rax,al
   140003169:	50                   	push   rax
   14000316a:	58                   	pop    rax
   14000316b:	48 85 c0             	test   rax,rax
   14000316e:	0f 84 05 01 00 00    	je     140003279 <L_p__hxp_fill+0x689>
   140003174:	48 b8 01 00 00 00 00 	movabs rax,0x1
   14000317b:	00 00 00 
   14000317e:	50                   	push   rax
   14000317f:	58                   	pop    rax
   140003180:	48 f7 d8             	neg    rax
   140003183:	50                   	push   rax
   140003184:	58                   	pop    rax
   140003185:	50                   	push   rax
   140003186:	48 8d 05 03 31 01 00 	lea    rax,[rip+0x13103]        # 140016290 <L_p_HXP_PILLARS>
   14000318d:	50                   	push   rax
   14000318e:	48 b8 00 00 00 00 00 	movabs rax,0x0
   140003195:	00 00 00 
   140003198:	50                   	push   rax
   140003199:	59                   	pop    rcx
   14000319a:	58                   	pop    rax
   14000319b:	5a                   	pop    rdx
   14000319c:	48 89 14 c8          	mov    QWORD PTR [rax+rcx*8],rdx
   1400031a0:	48 b8 01 00 00 00 00 	movabs rax,0x1
   1400031a7:	00 00 00 
   1400031aa:	50                   	push   rax
   1400031ab:	58                   	pop    rax
   1400031ac:	48 f7 d8             	neg    rax
   1400031af:	50                   	push   rax
   1400031b0:	58                   	pop    rax
   1400031b1:	50                   	push   rax
   1400031b2:	48 8d 05 d7 30 01 00 	lea    rax,[rip+0x130d7]        # 140016290 <L_p_HXP_PILLARS>
   1400031b9:	50                   	push   rax
   1400031ba:	48 b8 01 00 00 00 00 	movabs rax,0x1
   1400031c1:	00 00 00 
   1400031c4:	50                   	push   rax
   1400031c5:	59                   	pop    rcx
   1400031c6:	58                   	pop    rax
   1400031c7:	5a                   	pop    rdx
   1400031c8:	48 89 14 c8          	mov    QWORD PTR [rax+rcx*8],rdx
   1400031cc:	48 b8 01 00 00 00 00 	movabs rax,0x1
   1400031d3:	00 00 00 
   1400031d6:	50                   	push   rax
   1400031d7:	58                   	pop    rax
   1400031d8:	48 f7 d8             	neg    rax
   1400031db:	50                   	push   rax
   1400031dc:	58                   	pop    rax
   1400031dd:	50                   	push   rax
   1400031de:	48 8d 05 ab 30 01 00 	lea    rax,[rip+0x130ab]        # 140016290 <L_p_HXP_PILLARS>
   1400031e5:	50                   	push   rax
   1400031e6:	48 b8 02 00 00 00 00 	movabs rax,0x2
   1400031ed:	00 00 00 
   1400031f0:	50                   	push   rax
   1400031f1:	59                   	pop    rcx
   1400031f2:	58                   	pop    rax
   1400031f3:	5a                   	pop    rdx
   1400031f4:	48 89 14 c8          	mov    QWORD PTR [rax+rcx*8],rdx
   1400031f8:	48 b8 01 00 00 00 00 	movabs rax,0x1
   1400031ff:	00 00 00 
   140003202:	50                   	push   rax
   140003203:	58                   	pop    rax
   140003204:	48 f7 d8             	neg    rax
   140003207:	50                   	push   rax
   140003208:	58                   	pop    rax
   140003209:	50                   	push   rax
   14000320a:	48 8d 05 7f 30 01 00 	lea    rax,[rip+0x1307f]        # 140016290 <L_p_HXP_PILLARS>
   140003211:	50                   	push   rax
   140003212:	48 b8 03 00 00 00 00 	movabs rax,0x3
   140003219:	00 00 00 
   14000321c:	50                   	push   rax
   14000321d:	59                   	pop    rcx
   14000321e:	58                   	pop    rax
   14000321f:	5a                   	pop    rdx
   140003220:	48 89 14 c8          	mov    QWORD PTR [rax+rcx*8],rdx
   140003224:	48 b8 01 00 00 00 00 	movabs rax,0x1
   14000322b:	00 00 00 
   14000322e:	50                   	push   rax
   14000322f:	58                   	pop    rax
   140003230:	48 f7 d8             	neg    rax
   140003233:	50                   	push   rax
   140003234:	58                   	pop    rax
   140003235:	50                   	push   rax
   140003236:	48 8d 05 53 30 01 00 	lea    rax,[rip+0x13053]        # 140016290 <L_p_HXP_PILLARS>
   14000323d:	50                   	push   rax
   14000323e:	48 b8 04 00 00 00 00 	movabs rax,0x4
   140003245:	00 00 00 
   140003248:	50                   	push   rax
   140003249:	59                   	pop    rcx
   14000324a:	58                   	pop    rax
   14000324b:	5a                   	pop    rdx
   14000324c:	48 89 14 c8          	mov    QWORD PTR [rax+rcx*8],rdx
   140003250:	48 b8 01 00 00 00 00 	movabs rax,0x1
   140003257:	00 00 00 
   14000325a:	50                   	push   rax
   14000325b:	58                   	pop    rax
   14000325c:	50                   	push   rax
   14000325d:	50                   	push   rax
   14000325e:	48 c7 c1 02 00 00 00 	mov    rcx,0x2
   140003265:	48 83 ec 20          	sub    rsp,0x20
   140003269:	e8 82 dc 00 00       	call   140010ef0 <iii_witness_emit_kernel>
   14000326e:	48 83 c4 20          	add    rsp,0x20
   140003272:	58                   	pop    rax
   140003273:	58                   	pop    rax
   140003274:	48 89 ec             	mov    rsp,rbp
   140003277:	5d                   	pop    rbp
   140003278:	c3                   	ret
   140003279:	48 b8 00 00 00 00 00 	movabs rax,0x0
   140003280:	00 00 00 
   140003283:	50                   	push   rax
   140003284:	58                   	pop    rax
   140003285:	50                   	push   rax
   140003286:	50                   	push   rax
   140003287:	48 c7 c1 02 00 00 00 	mov    rcx,0x2
   14000328e:	48 83 ec 20          	sub    rsp,0x20
   140003292:	e8 59 dc 00 00       	call   140010ef0 <iii_witness_emit_kernel>
   140003297:	48 83 c4 20          	add    rsp,0x20
   14000329b:	58                   	pop    rax
   14000329c:	58                   	pop    rax
   14000329d:	48 89 ec             	mov    rsp,rbp
   1400032a0:	5d                   	pop    rbp
   1400032a1:	c3                   	ret

00000001400032a2 <L_p_iii_hexad_pfs>:
   1400032a2:	55                   	push   rbp
   1400032a3:	48 89 e5             	mov    rbp,rsp
   1400032a6:	48 81 ec 00 04 00 00 	sub    rsp,0x400
   1400032ad:	48 89 4d f8          	mov    QWORD PTR [rbp-0x8],rcx
   1400032b1:	48 c7 c1 01 00 00 00 	mov    rcx,0x1
   1400032b8:	48 83 ec 20          	sub    rsp,0x20
   1400032bc:	e8 2f dc 00 00       	call   140010ef0 <iii_witness_emit_kernel>
   1400032c1:	48 83 c4 20          	add    rsp,0x20
   1400032c5:	48 8b 45 f8          	mov    rax,QWORD PTR [rbp-0x8]
   1400032c9:	50                   	push   rax
   1400032ca:	59                   	pop    rcx
   1400032cb:	48 83 ec 20          	sub    rsp,0x20
   1400032cf:	e8 1c f9 ff ff       	call   140002bf0 <L_p__hxp_fill>
   1400032d4:	48 83 c4 20          	add    rsp,0x20
   1400032d8:	50                   	push   rax
   1400032d9:	48 b8 00 00 00 00 00 	movabs rax,0x0
   1400032e0:	00 00 00 
   1400032e3:	50                   	push   rax
   1400032e4:	59                   	pop    rcx
   1400032e5:	58                   	pop    rax
   1400032e6:	48 39 c8             	cmp    rax,rcx
   1400032e9:	0f 94 c0             	sete   al
   1400032ec:	48 0f b6 c0          	movzx  rax,al
   1400032f0:	50                   	push   rax
   1400032f1:	58                   	pop    rax
   1400032f2:	48 85 c0             	test   rax,rax
   1400032f5:	74 29                	je     140003320 <L_p_iii_hexad_pfs+0x7e>
   1400032f7:	48 b8 00 00 00 00 00 	movabs rax,0x0
   1400032fe:	00 00 00 
   140003301:	50                   	push   rax
   140003302:	58                   	pop    rax
   140003303:	50                   	push   rax
   140003304:	50                   	push   rax
   140003305:	48 c7 c1 02 00 00 00 	mov    rcx,0x2
   14000330c:	48 83 ec 20          	sub    rsp,0x20
   140003310:	e8 db db 00 00       	call   140010ef0 <iii_witness_emit_kernel>
   140003315:	48 83 c4 20          	add    rsp,0x20
   140003319:	58                   	pop    rax
   14000331a:	58                   	pop    rax
   14000331b:	48 89 ec             	mov    rsp,rbp
   14000331e:	5d                   	pop    rbp
   14000331f:	c3                   	ret
   140003320:	48 8d 05 69 2f 01 00 	lea    rax,[rip+0x12f69]        # 140016290 <L_p_HXP_PILLARS>
   140003327:	50                   	push   rax
   140003328:	58                   	pop    rax
   140003329:	50                   	push   rax
   14000332a:	59                   	pop    rcx
   14000332b:	48 83 ec 20          	sub    rsp,0x20
   14000332f:	e8 8d e9 ff ff       	call   140001cc1 <L_p_iii_hexad_pack6>
   140003334:	48 83 c4 20          	add    rsp,0x20
   140003338:	50                   	push   rax
   140003339:	58                   	pop    rax
   14000333a:	50                   	push   rax
   14000333b:	50                   	push   rax
   14000333c:	48 c7 c1 02 00 00 00 	mov    rcx,0x2
   140003343:	48 83 ec 20          	sub    rsp,0x20
   140003347:	e8 a4 db 00 00       	call   140010ef0 <iii_witness_emit_kernel>
   14000334c:	48 83 c4 20          	add    rsp,0x20
   140003350:	58                   	pop    rax
   140003351:	58                   	pop    rax
   140003352:	48 89 ec             	mov    rsp,rbp
   140003355:	5d                   	pop    rbp
   140003356:	c3                   	ret

0000000140003357 <L_p_iii_hexad_pfs_count>:
   140003357:	55                   	push   rbp
   140003358:	48 89 e5             	mov    rbp,rsp
   14000335b:	48 81 ec 00 04 00 00 	sub    rsp,0x400
   140003362:	48 c7 c1 01 00 00 00 	mov    rcx,0x1
   140003369:	48 83 ec 20          	sub    rsp,0x20
   14000336d:	e8 7e db 00 00       	call   140010ef0 <iii_witness_emit_kernel>
   140003372:	48 83 c4 20          	add    rsp,0x20
   140003376:	48 8b 05 a3 ec 00 00 	mov    rax,QWORD PTR [rip+0xeca3]        # 140012020 <.rodata>
   14000337d:	50                   	push   rax
   14000337e:	58                   	pop    rax
   14000337f:	50                   	push   rax
   140003380:	50                   	push   rax
   140003381:	48 c7 c1 02 00 00 00 	mov    rcx,0x2
   140003388:	48 83 ec 20          	sub    rsp,0x20
   14000338c:	e8 5f db 00 00       	call   140010ef0 <iii_witness_emit_kernel>
   140003391:	48 83 c4 20          	add    rsp,0x20
   140003395:	58                   	pop    rax
   140003396:	58                   	pop    rax
   140003397:	48 89 ec             	mov    rsp,rbp
   14000339a:	5d                   	pop    rbp
   14000339b:	c3                   	ret

000000014000339c <L_p_iii_hexad_pfs_kind>:
   14000339c:	55                   	push   rbp
   14000339d:	48 89 e5             	mov    rbp,rsp
   1400033a0:	48 81 ec 00 04 00 00 	sub    rsp,0x400
   1400033a7:	48 89 4d f8          	mov    QWORD PTR [rbp-0x8],rcx
   1400033ab:	48 c7 c1 01 00 00 00 	mov    rcx,0x1
   1400033b2:	48 83 ec 20          	sub    rsp,0x20
   1400033b6:	e8 35 db 00 00       	call   140010ef0 <iii_witness_emit_kernel>
   1400033bb:	48 83 c4 20          	add    rsp,0x20
   1400033bf:	48 b8 01 00 00 00 00 	movabs rax,0x1
   1400033c6:	00 00 00 
   1400033c9:	50                   	push   rax
   1400033ca:	58                   	pop    rax
   1400033cb:	48 89 45 f0          	mov    QWORD PTR [rbp-0x10],rax
   1400033cf:	48 8b 45 f0          	mov    rax,QWORD PTR [rbp-0x10]
   1400033d3:	50                   	push   rax
   1400033d4:	48 8b 05 45 ec 00 00 	mov    rax,QWORD PTR [rip+0xec45]        # 140012020 <.rodata>
   1400033db:	50                   	push   rax
   1400033dc:	59                   	pop    rcx
   1400033dd:	58                   	pop    rax
   1400033de:	48 39 c8             	cmp    rax,rcx
   1400033e1:	0f 9c c0             	setl   al
   1400033e4:	48 0f b6 c0          	movzx  rax,al
   1400033e8:	50                   	push   rax
   1400033e9:	58                   	pop    rax
   1400033ea:	48 85 c0             	test   rax,rax
   1400033ed:	0f 84 a6 00 00 00    	je     140003499 <L_p_iii_hexad_pfs_kind+0xfd>
   1400033f3:	48 8b 45 f0          	mov    rax,QWORD PTR [rbp-0x10]
   1400033f7:	50                   	push   rax
   1400033f8:	59                   	pop    rcx
   1400033f9:	48 83 ec 20          	sub    rsp,0x20
   1400033fd:	e8 ee f7 ff ff       	call   140002bf0 <L_p__hxp_fill>
   140003402:	48 83 c4 20          	add    rsp,0x20
   140003406:	50                   	push   rax
   140003407:	48 b8 01 00 00 00 00 	movabs rax,0x1
   14000340e:	00 00 00 
   140003411:	50                   	push   rax
   140003412:	59                   	pop    rcx
   140003413:	58                   	pop    rax
   140003414:	48 39 c8             	cmp    rax,rcx
   140003417:	0f 94 c0             	sete   al
   14000341a:	48 0f b6 c0          	movzx  rax,al
   14000341e:	50                   	push   rax
   14000341f:	58                   	pop    rax
   140003420:	48 85 c0             	test   rax,rax
   140003423:	74 54                	je     140003479 <L_p_iii_hexad_pfs_kind+0xdd>
   140003425:	48 8d 05 64 2e 01 00 	lea    rax,[rip+0x12e64]        # 140016290 <L_p_HXP_PILLARS>
   14000342c:	50                   	push   rax
   14000342d:	58                   	pop    rax
   14000342e:	50                   	push   rax
   14000342f:	59                   	pop    rcx
   140003430:	48 83 ec 20          	sub    rsp,0x20
   140003434:	e8 88 e8 ff ff       	call   140001cc1 <L_p_iii_hexad_pack6>
   140003439:	48 83 c4 20          	add    rsp,0x20
   14000343d:	50                   	push   rax
   14000343e:	48 8b 45 f8          	mov    rax,QWORD PTR [rbp-0x8]
   140003442:	50                   	push   rax
   140003443:	59                   	pop    rcx
   140003444:	58                   	pop    rax
   140003445:	48 39 c8             	cmp    rax,rcx
   140003448:	0f 94 c0             	sete   al
   14000344b:	48 0f b6 c0          	movzx  rax,al
   14000344f:	50                   	push   rax
   140003450:	58                   	pop    rax
   140003451:	48 85 c0             	test   rax,rax
   140003454:	74 23                	je     140003479 <L_p_iii_hexad_pfs_kind+0xdd>
   140003456:	48 8b 45 f0          	mov    rax,QWORD PTR [rbp-0x10]
   14000345a:	50                   	push   rax
   14000345b:	58                   	pop    rax
   14000345c:	50                   	push   rax
   14000345d:	50                   	push   rax
   14000345e:	48 c7 c1 02 00 00 00 	mov    rcx,0x2
   140003465:	48 83 ec 20          	sub    rsp,0x20
   140003469:	e8 82 da 00 00       	call   140010ef0 <iii_witness_emit_kernel>
   14000346e:	48 83 c4 20          	add    rsp,0x20
   140003472:	58                   	pop    rax
   140003473:	58                   	pop    rax
   140003474:	48 89 ec             	mov    rsp,rbp
   140003477:	5d                   	pop    rbp
   140003478:	c3                   	ret
   140003479:	48 8b 45 f0          	mov    rax,QWORD PTR [rbp-0x10]
   14000347d:	50                   	push   rax
   14000347e:	48 b8 01 00 00 00 00 	movabs rax,0x1
   140003485:	00 00 00 
   140003488:	50                   	push   rax
   140003489:	59                   	pop    rcx
   14000348a:	58                   	pop    rax
   14000348b:	48 01 c8             	add    rax,rcx
   14000348e:	50                   	push   rax
   14000348f:	58                   	pop    rax
   140003490:	48 89 45 f0          	mov    QWORD PTR [rbp-0x10],rax
   140003494:	e9 36 ff ff ff       	jmp    1400033cf <L_p_iii_hexad_pfs_kind+0x33>
   140003499:	48 b8 00 00 00 00 00 	movabs rax,0x0
   1400034a0:	00 00 00 
   1400034a3:	50                   	push   rax
   1400034a4:	58                   	pop    rax
   1400034a5:	50                   	push   rax
   1400034a6:	50                   	push   rax
   1400034a7:	48 c7 c1 02 00 00 00 	mov    rcx,0x2
   1400034ae:	48 83 ec 20          	sub    rsp,0x20
   1400034b2:	e8 39 da 00 00       	call   140010ef0 <iii_witness_emit_kernel>
   1400034b7:	48 83 c4 20          	add    rsp,0x20
   1400034bb:	58                   	pop    rax
   1400034bc:	58                   	pop    rax
   1400034bd:	48 89 ec             	mov    rsp,rbp
   1400034c0:	5d                   	pop    rbp
   1400034c1:	c3                   	ret

00000001400034c2 <L_p_iii_hexad_pfs_name>:
   1400034c2:	55                   	push   rbp
   1400034c3:	48 89 e5             	mov    rbp,rsp
   1400034c6:	48 81 ec 00 04 00 00 	sub    rsp,0x400
   1400034cd:	48 89 4d f8          	mov    QWORD PTR [rbp-0x8],rcx
   1400034d1:	48 c7 c1 01 00 00 00 	mov    rcx,0x1
   1400034d8:	48 83 ec 20          	sub    rsp,0x20
   1400034dc:	e8 0f da 00 00       	call   140010ef0 <iii_witness_emit_kernel>
   1400034e1:	48 83 c4 20          	add    rsp,0x20
   1400034e5:	48 8b 45 f8          	mov    rax,QWORD PTR [rbp-0x8]
   1400034e9:	50                   	push   rax
   1400034ea:	48 b8 00 00 00 00 00 	movabs rax,0x0
   1400034f1:	00 00 00 
   1400034f4:	50                   	push   rax
   1400034f5:	59                   	pop    rcx
   1400034f6:	58                   	pop    rax
   1400034f7:	48 39 c8             	cmp    rax,rcx
   1400034fa:	0f 94 c0             	sete   al
   1400034fd:	48 0f b6 c0          	movzx  rax,al
   140003501:	50                   	push   rax
   140003502:	58                   	pop    rax
   140003503:	48 85 c0             	test   rax,rax
   140003506:	74 26                	je     14000352e <L_p_iii_hexad_pfs_name+0x6c>
   140003508:	48 8d 05 c0 de 00 00 	lea    rax,[rip+0xdec0]        # 1400113cf <.rdata+0x6f>
   14000350f:	50                   	push   rax
   140003510:	58                   	pop    rax
   140003511:	50                   	push   rax
   140003512:	50                   	push   rax
   140003513:	48 c7 c1 02 00 00 00 	mov    rcx,0x2
   14000351a:	48 83 ec 20          	sub    rsp,0x20
   14000351e:	e8 cd d9 00 00       	call   140010ef0 <iii_witness_emit_kernel>
   140003523:	48 83 c4 20          	add    rsp,0x20
   140003527:	58                   	pop    rax
   140003528:	58                   	pop    rax
   140003529:	48 89 ec             	mov    rsp,rbp
   14000352c:	5d                   	pop    rbp
   14000352d:	c3                   	ret
   14000352e:	48 8b 45 f8          	mov    rax,QWORD PTR [rbp-0x8]
   140003532:	50                   	push   rax
   140003533:	48 b8 01 00 00 00 00 	movabs rax,0x1
   14000353a:	00 00 00 
   14000353d:	50                   	push   rax
   14000353e:	59                   	pop    rcx
   14000353f:	58                   	pop    rax
   140003540:	48 39 c8             	cmp    rax,rcx
   140003543:	0f 94 c0             	sete   al
   140003546:	48 0f b6 c0          	movzx  rax,al
   14000354a:	50                   	push   rax
   14000354b:	58                   	pop    rax
   14000354c:	48 85 c0             	test   rax,rax
   14000354f:	74 26                	je     140003577 <L_p_iii_hexad_pfs_name+0xb5>
   140003551:	48 8d 05 d5 de 00 00 	lea    rax,[rip+0xded5]        # 14001142d <.rdata+0xcd>
   140003558:	50                   	push   rax
   140003559:	58                   	pop    rax
   14000355a:	50                   	push   rax
   14000355b:	50                   	push   rax
   14000355c:	48 c7 c1 02 00 00 00 	mov    rcx,0x2
   140003563:	48 83 ec 20          	sub    rsp,0x20
   140003567:	e8 84 d9 00 00       	call   140010ef0 <iii_witness_emit_kernel>
   14000356c:	48 83 c4 20          	add    rsp,0x20
   140003570:	58                   	pop    rax
   140003571:	58                   	pop    rax
   140003572:	48 89 ec             	mov    rsp,rbp
   140003575:	5d                   	pop    rbp
   140003576:	c3                   	ret
   140003577:	48 8b 45 f8          	mov    rax,QWORD PTR [rbp-0x8]
   14000357b:	50                   	push   rax
   14000357c:	48 b8 02 00 00 00 00 	movabs rax,0x2
   140003583:	00 00 00 
   140003586:	50                   	push   rax
   140003587:	59                   	pop    rcx
   140003588:	58                   	pop    rax
   140003589:	48 39 c8             	cmp    rax,rcx
   14000358c:	0f 94 c0             	sete   al
   14000358f:	48 0f b6 c0          	movzx  rax,al
   140003593:	50                   	push   rax
   140003594:	58                   	pop    rax
   140003595:	48 85 c0             	test   rax,rax
   140003598:	74 26                	je     1400035c0 <L_p_iii_hexad_pfs_name+0xfe>
   14000359a:	48 8d 05 e6 de 00 00 	lea    rax,[rip+0xdee6]        # 140011487 <.rdata+0x127>
   1400035a1:	50                   	push   rax
   1400035a2:	58                   	pop    rax
   1400035a3:	50                   	push   rax
   1400035a4:	50                   	push   rax
   1400035a5:	48 c7 c1 02 00 00 00 	mov    rcx,0x2
   1400035ac:	48 83 ec 20          	sub    rsp,0x20
   1400035b0:	e8 3b d9 00 00       	call   140010ef0 <iii_witness_emit_kernel>
   1400035b5:	48 83 c4 20          	add    rsp,0x20
   1400035b9:	58                   	pop    rax
   1400035ba:	58                   	pop    rax
   1400035bb:	48 89 ec             	mov    rsp,rbp
   1400035be:	5d                   	pop    rbp
   1400035bf:	c3                   	ret
   1400035c0:	48 8b 45 f8          	mov    rax,QWORD PTR [rbp-0x8]
   1400035c4:	50                   	push   rax
   1400035c5:	48 b8 03 00 00 00 00 	movabs rax,0x3
   1400035cc:	00 00 00 
   1400035cf:	50                   	push   rax
   1400035d0:	59                   	pop    rcx
   1400035d1:	58                   	pop    rax
   1400035d2:	48 39 c8             	cmp    rax,rcx
   1400035d5:	0f 94 c0             	sete   al
   1400035d8:	48 0f b6 c0          	movzx  rax,al
   1400035dc:	50                   	push   rax
   1400035dd:	58                   	pop    rax
   1400035de:	48 85 c0             	test   rax,rax
   1400035e1:	74 26                	je     140003609 <L_p_iii_hexad_pfs_name+0x147>
   1400035e3:	48 8d 05 e9 de 00 00 	lea    rax,[rip+0xdee9]        # 1400114d3 <.rdata+0x173>
   1400035ea:	50                   	push   rax
   1400035eb:	58                   	pop    rax
   1400035ec:	50                   	push   rax
   1400035ed:	50                   	push   rax
   1400035ee:	48 c7 c1 02 00 00 00 	mov    rcx,0x2
   1400035f5:	48 83 ec 20          	sub    rsp,0x20
   1400035f9:	e8 f2 d8 00 00       	call   140010ef0 <iii_witness_emit_kernel>
   1400035fe:	48 83 c4 20          	add    rsp,0x20
   140003602:	58                   	pop    rax
   140003603:	58                   	pop    rax
   140003604:	48 89 ec             	mov    rsp,rbp
   140003607:	5d                   	pop    rbp
   140003608:	c3                   	ret
   140003609:	48 8b 45 f8          	mov    rax,QWORD PTR [rbp-0x8]
   14000360d:	50                   	push   rax
   14000360e:	48 b8 04 00 00 00 00 	movabs rax,0x4
   140003615:	00 00 00 
   140003618:	50                   	push   rax
   140003619:	59                   	pop    rcx
   14000361a:	58                   	pop    rax
   14000361b:	48 39 c8             	cmp    rax,rcx
   14000361e:	0f 94 c0             	sete   al
   140003621:	48 0f b6 c0          	movzx  rax,al
   140003625:	50                   	push   rax
   140003626:	58                   	pop    rax
   140003627:	48 85 c0             	test   rax,rax
   14000362a:	74 26                	je     140003652 <L_p_iii_hexad_pfs_name+0x190>
   14000362c:	48 8d 05 de de 00 00 	lea    rax,[rip+0xdede]        # 140011511 <.rdata+0x1b1>
   140003633:	50                   	push   rax
   140003634:	58                   	pop    rax
   140003635:	50                   	push   rax
   140003636:	50                   	push   rax
   140003637:	48 c7 c1 02 00 00 00 	mov    rcx,0x2
   14000363e:	48 83 ec 20          	sub    rsp,0x20
   140003642:	e8 a9 d8 00 00       	call   140010ef0 <iii_witness_emit_kernel>
   140003647:	48 83 c4 20          	add    rsp,0x20
   14000364b:	58                   	pop    rax
   14000364c:	58                   	pop    rax
   14000364d:	48 89 ec             	mov    rsp,rbp
   140003650:	5d                   	pop    rbp
   140003651:	c3                   	ret
   140003652:	48 8b 45 f8          	mov    rax,QWORD PTR [rbp-0x8]
   140003656:	50                   	push   rax
   140003657:	48 b8 05 00 00 00 00 	movabs rax,0x5
   14000365e:	00 00 00 
   140003661:	50                   	push   rax
   140003662:	59                   	pop    rcx
   140003663:	58                   	pop    rax
   140003664:	48 39 c8             	cmp    rax,rcx
   140003667:	0f 94 c0             	sete   al
   14000366a:	48 0f b6 c0          	movzx  rax,al
   14000366e:	50                   	push   rax
   14000366f:	58                   	pop    rax
   140003670:	48 85 c0             	test   rax,rax
   140003673:	74 26                	je     14000369b <L_p_iii_hexad_pfs_name+0x1d9>
   140003675:	48 8d 05 c6 de 00 00 	lea    rax,[rip+0xdec6]        # 140011542 <.rdata+0x1e2>
   14000367c:	50                   	push   rax
   14000367d:	58                   	pop    rax
   14000367e:	50                   	push   rax
   14000367f:	50                   	push   rax
   140003680:	48 c7 c1 02 00 00 00 	mov    rcx,0x2
   140003687:	48 83 ec 20          	sub    rsp,0x20
   14000368b:	e8 60 d8 00 00       	call   140010ef0 <iii_witness_emit_kernel>
   140003690:	48 83 c4 20          	add    rsp,0x20
   140003694:	58                   	pop    rax
   140003695:	58                   	pop    rax
   140003696:	48 89 ec             	mov    rsp,rbp
   140003699:	5d                   	pop    rbp
   14000369a:	c3                   	ret
   14000369b:	48 8b 45 f8          	mov    rax,QWORD PTR [rbp-0x8]
   14000369f:	50                   	push   rax
   1400036a0:	48 b8 06 00 00 00 00 	movabs rax,0x6
   1400036a7:	00 00 00 
   1400036aa:	50                   	push   rax
   1400036ab:	59                   	pop    rcx
   1400036ac:	58                   	pop    rax
   1400036ad:	48 39 c8             	cmp    rax,rcx
   1400036b0:	0f 94 c0             	sete   al
   1400036b3:	48 0f b6 c0          	movzx  rax,al
   1400036b7:	50                   	push   rax
   1400036b8:	58                   	pop    rax
   1400036b9:	48 85 c0             	test   rax,rax
   1400036bc:	74 26                	je     1400036e4 <L_p_iii_hexad_pfs_name+0x222>
   1400036be:	48 8d 05 9e de 00 00 	lea    rax,[rip+0xde9e]        # 140011563 <.rdata+0x203>
   1400036c5:	50                   	push   rax
   1400036c6:	58                   	pop    rax
   1400036c7:	50                   	push   rax
   1400036c8:	50                   	push   rax
   1400036c9:	48 c7 c1 02 00 00 00 	mov    rcx,0x2
   1400036d0:	48 83 ec 20          	sub    rsp,0x20
   1400036d4:	e8 17 d8 00 00       	call   140010ef0 <iii_witness_emit_kernel>
   1400036d9:	48 83 c4 20          	add    rsp,0x20
   1400036dd:	58                   	pop    rax
   1400036de:	58                   	pop    rax
   1400036df:	48 89 ec             	mov    rsp,rbp
   1400036e2:	5d                   	pop    rbp
   1400036e3:	c3                   	ret
   1400036e4:	48 8d 05 8b de 00 00 	lea    rax,[rip+0xde8b]        # 140011576 <.rdata+0x216>
   1400036eb:	50                   	push   rax
   1400036ec:	58                   	pop    rax
   1400036ed:	50                   	push   rax
   1400036ee:	50                   	push   rax
   1400036ef:	48 c7 c1 02 00 00 00 	mov    rcx,0x2
   1400036f6:	48 83 ec 20          	sub    rsp,0x20
   1400036fa:	e8 f1 d7 00 00       	call   140010ef0 <iii_witness_emit_kernel>
   1400036ff:	48 83 c4 20          	add    rsp,0x20
   140003703:	58                   	pop    rax
   140003704:	58                   	pop    rax
   140003705:	48 89 ec             	mov    rsp,rbp
   140003708:	5d                   	pop    rbp
   140003709:	c3                   	ret
   14000370a:	90                   	nop
   14000370b:	90                   	nop
   14000370c:	90                   	nop
   14000370d:	90                   	nop
   14000370e:	90                   	nop
   14000370f:	90                   	nop

0000000140003710 <L_p__hxr_set_bit>:
   140003710:	55                   	push   rbp
   140003711:	48 89 e5             	mov    rbp,rsp
   140003714:	48 81 ec 00 04 00 00 	sub    rsp,0x400
   14000371b:	48 89 4d f8          	mov    QWORD PTR [rbp-0x8],rcx
   14000371f:	48 c7 c1 01 00 00 00 	mov    rcx,0x1
   140003726:	48 83 ec 20          	sub    rsp,0x20
   14000372a:	e8 c1 d7 00 00       	call   140010ef0 <iii_witness_emit_kernel>
   14000372f:	48 83 c4 20          	add    rsp,0x20
   140003733:	48 b8 01 00 00 00 00 	movabs rax,0x1
   14000373a:	00 00 00 
   14000373d:	50                   	push   rax
   14000373e:	58                   	pop    rax
   14000373f:	48 89 45 f0          	mov    QWORD PTR [rbp-0x10],rax
   140003743:	48 8b 45 f8          	mov    rax,QWORD PTR [rbp-0x8]
   140003747:	50                   	push   rax
   140003748:	48 b8 03 00 00 00 00 	movabs rax,0x3
   14000374f:	00 00 00 
   140003752:	50                   	push   rax
   140003753:	59                   	pop    rcx
   140003754:	58                   	pop    rax
   140003755:	48 d3 e8             	shr    rax,cl
   140003758:	50                   	push   rax
   140003759:	58                   	pop    rax
   14000375a:	48 89 45 e8          	mov    QWORD PTR [rbp-0x18],rax
   14000375e:	48 8b 45 f0          	mov    rax,QWORD PTR [rbp-0x10]
   140003762:	50                   	push   rax
   140003763:	48 8b 45 f8          	mov    rax,QWORD PTR [rbp-0x8]
   140003767:	50                   	push   rax
   140003768:	48 b8 07 00 00 00 00 	movabs rax,0x7
   14000376f:	00 00 00 
   140003772:	50                   	push   rax
   140003773:	59                   	pop    rcx
   140003774:	58                   	pop    rax
   140003775:	48 21 c8             	and    rax,rcx
   140003778:	50                   	push   rax
   140003779:	59                   	pop    rcx
   14000377a:	58                   	pop    rax
   14000377b:	48 d3 e0             	shl    rax,cl
   14000377e:	50                   	push   rax
   14000377f:	58                   	pop    rax
   140003780:	48 89 45 e0          	mov    QWORD PTR [rbp-0x20],rax
   140003784:	48 8d 05 35 2b 01 00 	lea    rax,[rip+0x12b35]        # 1400162c0 <L_p_HXR_BITMAP>
   14000378b:	50                   	push   rax
   14000378c:	48 8b 45 e8          	mov    rax,QWORD PTR [rbp-0x18]
   140003790:	50                   	push   rax
   140003791:	59                   	pop    rcx
   140003792:	58                   	pop    rax
   140003793:	48 8b 04 c8          	mov    rax,QWORD PTR [rax+rcx*8]
   140003797:	50                   	push   rax
   140003798:	48 8b 45 e0          	mov    rax,QWORD PTR [rbp-0x20]
   14000379c:	50                   	push   rax
   14000379d:	59                   	pop    rcx
   14000379e:	58                   	pop    rax
   14000379f:	48 09 c8             	or     rax,rcx
   1400037a2:	50                   	push   rax
   1400037a3:	58                   	pop    rax
   1400037a4:	50                   	push   rax
   1400037a5:	48 8d 05 14 2b 01 00 	lea    rax,[rip+0x12b14]        # 1400162c0 <L_p_HXR_BITMAP>
   1400037ac:	50                   	push   rax
   1400037ad:	48 8b 45 e8          	mov    rax,QWORD PTR [rbp-0x18]
   1400037b1:	50                   	push   rax
   1400037b2:	59                   	pop    rcx
   1400037b3:	58                   	pop    rax
   1400037b4:	5a                   	pop    rdx
   1400037b5:	48 89 14 c8          	mov    QWORD PTR [rax+rcx*8],rdx
   1400037b9:	48 b8 00 00 00 00 00 	movabs rax,0x0
   1400037c0:	00 00 00 
   1400037c3:	50                   	push   rax
   1400037c4:	58                   	pop    rax
   1400037c5:	50                   	push   rax
   1400037c6:	50                   	push   rax
   1400037c7:	48 c7 c1 02 00 00 00 	mov    rcx,0x2
   1400037ce:	48 83 ec 20          	sub    rsp,0x20
   1400037d2:	e8 19 d7 00 00       	call   140010ef0 <iii_witness_emit_kernel>
   1400037d7:	48 83 c4 20          	add    rsp,0x20
   1400037db:	58                   	pop    rax
   1400037dc:	58                   	pop    rax
   1400037dd:	48 89 ec             	mov    rsp,rbp
   1400037e0:	5d                   	pop    rbp
   1400037e1:	c3                   	ret

00000001400037e2 <L_p__hxr_clear_bit>:
   1400037e2:	55                   	push   rbp
   1400037e3:	48 89 e5             	mov    rbp,rsp
   1400037e6:	48 81 ec 00 04 00 00 	sub    rsp,0x400
   1400037ed:	48 89 4d f8          	mov    QWORD PTR [rbp-0x8],rcx
   1400037f1:	48 c7 c1 01 00 00 00 	mov    rcx,0x1
   1400037f8:	48 83 ec 20          	sub    rsp,0x20
   1400037fc:	e8 ef d6 00 00       	call   140010ef0 <iii_witness_emit_kernel>
   140003801:	48 83 c4 20          	add    rsp,0x20
   140003805:	48 b8 01 00 00 00 00 	movabs rax,0x1
   14000380c:	00 00 00 
   14000380f:	50                   	push   rax
   140003810:	58                   	pop    rax
   140003811:	48 89 45 f0          	mov    QWORD PTR [rbp-0x10],rax
   140003815:	48 8b 45 f8          	mov    rax,QWORD PTR [rbp-0x8]
   140003819:	50                   	push   rax
   14000381a:	48 b8 03 00 00 00 00 	movabs rax,0x3
   140003821:	00 00 00 
   140003824:	50                   	push   rax
   140003825:	59                   	pop    rcx
   140003826:	58                   	pop    rax
   140003827:	48 d3 e8             	shr    rax,cl
   14000382a:	50                   	push   rax
   14000382b:	58                   	pop    rax
   14000382c:	48 89 45 e8          	mov    QWORD PTR [rbp-0x18],rax
   140003830:	48 8b 45 f0          	mov    rax,QWORD PTR [rbp-0x10]
   140003834:	50                   	push   rax
   140003835:	48 8b 45 f8          	mov    rax,QWORD PTR [rbp-0x8]
   140003839:	50                   	push   rax
   14000383a:	48 b8 07 00 00 00 00 	movabs rax,0x7
   140003841:	00 00 00 
   140003844:	50                   	push   rax
   140003845:	59                   	pop    rcx
   140003846:	58                   	pop    rax
   140003847:	48 21 c8             	and    rax,rcx
   14000384a:	50                   	push   rax
   14000384b:	59                   	pop    rcx
   14000384c:	58                   	pop    rax
   14000384d:	48 d3 e0             	shl    rax,cl
   140003850:	50                   	push   rax
   140003851:	58                   	pop    rax
   140003852:	48 89 45 e0          	mov    QWORD PTR [rbp-0x20],rax
   140003856:	48 8d 05 63 2a 01 00 	lea    rax,[rip+0x12a63]        # 1400162c0 <L_p_HXR_BITMAP>
   14000385d:	50                   	push   rax
   14000385e:	48 8b 45 e8          	mov    rax,QWORD PTR [rbp-0x18]
   140003862:	50                   	push   rax
   140003863:	59                   	pop    rcx
   140003864:	58                   	pop    rax
   140003865:	48 8b 04 c8          	mov    rax,QWORD PTR [rax+rcx*8]
   140003869:	50                   	push   rax
   14000386a:	48 8b 45 e0          	mov    rax,QWORD PTR [rbp-0x20]
   14000386e:	50                   	push   rax
   14000386f:	48 b8 ff 00 00 00 00 	movabs rax,0xff
   140003876:	00 00 00 
   140003879:	50                   	push   rax
   14000387a:	59                   	pop    rcx
   14000387b:	58                   	pop    rax
   14000387c:	48 31 c8             	xor    rax,rcx
   14000387f:	50                   	push   rax
   140003880:	59                   	pop    rcx
   140003881:	58                   	pop    rax
   140003882:	48 21 c8             	and    rax,rcx
   140003885:	50                   	push   rax
   140003886:	58                   	pop    rax
   140003887:	50                   	push   rax
   140003888:	48 8d 05 31 2a 01 00 	lea    rax,[rip+0x12a31]        # 1400162c0 <L_p_HXR_BITMAP>
   14000388f:	50                   	push   rax
   140003890:	48 8b 45 e8          	mov    rax,QWORD PTR [rbp-0x18]
   140003894:	50                   	push   rax
   140003895:	59                   	pop    rcx
   140003896:	58                   	pop    rax
   140003897:	5a                   	pop    rdx
   140003898:	48 89 14 c8          	mov    QWORD PTR [rax+rcx*8],rdx
   14000389c:	48 b8 00 00 00 00 00 	movabs rax,0x0
   1400038a3:	00 00 00 
   1400038a6:	50                   	push   rax
   1400038a7:	58                   	pop    rax
   1400038a8:	50                   	push   rax
   1400038a9:	50                   	push   rax
   1400038aa:	48 c7 c1 02 00 00 00 	mov    rcx,0x2
   1400038b1:	48 83 ec 20          	sub    rsp,0x20
   1400038b5:	e8 36 d6 00 00       	call   140010ef0 <iii_witness_emit_kernel>
   1400038ba:	48 83 c4 20          	add    rsp,0x20
   1400038be:	58                   	pop    rax
   1400038bf:	58                   	pop    rax
   1400038c0:	48 89 ec             	mov    rsp,rbp
   1400038c3:	5d                   	pop    rbp
   1400038c4:	c3                   	ret

00000001400038c5 <L_p__hxr_get_bit>:
   1400038c5:	55                   	push   rbp
   1400038c6:	48 89 e5             	mov    rbp,rsp
   1400038c9:	48 81 ec 00 04 00 00 	sub    rsp,0x400
   1400038d0:	48 89 4d f8          	mov    QWORD PTR [rbp-0x8],rcx
   1400038d4:	48 c7 c1 01 00 00 00 	mov    rcx,0x1
   1400038db:	48 83 ec 20          	sub    rsp,0x20
   1400038df:	e8 0c d6 00 00       	call   140010ef0 <iii_witness_emit_kernel>
   1400038e4:	48 83 c4 20          	add    rsp,0x20
   1400038e8:	48 8b 45 f8          	mov    rax,QWORD PTR [rbp-0x8]
   1400038ec:	50                   	push   rax
   1400038ed:	48 b8 03 00 00 00 00 	movabs rax,0x3
   1400038f4:	00 00 00 
   1400038f7:	50                   	push   rax
   1400038f8:	59                   	pop    rcx
   1400038f9:	58                   	pop    rax
   1400038fa:	48 d3 e8             	shr    rax,cl
   1400038fd:	50                   	push   rax
   1400038fe:	58                   	pop    rax
   1400038ff:	48 89 45 f0          	mov    QWORD PTR [rbp-0x10],rax
   140003903:	48 8d 05 b6 29 01 00 	lea    rax,[rip+0x129b6]        # 1400162c0 <L_p_HXR_BITMAP>
   14000390a:	50                   	push   rax
   14000390b:	48 8b 45 f0          	mov    rax,QWORD PTR [rbp-0x10]
   14000390f:	50                   	push   rax
   140003910:	59                   	pop    rcx
   140003911:	58                   	pop    rax
   140003912:	48 8b 04 c8          	mov    rax,QWORD PTR [rax+rcx*8]
   140003916:	50                   	push   rax
   140003917:	48 8b 45 f8          	mov    rax,QWORD PTR [rbp-0x8]
   14000391b:	50                   	push   rax
   14000391c:	48 b8 07 00 00 00 00 	movabs rax,0x7
   140003923:	00 00 00 
   140003926:	50                   	push   rax
   140003927:	59                   	pop    rcx
   140003928:	58                   	pop    rax
   140003929:	48 21 c8             	and    rax,rcx
   14000392c:	50                   	push   rax
   14000392d:	59                   	pop    rcx
   14000392e:	58                   	pop    rax
   14000392f:	48 d3 e8             	shr    rax,cl
   140003932:	50                   	push   rax
   140003933:	48 b8 01 00 00 00 00 	movabs rax,0x1
   14000393a:	00 00 00 
   14000393d:	50                   	push   rax
   14000393e:	59                   	pop    rcx
   14000393f:	58                   	pop    rax
   140003940:	48 21 c8             	and    rax,rcx
   140003943:	50                   	push   rax
   140003944:	58                   	pop    rax
   140003945:	50                   	push   rax
   140003946:	50                   	push   rax
   140003947:	48 c7 c1 02 00 00 00 	mov    rcx,0x2
   14000394e:	48 83 ec 20          	sub    rsp,0x20
   140003952:	e8 99 d5 00 00       	call   140010ef0 <iii_witness_emit_kernel>
   140003957:	48 83 c4 20          	add    rsp,0x20
   14000395b:	58                   	pop    rax
   14000395c:	58                   	pop    rax
   14000395d:	48 89 ec             	mov    rsp,rbp
   140003960:	5d                   	pop    rbp
   140003961:	c3                   	ret

0000000140003962 <L_p_iii_hexad_init>:
   140003962:	55                   	push   rbp
   140003963:	48 89 e5             	mov    rbp,rsp
   140003966:	48 81 ec 00 04 00 00 	sub    rsp,0x400
   14000396d:	48 c7 c1 01 00 00 00 	mov    rcx,0x1
   140003974:	48 83 ec 20          	sub    rsp,0x20
   140003978:	e8 73 d5 00 00       	call   140010ef0 <iii_witness_emit_kernel>
   14000397d:	48 83 c4 20          	add    rsp,0x20
   140003981:	48 8b 05 78 d6 00 00 	mov    rax,QWORD PTR [rip+0xd678]        # 140011000 <L_p_HXR_INIT>
   140003988:	50                   	push   rax
   140003989:	48 b8 01 00 00 00 00 	movabs rax,0x1
   140003990:	00 00 00 
   140003993:	50                   	push   rax
   140003994:	59                   	pop    rcx
   140003995:	58                   	pop    rax
   140003996:	48 39 c8             	cmp    rax,rcx
   140003999:	0f 94 c0             	sete   al
   14000399c:	48 0f b6 c0          	movzx  rax,al
   1400039a0:	50                   	push   rax
   1400039a1:	58                   	pop    rax
   1400039a2:	48 85 c0             	test   rax,rax
   1400039a5:	74 29                	je     1400039d0 <L_p_iii_hexad_init+0x6e>
   1400039a7:	48 b8 00 00 00 00 00 	movabs rax,0x0
   1400039ae:	00 00 00 
   1400039b1:	50                   	push   rax
   1400039b2:	58                   	pop    rax
   1400039b3:	50                   	push   rax
   1400039b4:	50                   	push   rax
   1400039b5:	48 c7 c1 02 00 00 00 	mov    rcx,0x2
   1400039bc:	48 83 ec 20          	sub    rsp,0x20
   1400039c0:	e8 2b d5 00 00       	call   140010ef0 <iii_witness_emit_kernel>
   1400039c5:	48 83 c4 20          	add    rsp,0x20
   1400039c9:	58                   	pop    rax
   1400039ca:	58                   	pop    rax
   1400039cb:	48 89 ec             	mov    rsp,rbp
   1400039ce:	5d                   	pop    rbp
   1400039cf:	c3                   	ret
   1400039d0:	48 b8 00 00 00 00 00 	movabs rax,0x0
   1400039d7:	00 00 00 
   1400039da:	50                   	push   rax
   1400039db:	58                   	pop    rax
   1400039dc:	48 89 45 f8          	mov    QWORD PTR [rbp-0x8],rax
   1400039e0:	48 8b 45 f8          	mov    rax,QWORD PTR [rbp-0x8]
   1400039e4:	50                   	push   rax
   1400039e5:	48 8b 05 44 e6 00 00 	mov    rax,QWORD PTR [rip+0xe644]        # 140012030 <.rodata+0x8>
   1400039ec:	50                   	push   rax
   1400039ed:	59                   	pop    rcx
   1400039ee:	58                   	pop    rax
   1400039ef:	48 39 c8             	cmp    rax,rcx
   1400039f2:	0f 9c c0             	setl   al
   1400039f5:	48 0f b6 c0          	movzx  rax,al
   1400039f9:	50                   	push   rax
   1400039fa:	58                   	pop    rax
   1400039fb:	48 85 c0             	test   rax,rax
   1400039fe:	74 3e                	je     140003a3e <L_p_iii_hexad_init+0xdc>
   140003a00:	48 b8 00 00 00 00 00 	movabs rax,0x0
   140003a07:	00 00 00 
   140003a0a:	50                   	push   rax
   140003a0b:	58                   	pop    rax
   140003a0c:	50                   	push   rax
   140003a0d:	48 8d 05 ac 28 01 00 	lea    rax,[rip+0x128ac]        # 1400162c0 <L_p_HXR_BITMAP>
   140003a14:	50                   	push   rax
   140003a15:	48 8b 45 f8          	mov    rax,QWORD PTR [rbp-0x8]
   140003a19:	50                   	push   rax
   140003a1a:	59                   	pop    rcx
   140003a1b:	58                   	pop    rax
   140003a1c:	5a                   	pop    rdx
   140003a1d:	48 89 14 c8          	mov    QWORD PTR [rax+rcx*8],rdx
   140003a21:	48 8b 45 f8          	mov    rax,QWORD PTR [rbp-0x8]
   140003a25:	50                   	push   rax
   140003a26:	48 b8 01 00 00 00 00 	movabs rax,0x1
   140003a2d:	00 00 00 
   140003a30:	50                   	push   rax
   140003a31:	59                   	pop    rcx
   140003a32:	58                   	pop    rax
   140003a33:	48 01 c8             	add    rax,rcx
   140003a36:	50                   	push   rax
   140003a37:	58                   	pop    rax
   140003a38:	48 89 45 f8          	mov    QWORD PTR [rbp-0x8],rax
   140003a3c:	eb a2                	jmp    1400039e0 <L_p_iii_hexad_init+0x7e>
   140003a3e:	48 b8 00 00 00 00 00 	movabs rax,0x0
   140003a45:	00 00 00 
   140003a48:	50                   	push   rax
   140003a49:	58                   	pop    rax
   140003a4a:	48 89 45 f0          	mov    QWORD PTR [rbp-0x10],rax
   140003a4e:	48 8b 45 f0          	mov    rax,QWORD PTR [rbp-0x10]
   140003a52:	50                   	push   rax
   140003a53:	48 8b 05 ce e5 00 00 	mov    rax,QWORD PTR [rip+0xe5ce]        # 140012028 <.rodata>
   140003a5a:	50                   	push   rax
   140003a5b:	59                   	pop    rcx
   140003a5c:	58                   	pop    rax
   140003a5d:	48 39 c8             	cmp    rax,rcx
   140003a60:	0f 9c c0             	setl   al
   140003a63:	48 0f b6 c0          	movzx  rax,al
   140003a67:	50                   	push   rax
   140003a68:	58                   	pop    rax
   140003a69:	48 85 c0             	test   rax,rax
   140003a6c:	0f 84 22 01 00 00    	je     140003b94 <L_p_iii_hexad_init+0x232>
   140003a72:	48 8b 45 f0          	mov    rax,QWORD PTR [rbp-0x10]
   140003a76:	50                   	push   rax
   140003a77:	48 8d 05 c2 2c 01 00 	lea    rax,[rip+0x12cc2]        # 140016740 <L_p_HXR_TRITS>
   140003a7e:	50                   	push   rax
   140003a7f:	58                   	pop    rax
   140003a80:	50                   	push   rax
   140003a81:	5a                   	pop    rdx
   140003a82:	59                   	pop    rcx
   140003a83:	48 83 ec 20          	sub    rsp,0x20
   140003a87:	e8 60 e3 ff ff       	call   140001dec <L_p_iii_hexad_unpack6>
   140003a8c:	48 83 c4 20          	add    rsp,0x20
   140003a90:	50                   	push   rax
   140003a91:	58                   	pop    rax
   140003a92:	48 b8 01 00 00 00 00 	movabs rax,0x1
   140003a99:	00 00 00 
   140003a9c:	50                   	push   rax
   140003a9d:	58                   	pop    rax
   140003a9e:	48 89 45 e8          	mov    QWORD PTR [rbp-0x18],rax
   140003aa2:	48 b8 00 00 00 00 00 	movabs rax,0x0
   140003aa9:	00 00 00 
   140003aac:	50                   	push   rax
   140003aad:	58                   	pop    rax
   140003aae:	48 89 45 e0          	mov    QWORD PTR [rbp-0x20],rax
   140003ab2:	48 8b 45 e0          	mov    rax,QWORD PTR [rbp-0x20]
   140003ab6:	50                   	push   rax
   140003ab7:	48 b8 04 00 00 00 00 	movabs rax,0x4
   140003abe:	00 00 00 
   140003ac1:	50                   	push   rax
   140003ac2:	59                   	pop    rcx
   140003ac3:	58                   	pop    rax
   140003ac4:	48 39 c8             	cmp    rax,rcx
   140003ac7:	0f 9c c0             	setl   al
   140003aca:	48 0f b6 c0          	movzx  rax,al
   140003ace:	50                   	push   rax
   140003acf:	58                   	pop    rax
   140003ad0:	48 85 c0             	test   rax,rax
   140003ad3:	74 67                	je     140003b3c <L_p_iii_hexad_init+0x1da>
   140003ad5:	48 8d 05 64 2c 01 00 	lea    rax,[rip+0x12c64]        # 140016740 <L_p_HXR_TRITS>
   140003adc:	50                   	push   rax
   140003add:	48 8b 45 e0          	mov    rax,QWORD PTR [rbp-0x20]
   140003ae1:	50                   	push   rax
   140003ae2:	59                   	pop    rcx
   140003ae3:	58                   	pop    rax
   140003ae4:	48 8b 04 c8          	mov    rax,QWORD PTR [rax+rcx*8]
   140003ae8:	50                   	push   rax
   140003ae9:	48 b8 01 00 00 00 00 	movabs rax,0x1
   140003af0:	00 00 00 
   140003af3:	50                   	push   rax
   140003af4:	58                   	pop    rax
   140003af5:	48 f7 d8             	neg    rax
   140003af8:	50                   	push   rax
   140003af9:	59                   	pop    rcx
   140003afa:	58                   	pop    rax
   140003afb:	48 39 c8             	cmp    rax,rcx
   140003afe:	0f 94 c0             	sete   al
   140003b01:	48 0f b6 c0          	movzx  rax,al
   140003b05:	50                   	push   rax
   140003b06:	58                   	pop    rax
   140003b07:	48 85 c0             	test   rax,rax
   140003b0a:	74 10                	je     140003b1c <L_p_iii_hexad_init+0x1ba>
   140003b0c:	48 b8 00 00 00 00 00 	movabs rax,0x0
   140003b13:	00 00 00 
   140003b16:	50                   	push   rax
   140003b17:	58                   	pop    rax
   140003b18:	48 89 45 e8          	mov    QWORD PTR [rbp-0x18],rax
   140003b1c:	48 8b 45 e0          	mov    rax,QWORD PTR [rbp-0x20]
   140003b20:	50                   	push   rax
   140003b21:	48 b8 01 00 00 00 00 	movabs rax,0x1
   140003b28:	00 00 00 
   140003b2b:	50                   	push   rax
   140003b2c:	59                   	pop    rcx
   140003b2d:	58                   	pop    rax
   140003b2e:	48 01 c8             	add    rax,rcx
   140003b31:	50                   	push   rax
   140003b32:	58                   	pop    rax
   140003b33:	48 89 45 e0          	mov    QWORD PTR [rbp-0x20],rax
   140003b37:	e9 76 ff ff ff       	jmp    140003ab2 <L_p_iii_hexad_init+0x150>
   140003b3c:	48 8b 45 e8          	mov    rax,QWORD PTR [rbp-0x18]
   140003b40:	50                   	push   rax
   140003b41:	48 b8 01 00 00 00 00 	movabs rax,0x1
   140003b48:	00 00 00 
   140003b4b:	50                   	push   rax
   140003b4c:	59                   	pop    rcx
   140003b4d:	58                   	pop    rax
   140003b4e:	48 39 c8             	cmp    rax,rcx
   140003b51:	0f 94 c0             	sete   al
   140003b54:	48 0f b6 c0          	movzx  rax,al
   140003b58:	50                   	push   rax
   140003b59:	58                   	pop    rax
   140003b5a:	48 85 c0             	test   rax,rax
   140003b5d:	74 15                	je     140003b74 <L_p_iii_hexad_init+0x212>
   140003b5f:	48 8b 45 f0          	mov    rax,QWORD PTR [rbp-0x10]
   140003b63:	50                   	push   rax
   140003b64:	59                   	pop    rcx
   140003b65:	48 83 ec 20          	sub    rsp,0x20
   140003b69:	e8 a2 fb ff ff       	call   140003710 <L_p__hxr_set_bit>
   140003b6e:	48 83 c4 20          	add    rsp,0x20
   140003b72:	50                   	push   rax
   140003b73:	58                   	pop    rax
   140003b74:	48 8b 45 f0          	mov    rax,QWORD PTR [rbp-0x10]
   140003b78:	50                   	push   rax
   140003b79:	48 b8 01 00 00 00 00 	movabs rax,0x1
   140003b80:	00 00 00 
   140003b83:	50                   	push   rax
   140003b84:	59                   	pop    rcx
   140003b85:	58                   	pop    rax
   140003b86:	48 01 c8             	add    rax,rcx
   140003b89:	50                   	push   rax
   140003b8a:	58                   	pop    rax
   140003b8b:	48 89 45 f0          	mov    QWORD PTR [rbp-0x10],rax
   140003b8f:	e9 ba fe ff ff       	jmp    140003a4e <L_p_iii_hexad_init+0xec>
   140003b94:	48 b8 01 00 00 00 00 	movabs rax,0x1
   140003b9b:	00 00 00 
   140003b9e:	50                   	push   rax
   140003b9f:	58                   	pop    rax
   140003ba0:	48 89 45 d8          	mov    QWORD PTR [rbp-0x28],rax
   140003ba4:	48 8b 45 d8          	mov    rax,QWORD PTR [rbp-0x28]
   140003ba8:	50                   	push   rax
   140003ba9:	48 8b 05 88 e4 00 00 	mov    rax,QWORD PTR [rip+0xe488]        # 140012038 <.rodata+0x10>
   140003bb0:	50                   	push   rax
   140003bb1:	59                   	pop    rcx
   140003bb2:	58                   	pop    rax
   140003bb3:	48 39 c8             	cmp    rax,rcx
   140003bb6:	0f 9c c0             	setl   al
   140003bb9:	48 0f b6 c0          	movzx  rax,al
   140003bbd:	50                   	push   rax
   140003bbe:	58                   	pop    rax
   140003bbf:	48 85 c0             	test   rax,rax
   140003bc2:	74 41                	je     140003c05 <L_p_iii_hexad_init+0x2a3>
   140003bc4:	48 8b 45 d8          	mov    rax,QWORD PTR [rbp-0x28]
   140003bc8:	50                   	push   rax
   140003bc9:	59                   	pop    rcx
   140003bca:	48 83 ec 20          	sub    rsp,0x20
   140003bce:	e8 cf f6 ff ff       	call   1400032a2 <L_p_iii_hexad_pfs>
   140003bd3:	48 83 c4 20          	add    rsp,0x20
   140003bd7:	50                   	push   rax
   140003bd8:	59                   	pop    rcx
   140003bd9:	48 83 ec 20          	sub    rsp,0x20
   140003bdd:	e8 00 fc ff ff       	call   1400037e2 <L_p__hxr_clear_bit>
   140003be2:	48 83 c4 20          	add    rsp,0x20
   140003be6:	50                   	push   rax
   140003be7:	58                   	pop    rax
   140003be8:	48 8b 45 d8          	mov    rax,QWORD PTR [rbp-0x28]
   140003bec:	50                   	push   rax
   140003bed:	48 b8 01 00 00 00 00 	movabs rax,0x1
   140003bf4:	00 00 00 
   140003bf7:	50                   	push   rax
   140003bf8:	59                   	pop    rcx
   140003bf9:	58                   	pop    rax
   140003bfa:	48 01 c8             	add    rax,rcx
   140003bfd:	50                   	push   rax
   140003bfe:	58                   	pop    rax
   140003bff:	48 89 45 d8          	mov    QWORD PTR [rbp-0x28],rax
   140003c03:	eb 9f                	jmp    140003ba4 <L_p_iii_hexad_init+0x242>
   140003c05:	48 b8 01 00 00 00 00 	movabs rax,0x1
   140003c0c:	00 00 00 
   140003c0f:	50                   	push   rax
   140003c10:	58                   	pop    rax
   140003c11:	48 89 05 e8 d3 00 00 	mov    QWORD PTR [rip+0xd3e8],rax        # 140011000 <L_p_HXR_INIT>
   140003c18:	48 b8 00 00 00 00 00 	movabs rax,0x0
   140003c1f:	00 00 00 
   140003c22:	50                   	push   rax
   140003c23:	58                   	pop    rax
   140003c24:	50                   	push   rax
   140003c25:	50                   	push   rax
   140003c26:	48 c7 c1 02 00 00 00 	mov    rcx,0x2
   140003c2d:	48 83 ec 20          	sub    rsp,0x20
   140003c31:	e8 ba d2 00 00       	call   140010ef0 <iii_witness_emit_kernel>
   140003c36:	48 83 c4 20          	add    rsp,0x20
   140003c3a:	58                   	pop    rax
   140003c3b:	58                   	pop    rax
   140003c3c:	48 89 ec             	mov    rsp,rbp
   140003c3f:	5d                   	pop    rbp
   140003c40:	c3                   	ret

0000000140003c41 <L_p_iii_hexad_reachable>:
   140003c41:	55                   	push   rbp
   140003c42:	48 89 e5             	mov    rbp,rsp
   140003c45:	48 81 ec 00 04 00 00 	sub    rsp,0x400
   140003c4c:	48 89 4d f8          	mov    QWORD PTR [rbp-0x8],rcx
   140003c50:	48 c7 c1 01 00 00 00 	mov    rcx,0x1
   140003c57:	48 83 ec 20          	sub    rsp,0x20
   140003c5b:	e8 90 d2 00 00       	call   140010ef0 <iii_witness_emit_kernel>
   140003c60:	48 83 c4 20          	add    rsp,0x20
   140003c64:	48 83 ec 20          	sub    rsp,0x20
   140003c68:	e8 f5 fc ff ff       	call   140003962 <L_p_iii_hexad_init>
   140003c6d:	48 83 c4 20          	add    rsp,0x20
   140003c71:	50                   	push   rax
   140003c72:	58                   	pop    rax
   140003c73:	48 8b 45 f8          	mov    rax,QWORD PTR [rbp-0x8]
   140003c77:	50                   	push   rax
   140003c78:	48 8b 05 a9 e3 00 00 	mov    rax,QWORD PTR [rip+0xe3a9]        # 140012028 <.rodata>
   140003c7f:	50                   	push   rax
   140003c80:	59                   	pop    rcx
   140003c81:	58                   	pop    rax
   140003c82:	48 39 c8             	cmp    rax,rcx
   140003c85:	0f 9d c0             	setge  al
   140003c88:	48 0f b6 c0          	movzx  rax,al
   140003c8c:	50                   	push   rax
   140003c8d:	58                   	pop    rax
   140003c8e:	48 85 c0             	test   rax,rax
   140003c91:	74 29                	je     140003cbc <L_p_iii_hexad_reachable+0x7b>
   140003c93:	48 b8 00 00 00 00 00 	movabs rax,0x0
   140003c9a:	00 00 00 
   140003c9d:	50                   	push   rax
   140003c9e:	58                   	pop    rax
   140003c9f:	50                   	push   rax
   140003ca0:	50                   	push   rax
   140003ca1:	48 c7 c1 02 00 00 00 	mov    rcx,0x2
   140003ca8:	48 83 ec 20          	sub    rsp,0x20
   140003cac:	e8 3f d2 00 00       	call   140010ef0 <iii_witness_emit_kernel>
   140003cb1:	48 83 c4 20          	add    rsp,0x20
   140003cb5:	58                   	pop    rax
   140003cb6:	58                   	pop    rax
   140003cb7:	48 89 ec             	mov    rsp,rbp
   140003cba:	5d                   	pop    rbp
   140003cbb:	c3                   	ret
   140003cbc:	48 8b 45 f8          	mov    rax,QWORD PTR [rbp-0x8]
   140003cc0:	50                   	push   rax
   140003cc1:	59                   	pop    rcx
   140003cc2:	48 83 ec 20          	sub    rsp,0x20
   140003cc6:	e8 fa fb ff ff       	call   1400038c5 <L_p__hxr_get_bit>
   140003ccb:	48 83 c4 20          	add    rsp,0x20
   140003ccf:	50                   	push   rax
   140003cd0:	58                   	pop    rax
   140003cd1:	50                   	push   rax
   140003cd2:	50                   	push   rax
   140003cd3:	48 c7 c1 02 00 00 00 	mov    rcx,0x2
   140003cda:	48 83 ec 20          	sub    rsp,0x20
   140003cde:	e8 0d d2 00 00       	call   140010ef0 <iii_witness_emit_kernel>
   140003ce3:	48 83 c4 20          	add    rsp,0x20
   140003ce7:	58                   	pop    rax
   140003ce8:	58                   	pop    rax
   140003ce9:	48 89 ec             	mov    rsp,rbp
   140003cec:	5d                   	pop    rbp
   140003ced:	c3                   	ret

0000000140003cee <L_p_iii_hexad_bitmap_sha256>:
   140003cee:	55                   	push   rbp
   140003cef:	48 89 e5             	mov    rbp,rsp
   140003cf2:	48 81 ec 00 04 00 00 	sub    rsp,0x400
   140003cf9:	48 89 4d f8          	mov    QWORD PTR [rbp-0x8],rcx
   140003cfd:	48 c7 c1 01 00 00 00 	mov    rcx,0x1
   140003d04:	48 83 ec 20          	sub    rsp,0x20
   140003d08:	e8 e3 d1 00 00       	call   140010ef0 <iii_witness_emit_kernel>
   140003d0d:	48 83 c4 20          	add    rsp,0x20
   140003d11:	48 83 ec 20          	sub    rsp,0x20
   140003d15:	e8 48 fc ff ff       	call   140003962 <L_p_iii_hexad_init>
   140003d1a:	48 83 c4 20          	add    rsp,0x20
   140003d1e:	50                   	push   rax
   140003d1f:	58                   	pop    rax
   140003d20:	48 8d 05 99 25 01 00 	lea    rax,[rip+0x12599]        # 1400162c0 <L_p_HXR_BITMAP>
   140003d27:	50                   	push   rax
   140003d28:	58                   	pop    rax
   140003d29:	50                   	push   rax
   140003d2a:	48 8b 05 ff e2 00 00 	mov    rax,QWORD PTR [rip+0xe2ff]        # 140012030 <.rodata+0x8>
   140003d31:	50                   	push   rax
   140003d32:	48 8b 45 f8          	mov    rax,QWORD PTR [rbp-0x8]
   140003d36:	50                   	push   rax
   140003d37:	41 58                	pop    r8
   140003d39:	5a                   	pop    rdx
   140003d3a:	59                   	pop    rcx
   140003d3b:	48 83 ec 20          	sub    rsp,0x20
   140003d3f:	e8 98 45 00 00       	call   1400082dc <L_p_sha256_oneshot>
   140003d44:	48 83 c4 20          	add    rsp,0x20
   140003d48:	50                   	push   rax
   140003d49:	58                   	pop    rax
   140003d4a:	48 b8 00 00 00 00 00 	movabs rax,0x0
   140003d51:	00 00 00 
   140003d54:	50                   	push   rax
   140003d55:	58                   	pop    rax
   140003d56:	50                   	push   rax
   140003d57:	50                   	push   rax
   140003d58:	48 c7 c1 02 00 00 00 	mov    rcx,0x2
   140003d5f:	48 83 ec 20          	sub    rsp,0x20
   140003d63:	e8 88 d1 00 00       	call   140010ef0 <iii_witness_emit_kernel>
   140003d68:	48 83 c4 20          	add    rsp,0x20
   140003d6c:	58                   	pop    rax
   140003d6d:	58                   	pop    rax
   140003d6e:	48 89 ec             	mov    rsp,rbp
   140003d71:	5d                   	pop    rbp
   140003d72:	c3                   	ret

0000000140003d73 <L_p_iii_hexad_reachable_count>:
   140003d73:	55                   	push   rbp
   140003d74:	48 89 e5             	mov    rbp,rsp
   140003d77:	48 81 ec 00 04 00 00 	sub    rsp,0x400
   140003d7e:	48 c7 c1 01 00 00 00 	mov    rcx,0x1
   140003d85:	48 83 ec 20          	sub    rsp,0x20
   140003d89:	e8 62 d1 00 00       	call   140010ef0 <iii_witness_emit_kernel>
   140003d8e:	48 83 c4 20          	add    rsp,0x20
   140003d92:	48 83 ec 20          	sub    rsp,0x20
   140003d96:	e8 c7 fb ff ff       	call   140003962 <L_p_iii_hexad_init>
   140003d9b:	48 83 c4 20          	add    rsp,0x20
   140003d9f:	50                   	push   rax
   140003da0:	58                   	pop    rax
   140003da1:	48 b8 00 00 00 00 00 	movabs rax,0x0
   140003da8:	00 00 00 
   140003dab:	50                   	push   rax
   140003dac:	58                   	pop    rax
   140003dad:	48 89 45 f8          	mov    QWORD PTR [rbp-0x8],rax
   140003db1:	48 b8 00 00 00 00 00 	movabs rax,0x0
   140003db8:	00 00 00 
   140003dbb:	50                   	push   rax
   140003dbc:	58                   	pop    rax
   140003dbd:	48 89 45 f0          	mov    QWORD PTR [rbp-0x10],rax
   140003dc1:	48 8b 45 f0          	mov    rax,QWORD PTR [rbp-0x10]
   140003dc5:	50                   	push   rax
   140003dc6:	48 8b 05 5b e2 00 00 	mov    rax,QWORD PTR [rip+0xe25b]        # 140012028 <.rodata>
   140003dcd:	50                   	push   rax
   140003dce:	59                   	pop    rcx
   140003dcf:	58                   	pop    rax
   140003dd0:	48 39 c8             	cmp    rax,rcx
   140003dd3:	0f 9c c0             	setl   al
   140003dd6:	48 0f b6 c0          	movzx  rax,al
   140003dda:	50                   	push   rax
   140003ddb:	58                   	pop    rax
   140003ddc:	48 85 c0             	test   rax,rax
   140003ddf:	74 41                	je     140003e22 <L_p_iii_hexad_reachable_count+0xaf>
   140003de1:	48 8b 45 f8          	mov    rax,QWORD PTR [rbp-0x8]
   140003de5:	50                   	push   rax
   140003de6:	48 8b 45 f0          	mov    rax,QWORD PTR [rbp-0x10]
   140003dea:	50                   	push   rax
   140003deb:	59                   	pop    rcx
   140003dec:	48 83 ec 20          	sub    rsp,0x20
   140003df0:	e8 d0 fa ff ff       	call   1400038c5 <L_p__hxr_get_bit>
   140003df5:	48 83 c4 20          	add    rsp,0x20
   140003df9:	50                   	push   rax
   140003dfa:	59                   	pop    rcx
   140003dfb:	58                   	pop    rax
   140003dfc:	48 01 c8             	add    rax,rcx
   140003dff:	50                   	push   rax
   140003e00:	58                   	pop    rax
   140003e01:	48 89 45 f8          	mov    QWORD PTR [rbp-0x8],rax
   140003e05:	48 8b 45 f0          	mov    rax,QWORD PTR [rbp-0x10]
   140003e09:	50                   	push   rax
   140003e0a:	48 b8 01 00 00 00 00 	movabs rax,0x1
   140003e11:	00 00 00 
   140003e14:	50                   	push   rax
   140003e15:	59                   	pop    rcx
   140003e16:	58                   	pop    rax
   140003e17:	48 01 c8             	add    rax,rcx
   140003e1a:	50                   	push   rax
   140003e1b:	58                   	pop    rax
   140003e1c:	48 89 45 f0          	mov    QWORD PTR [rbp-0x10],rax
   140003e20:	eb 9f                	jmp    140003dc1 <L_p_iii_hexad_reachable_count+0x4e>
   140003e22:	48 8b 45 f8          	mov    rax,QWORD PTR [rbp-0x8]
   140003e26:	50                   	push   rax
   140003e27:	58                   	pop    rax
   140003e28:	50                   	push   rax
   140003e29:	50                   	push   rax
   140003e2a:	48 c7 c1 02 00 00 00 	mov    rcx,0x2
   140003e31:	48 83 ec 20          	sub    rsp,0x20
   140003e35:	e8 b6 d0 00 00       	call   140010ef0 <iii_witness_emit_kernel>
   140003e3a:	48 83 c4 20          	add    rsp,0x20
   140003e3e:	58                   	pop    rax
   140003e3f:	58                   	pop    rax
   140003e40:	48 89 ec             	mov    rsp,rbp
   140003e43:	5d                   	pop    rbp
   140003e44:	c3                   	ret

0000000140003e45 <L_p_iii_hexad_internal_set_bit>:
   140003e45:	55                   	push   rbp
   140003e46:	48 89 e5             	mov    rbp,rsp
   140003e49:	48 81 ec 00 04 00 00 	sub    rsp,0x400
   140003e50:	48 89 4d f8          	mov    QWORD PTR [rbp-0x8],rcx
   140003e54:	48 c7 c1 01 00 00 00 	mov    rcx,0x1
   140003e5b:	48 83 ec 20          	sub    rsp,0x20
   140003e5f:	e8 8c d0 00 00       	call   140010ef0 <iii_witness_emit_kernel>
   140003e64:	48 83 c4 20          	add    rsp,0x20
   140003e68:	48 83 ec 20          	sub    rsp,0x20
   140003e6c:	e8 f1 fa ff ff       	call   140003962 <L_p_iii_hexad_init>
   140003e71:	48 83 c4 20          	add    rsp,0x20
   140003e75:	50                   	push   rax
   140003e76:	58                   	pop    rax
   140003e77:	48 8b 45 f8          	mov    rax,QWORD PTR [rbp-0x8]
   140003e7b:	50                   	push   rax
   140003e7c:	48 8b 05 a5 e1 00 00 	mov    rax,QWORD PTR [rip+0xe1a5]        # 140012028 <.rodata>
   140003e83:	50                   	push   rax
   140003e84:	59                   	pop    rcx
   140003e85:	58                   	pop    rax
   140003e86:	48 39 c8             	cmp    rax,rcx
   140003e89:	0f 9d c0             	setge  al
   140003e8c:	48 0f b6 c0          	movzx  rax,al
   140003e90:	50                   	push   rax
   140003e91:	58                   	pop    rax
   140003e92:	48 85 c0             	test   rax,rax
   140003e95:	74 2e                	je     140003ec5 <L_p_iii_hexad_internal_set_bit+0x80>
   140003e97:	48 b8 01 00 00 00 00 	movabs rax,0x1
   140003e9e:	00 00 00 
   140003ea1:	50                   	push   rax
   140003ea2:	58                   	pop    rax
   140003ea3:	48 f7 d8             	neg    rax
   140003ea6:	50                   	push   rax
   140003ea7:	58                   	pop    rax
   140003ea8:	50                   	push   rax
   140003ea9:	50                   	push   rax
   140003eaa:	48 c7 c1 02 00 00 00 	mov    rcx,0x2
   140003eb1:	48 83 ec 20          	sub    rsp,0x20
   140003eb5:	e8 36 d0 00 00       	call   140010ef0 <iii_witness_emit_kernel>
   140003eba:	48 83 c4 20          	add    rsp,0x20
   140003ebe:	58                   	pop    rax
   140003ebf:	58                   	pop    rax
   140003ec0:	48 89 ec             	mov    rsp,rbp
   140003ec3:	5d                   	pop    rbp
   140003ec4:	c3                   	ret
   140003ec5:	48 8b 45 f8          	mov    rax,QWORD PTR [rbp-0x8]
   140003ec9:	50                   	push   rax
   140003eca:	59                   	pop    rcx
   140003ecb:	48 83 ec 20          	sub    rsp,0x20
   140003ecf:	e8 f1 f9 ff ff       	call   1400038c5 <L_p__hxr_get_bit>
   140003ed4:	48 83 c4 20          	add    rsp,0x20
   140003ed8:	50                   	push   rax
   140003ed9:	48 b8 01 00 00 00 00 	movabs rax,0x1
   140003ee0:	00 00 00 
   140003ee3:	50                   	push   rax
   140003ee4:	59                   	pop    rcx
   140003ee5:	58                   	pop    rax
   140003ee6:	48 39 c8             	cmp    rax,rcx
   140003ee9:	0f 94 c0             	sete   al
   140003eec:	48 0f b6 c0          	movzx  rax,al
   140003ef0:	50                   	push   rax
   140003ef1:	58                   	pop    rax
   140003ef2:	48 85 c0             	test   rax,rax
   140003ef5:	74 29                	je     140003f20 <L_p_iii_hexad_internal_set_bit+0xdb>
   140003ef7:	48 b8 00 00 00 00 00 	movabs rax,0x0
   140003efe:	00 00 00 
   140003f01:	50                   	push   rax
   140003f02:	58                   	pop    rax
   140003f03:	50                   	push   rax
   140003f04:	50                   	push   rax
   140003f05:	48 c7 c1 02 00 00 00 	mov    rcx,0x2
   140003f0c:	48 83 ec 20          	sub    rsp,0x20
   140003f10:	e8 db cf 00 00       	call   140010ef0 <iii_witness_emit_kernel>
   140003f15:	48 83 c4 20          	add    rsp,0x20
   140003f19:	58                   	pop    rax
   140003f1a:	58                   	pop    rax
   140003f1b:	48 89 ec             	mov    rsp,rbp
   140003f1e:	5d                   	pop    rbp
   140003f1f:	c3                   	ret
   140003f20:	48 8b 45 f8          	mov    rax,QWORD PTR [rbp-0x8]
   140003f24:	50                   	push   rax
   140003f25:	59                   	pop    rcx
   140003f26:	48 83 ec 20          	sub    rsp,0x20
   140003f2a:	e8 e1 f7 ff ff       	call   140003710 <L_p__hxr_set_bit>
   140003f2f:	48 83 c4 20          	add    rsp,0x20
   140003f33:	50                   	push   rax
   140003f34:	58                   	pop    rax
   140003f35:	48 b8 01 00 00 00 00 	movabs rax,0x1
   140003f3c:	00 00 00 
   140003f3f:	50                   	push   rax
   140003f40:	58                   	pop    rax
   140003f41:	50                   	push   rax
   140003f42:	50                   	push   rax
   140003f43:	48 c7 c1 02 00 00 00 	mov    rcx,0x2
   140003f4a:	48 83 ec 20          	sub    rsp,0x20
   140003f4e:	e8 9d cf 00 00       	call   140010ef0 <iii_witness_emit_kernel>
   140003f53:	48 83 c4 20          	add    rsp,0x20
   140003f57:	58                   	pop    rax
   140003f58:	58                   	pop    rax
   140003f59:	48 89 ec             	mov    rsp,rbp
   140003f5c:	5d                   	pop    rbp
   140003f5d:	c3                   	ret

0000000140003f5e <L_p_iii_hexad_internal_get_bit>:
   140003f5e:	55                   	push   rbp
   140003f5f:	48 89 e5             	mov    rbp,rsp
   140003f62:	48 81 ec 00 04 00 00 	sub    rsp,0x400
   140003f69:	48 89 4d f8          	mov    QWORD PTR [rbp-0x8],rcx
   140003f6d:	48 c7 c1 01 00 00 00 	mov    rcx,0x1
   140003f74:	48 83 ec 20          	sub    rsp,0x20
   140003f78:	e8 73 cf 00 00       	call   140010ef0 <iii_witness_emit_kernel>
   140003f7d:	48 83 c4 20          	add    rsp,0x20
   140003f81:	48 83 ec 20          	sub    rsp,0x20
   140003f85:	e8 d8 f9 ff ff       	call   140003962 <L_p_iii_hexad_init>
   140003f8a:	48 83 c4 20          	add    rsp,0x20
   140003f8e:	50                   	push   rax
   140003f8f:	58                   	pop    rax
   140003f90:	48 8b 45 f8          	mov    rax,QWORD PTR [rbp-0x8]
   140003f94:	50                   	push   rax
   140003f95:	48 8b 05 8c e0 00 00 	mov    rax,QWORD PTR [rip+0xe08c]        # 140012028 <.rodata>
   140003f9c:	50                   	push   rax
   140003f9d:	59                   	pop    rcx
   140003f9e:	58                   	pop    rax
   140003f9f:	48 39 c8             	cmp    rax,rcx
   140003fa2:	0f 9d c0             	setge  al
   140003fa5:	48 0f b6 c0          	movzx  rax,al
   140003fa9:	50                   	push   rax
   140003faa:	58                   	pop    rax
   140003fab:	48 85 c0             	test   rax,rax
   140003fae:	74 2e                	je     140003fde <L_p_iii_hexad_internal_get_bit+0x80>
   140003fb0:	48 b8 01 00 00 00 00 	movabs rax,0x1
   140003fb7:	00 00 00 
   140003fba:	50                   	push   rax
   140003fbb:	58                   	pop    rax
   140003fbc:	48 f7 d8             	neg    rax
   140003fbf:	50                   	push   rax
   140003fc0:	58                   	pop    rax
   140003fc1:	50                   	push   rax
   140003fc2:	50                   	push   rax
   140003fc3:	48 c7 c1 02 00 00 00 	mov    rcx,0x2
   140003fca:	48 83 ec 20          	sub    rsp,0x20
   140003fce:	e8 1d cf 00 00       	call   140010ef0 <iii_witness_emit_kernel>
   140003fd3:	48 83 c4 20          	add    rsp,0x20
   140003fd7:	58                   	pop    rax
   140003fd8:	58                   	pop    rax
   140003fd9:	48 89 ec             	mov    rsp,rbp
   140003fdc:	5d                   	pop    rbp
   140003fdd:	c3                   	ret
   140003fde:	48 8b 45 f8          	mov    rax,QWORD PTR [rbp-0x8]
   140003fe2:	50                   	push   rax
   140003fe3:	59                   	pop    rcx
   140003fe4:	48 83 ec 20          	sub    rsp,0x20
   140003fe8:	e8 d8 f8 ff ff       	call   1400038c5 <L_p__hxr_get_bit>
   140003fed:	48 83 c4 20          	add    rsp,0x20
   140003ff1:	50                   	push   rax
   140003ff2:	58                   	pop    rax
   140003ff3:	50                   	push   rax
   140003ff4:	50                   	push   rax
   140003ff5:	48 c7 c1 02 00 00 00 	mov    rcx,0x2
   140003ffc:	48 83 ec 20          	sub    rsp,0x20
   140004000:	e8 eb ce 00 00       	call   140010ef0 <iii_witness_emit_kernel>
   140004005:	48 83 c4 20          	add    rsp,0x20
   140004009:	58                   	pop    rax
   14000400a:	58                   	pop    rax
   14000400b:	48 89 ec             	mov    rsp,rbp
   14000400e:	5d                   	pop    rbp
   14000400f:	c3                   	ret

0000000140004010 <L_p_xii_term_arena_reset>:
   140004010:	55                   	push   rbp
   140004011:	48 89 e5             	mov    rbp,rsp
   140004014:	48 81 ec 00 04 00 00 	sub    rsp,0x400
   14000401b:	48 c7 c1 01 00 00 00 	mov    rcx,0x1
   140004022:	48 83 ec 20          	sub    rsp,0x20
   140004026:	e8 c5 ce 00 00       	call   140010ef0 <iii_witness_emit_kernel>
   14000402b:	48 83 c4 20          	add    rsp,0x20
   14000402f:	48 b8 00 00 00 00 00 	movabs rax,0x0
   140004036:	00 00 00 
   140004039:	50                   	push   rax
   14000403a:	58                   	pop    rax
   14000403b:	48 89 05 ce cf 00 00 	mov    QWORD PTR [rip+0xcfce],rax        # 140011010 <L_p_XII_TERM_NEXT>
   140004042:	48 b8 00 00 00 00 00 	movabs rax,0x0
   140004049:	00 00 00 
   14000404c:	50                   	push   rax
   14000404d:	58                   	pop    rax
   14000404e:	48 89 45 f8          	mov    QWORD PTR [rbp-0x8],rax
   140004052:	48 8b 45 f8          	mov    rax,QWORD PTR [rbp-0x8]
   140004056:	50                   	push   rax
   140004057:	48 8b 05 22 e1 00 00 	mov    rax,QWORD PTR [rip+0xe122]        # 140012180 <.rodata+0x140>
   14000405e:	50                   	push   rax
   14000405f:	59                   	pop    rcx
   140004060:	58                   	pop    rax
   140004061:	48 39 c8             	cmp    rax,rcx
   140004064:	0f 9c c0             	setl   al
   140004067:	48 0f b6 c0          	movzx  rax,al
   14000406b:	50                   	push   rax
   14000406c:	58                   	pop    rax
   14000406d:	48 85 c0             	test   rax,rax
   140004070:	74 3e                	je     1400040b0 <L_p_xii_term_arena_reset+0xa0>
   140004072:	48 b8 00 00 00 00 00 	movabs rax,0x0
   140004079:	00 00 00 
   14000407c:	50                   	push   rax
   14000407d:	58                   	pop    rax
   14000407e:	50                   	push   rax
   14000407f:	48 8d 05 ea 26 01 00 	lea    rax,[rip+0x126ea]        # 140016770 <L_p_XII_TERM_ARENA>
   140004086:	50                   	push   rax
   140004087:	48 8b 45 f8          	mov    rax,QWORD PTR [rbp-0x8]
   14000408b:	50                   	push   rax
   14000408c:	59                   	pop    rcx
   14000408d:	58                   	pop    rax
   14000408e:	5a                   	pop    rdx
   14000408f:	48 89 14 c8          	mov    QWORD PTR [rax+rcx*8],rdx
   140004093:	48 8b 45 f8          	mov    rax,QWORD PTR [rbp-0x8]
   140004097:	50                   	push   rax
   140004098:	48 b8 01 00 00 00 00 	movabs rax,0x1
   14000409f:	00 00 00 
   1400040a2:	50                   	push   rax
   1400040a3:	59                   	pop    rcx
   1400040a4:	58                   	pop    rax
   1400040a5:	48 01 c8             	add    rax,rcx
   1400040a8:	50                   	push   rax
   1400040a9:	58                   	pop    rax
   1400040aa:	48 89 45 f8          	mov    QWORD PTR [rbp-0x8],rax
   1400040ae:	eb a2                	jmp    140004052 <L_p_xii_term_arena_reset+0x42>
   1400040b0:	48 b8 00 00 00 00 00 	movabs rax,0x0
   1400040b7:	00 00 00 
   1400040ba:	50                   	push   rax
   1400040bb:	58                   	pop    rax
   1400040bc:	50                   	push   rax
   1400040bd:	50                   	push   rax
   1400040be:	48 c7 c1 02 00 00 00 	mov    rcx,0x2
   1400040c5:	48 83 ec 20          	sub    rsp,0x20
   1400040c9:	e8 22 ce 00 00       	call   140010ef0 <iii_witness_emit_kernel>
   1400040ce:	48 83 c4 20          	add    rsp,0x20
   1400040d2:	58                   	pop    rax
   1400040d3:	58                   	pop    rax
   1400040d4:	48 89 ec             	mov    rsp,rbp
   1400040d7:	5d                   	pop    rbp
   1400040d8:	c3                   	ret

00000001400040d9 <L_p_xii_term_arena_used>:
   1400040d9:	55                   	push   rbp
   1400040da:	48 89 e5             	mov    rbp,rsp
   1400040dd:	48 81 ec 00 04 00 00 	sub    rsp,0x400
   1400040e4:	48 c7 c1 01 00 00 00 	mov    rcx,0x1
   1400040eb:	48 83 ec 20          	sub    rsp,0x20
   1400040ef:	e8 fc cd 00 00       	call   140010ef0 <iii_witness_emit_kernel>
   1400040f4:	48 83 c4 20          	add    rsp,0x20
   1400040f8:	48 8b 05 11 cf 00 00 	mov    rax,QWORD PTR [rip+0xcf11]        # 140011010 <L_p_XII_TERM_NEXT>
   1400040ff:	50                   	push   rax
   140004100:	58                   	pop    rax
   140004101:	50                   	push   rax
   140004102:	50                   	push   rax
   140004103:	48 c7 c1 02 00 00 00 	mov    rcx,0x2
   14000410a:	48 83 ec 20          	sub    rsp,0x20
   14000410e:	e8 dd cd 00 00       	call   140010ef0 <iii_witness_emit_kernel>
   140004113:	48 83 c4 20          	add    rsp,0x20
   140004117:	58                   	pop    rax
   140004118:	58                   	pop    rax
   140004119:	48 89 ec             	mov    rsp,rbp
   14000411c:	5d                   	pop    rbp
   14000411d:	c3                   	ret

000000014000411e <L_p_xii_term_arena_capacity>:
   14000411e:	55                   	push   rbp
   14000411f:	48 89 e5             	mov    rbp,rsp
   140004122:	48 81 ec 00 04 00 00 	sub    rsp,0x400
   140004129:	48 c7 c1 01 00 00 00 	mov    rcx,0x1
   140004130:	48 83 ec 20          	sub    rsp,0x20
   140004134:	e8 b7 cd 00 00       	call   140010ef0 <iii_witness_emit_kernel>
   140004139:	48 83 c4 20          	add    rsp,0x20
   14000413d:	48 8b 05 44 e0 00 00 	mov    rax,QWORD PTR [rip+0xe044]        # 140012188 <.rodata+0x148>
   140004144:	50                   	push   rax
   140004145:	58                   	pop    rax
   140004146:	50                   	push   rax
   140004147:	50                   	push   rax
   140004148:	48 c7 c1 02 00 00 00 	mov    rcx,0x2
   14000414f:	48 83 ec 20          	sub    rsp,0x20
   140004153:	e8 98 cd 00 00       	call   140010ef0 <iii_witness_emit_kernel>
   140004158:	48 83 c4 20          	add    rsp,0x20
   14000415c:	58                   	pop    rax
   14000415d:	58                   	pop    rax
   14000415e:	48 89 ec             	mov    rsp,rbp
   140004161:	5d                   	pop    rbp
   140004162:	c3                   	ret

0000000140004163 <L_p__xii_term_write_u32>:
   140004163:	55                   	push   rbp
   140004164:	48 89 e5             	mov    rbp,rsp
   140004167:	48 81 ec 00 04 00 00 	sub    rsp,0x400
   14000416e:	48 89 4d f8          	mov    QWORD PTR [rbp-0x8],rcx
   140004172:	48 89 55 f0          	mov    QWORD PTR [rbp-0x10],rdx
   140004176:	48 c7 c1 01 00 00 00 	mov    rcx,0x1
   14000417d:	48 83 ec 20          	sub    rsp,0x20
   140004181:	e8 6a cd 00 00       	call   140010ef0 <iii_witness_emit_kernel>
   140004186:	48 83 c4 20          	add    rsp,0x20
   14000418a:	48 8b 45 f0          	mov    rax,QWORD PTR [rbp-0x10]
   14000418e:	50                   	push   rax
   14000418f:	48 b8 ff 00 00 00 00 	movabs rax,0xff
   140004196:	00 00 00 
   140004199:	50                   	push   rax
   14000419a:	59                   	pop    rcx
   14000419b:	58                   	pop    rax
   14000419c:	48 21 c8             	and    rax,rcx
   14000419f:	50                   	push   rax
   1400041a0:	58                   	pop    rax
   1400041a1:	50                   	push   rax
   1400041a2:	48 8d 05 c7 25 01 00 	lea    rax,[rip+0x125c7]        # 140016770 <L_p_XII_TERM_ARENA>
   1400041a9:	50                   	push   rax
   1400041aa:	48 8b 45 f8          	mov    rax,QWORD PTR [rbp-0x8]
   1400041ae:	50                   	push   rax
   1400041af:	59                   	pop    rcx
   1400041b0:	58                   	pop    rax
   1400041b1:	5a                   	pop    rdx
   1400041b2:	48 89 14 c8          	mov    QWORD PTR [rax+rcx*8],rdx
   1400041b6:	48 8b 45 f0          	mov    rax,QWORD PTR [rbp-0x10]
   1400041ba:	50                   	push   rax
   1400041bb:	48 b8 08 00 00 00 00 	movabs rax,0x8
   1400041c2:	00 00 00 
   1400041c5:	50                   	push   rax
   1400041c6:	59                   	pop    rcx
   1400041c7:	58                   	pop    rax
   1400041c8:	48 d3 e8             	shr    rax,cl
   1400041cb:	50                   	push   rax
   1400041cc:	48 b8 ff 00 00 00 00 	movabs rax,0xff
   1400041d3:	00 00 00 
   1400041d6:	50                   	push   rax
   1400041d7:	59                   	pop    rcx
   1400041d8:	58                   	pop    rax
   1400041d9:	48 21 c8             	and    rax,rcx
   1400041dc:	50                   	push   rax
   1400041dd:	58                   	pop    rax
   1400041de:	50                   	push   rax
   1400041df:	48 8d 05 8a 25 01 00 	lea    rax,[rip+0x1258a]        # 140016770 <L_p_XII_TERM_ARENA>
   1400041e6:	50                   	push   rax
   1400041e7:	48 8b 45 f8          	mov    rax,QWORD PTR [rbp-0x8]
   1400041eb:	50                   	push   rax
   1400041ec:	48 b8 01 00 00 00 00 	movabs rax,0x1
   1400041f3:	00 00 00 
   1400041f6:	50                   	push   rax
   1400041f7:	59                   	pop    rcx
   1400041f8:	58                   	pop    rax
   1400041f9:	48 01 c8             	add    rax,rcx
   1400041fc:	50                   	push   rax
   1400041fd:	59                   	pop    rcx
   1400041fe:	58                   	pop    rax
   1400041ff:	5a                   	pop    rdx
   140004200:	48 89 14 c8          	mov    QWORD PTR [rax+rcx*8],rdx
   140004204:	48 8b 45 f0          	mov    rax,QWORD PTR [rbp-0x10]
   140004208:	50                   	push   rax
   140004209:	48 b8 10 00 00 00 00 	movabs rax,0x10
   140004210:	00 00 00 
   140004213:	50                   	push   rax
   140004214:	59                   	pop    rcx
   140004215:	58                   	pop    rax
   140004216:	48 d3 e8             	shr    rax,cl
   140004219:	50                   	push   rax
   14000421a:	48 b8 ff 00 00 00 00 	movabs rax,0xff
   140004221:	00 00 00 
   140004224:	50                   	push   rax
   140004225:	59                   	pop    rcx
   140004226:	58                   	pop    rax
   140004227:	48 21 c8             	and    rax,rcx
   14000422a:	50                   	push   rax
   14000422b:	58                   	pop    rax
   14000422c:	50                   	push   rax
   14000422d:	48 8d 05 3c 25 01 00 	lea    rax,[rip+0x1253c]        # 140016770 <L_p_XII_TERM_ARENA>
   140004234:	50                   	push   rax
   140004235:	48 8b 45 f8          	mov    rax,QWORD PTR [rbp-0x8]
   140004239:	50                   	push   rax
   14000423a:	48 b8 02 00 00 00 00 	movabs rax,0x2
   140004241:	00 00 00 
   140004244:	50                   	push   rax
   140004245:	59                   	pop    rcx
   140004246:	58                   	pop    rax
   140004247:	48 01 c8             	add    rax,rcx
   14000424a:	50                   	push   rax
   14000424b:	59                   	pop    rcx
   14000424c:	58                   	pop    rax
   14000424d:	5a                   	pop    rdx
   14000424e:	48 89 14 c8          	mov    QWORD PTR [rax+rcx*8],rdx
   140004252:	48 8b 45 f0          	mov    rax,QWORD PTR [rbp-0x10]
   140004256:	50                   	push   rax
   140004257:	48 b8 18 00 00 00 00 	movabs rax,0x18
   14000425e:	00 00 00 
   140004261:	50                   	push   rax
   140004262:	59                   	pop    rcx
   140004263:	58                   	pop    rax
   140004264:	48 d3 e8             	shr    rax,cl
   140004267:	50                   	push   rax
   140004268:	48 b8 ff 00 00 00 00 	movabs rax,0xff
   14000426f:	00 00 00 
   140004272:	50                   	push   rax
   140004273:	59                   	pop    rcx
   140004274:	58                   	pop    rax
   140004275:	48 21 c8             	and    rax,rcx
   140004278:	50                   	push   rax
   140004279:	58                   	pop    rax
   14000427a:	50                   	push   rax
   14000427b:	48 8d 05 ee 24 01 00 	lea    rax,[rip+0x124ee]        # 140016770 <L_p_XII_TERM_ARENA>
   140004282:	50                   	push   rax
   140004283:	48 8b 45 f8          	mov    rax,QWORD PTR [rbp-0x8]
   140004287:	50                   	push   rax
   140004288:	48 b8 03 00 00 00 00 	movabs rax,0x3
   14000428f:	00 00 00 
   140004292:	50                   	push   rax
   140004293:	59                   	pop    rcx
   140004294:	58                   	pop    rax
   140004295:	48 01 c8             	add    rax,rcx
   140004298:	50                   	push   rax
   140004299:	59                   	pop    rcx
   14000429a:	58                   	pop    rax
   14000429b:	5a                   	pop    rdx
   14000429c:	48 89 14 c8          	mov    QWORD PTR [rax+rcx*8],rdx
   1400042a0:	48 b8 00 00 00 00 00 	movabs rax,0x0
   1400042a7:	00 00 00 
   1400042aa:	50                   	push   rax
   1400042ab:	58                   	pop    rax
   1400042ac:	50                   	push   rax
   1400042ad:	50                   	push   rax
   1400042ae:	48 c7 c1 02 00 00 00 	mov    rcx,0x2
   1400042b5:	48 83 ec 20          	sub    rsp,0x20
   1400042b9:	e8 32 cc 00 00       	call   140010ef0 <iii_witness_emit_kernel>
   1400042be:	48 83 c4 20          	add    rsp,0x20
   1400042c2:	58                   	pop    rax
   1400042c3:	58                   	pop    rax
   1400042c4:	48 89 ec             	mov    rsp,rbp
   1400042c7:	5d                   	pop    rbp
   1400042c8:	c3                   	ret

00000001400042c9 <L_p__xii_term_read_u32>:
   1400042c9:	55                   	push   rbp
   1400042ca:	48 89 e5             	mov    rbp,rsp
   1400042cd:	48 81 ec 00 04 00 00 	sub    rsp,0x400
   1400042d4:	48 89 4d f8          	mov    QWORD PTR [rbp-0x8],rcx
   1400042d8:	48 c7 c1 01 00 00 00 	mov    rcx,0x1
   1400042df:	48 83 ec 20          	sub    rsp,0x20
   1400042e3:	e8 08 cc 00 00       	call   140010ef0 <iii_witness_emit_kernel>
   1400042e8:	48 83 c4 20          	add    rsp,0x20
   1400042ec:	48 8d 05 7d 24 01 00 	lea    rax,[rip+0x1247d]        # 140016770 <L_p_XII_TERM_ARENA>
   1400042f3:	50                   	push   rax
   1400042f4:	48 8b 45 f8          	mov    rax,QWORD PTR [rbp-0x8]
   1400042f8:	50                   	push   rax
   1400042f9:	59                   	pop    rcx
   1400042fa:	58                   	pop    rax
   1400042fb:	48 8b 04 c8          	mov    rax,QWORD PTR [rax+rcx*8]
   1400042ff:	50                   	push   rax
   140004300:	58                   	pop    rax
   140004301:	48 89 45 f0          	mov    QWORD PTR [rbp-0x10],rax
   140004305:	48 8d 05 64 24 01 00 	lea    rax,[rip+0x12464]        # 140016770 <L_p_XII_TERM_ARENA>
   14000430c:	50                   	push   rax
   14000430d:	48 8b 45 f8          	mov    rax,QWORD PTR [rbp-0x8]
   140004311:	50                   	push   rax
   140004312:	48 b8 01 00 00 00 00 	movabs rax,0x1
   140004319:	00 00 00 
   14000431c:	50                   	push   rax
   14000431d:	59                   	pop    rcx
   14000431e:	58                   	pop    rax
   14000431f:	48 01 c8             	add    rax,rcx
   140004322:	50                   	push   rax
   140004323:	59                   	pop    rcx
   140004324:	58                   	pop    rax
   140004325:	48 8b 04 c8          	mov    rax,QWORD PTR [rax+rcx*8]
   140004329:	50                   	push   rax
   14000432a:	58                   	pop    rax
   14000432b:	48 89 45 e8          	mov    QWORD PTR [rbp-0x18],rax
   14000432f:	48 8d 05 3a 24 01 00 	lea    rax,[rip+0x1243a]        # 140016770 <L_p_XII_TERM_ARENA>
   140004336:	50                   	push   rax
   140004337:	48 8b 45 f8          	mov    rax,QWORD PTR [rbp-0x8]
   14000433b:	50                   	push   rax
   14000433c:	48 b8 02 00 00 00 00 	movabs rax,0x2
   140004343:	00 00 00 
   140004346:	50                   	push   rax
   140004347:	59                   	pop    rcx
   140004348:	58                   	pop    rax
   140004349:	48 01 c8             	add    rax,rcx
   14000434c:	50                   	push   rax
   14000434d:	59                   	pop    rcx
