
KATABASIS-DEPLOY/build/obj/gate_resident.o:     file format pe-x86-64


Disassembly of section .text:

0000000000000000 <DriverEntry>:
   0:	55                   	push   rbp
   1:	48 89 e5             	mov    rbp,rsp
   4:	48 81 ec 00 04 00 00 	sub    rsp,0x400
   b:	48 89 4d f8          	mov    QWORD PTR [rbp-0x8],rcx
   f:	48 89 55 f0          	mov    QWORD PTR [rbp-0x10],rdx
  13:	48 c7 c1 01 00 00 00 	mov    rcx,0x1
  1a:	48 83 ec 20          	sub    rsp,0x20
  1e:	e8 00 00 00 00       	call   23 <DriverEntry+0x23>
  23:	48 83 c4 20          	add    rsp,0x20
  27:	48 b8 01 00 00 00 00 	movabs rax,0x1
  2e:	00 00 00 
  31:	50                   	push   rax
  32:	59                   	pop    rcx
  33:	48 83 ec 20          	sub    rsp,0x20
  37:	e8 00 00 00 00       	call   3c <DriverEntry+0x3c>
  3c:	48 83 c4 20          	add    rsp,0x20
  40:	50                   	push   rax
  41:	58                   	pop    rax
  42:	48 b8 01 00 00 00 00 	movabs rax,0x1
  49:	00 00 00 
  4c:	50                   	push   rax
  4d:	59                   	pop    rcx
  4e:	48 83 ec 20          	sub    rsp,0x20
  52:	e8 00 00 00 00       	call   57 <DriverEntry+0x57>
  57:	48 83 c4 20          	add    rsp,0x20
  5b:	50                   	push   rax
  5c:	58                   	pop    rax
  5d:	48 83 ec 20          	sub    rsp,0x20
  61:	e8 00 00 00 00       	call   66 <DriverEntry+0x66>
  66:	48 83 c4 20          	add    rsp,0x20
  6a:	50                   	push   rax
  6b:	58                   	pop    rax
  6c:	48 83 ec 20          	sub    rsp,0x20
  70:	e8 00 00 00 00       	call   75 <DriverEntry+0x75>
  75:	48 83 c4 20          	add    rsp,0x20
  79:	50                   	push   rax
  7a:	58                   	pop    rax
  7b:	48 89 45 e8          	mov    QWORD PTR [rbp-0x18],rax
  7f:	48 8b 45 e8          	mov    rax,QWORD PTR [rbp-0x18]
  83:	50                   	push   rax
  84:	48 b8 00 00 20 00 00 	movabs rax,0x200000
  8b:	00 00 00 
  8e:	50                   	push   rax
  8f:	48 b8 00 00 00 00 00 	movabs rax,0x0
  96:	00 00 00 
  99:	50                   	push   rax
  9a:	41 58                	pop    r8
  9c:	5a                   	pop    rdx
  9d:	59                   	pop    rcx
  9e:	48 83 ec 20          	sub    rsp,0x20
  a2:	e8 00 00 00 00       	call   a7 <DriverEntry+0xa7>
  a7:	48 83 c4 20          	add    rsp,0x20
  ab:	50                   	push   rax
  ac:	58                   	pop    rax
  ad:	48 89 45 e0          	mov    QWORD PTR [rbp-0x20],rax
  b1:	48 8b 45 e8          	mov    rax,QWORD PTR [rbp-0x18]
  b5:	50                   	push   rax
  b6:	48 b8 00 00 80 00 00 	movabs rax,0x800000
  bd:	00 00 00 
  c0:	50                   	push   rax
  c1:	48 b8 00 00 00 00 00 	movabs rax,0x0
  c8:	00 00 00 
  cb:	50                   	push   rax
  cc:	41 58                	pop    r8
  ce:	5a                   	pop    rdx
  cf:	59                   	pop    rcx
  d0:	48 83 ec 20          	sub    rsp,0x20
  d4:	e8 00 00 00 00       	call   d9 <DriverEntry+0xd9>
  d9:	48 83 c4 20          	add    rsp,0x20
  dd:	50                   	push   rax
  de:	58                   	pop    rax
  df:	48 89 45 d8          	mov    QWORD PTR [rbp-0x28],rax
  e3:	48 b8 02 00 00 00 00 	movabs rax,0x2
  ea:	00 00 00 
  ed:	50                   	push   rax
  ee:	48 b8 01 00 00 00 00 	movabs rax,0x1
  f5:	00 00 00 
  f8:	50                   	push   rax
  f9:	48 b8 00 00 02 00 00 	movabs rax,0x20000
 100:	00 00 00 
 103:	50                   	push   rax
 104:	48 b8 d8 02 00 00 00 	movabs rax,0x2d8
 10b:	00 00 00 
 10e:	50                   	push   rax
 10f:	41 59                	pop    r9
 111:	41 58                	pop    r8
 113:	5a                   	pop    rdx
 114:	59                   	pop    rcx
 115:	48 83 ec 20          	sub    rsp,0x20
 119:	e8 00 00 00 00       	call   11e <DriverEntry+0x11e>
 11e:	48 83 c4 20          	add    rsp,0x20
 122:	50                   	push   rax
 123:	58                   	pop    rax
 124:	48 89 45 d0          	mov    QWORD PTR [rbp-0x30],rax
 128:	48 8b 45 d0          	mov    rax,QWORD PTR [rbp-0x30]
 12c:	50                   	push   rax
 12d:	5a                   	pop    rdx
 12e:	59                   	pop    rcx
 12f:	48 83 ec 20          	sub    rsp,0x20
 133:	e8 00 00 00 00       	call   138 <DriverEntry+0x138>
 138:	48 83 c4 20          	add    rsp,0x20
 13c:	50                   	push   rax
 13d:	58                   	pop    rax
 13e:	48 89 45 c8          	mov    QWORD PTR [rbp-0x38],rax
 142:	48 8b 45 c8          	mov    rax,QWORD PTR [rbp-0x38]
 146:	50                   	push   rax
 147:	5a                   	pop    rdx
 148:	59                   	pop    rcx
 149:	48 83 ec 20          	sub    rsp,0x20
 14d:	e8 00 00 00 00       	call   152 <DriverEntry+0x152>
 152:	48 83 c4 20          	add    rsp,0x20
 156:	50                   	push   rax
 157:	58                   	pop    rax
 158:	48 8b 45 c8          	mov    rax,QWORD PTR [rbp-0x38]
 15c:	50                   	push   rax
 15d:	5a                   	pop    rdx
 15e:	59                   	pop    rcx
 15f:	48 83 ec 20          	sub    rsp,0x20
 163:	e8 00 00 00 00       	call   168 <DriverEntry+0x168>
 168:	48 83 c4 20          	add    rsp,0x20
 16c:	50                   	push   rax
 16d:	48 b8 00 00 00 00 00 	movabs rax,0x0
 174:	00 00 00 
 177:	50                   	push   rax
 178:	59                   	pop    rcx
 179:	58                   	pop    rax
 17a:	48 39 c8             	cmp    rax,rcx
 17d:	0f 95 c0             	setne  al
 180:	48 0f b6 c0          	movzx  rax,al
 184:	50                   	push   rax
 185:	58                   	pop    rax
 186:	48 85 c0             	test   rax,rax
 189:	74 29                	je     1b4 <DriverEntry+0x1b4>
 18b:	48 b8 e1 00 00 c0 00 	movabs rax,0xc00000e1
 192:	00 00 00 
 195:	50                   	push   rax
 196:	58                   	pop    rax
 197:	50                   	push   rax
 198:	50                   	push   rax
 199:	48 c7 c1 02 00 00 00 	mov    rcx,0x2
 1a0:	48 83 ec 20          	sub    rsp,0x20
 1a4:	e8 00 00 00 00       	call   1a9 <DriverEntry+0x1a9>
 1a9:	48 83 c4 20          	add    rsp,0x20
 1ad:	58                   	pop    rax
 1ae:	58                   	pop    rax
 1af:	48 89 ec             	mov    rsp,rbp
 1b2:	5d                   	pop    rbp
 1b3:	c3                   	ret
 1b4:	48 b8 09 00 00 00 00 	movabs rax,0x9
 1bb:	00 00 00 
 1be:	50                   	push   rax
 1bf:	48 b8 02 00 00 00 00 	movabs rax,0x2
 1c6:	00 00 00 
 1c9:	50                   	push   rax
 1ca:	48 b8 00 00 00 fb 00 	movabs rax,0xfb000000
 1d1:	00 00 00 
 1d4:	50                   	push   rax
 1d5:	48 b8 d8 02 00 00 00 	movabs rax,0x2d8
 1dc:	00 00 00 
 1df:	50                   	push   rax
 1e0:	41 59                	pop    r9
 1e2:	41 58                	pop    r8
 1e4:	5a                   	pop    rdx
 1e5:	59                   	pop    rcx
 1e6:	48 83 ec 20          	sub    rsp,0x20
 1ea:	e8 00 00 00 00       	call   1ef <DriverEntry+0x1ef>
 1ef:	48 83 c4 20          	add    rsp,0x20
 1f3:	50                   	push   rax
 1f4:	58                   	pop    rax
 1f5:	48 89 45 c0          	mov    QWORD PTR [rbp-0x40],rax
 1f9:	48 8b 45 c0          	mov    rax,QWORD PTR [rbp-0x40]
 1fd:	50                   	push   rax
 1fe:	5a                   	pop    rdx
 1ff:	59                   	pop    rcx
 200:	48 83 ec 20          	sub    rsp,0x20
 204:	e8 00 00 00 00       	call   209 <DriverEntry+0x209>
 209:	48 83 c4 20          	add    rsp,0x20
 20d:	50                   	push   rax
 20e:	58                   	pop    rax
 20f:	48 89 45 b8          	mov    QWORD PTR [rbp-0x48],rax
 213:	48 8b 45 b8          	mov    rax,QWORD PTR [rbp-0x48]
 217:	50                   	push   rax
 218:	5a                   	pop    rdx
 219:	59                   	pop    rcx
 21a:	48 83 ec 20          	sub    rsp,0x20
 21e:	e8 00 00 00 00       	call   223 <DriverEntry+0x223>
 223:	48 83 c4 20          	add    rsp,0x20
 227:	50                   	push   rax
 228:	58                   	pop    rax
 229:	48 8b 45 c8          	mov    rax,QWORD PTR [rbp-0x38]
 22d:	50                   	push   rax
 22e:	5a                   	pop    rdx
 22f:	59                   	pop    rcx
 230:	48 83 ec 20          	sub    rsp,0x20
 234:	e8 00 00 00 00       	call   239 <DriverEntry+0x239>
 239:	48 83 c4 20          	add    rsp,0x20
 23d:	50                   	push   rax
 23e:	48 b8 01 00 00 00 00 	movabs rax,0x1
 245:	00 00 00 
 248:	50                   	push   rax
 249:	59                   	pop    rcx
 24a:	58                   	pop    rax
 24b:	48 39 c8             	cmp    rax,rcx
 24e:	0f 95 c0             	setne  al
 251:	48 0f b6 c0          	movzx  rax,al
 255:	50                   	push   rax
 256:	58                   	pop    rax
 257:	48 85 c0             	test   rax,rax
 25a:	74 29                	je     285 <DriverEntry+0x285>
 25c:	48 b8 e2 00 00 c0 00 	movabs rax,0xc00000e2
 263:	00 00 00 
 266:	50                   	push   rax
 267:	58                   	pop    rax
 268:	50                   	push   rax
 269:	50                   	push   rax
 26a:	48 c7 c1 02 00 00 00 	mov    rcx,0x2
 271:	48 83 ec 20          	sub    rsp,0x20
 275:	e8 00 00 00 00       	call   27a <DriverEntry+0x27a>
 27a:	48 83 c4 20          	add    rsp,0x20
 27e:	58                   	pop    rax
 27f:	58                   	pop    rax
 280:	48 89 ec             	mov    rsp,rbp
 283:	5d                   	pop    rbp
 284:	c3                   	ret
 285:	48 b8 02 00 00 00 00 	movabs rax,0x2
 28c:	00 00 00 
 28f:	50                   	push   rax
 290:	48 b8 01 00 00 00 00 	movabs rax,0x1
 297:	00 00 00 
 29a:	50                   	push   rax
 29b:	48 b8 00 00 02 00 00 	movabs rax,0x20000
 2a2:	00 00 00 
 2a5:	50                   	push   rax
 2a6:	48 b8 d8 02 00 00 00 	movabs rax,0x2d8
 2ad:	00 00 00 
 2b0:	50                   	push   rax
 2b1:	41 59                	pop    r9
 2b3:	41 58                	pop    r8
 2b5:	5a                   	pop    rdx
 2b6:	59                   	pop    rcx
 2b7:	48 83 ec 20          	sub    rsp,0x20
 2bb:	e8 00 00 00 00       	call   2c0 <DriverEntry+0x2c0>
 2c0:	48 83 c4 20          	add    rsp,0x20
 2c4:	50                   	push   rax
 2c5:	58                   	pop    rax
 2c6:	48 89 45 b0          	mov    QWORD PTR [rbp-0x50],rax
 2ca:	48 8b 45 b0          	mov    rax,QWORD PTR [rbp-0x50]
 2ce:	50                   	push   rax
 2cf:	5a                   	pop    rdx
 2d0:	59                   	pop    rcx
 2d1:	48 83 ec 20          	sub    rsp,0x20
 2d5:	e8 00 00 00 00       	call   2da <DriverEntry+0x2da>
 2da:	48 83 c4 20          	add    rsp,0x20
 2de:	50                   	push   rax
 2df:	58                   	pop    rax
 2e0:	48 89 45 a8          	mov    QWORD PTR [rbp-0x58],rax
 2e4:	48 8b 45 a8          	mov    rax,QWORD PTR [rbp-0x58]
 2e8:	50                   	push   rax
 2e9:	5a                   	pop    rdx
 2ea:	59                   	pop    rcx
 2eb:	48 83 ec 20          	sub    rsp,0x20
 2ef:	e8 00 00 00 00       	call   2f4 <DriverEntry+0x2f4>
 2f4:	48 83 c4 20          	add    rsp,0x20
 2f8:	50                   	push   rax
 2f9:	58                   	pop    rax
 2fa:	48 8b 45 a8          	mov    rax,QWORD PTR [rbp-0x58]
 2fe:	50                   	push   rax
 2ff:	5a                   	pop    rdx
 300:	59                   	pop    rcx
 301:	48 83 ec 20          	sub    rsp,0x20
 305:	e8 00 00 00 00       	call   30a <DriverEntry+0x30a>
 30a:	48 83 c4 20          	add    rsp,0x20
 30e:	50                   	push   rax
 30f:	48 b8 02 00 00 00 00 	movabs rax,0x2
 316:	00 00 00 
 319:	50                   	push   rax
 31a:	59                   	pop    rcx
 31b:	58                   	pop    rax
 31c:	48 39 c8             	cmp    rax,rcx
 31f:	0f 95 c0             	setne  al
 322:	48 0f b6 c0          	movzx  rax,al
 326:	50                   	push   rax
 327:	58                   	pop    rax
 328:	48 85 c0             	test   rax,rax
 32b:	74 29                	je     356 <DriverEntry+0x356>
 32d:	48 b8 e3 00 00 c0 00 	movabs rax,0xc00000e3
 334:	00 00 00 
 337:	50                   	push   rax
 338:	58                   	pop    rax
 339:	50                   	push   rax
 33a:	50                   	push   rax
 33b:	48 c7 c1 02 00 00 00 	mov    rcx,0x2
 342:	48 83 ec 20          	sub    rsp,0x20
 346:	e8 00 00 00 00       	call   34b <DriverEntry+0x34b>
 34b:	48 83 c4 20          	add    rsp,0x20
 34f:	58                   	pop    rax
 350:	58                   	pop    rax
 351:	48 89 ec             	mov    rsp,rbp
 354:	5d                   	pop    rbp
 355:	c3                   	ret
 356:	48 b8 02 00 00 00 00 	movabs rax,0x2
 35d:	00 00 00 
 360:	50                   	push   rax
 361:	48 b8 01 00 00 00 00 	movabs rax,0x1
 368:	00 00 00 
 36b:	50                   	push   rax
 36c:	48 b8 00 10 00 00 00 	movabs rax,0x1000
 373:	00 00 00 
 376:	50                   	push   rax
 377:	48 b8 d8 02 00 00 00 	movabs rax,0x2d8
 37e:	00 00 00 
 381:	50                   	push   rax
 382:	41 59                	pop    r9
 384:	41 58                	pop    r8
 386:	5a                   	pop    rdx
 387:	59                   	pop    rcx
 388:	48 83 ec 20          	sub    rsp,0x20
 38c:	e8 00 00 00 00       	call   391 <DriverEntry+0x391>
 391:	48 83 c4 20          	add    rsp,0x20
 395:	50                   	push   rax
 396:	58                   	pop    rax
 397:	48 89 45 a0          	mov    QWORD PTR [rbp-0x60],rax
 39b:	48 8b 45 a0          	mov    rax,QWORD PTR [rbp-0x60]
 39f:	50                   	push   rax
 3a0:	5a                   	pop    rdx
 3a1:	59                   	pop    rcx
 3a2:	48 83 ec 20          	sub    rsp,0x20
 3a6:	e8 00 00 00 00       	call   3ab <DriverEntry+0x3ab>
 3ab:	48 83 c4 20          	add    rsp,0x20
 3af:	50                   	push   rax
 3b0:	58                   	pop    rax
 3b1:	48 89 45 98          	mov    QWORD PTR [rbp-0x68],rax
 3b5:	48 8b 45 98          	mov    rax,QWORD PTR [rbp-0x68]
 3b9:	50                   	push   rax
 3ba:	5a                   	pop    rdx
 3bb:	59                   	pop    rcx
 3bc:	48 83 ec 20          	sub    rsp,0x20
 3c0:	e8 00 00 00 00       	call   3c5 <DriverEntry+0x3c5>
 3c5:	48 83 c4 20          	add    rsp,0x20
 3c9:	50                   	push   rax
 3ca:	58                   	pop    rax
 3cb:	48 8b 45 98          	mov    rax,QWORD PTR [rbp-0x68]
 3cf:	50                   	push   rax
 3d0:	5a                   	pop    rdx
 3d1:	59                   	pop    rcx
 3d2:	48 83 ec 20          	sub    rsp,0x20
 3d6:	e8 00 00 00 00       	call   3db <DriverEntry+0x3db>
 3db:	48 83 c4 20          	add    rsp,0x20
 3df:	50                   	push   rax
 3e0:	48 b8 03 00 00 00 00 	movabs rax,0x3
 3e7:	00 00 00 
 3ea:	50                   	push   rax
 3eb:	59                   	pop    rcx
 3ec:	58                   	pop    rax
 3ed:	48 39 c8             	cmp    rax,rcx
 3f0:	0f 95 c0             	setne  al
 3f3:	48 0f b6 c0          	movzx  rax,al
 3f7:	50                   	push   rax
 3f8:	58                   	pop    rax
 3f9:	48 85 c0             	test   rax,rax
 3fc:	74 29                	je     427 <DriverEntry+0x427>
 3fe:	48 b8 e4 00 00 c0 00 	movabs rax,0xc00000e4
 405:	00 00 00 
 408:	50                   	push   rax
 409:	58                   	pop    rax
 40a:	50                   	push   rax
 40b:	50                   	push   rax
 40c:	48 c7 c1 02 00 00 00 	mov    rcx,0x2
 413:	48 83 ec 20          	sub    rsp,0x20
 417:	e8 00 00 00 00       	call   41c <DriverEntry+0x41c>
 41c:	48 83 c4 20          	add    rsp,0x20
 420:	58                   	pop    rax
 421:	58                   	pop    rax
 422:	48 89 ec             	mov    rsp,rbp
 425:	5d                   	pop    rbp
 426:	c3                   	ret
 427:	48 b8 bb 00 00 c0 00 	movabs rax,0xc00000bb
 42e:	00 00 00 
 431:	50                   	push   rax
 432:	58                   	pop    rax
 433:	50                   	push   rax
 434:	50                   	push   rax
 435:	48 c7 c1 02 00 00 00 	mov    rcx,0x2
 43c:	48 83 ec 20          	sub    rsp,0x20
 440:	e8 00 00 00 00       	call   445 <DriverEntry+0x445>
 445:	48 83 c4 20          	add    rsp,0x20
 449:	58                   	pop    rax
 44a:	58                   	pop    rax
 44b:	48 89 ec             	mov    rsp,rbp
 44e:	5d                   	pop    rbp
 44f:	c3                   	ret

0000000000000450 <.weak._iii_IrpNotImplemented.L_p_G_SEAL>:
 450:	48 b8 bb 00 00 c0 00 	movabs rax,0xc00000bb
 457:	00 00 00 
 45a:	c3                   	ret
 45b:	90                   	nop
 45c:	90                   	nop
 45d:	90                   	nop
 45e:	90                   	nop
 45f:	90                   	nop
