
KATABASIS-DEPLOY/build/gate_resident.sys:     file format pei-x86-64


Disassembly of section .text:

0000000140001000 <DriverEntry>:
   140001000:	55                   	push   rbp
   140001001:	48 89 e5             	mov    rbp,rsp
   140001004:	48 81 ec 00 04 00 00 	sub    rsp,0x400
   14000100b:	48 89 4d f8          	mov    QWORD PTR [rbp-0x8],rcx
   14000100f:	48 89 55 f0          	mov    QWORD PTR [rbp-0x10],rdx
   140001013:	48 c7 c1 01 00 00 00 	mov    rcx,0x1
   14000101a:	48 83 ec 20          	sub    rsp,0x20
   14000101e:	e8 9d e7 00 00       	call   14000f7c0 <iii_witness_emit_kernel>
   140001023:	48 83 c4 20          	add    rsp,0x20
   140001027:	48 b8 01 00 00 00 00 	movabs rax,0x1
   14000102e:	00 00 00 
   140001031:	50                   	push   rax
   140001032:	59                   	pop    rcx
   140001033:	48 83 ec 20          	sub    rsp,0x20
   140001037:	e8 da 4e 00 00       	call   140005f16 <L_p_sha256_sched_force>
   14000103c:	48 83 c4 20          	add    rsp,0x20
   140001040:	50                   	push   rax
   140001041:	58                   	pop    rax
   140001042:	48 b8 01 00 00 00 00 	movabs rax,0x1
   140001049:	00 00 00 
   14000104c:	50                   	push   rax
   14000104d:	59                   	pop    rcx
   14000104e:	48 83 ec 20          	sub    rsp,0x20
   140001052:	e8 b8 86 00 00       	call   14000970f <L_p_keccak_chi_force_path>
   140001057:	48 83 c4 20          	add    rsp,0x20
   14000105b:	50                   	push   rax
   14000105c:	58                   	pop    rax
   14000105d:	48 83 ec 20          	sub    rsp,0x20
   140001061:	e8 4a 22 00 00       	call   1400032b0 <L_p_xii_term_arena_reset>
   140001066:	48 83 c4 20          	add    rsp,0x20
   14000106a:	50                   	push   rax
   14000106b:	58                   	pop    rax
   14000106c:	48 83 ec 20          	sub    rsp,0x20
   140001070:	e8 c6 a6 00 00       	call   14000b73b <L_p_cap_env_init>
   140001075:	48 83 c4 20          	add    rsp,0x20
   140001079:	50                   	push   rax
   14000107a:	58                   	pop    rax
   14000107b:	48 89 45 e8          	mov    QWORD PTR [rbp-0x18],rax
   14000107f:	48 8b 45 e8          	mov    rax,QWORD PTR [rbp-0x18]
   140001083:	50                   	push   rax
   140001084:	48 b8 00 00 20 00 00 	movabs rax,0x200000
   14000108b:	00 00 00 
   14000108e:	50                   	push   rax
   14000108f:	48 b8 00 00 00 00 00 	movabs rax,0x0
   140001096:	00 00 00 
   140001099:	50                   	push   rax
   14000109a:	41 58                	pop    r8
   14000109c:	5a                   	pop    rdx
   14000109d:	59                   	pop    rcx
   14000109e:	48 83 ec 20          	sub    rsp,0x20
   1400010a2:	e8 fb a7 00 00       	call   14000b8a2 <L_p_cap_attenuate>
   1400010a7:	48 83 c4 20          	add    rsp,0x20
   1400010ab:	50                   	push   rax
   1400010ac:	58                   	pop    rax
   1400010ad:	48 89 45 e0          	mov    QWORD PTR [rbp-0x20],rax
   1400010b1:	48 8b 45 e8          	mov    rax,QWORD PTR [rbp-0x18]
   1400010b5:	50                   	push   rax
   1400010b6:	48 b8 00 00 80 00 00 	movabs rax,0x800000
   1400010bd:	00 00 00 
   1400010c0:	50                   	push   rax
   1400010c1:	48 b8 00 00 00 00 00 	movabs rax,0x0
   1400010c8:	00 00 00 
   1400010cb:	50                   	push   rax
   1400010cc:	41 58                	pop    r8
   1400010ce:	5a                   	pop    rdx
   1400010cf:	59                   	pop    rcx
   1400010d0:	48 83 ec 20          	sub    rsp,0x20
   1400010d4:	e8 c9 a7 00 00       	call   14000b8a2 <L_p_cap_attenuate>
   1400010d9:	48 83 c4 20          	add    rsp,0x20
   1400010dd:	50                   	push   rax
   1400010de:	58                   	pop    rax
   1400010df:	48 89 45 d8          	mov    QWORD PTR [rbp-0x28],rax
   1400010e3:	48 b8 02 00 00 00 00 	movabs rax,0x2
   1400010ea:	00 00 00 
   1400010ed:	50                   	push   rax
   1400010ee:	48 b8 01 00 00 00 00 	movabs rax,0x1
   1400010f5:	00 00 00 
   1400010f8:	50                   	push   rax
   1400010f9:	48 b8 00 00 02 00 00 	movabs rax,0x20000
   140001100:	00 00 00 
   140001103:	50                   	push   rax
   140001104:	48 b8 d8 02 00 00 00 	movabs rax,0x2d8
   14000110b:	00 00 00 
   14000110e:	50                   	push   rax
   14000110f:	41 59                	pop    r9
   140001111:	41 58                	pop    r8
   140001113:	5a                   	pop    rdx
   140001114:	59                   	pop    rcx
   140001115:	48 83 ec 20          	sub    rsp,0x20
   140001119:	e8 32 cf 00 00       	call   14000e050 <L_p_katabasis_cycle_act>
   14000111e:	48 83 c4 20          	add    rsp,0x20
   140001122:	50                   	push   rax
   140001123:	58                   	pop    rax
   140001124:	48 89 45 d0          	mov    QWORD PTR [rbp-0x30],rax
   140001128:	48 8b 45 d0          	mov    rax,QWORD PTR [rbp-0x30]
   14000112c:	50                   	push   rax
   14000112d:	5a                   	pop    rdx
   14000112e:	59                   	pop    rcx
   14000112f:	48 83 ec 20          	sub    rsp,0x20
   140001133:	e8 68 d0 00 00       	call   14000e1a0 <L_p_katabasis_cycle_under_cap>
   140001138:	48 83 c4 20          	add    rsp,0x20
   14000113c:	50                   	push   rax
   14000113d:	58                   	pop    rax
   14000113e:	48 89 45 c8          	mov    QWORD PTR [rbp-0x38],rax
   140001142:	48 8b 45 c8          	mov    rax,QWORD PTR [rbp-0x38]
   140001146:	50                   	push   rax
   140001147:	5a                   	pop    rdx
   140001148:	59                   	pop    rcx
   140001149:	48 83 ec 20          	sub    rsp,0x20
   14000114d:	e8 de d6 00 00       	call   14000e830 <L_p_katabasis_cycle_seal>
   140001152:	48 83 c4 20          	add    rsp,0x20
   140001156:	50                   	push   rax
   140001157:	58                   	pop    rax
   140001158:	48 8b 45 c8          	mov    rax,QWORD PTR [rbp-0x38]
   14000115c:	50                   	push   rax
   14000115d:	5a                   	pop    rdx
   14000115e:	59                   	pop    rcx
   14000115f:	48 83 ec 20          	sub    rsp,0x20
   140001163:	e8 68 e5 00 00       	call   14000f6d0 <L_p_katabasis_gate_admit>
   140001168:	48 83 c4 20          	add    rsp,0x20
   14000116c:	50                   	push   rax
   14000116d:	48 b8 00 00 00 00 00 	movabs rax,0x0
   140001174:	00 00 00 
   140001177:	50                   	push   rax
   140001178:	59                   	pop    rcx
   140001179:	58                   	pop    rax
   14000117a:	48 39 c8             	cmp    rax,rcx
   14000117d:	0f 95 c0             	setne  al
   140001180:	48 0f b6 c0          	movzx  rax,al
   140001184:	50                   	push   rax
   140001185:	58                   	pop    rax
   140001186:	48 85 c0             	test   rax,rax
   140001189:	74 29                	je     1400011b4 <DriverEntry+0x1b4>
   14000118b:	48 b8 e1 00 00 c0 00 	movabs rax,0xc00000e1
   140001192:	00 00 00 
   140001195:	50                   	push   rax
   140001196:	58                   	pop    rax
   140001197:	50                   	push   rax
   140001198:	50                   	push   rax
   140001199:	48 c7 c1 02 00 00 00 	mov    rcx,0x2
   1400011a0:	48 83 ec 20          	sub    rsp,0x20
   1400011a4:	e8 17 e6 00 00       	call   14000f7c0 <iii_witness_emit_kernel>
   1400011a9:	48 83 c4 20          	add    rsp,0x20
   1400011ad:	58                   	pop    rax
   1400011ae:	58                   	pop    rax
   1400011af:	48 89 ec             	mov    rsp,rbp
   1400011b2:	5d                   	pop    rbp
   1400011b3:	c3                   	ret
   1400011b4:	48 b8 09 00 00 00 00 	movabs rax,0x9
   1400011bb:	00 00 00 
   1400011be:	50                   	push   rax
   1400011bf:	48 b8 02 00 00 00 00 	movabs rax,0x2
   1400011c6:	00 00 00 
   1400011c9:	50                   	push   rax
   1400011ca:	48 b8 00 00 00 fb 00 	movabs rax,0xfb000000
   1400011d1:	00 00 00 
   1400011d4:	50                   	push   rax
   1400011d5:	48 b8 d8 02 00 00 00 	movabs rax,0x2d8
   1400011dc:	00 00 00 
   1400011df:	50                   	push   rax
   1400011e0:	41 59                	pop    r9
   1400011e2:	41 58                	pop    r8
   1400011e4:	5a                   	pop    rdx
   1400011e5:	59                   	pop    rcx
   1400011e6:	48 83 ec 20          	sub    rsp,0x20
   1400011ea:	e8 61 ce 00 00       	call   14000e050 <L_p_katabasis_cycle_act>
   1400011ef:	48 83 c4 20          	add    rsp,0x20
   1400011f3:	50                   	push   rax
   1400011f4:	58                   	pop    rax
   1400011f5:	48 89 45 c0          	mov    QWORD PTR [rbp-0x40],rax
   1400011f9:	48 8b 45 c0          	mov    rax,QWORD PTR [rbp-0x40]
   1400011fd:	50                   	push   rax
   1400011fe:	5a                   	pop    rdx
   1400011ff:	59                   	pop    rcx
   140001200:	48 83 ec 20          	sub    rsp,0x20
   140001204:	e8 97 cf 00 00       	call   14000e1a0 <L_p_katabasis_cycle_under_cap>
   140001209:	48 83 c4 20          	add    rsp,0x20
   14000120d:	50                   	push   rax
   14000120e:	58                   	pop    rax
   14000120f:	48 89 45 b8          	mov    QWORD PTR [rbp-0x48],rax
   140001213:	48 8b 45 b8          	mov    rax,QWORD PTR [rbp-0x48]
   140001217:	50                   	push   rax
   140001218:	5a                   	pop    rdx
   140001219:	59                   	pop    rcx
   14000121a:	48 83 ec 20          	sub    rsp,0x20
   14000121e:	e8 0d d6 00 00       	call   14000e830 <L_p_katabasis_cycle_seal>
   140001223:	48 83 c4 20          	add    rsp,0x20
   140001227:	50                   	push   rax
   140001228:	58                   	pop    rax
   140001229:	48 8b 45 c8          	mov    rax,QWORD PTR [rbp-0x38]
   14000122d:	50                   	push   rax
   14000122e:	5a                   	pop    rdx
   14000122f:	59                   	pop    rcx
   140001230:	48 83 ec 20          	sub    rsp,0x20
   140001234:	e8 97 e4 00 00       	call   14000f6d0 <L_p_katabasis_gate_admit>
   140001239:	48 83 c4 20          	add    rsp,0x20
   14000123d:	50                   	push   rax
   14000123e:	48 b8 01 00 00 00 00 	movabs rax,0x1
   140001245:	00 00 00 
   140001248:	50                   	push   rax
   140001249:	59                   	pop    rcx
   14000124a:	58                   	pop    rax
   14000124b:	48 39 c8             	cmp    rax,rcx
   14000124e:	0f 95 c0             	setne  al
   140001251:	48 0f b6 c0          	movzx  rax,al
   140001255:	50                   	push   rax
   140001256:	58                   	pop    rax
   140001257:	48 85 c0             	test   rax,rax
   14000125a:	74 29                	je     140001285 <DriverEntry+0x285>
   14000125c:	48 b8 e2 00 00 c0 00 	movabs rax,0xc00000e2
   140001263:	00 00 00 
   140001266:	50                   	push   rax
   140001267:	58                   	pop    rax
   140001268:	50                   	push   rax
   140001269:	50                   	push   rax
   14000126a:	48 c7 c1 02 00 00 00 	mov    rcx,0x2
   140001271:	48 83 ec 20          	sub    rsp,0x20
   140001275:	e8 46 e5 00 00       	call   14000f7c0 <iii_witness_emit_kernel>
   14000127a:	48 83 c4 20          	add    rsp,0x20
   14000127e:	58                   	pop    rax
   14000127f:	58                   	pop    rax
   140001280:	48 89 ec             	mov    rsp,rbp
   140001283:	5d                   	pop    rbp
   140001284:	c3                   	ret
   140001285:	48 b8 02 00 00 00 00 	movabs rax,0x2
   14000128c:	00 00 00 
   14000128f:	50                   	push   rax
   140001290:	48 b8 01 00 00 00 00 	movabs rax,0x1
   140001297:	00 00 00 
   14000129a:	50                   	push   rax
   14000129b:	48 b8 00 00 02 00 00 	movabs rax,0x20000
   1400012a2:	00 00 00 
   1400012a5:	50                   	push   rax
   1400012a6:	48 b8 d8 02 00 00 00 	movabs rax,0x2d8
   1400012ad:	00 00 00 
   1400012b0:	50                   	push   rax
   1400012b1:	41 59                	pop    r9
   1400012b3:	41 58                	pop    r8
   1400012b5:	5a                   	pop    rdx
   1400012b6:	59                   	pop    rcx
   1400012b7:	48 83 ec 20          	sub    rsp,0x20
   1400012bb:	e8 90 cd 00 00       	call   14000e050 <L_p_katabasis_cycle_act>
   1400012c0:	48 83 c4 20          	add    rsp,0x20
   1400012c4:	50                   	push   rax
   1400012c5:	58                   	pop    rax
   1400012c6:	48 89 45 b0          	mov    QWORD PTR [rbp-0x50],rax
   1400012ca:	48 8b 45 b0          	mov    rax,QWORD PTR [rbp-0x50]
   1400012ce:	50                   	push   rax
   1400012cf:	5a                   	pop    rdx
   1400012d0:	59                   	pop    rcx
   1400012d1:	48 83 ec 20          	sub    rsp,0x20
   1400012d5:	e8 c6 ce 00 00       	call   14000e1a0 <L_p_katabasis_cycle_under_cap>
   1400012da:	48 83 c4 20          	add    rsp,0x20
   1400012de:	50                   	push   rax
   1400012df:	58                   	pop    rax
   1400012e0:	48 89 45 a8          	mov    QWORD PTR [rbp-0x58],rax
   1400012e4:	48 8b 45 a8          	mov    rax,QWORD PTR [rbp-0x58]
   1400012e8:	50                   	push   rax
   1400012e9:	5a                   	pop    rdx
   1400012ea:	59                   	pop    rcx
   1400012eb:	48 83 ec 20          	sub    rsp,0x20
   1400012ef:	e8 3c d5 00 00       	call   14000e830 <L_p_katabasis_cycle_seal>
   1400012f4:	48 83 c4 20          	add    rsp,0x20
   1400012f8:	50                   	push   rax
   1400012f9:	58                   	pop    rax
   1400012fa:	48 8b 45 a8          	mov    rax,QWORD PTR [rbp-0x58]
   1400012fe:	50                   	push   rax
   1400012ff:	5a                   	pop    rdx
   140001300:	59                   	pop    rcx
   140001301:	48 83 ec 20          	sub    rsp,0x20
   140001305:	e8 c6 e3 00 00       	call   14000f6d0 <L_p_katabasis_gate_admit>
   14000130a:	48 83 c4 20          	add    rsp,0x20
   14000130e:	50                   	push   rax
   14000130f:	48 b8 02 00 00 00 00 	movabs rax,0x2
   140001316:	00 00 00 
   140001319:	50                   	push   rax
   14000131a:	59                   	pop    rcx
   14000131b:	58                   	pop    rax
   14000131c:	48 39 c8             	cmp    rax,rcx
   14000131f:	0f 95 c0             	setne  al
   140001322:	48 0f b6 c0          	movzx  rax,al
   140001326:	50                   	push   rax
   140001327:	58                   	pop    rax
   140001328:	48 85 c0             	test   rax,rax
   14000132b:	74 29                	je     140001356 <DriverEntry+0x356>
   14000132d:	48 b8 e3 00 00 c0 00 	movabs rax,0xc00000e3
   140001334:	00 00 00 
   140001337:	50                   	push   rax
   140001338:	58                   	pop    rax
   140001339:	50                   	push   rax
   14000133a:	50                   	push   rax
   14000133b:	48 c7 c1 02 00 00 00 	mov    rcx,0x2
   140001342:	48 83 ec 20          	sub    rsp,0x20
   140001346:	e8 75 e4 00 00       	call   14000f7c0 <iii_witness_emit_kernel>
   14000134b:	48 83 c4 20          	add    rsp,0x20
   14000134f:	58                   	pop    rax
   140001350:	58                   	pop    rax
   140001351:	48 89 ec             	mov    rsp,rbp
   140001354:	5d                   	pop    rbp
   140001355:	c3                   	ret
   140001356:	48 b8 02 00 00 00 00 	movabs rax,0x2
   14000135d:	00 00 00 
   140001360:	50                   	push   rax
   140001361:	48 b8 01 00 00 00 00 	movabs rax,0x1
   140001368:	00 00 00 
   14000136b:	50                   	push   rax
   14000136c:	48 b8 00 10 00 00 00 	movabs rax,0x1000
   140001373:	00 00 00 
   140001376:	50                   	push   rax
   140001377:	48 b8 d8 02 00 00 00 	movabs rax,0x2d8
   14000137e:	00 00 00 
   140001381:	50                   	push   rax
   140001382:	41 59                	pop    r9
   140001384:	41 58                	pop    r8
   140001386:	5a                   	pop    rdx
   140001387:	59                   	pop    rcx
   140001388:	48 83 ec 20          	sub    rsp,0x20
   14000138c:	e8 bf cc 00 00       	call   14000e050 <L_p_katabasis_cycle_act>
   140001391:	48 83 c4 20          	add    rsp,0x20
   140001395:	50                   	push   rax
   140001396:	58                   	pop    rax
   140001397:	48 89 45 a0          	mov    QWORD PTR [rbp-0x60],rax
   14000139b:	48 8b 45 a0          	mov    rax,QWORD PTR [rbp-0x60]
   14000139f:	50                   	push   rax
   1400013a0:	5a                   	pop    rdx
   1400013a1:	59                   	pop    rcx
   1400013a2:	48 83 ec 20          	sub    rsp,0x20
   1400013a6:	e8 f5 cd 00 00       	call   14000e1a0 <L_p_katabasis_cycle_under_cap>
   1400013ab:	48 83 c4 20          	add    rsp,0x20
   1400013af:	50                   	push   rax
   1400013b0:	58                   	pop    rax
   1400013b1:	48 89 45 98          	mov    QWORD PTR [rbp-0x68],rax
   1400013b5:	48 8b 45 98          	mov    rax,QWORD PTR [rbp-0x68]
   1400013b9:	50                   	push   rax
   1400013ba:	5a                   	pop    rdx
   1400013bb:	59                   	pop    rcx
   1400013bc:	48 83 ec 20          	sub    rsp,0x20
   1400013c0:	e8 6b d4 00 00       	call   14000e830 <L_p_katabasis_cycle_seal>
   1400013c5:	48 83 c4 20          	add    rsp,0x20
   1400013c9:	50                   	push   rax
   1400013ca:	58                   	pop    rax
   1400013cb:	48 8b 45 98          	mov    rax,QWORD PTR [rbp-0x68]
   1400013cf:	50                   	push   rax
   1400013d0:	5a                   	pop    rdx
   1400013d1:	59                   	pop    rcx
   1400013d2:	48 83 ec 20          	sub    rsp,0x20
   1400013d6:	e8 f5 e2 00 00       	call   14000f6d0 <L_p_katabasis_gate_admit>
   1400013db:	48 83 c4 20          	add    rsp,0x20
   1400013df:	50                   	push   rax
   1400013e0:	48 b8 03 00 00 00 00 	movabs rax,0x3
   1400013e7:	00 00 00 
   1400013ea:	50                   	push   rax
   1400013eb:	59                   	pop    rcx
   1400013ec:	58                   	pop    rax
   1400013ed:	48 39 c8             	cmp    rax,rcx
   1400013f0:	0f 95 c0             	setne  al
   1400013f3:	48 0f b6 c0          	movzx  rax,al
   1400013f7:	50                   	push   rax
   1400013f8:	58                   	pop    rax
   1400013f9:	48 85 c0             	test   rax,rax
   1400013fc:	74 29                	je     140001427 <DriverEntry+0x427>
   1400013fe:	48 b8 e4 00 00 c0 00 	movabs rax,0xc00000e4
   140001405:	00 00 00 
   140001408:	50                   	push   rax
   140001409:	58                   	pop    rax
   14000140a:	50                   	push   rax
   14000140b:	50                   	push   rax
   14000140c:	48 c7 c1 02 00 00 00 	mov    rcx,0x2
   140001413:	48 83 ec 20          	sub    rsp,0x20
   140001417:	e8 a4 e3 00 00       	call   14000f7c0 <iii_witness_emit_kernel>
   14000141c:	48 83 c4 20          	add    rsp,0x20
   140001420:	58                   	pop    rax
   140001421:	58                   	pop    rax
   140001422:	48 89 ec             	mov    rsp,rbp
   140001425:	5d                   	pop    rbp
   140001426:	c3                   	ret
   140001427:	48 b8 bb 00 00 c0 00 	movabs rax,0xc00000bb
   14000142e:	00 00 00 
   140001431:	50                   	push   rax
   140001432:	58                   	pop    rax
   140001433:	50                   	push   rax
   140001434:	50                   	push   rax
   140001435:	48 c7 c1 02 00 00 00 	mov    rcx,0x2
   14000143c:	48 83 ec 20          	sub    rsp,0x20
   140001440:	e8 7b e3 00 00       	call   14000f7c0 <iii_witness_emit_kernel>
   140001445:	48 83 c4 20          	add    rsp,0x20
   140001449:	58                   	pop    rax
   14000144a:	58                   	pop    rax
   14000144b:	48 89 ec             	mov    rsp,rbp
   14000144e:	5d                   	pop    rbp
   14000144f:	c3                   	ret

0000000140001450 <.weak._iii_IrpNotImplemented.L_p_G_SEAL>:
   140001450:	48 b8 bb 00 00 c0 00 	movabs rax,0xc00000bb
   140001457:	00 00 00 
   14000145a:	c3                   	ret
   14000145b:	90                   	nop
   14000145c:	90                   	nop
   14000145d:	90                   	nop
   14000145e:	90                   	nop
   14000145f:	90                   	nop

0000000140001460 <L_p_cpufeat_has_avx512f>:
   140001460:	55                   	push   rbp
   140001461:	48 89 e5             	mov    rbp,rsp
   140001464:	48 81 ec 00 04 00 00 	sub    rsp,0x400
   14000146b:	48 c7 c1 01 00 00 00 	mov    rcx,0x1
   140001472:	48 83 ec 20          	sub    rsp,0x20
   140001476:	e8 45 e3 00 00       	call   14000f7c0 <iii_witness_emit_kernel>
   14000147b:	48 83 c4 20          	add    rsp,0x20
   14000147f:	48 b8 00 00 00 00 00 	movabs rax,0x0
   140001486:	00 00 00 
   140001489:	50                   	push   rax
   14000148a:	58                   	pop    rax
   14000148b:	50                   	push   rax
   14000148c:	50                   	push   rax
   14000148d:	48 c7 c1 02 00 00 00 	mov    rcx,0x2
   140001494:	48 83 ec 20          	sub    rsp,0x20
   140001498:	e8 23 e3 00 00       	call   14000f7c0 <iii_witness_emit_kernel>
   14000149d:	48 83 c4 20          	add    rsp,0x20
   1400014a1:	58                   	pop    rax
   1400014a2:	58                   	pop    rax
   1400014a3:	48 89 ec             	mov    rsp,rbp
   1400014a6:	5d                   	pop    rbp
   1400014a7:	c3                   	ret
   1400014a8:	90                   	nop
   1400014a9:	90                   	nop
   1400014aa:	90                   	nop
   1400014ab:	90                   	nop
   1400014ac:	90                   	nop
   1400014ad:	90                   	nop
   1400014ae:	90                   	nop
   1400014af:	90                   	nop

00000001400014b0 <L_p_iii_trit_valid>:
   1400014b0:	55                   	push   rbp
   1400014b1:	48 89 e5             	mov    rbp,rsp
   1400014b4:	48 81 ec 00 04 00 00 	sub    rsp,0x400
   1400014bb:	48 89 4d f8          	mov    QWORD PTR [rbp-0x8],rcx
   1400014bf:	48 c7 c1 01 00 00 00 	mov    rcx,0x1
   1400014c6:	48 83 ec 20          	sub    rsp,0x20
   1400014ca:	e8 f1 e2 00 00       	call   14000f7c0 <iii_witness_emit_kernel>
   1400014cf:	48 83 c4 20          	add    rsp,0x20
   1400014d3:	48 8b 45 f8          	mov    rax,QWORD PTR [rbp-0x8]
   1400014d7:	50                   	push   rax
   1400014d8:	48 b8 01 00 00 00 00 	movabs rax,0x1
   1400014df:	00 00 00 
   1400014e2:	50                   	push   rax
   1400014e3:	58                   	pop    rax
   1400014e4:	48 f7 d8             	neg    rax
   1400014e7:	50                   	push   rax
   1400014e8:	59                   	pop    rcx
   1400014e9:	58                   	pop    rax
   1400014ea:	48 39 c8             	cmp    rax,rcx
   1400014ed:	0f 94 c0             	sete   al
   1400014f0:	48 0f b6 c0          	movzx  rax,al
   1400014f4:	50                   	push   rax
   1400014f5:	58                   	pop    rax
   1400014f6:	48 85 c0             	test   rax,rax
   1400014f9:	74 29                	je     140001524 <L_p_iii_trit_valid+0x74>
   1400014fb:	48 b8 01 00 00 00 00 	movabs rax,0x1
   140001502:	00 00 00 
   140001505:	50                   	push   rax
   140001506:	58                   	pop    rax
   140001507:	50                   	push   rax
   140001508:	50                   	push   rax
   140001509:	48 c7 c1 02 00 00 00 	mov    rcx,0x2
   140001510:	48 83 ec 20          	sub    rsp,0x20
   140001514:	e8 a7 e2 00 00       	call   14000f7c0 <iii_witness_emit_kernel>
   140001519:	48 83 c4 20          	add    rsp,0x20
   14000151d:	58                   	pop    rax
   14000151e:	58                   	pop    rax
   14000151f:	48 89 ec             	mov    rsp,rbp
   140001522:	5d                   	pop    rbp
   140001523:	c3                   	ret
   140001524:	48 8b 45 f8          	mov    rax,QWORD PTR [rbp-0x8]
   140001528:	50                   	push   rax
   140001529:	48 b8 00 00 00 00 00 	movabs rax,0x0
   140001530:	00 00 00 
   140001533:	50                   	push   rax
   140001534:	59                   	pop    rcx
   140001535:	58                   	pop    rax
   140001536:	48 39 c8             	cmp    rax,rcx
   140001539:	0f 94 c0             	sete   al
   14000153c:	48 0f b6 c0          	movzx  rax,al
   140001540:	50                   	push   rax
   140001541:	58                   	pop    rax
   140001542:	48 85 c0             	test   rax,rax
   140001545:	74 29                	je     140001570 <L_p_iii_trit_valid+0xc0>
   140001547:	48 b8 01 00 00 00 00 	movabs rax,0x1
   14000154e:	00 00 00 
   140001551:	50                   	push   rax
   140001552:	58                   	pop    rax
   140001553:	50                   	push   rax
   140001554:	50                   	push   rax
   140001555:	48 c7 c1 02 00 00 00 	mov    rcx,0x2
   14000155c:	48 83 ec 20          	sub    rsp,0x20
   140001560:	e8 5b e2 00 00       	call   14000f7c0 <iii_witness_emit_kernel>
   140001565:	48 83 c4 20          	add    rsp,0x20
   140001569:	58                   	pop    rax
   14000156a:	58                   	pop    rax
   14000156b:	48 89 ec             	mov    rsp,rbp
   14000156e:	5d                   	pop    rbp
   14000156f:	c3                   	ret
   140001570:	48 8b 45 f8          	mov    rax,QWORD PTR [rbp-0x8]
   140001574:	50                   	push   rax
   140001575:	48 b8 01 00 00 00 00 	movabs rax,0x1
   14000157c:	00 00 00 
   14000157f:	50                   	push   rax
   140001580:	59                   	pop    rcx
   140001581:	58                   	pop    rax
   140001582:	48 39 c8             	cmp    rax,rcx
   140001585:	0f 94 c0             	sete   al
   140001588:	48 0f b6 c0          	movzx  rax,al
   14000158c:	50                   	push   rax
   14000158d:	58                   	pop    rax
   14000158e:	48 85 c0             	test   rax,rax
   140001591:	74 29                	je     1400015bc <L_p_iii_trit_valid+0x10c>
   140001593:	48 b8 01 00 00 00 00 	movabs rax,0x1
   14000159a:	00 00 00 
   14000159d:	50                   	push   rax
   14000159e:	58                   	pop    rax
   14000159f:	50                   	push   rax
   1400015a0:	50                   	push   rax
   1400015a1:	48 c7 c1 02 00 00 00 	mov    rcx,0x2
   1400015a8:	48 83 ec 20          	sub    rsp,0x20
   1400015ac:	e8 0f e2 00 00       	call   14000f7c0 <iii_witness_emit_kernel>
   1400015b1:	48 83 c4 20          	add    rsp,0x20
   1400015b5:	58                   	pop    rax
   1400015b6:	58                   	pop    rax
   1400015b7:	48 89 ec             	mov    rsp,rbp
   1400015ba:	5d                   	pop    rbp
   1400015bb:	c3                   	ret
   1400015bc:	48 b8 00 00 00 00 00 	movabs rax,0x0
   1400015c3:	00 00 00 
   1400015c6:	50                   	push   rax
   1400015c7:	58                   	pop    rax
   1400015c8:	50                   	push   rax
   1400015c9:	50                   	push   rax
   1400015ca:	48 c7 c1 02 00 00 00 	mov    rcx,0x2
   1400015d1:	48 83 ec 20          	sub    rsp,0x20
   1400015d5:	e8 e6 e1 00 00       	call   14000f7c0 <iii_witness_emit_kernel>
   1400015da:	48 83 c4 20          	add    rsp,0x20
   1400015de:	58                   	pop    rax
   1400015df:	58                   	pop    rax
   1400015e0:	48 89 ec             	mov    rsp,rbp
   1400015e3:	5d                   	pop    rbp
   1400015e4:	c3                   	ret

00000001400015e5 <L_p_iii_trit_weight>:
   1400015e5:	55                   	push   rbp
   1400015e6:	48 89 e5             	mov    rbp,rsp
   1400015e9:	48 81 ec 00 04 00 00 	sub    rsp,0x400
   1400015f0:	48 89 4d f8          	mov    QWORD PTR [rbp-0x8],rcx
   1400015f4:	48 c7 c1 01 00 00 00 	mov    rcx,0x1
   1400015fb:	48 83 ec 20          	sub    rsp,0x20
   1400015ff:	e8 bc e1 00 00       	call   14000f7c0 <iii_witness_emit_kernel>
   140001604:	48 83 c4 20          	add    rsp,0x20
   140001608:	48 8b 45 f8          	mov    rax,QWORD PTR [rbp-0x8]
   14000160c:	50                   	push   rax
   14000160d:	48 b8 01 00 00 00 00 	movabs rax,0x1
   140001614:	00 00 00 
   140001617:	50                   	push   rax
   140001618:	58                   	pop    rax
   140001619:	48 f7 d8             	neg    rax
   14000161c:	50                   	push   rax
   14000161d:	59                   	pop    rcx
   14000161e:	58                   	pop    rax
   14000161f:	48 39 c8             	cmp    rax,rcx
   140001622:	0f 94 c0             	sete   al
   140001625:	48 0f b6 c0          	movzx  rax,al
   140001629:	50                   	push   rax
   14000162a:	58                   	pop    rax
   14000162b:	48 85 c0             	test   rax,rax
   14000162e:	74 2e                	je     14000165e <L_p_iii_trit_weight+0x79>
   140001630:	48 b8 02 00 00 00 00 	movabs rax,0x2
   140001637:	00 00 00 
   14000163a:	50                   	push   rax
   14000163b:	58                   	pop    rax
   14000163c:	48 f7 d8             	neg    rax
   14000163f:	50                   	push   rax
   140001640:	58                   	pop    rax
   140001641:	50                   	push   rax
   140001642:	50                   	push   rax
   140001643:	48 c7 c1 02 00 00 00 	mov    rcx,0x2
   14000164a:	48 83 ec 20          	sub    rsp,0x20
   14000164e:	e8 6d e1 00 00       	call   14000f7c0 <iii_witness_emit_kernel>
   140001653:	48 83 c4 20          	add    rsp,0x20
   140001657:	58                   	pop    rax
   140001658:	58                   	pop    rax
   140001659:	48 89 ec             	mov    rsp,rbp
   14000165c:	5d                   	pop    rbp
   14000165d:	c3                   	ret
   14000165e:	48 8b 45 f8          	mov    rax,QWORD PTR [rbp-0x8]
   140001662:	50                   	push   rax
   140001663:	48 b8 01 00 00 00 00 	movabs rax,0x1
   14000166a:	00 00 00 
   14000166d:	50                   	push   rax
   14000166e:	59                   	pop    rcx
   14000166f:	58                   	pop    rax
   140001670:	48 39 c8             	cmp    rax,rcx
   140001673:	0f 94 c0             	sete   al
   140001676:	48 0f b6 c0          	movzx  rax,al
   14000167a:	50                   	push   rax
   14000167b:	58                   	pop    rax
   14000167c:	48 85 c0             	test   rax,rax
   14000167f:	74 29                	je     1400016aa <L_p_iii_trit_weight+0xc5>
   140001681:	48 b8 01 00 00 00 00 	movabs rax,0x1
   140001688:	00 00 00 
   14000168b:	50                   	push   rax
   14000168c:	58                   	pop    rax
   14000168d:	50                   	push   rax
   14000168e:	50                   	push   rax
   14000168f:	48 c7 c1 02 00 00 00 	mov    rcx,0x2
   140001696:	48 83 ec 20          	sub    rsp,0x20
   14000169a:	e8 21 e1 00 00       	call   14000f7c0 <iii_witness_emit_kernel>
   14000169f:	48 83 c4 20          	add    rsp,0x20
   1400016a3:	58                   	pop    rax
   1400016a4:	58                   	pop    rax
   1400016a5:	48 89 ec             	mov    rsp,rbp
   1400016a8:	5d                   	pop    rbp
   1400016a9:	c3                   	ret
   1400016aa:	48 b8 00 00 00 00 00 	movabs rax,0x0
   1400016b1:	00 00 00 
   1400016b4:	50                   	push   rax
   1400016b5:	58                   	pop    rax
   1400016b6:	50                   	push   rax
   1400016b7:	50                   	push   rax
   1400016b8:	48 c7 c1 02 00 00 00 	mov    rcx,0x2
   1400016bf:	48 83 ec 20          	sub    rsp,0x20
   1400016c3:	e8 f8 e0 00 00       	call   14000f7c0 <iii_witness_emit_kernel>
   1400016c8:	48 83 c4 20          	add    rsp,0x20
   1400016cc:	58                   	pop    rax
   1400016cd:	58                   	pop    rax
   1400016ce:	48 89 ec             	mov    rsp,rbp
   1400016d1:	5d                   	pop    rbp
   1400016d2:	c3                   	ret

00000001400016d3 <L_p_iii_trit_not>:
   1400016d3:	55                   	push   rbp
   1400016d4:	48 89 e5             	mov    rbp,rsp
   1400016d7:	48 81 ec 00 04 00 00 	sub    rsp,0x400
   1400016de:	48 89 4d f8          	mov    QWORD PTR [rbp-0x8],rcx
   1400016e2:	48 c7 c1 01 00 00 00 	mov    rcx,0x1
   1400016e9:	48 83 ec 20          	sub    rsp,0x20
   1400016ed:	e8 ce e0 00 00       	call   14000f7c0 <iii_witness_emit_kernel>
   1400016f2:	48 83 c4 20          	add    rsp,0x20
   1400016f6:	48 b8 00 00 00 00 00 	movabs rax,0x0
   1400016fd:	00 00 00 
   140001700:	50                   	push   rax
   140001701:	48 8b 45 f8          	mov    rax,QWORD PTR [rbp-0x8]
   140001705:	50                   	push   rax
   140001706:	59                   	pop    rcx
   140001707:	58                   	pop    rax
   140001708:	48 29 c8             	sub    rax,rcx
   14000170b:	50                   	push   rax
   14000170c:	58                   	pop    rax
   14000170d:	50                   	push   rax
   14000170e:	50                   	push   rax
   14000170f:	48 c7 c1 02 00 00 00 	mov    rcx,0x2
   140001716:	48 83 ec 20          	sub    rsp,0x20
   14000171a:	e8 a1 e0 00 00       	call   14000f7c0 <iii_witness_emit_kernel>
   14000171f:	48 83 c4 20          	add    rsp,0x20
   140001723:	58                   	pop    rax
   140001724:	58                   	pop    rax
   140001725:	48 89 ec             	mov    rsp,rbp
   140001728:	5d                   	pop    rbp
   140001729:	c3                   	ret

000000014000172a <L_p_iii_trit_neg6>:
   14000172a:	55                   	push   rbp
   14000172b:	48 89 e5             	mov    rbp,rsp
   14000172e:	48 81 ec 00 04 00 00 	sub    rsp,0x400
   140001735:	48 89 4d f8          	mov    QWORD PTR [rbp-0x8],rcx
   140001739:	48 c7 c1 01 00 00 00 	mov    rcx,0x1
   140001740:	48 83 ec 20          	sub    rsp,0x20
   140001744:	e8 77 e0 00 00       	call   14000f7c0 <iii_witness_emit_kernel>
   140001749:	48 83 c4 20          	add    rsp,0x20
   14000174d:	48 b8 00 00 00 00 00 	movabs rax,0x0
   140001754:	00 00 00 
   140001757:	50                   	push   rax
   140001758:	48 8b 45 f8          	mov    rax,QWORD PTR [rbp-0x8]
   14000175c:	50                   	push   rax
   14000175d:	59                   	pop    rcx
   14000175e:	58                   	pop    rax
   14000175f:	48 29 c8             	sub    rax,rcx
   140001762:	50                   	push   rax
   140001763:	58                   	pop    rax
   140001764:	50                   	push   rax
   140001765:	50                   	push   rax
   140001766:	48 c7 c1 02 00 00 00 	mov    rcx,0x2
   14000176d:	48 83 ec 20          	sub    rsp,0x20
   140001771:	e8 4a e0 00 00       	call   14000f7c0 <iii_witness_emit_kernel>
   140001776:	48 83 c4 20          	add    rsp,0x20
   14000177a:	58                   	pop    rax
   14000177b:	58                   	pop    rax
   14000177c:	48 89 ec             	mov    rsp,rbp
   14000177f:	5d                   	pop    rbp
   140001780:	c3                   	ret

0000000140001781 <L_p_iii_trit_and>:
   140001781:	55                   	push   rbp
   140001782:	48 89 e5             	mov    rbp,rsp
   140001785:	48 81 ec 00 04 00 00 	sub    rsp,0x400
   14000178c:	48 89 4d f8          	mov    QWORD PTR [rbp-0x8],rcx
   140001790:	48 89 55 f0          	mov    QWORD PTR [rbp-0x10],rdx
   140001794:	48 c7 c1 01 00 00 00 	mov    rcx,0x1
   14000179b:	48 83 ec 20          	sub    rsp,0x20
   14000179f:	e8 1c e0 00 00       	call   14000f7c0 <iii_witness_emit_kernel>
   1400017a4:	48 83 c4 20          	add    rsp,0x20
   1400017a8:	48 8b 45 f8          	mov    rax,QWORD PTR [rbp-0x8]
   1400017ac:	50                   	push   rax
   1400017ad:	48 b8 01 00 00 00 00 	movabs rax,0x1
   1400017b4:	00 00 00 
   1400017b7:	50                   	push   rax
   1400017b8:	58                   	pop    rax
   1400017b9:	48 f7 d8             	neg    rax
   1400017bc:	50                   	push   rax
   1400017bd:	59                   	pop    rcx
   1400017be:	58                   	pop    rax
   1400017bf:	48 39 c8             	cmp    rax,rcx
   1400017c2:	0f 94 c0             	sete   al
   1400017c5:	48 0f b6 c0          	movzx  rax,al
   1400017c9:	50                   	push   rax
   1400017ca:	58                   	pop    rax
   1400017cb:	48 85 c0             	test   rax,rax
   1400017ce:	74 2e                	je     1400017fe <L_p_iii_trit_and+0x7d>
   1400017d0:	48 b8 01 00 00 00 00 	movabs rax,0x1
   1400017d7:	00 00 00 
   1400017da:	50                   	push   rax
   1400017db:	58                   	pop    rax
   1400017dc:	48 f7 d8             	neg    rax
   1400017df:	50                   	push   rax
   1400017e0:	58                   	pop    rax
   1400017e1:	50                   	push   rax
   1400017e2:	50                   	push   rax
   1400017e3:	48 c7 c1 02 00 00 00 	mov    rcx,0x2
   1400017ea:	48 83 ec 20          	sub    rsp,0x20
   1400017ee:	e8 cd df 00 00       	call   14000f7c0 <iii_witness_emit_kernel>
   1400017f3:	48 83 c4 20          	add    rsp,0x20
   1400017f7:	58                   	pop    rax
   1400017f8:	58                   	pop    rax
   1400017f9:	48 89 ec             	mov    rsp,rbp
   1400017fc:	5d                   	pop    rbp
   1400017fd:	c3                   	ret
   1400017fe:	48 8b 45 f0          	mov    rax,QWORD PTR [rbp-0x10]
   140001802:	50                   	push   rax
   140001803:	48 b8 01 00 00 00 00 	movabs rax,0x1
   14000180a:	00 00 00 
   14000180d:	50                   	push   rax
   14000180e:	58                   	pop    rax
   14000180f:	48 f7 d8             	neg    rax
   140001812:	50                   	push   rax
   140001813:	59                   	pop    rcx
   140001814:	58                   	pop    rax
   140001815:	48 39 c8             	cmp    rax,rcx
   140001818:	0f 94 c0             	sete   al
   14000181b:	48 0f b6 c0          	movzx  rax,al
   14000181f:	50                   	push   rax
   140001820:	58                   	pop    rax
   140001821:	48 85 c0             	test   rax,rax
   140001824:	74 2e                	je     140001854 <L_p_iii_trit_and+0xd3>
   140001826:	48 b8 01 00 00 00 00 	movabs rax,0x1
   14000182d:	00 00 00 
   140001830:	50                   	push   rax
   140001831:	58                   	pop    rax
   140001832:	48 f7 d8             	neg    rax
   140001835:	50                   	push   rax
   140001836:	58                   	pop    rax
   140001837:	50                   	push   rax
   140001838:	50                   	push   rax
   140001839:	48 c7 c1 02 00 00 00 	mov    rcx,0x2
   140001840:	48 83 ec 20          	sub    rsp,0x20
   140001844:	e8 77 df 00 00       	call   14000f7c0 <iii_witness_emit_kernel>
   140001849:	48 83 c4 20          	add    rsp,0x20
   14000184d:	58                   	pop    rax
   14000184e:	58                   	pop    rax
   14000184f:	48 89 ec             	mov    rsp,rbp
   140001852:	5d                   	pop    rbp
   140001853:	c3                   	ret
   140001854:	48 8b 45 f8          	mov    rax,QWORD PTR [rbp-0x8]
   140001858:	50                   	push   rax
   140001859:	48 b8 00 00 00 00 00 	movabs rax,0x0
   140001860:	00 00 00 
   140001863:	50                   	push   rax
   140001864:	59                   	pop    rcx
   140001865:	58                   	pop    rax
   140001866:	48 39 c8             	cmp    rax,rcx
   140001869:	0f 94 c0             	sete   al
   14000186c:	48 0f b6 c0          	movzx  rax,al
   140001870:	50                   	push   rax
   140001871:	58                   	pop    rax
   140001872:	48 85 c0             	test   rax,rax
   140001875:	74 29                	je     1400018a0 <L_p_iii_trit_and+0x11f>
   140001877:	48 b8 00 00 00 00 00 	movabs rax,0x0
   14000187e:	00 00 00 
   140001881:	50                   	push   rax
   140001882:	58                   	pop    rax
   140001883:	50                   	push   rax
   140001884:	50                   	push   rax
   140001885:	48 c7 c1 02 00 00 00 	mov    rcx,0x2
   14000188c:	48 83 ec 20          	sub    rsp,0x20
   140001890:	e8 2b df 00 00       	call   14000f7c0 <iii_witness_emit_kernel>
   140001895:	48 83 c4 20          	add    rsp,0x20
   140001899:	58                   	pop    rax
   14000189a:	58                   	pop    rax
   14000189b:	48 89 ec             	mov    rsp,rbp
   14000189e:	5d                   	pop    rbp
   14000189f:	c3                   	ret
   1400018a0:	48 8b 45 f0          	mov    rax,QWORD PTR [rbp-0x10]
   1400018a4:	50                   	push   rax
   1400018a5:	48 b8 00 00 00 00 00 	movabs rax,0x0
   1400018ac:	00 00 00 
   1400018af:	50                   	push   rax
   1400018b0:	59                   	pop    rcx
   1400018b1:	58                   	pop    rax
   1400018b2:	48 39 c8             	cmp    rax,rcx
   1400018b5:	0f 94 c0             	sete   al
   1400018b8:	48 0f b6 c0          	movzx  rax,al
   1400018bc:	50                   	push   rax
   1400018bd:	58                   	pop    rax
   1400018be:	48 85 c0             	test   rax,rax
   1400018c1:	74 29                	je     1400018ec <L_p_iii_trit_and+0x16b>
   1400018c3:	48 b8 00 00 00 00 00 	movabs rax,0x0
   1400018ca:	00 00 00 
   1400018cd:	50                   	push   rax
   1400018ce:	58                   	pop    rax
   1400018cf:	50                   	push   rax
   1400018d0:	50                   	push   rax
   1400018d1:	48 c7 c1 02 00 00 00 	mov    rcx,0x2
   1400018d8:	48 83 ec 20          	sub    rsp,0x20
   1400018dc:	e8 df de 00 00       	call   14000f7c0 <iii_witness_emit_kernel>
   1400018e1:	48 83 c4 20          	add    rsp,0x20
   1400018e5:	58                   	pop    rax
   1400018e6:	58                   	pop    rax
   1400018e7:	48 89 ec             	mov    rsp,rbp
   1400018ea:	5d                   	pop    rbp
   1400018eb:	c3                   	ret
   1400018ec:	48 b8 01 00 00 00 00 	movabs rax,0x1
   1400018f3:	00 00 00 
   1400018f6:	50                   	push   rax
   1400018f7:	58                   	pop    rax
   1400018f8:	50                   	push   rax
   1400018f9:	50                   	push   rax
   1400018fa:	48 c7 c1 02 00 00 00 	mov    rcx,0x2
   140001901:	48 83 ec 20          	sub    rsp,0x20
   140001905:	e8 b6 de 00 00       	call   14000f7c0 <iii_witness_emit_kernel>
   14000190a:	48 83 c4 20          	add    rsp,0x20
   14000190e:	58                   	pop    rax
   14000190f:	58                   	pop    rax
   140001910:	48 89 ec             	mov    rsp,rbp
   140001913:	5d                   	pop    rbp
   140001914:	c3                   	ret

0000000140001915 <L_p_iii_trit_or>:
   140001915:	55                   	push   rbp
   140001916:	48 89 e5             	mov    rbp,rsp
   140001919:	48 81 ec 00 04 00 00 	sub    rsp,0x400
   140001920:	48 89 4d f8          	mov    QWORD PTR [rbp-0x8],rcx
   140001924:	48 89 55 f0          	mov    QWORD PTR [rbp-0x10],rdx
   140001928:	48 c7 c1 01 00 00 00 	mov    rcx,0x1
   14000192f:	48 83 ec 20          	sub    rsp,0x20
   140001933:	e8 88 de 00 00       	call   14000f7c0 <iii_witness_emit_kernel>
   140001938:	48 83 c4 20          	add    rsp,0x20
   14000193c:	48 8b 45 f8          	mov    rax,QWORD PTR [rbp-0x8]
   140001940:	50                   	push   rax
   140001941:	48 b8 01 00 00 00 00 	movabs rax,0x1
   140001948:	00 00 00 
   14000194b:	50                   	push   rax
   14000194c:	59                   	pop    rcx
   14000194d:	58                   	pop    rax
   14000194e:	48 39 c8             	cmp    rax,rcx
   140001951:	0f 94 c0             	sete   al
   140001954:	48 0f b6 c0          	movzx  rax,al
   140001958:	50                   	push   rax
   140001959:	58                   	pop    rax
   14000195a:	48 85 c0             	test   rax,rax
   14000195d:	74 29                	je     140001988 <L_p_iii_trit_or+0x73>
   14000195f:	48 b8 01 00 00 00 00 	movabs rax,0x1
   140001966:	00 00 00 
   140001969:	50                   	push   rax
   14000196a:	58                   	pop    rax
   14000196b:	50                   	push   rax
   14000196c:	50                   	push   rax
   14000196d:	48 c7 c1 02 00 00 00 	mov    rcx,0x2
   140001974:	48 83 ec 20          	sub    rsp,0x20
   140001978:	e8 43 de 00 00       	call   14000f7c0 <iii_witness_emit_kernel>
   14000197d:	48 83 c4 20          	add    rsp,0x20
   140001981:	58                   	pop    rax
   140001982:	58                   	pop    rax
   140001983:	48 89 ec             	mov    rsp,rbp
   140001986:	5d                   	pop    rbp
   140001987:	c3                   	ret
   140001988:	48 8b 45 f0          	mov    rax,QWORD PTR [rbp-0x10]
   14000198c:	50                   	push   rax
   14000198d:	48 b8 01 00 00 00 00 	movabs rax,0x1
   140001994:	00 00 00 
   140001997:	50                   	push   rax
   140001998:	59                   	pop    rcx
   140001999:	58                   	pop    rax
   14000199a:	48 39 c8             	cmp    rax,rcx
   14000199d:	0f 94 c0             	sete   al
   1400019a0:	48 0f b6 c0          	movzx  rax,al
   1400019a4:	50                   	push   rax
   1400019a5:	58                   	pop    rax
   1400019a6:	48 85 c0             	test   rax,rax
   1400019a9:	74 29                	je     1400019d4 <L_p_iii_trit_or+0xbf>
   1400019ab:	48 b8 01 00 00 00 00 	movabs rax,0x1
   1400019b2:	00 00 00 
   1400019b5:	50                   	push   rax
   1400019b6:	58                   	pop    rax
   1400019b7:	50                   	push   rax
   1400019b8:	50                   	push   rax
   1400019b9:	48 c7 c1 02 00 00 00 	mov    rcx,0x2
   1400019c0:	48 83 ec 20          	sub    rsp,0x20
   1400019c4:	e8 f7 dd 00 00       	call   14000f7c0 <iii_witness_emit_kernel>
   1400019c9:	48 83 c4 20          	add    rsp,0x20
   1400019cd:	58                   	pop    rax
   1400019ce:	58                   	pop    rax
   1400019cf:	48 89 ec             	mov    rsp,rbp
   1400019d2:	5d                   	pop    rbp
   1400019d3:	c3                   	ret
   1400019d4:	48 8b 45 f8          	mov    rax,QWORD PTR [rbp-0x8]
   1400019d8:	50                   	push   rax
   1400019d9:	48 b8 00 00 00 00 00 	movabs rax,0x0
   1400019e0:	00 00 00 
   1400019e3:	50                   	push   rax
   1400019e4:	59                   	pop    rcx
   1400019e5:	58                   	pop    rax
   1400019e6:	48 39 c8             	cmp    rax,rcx
   1400019e9:	0f 94 c0             	sete   al
   1400019ec:	48 0f b6 c0          	movzx  rax,al
   1400019f0:	50                   	push   rax
   1400019f1:	58                   	pop    rax
   1400019f2:	48 85 c0             	test   rax,rax
   1400019f5:	74 29                	je     140001a20 <L_p_iii_trit_or+0x10b>
   1400019f7:	48 b8 00 00 00 00 00 	movabs rax,0x0
   1400019fe:	00 00 00 
   140001a01:	50                   	push   rax
   140001a02:	58                   	pop    rax
   140001a03:	50                   	push   rax
   140001a04:	50                   	push   rax
   140001a05:	48 c7 c1 02 00 00 00 	mov    rcx,0x2
   140001a0c:	48 83 ec 20          	sub    rsp,0x20
   140001a10:	e8 ab dd 00 00       	call   14000f7c0 <iii_witness_emit_kernel>
   140001a15:	48 83 c4 20          	add    rsp,0x20
   140001a19:	58                   	pop    rax
   140001a1a:	58                   	pop    rax
   140001a1b:	48 89 ec             	mov    rsp,rbp
   140001a1e:	5d                   	pop    rbp
   140001a1f:	c3                   	ret
   140001a20:	48 8b 45 f0          	mov    rax,QWORD PTR [rbp-0x10]
   140001a24:	50                   	push   rax
   140001a25:	48 b8 00 00 00 00 00 	movabs rax,0x0
   140001a2c:	00 00 00 
   140001a2f:	50                   	push   rax
   140001a30:	59                   	pop    rcx
   140001a31:	58                   	pop    rax
   140001a32:	48 39 c8             	cmp    rax,rcx
   140001a35:	0f 94 c0             	sete   al
   140001a38:	48 0f b6 c0          	movzx  rax,al
   140001a3c:	50                   	push   rax
   140001a3d:	58                   	pop    rax
   140001a3e:	48 85 c0             	test   rax,rax
   140001a41:	74 29                	je     140001a6c <L_p_iii_trit_or+0x157>
   140001a43:	48 b8 00 00 00 00 00 	movabs rax,0x0
   140001a4a:	00 00 00 
   140001a4d:	50                   	push   rax
   140001a4e:	58                   	pop    rax
   140001a4f:	50                   	push   rax
   140001a50:	50                   	push   rax
   140001a51:	48 c7 c1 02 00 00 00 	mov    rcx,0x2
   140001a58:	48 83 ec 20          	sub    rsp,0x20
   140001a5c:	e8 5f dd 00 00       	call   14000f7c0 <iii_witness_emit_kernel>
   140001a61:	48 83 c4 20          	add    rsp,0x20
   140001a65:	58                   	pop    rax
   140001a66:	58                   	pop    rax
   140001a67:	48 89 ec             	mov    rsp,rbp
   140001a6a:	5d                   	pop    rbp
   140001a6b:	c3                   	ret
   140001a6c:	48 b8 01 00 00 00 00 	movabs rax,0x1
   140001a73:	00 00 00 
   140001a76:	50                   	push   rax
   140001a77:	58                   	pop    rax
   140001a78:	48 f7 d8             	neg    rax
   140001a7b:	50                   	push   rax
   140001a7c:	58                   	pop    rax
   140001a7d:	50                   	push   rax
   140001a7e:	50                   	push   rax
   140001a7f:	48 c7 c1 02 00 00 00 	mov    rcx,0x2
   140001a86:	48 83 ec 20          	sub    rsp,0x20
   140001a8a:	e8 31 dd 00 00       	call   14000f7c0 <iii_witness_emit_kernel>
   140001a8f:	48 83 c4 20          	add    rsp,0x20
   140001a93:	58                   	pop    rax
   140001a94:	58                   	pop    rax
   140001a95:	48 89 ec             	mov    rsp,rbp
   140001a98:	5d                   	pop    rbp
   140001a99:	c3                   	ret

0000000140001a9a <L_p_iii_trit_sum>:
   140001a9a:	55                   	push   rbp
   140001a9b:	48 89 e5             	mov    rbp,rsp
   140001a9e:	48 81 ec 00 04 00 00 	sub    rsp,0x400
   140001aa5:	48 89 4d f8          	mov    QWORD PTR [rbp-0x8],rcx
   140001aa9:	48 89 55 f0          	mov    QWORD PTR [rbp-0x10],rdx
   140001aad:	48 c7 c1 01 00 00 00 	mov    rcx,0x1
   140001ab4:	48 83 ec 20          	sub    rsp,0x20
   140001ab8:	e8 03 dd 00 00       	call   14000f7c0 <iii_witness_emit_kernel>
   140001abd:	48 83 c4 20          	add    rsp,0x20
   140001ac1:	48 8b 45 f8          	mov    rax,QWORD PTR [rbp-0x8]
   140001ac5:	50                   	push   rax
   140001ac6:	48 8b 45 f0          	mov    rax,QWORD PTR [rbp-0x10]
   140001aca:	50                   	push   rax
   140001acb:	59                   	pop    rcx
   140001acc:	58                   	pop    rax
   140001acd:	48 01 c8             	add    rax,rcx
   140001ad0:	50                   	push   rax
   140001ad1:	58                   	pop    rax
   140001ad2:	48 89 45 e8          	mov    QWORD PTR [rbp-0x18],rax
   140001ad6:	48 8b 45 e8          	mov    rax,QWORD PTR [rbp-0x18]
   140001ada:	50                   	push   rax
   140001adb:	48 b8 02 00 00 00 00 	movabs rax,0x2
   140001ae2:	00 00 00 
   140001ae5:	50                   	push   rax
   140001ae6:	59                   	pop    rcx
   140001ae7:	58                   	pop    rax
   140001ae8:	48 39 c8             	cmp    rax,rcx
   140001aeb:	0f 94 c0             	sete   al
   140001aee:	48 0f b6 c0          	movzx  rax,al
   140001af2:	50                   	push   rax
   140001af3:	58                   	pop    rax
   140001af4:	48 85 c0             	test   rax,rax
   140001af7:	74 29                	je     140001b22 <L_p_iii_trit_sum+0x88>
   140001af9:	48 b8 01 00 00 00 00 	movabs rax,0x1
   140001b00:	00 00 00 
   140001b03:	50                   	push   rax
   140001b04:	58                   	pop    rax
   140001b05:	50                   	push   rax
   140001b06:	50                   	push   rax
   140001b07:	48 c7 c1 02 00 00 00 	mov    rcx,0x2
   140001b0e:	48 83 ec 20          	sub    rsp,0x20
   140001b12:	e8 a9 dc 00 00       	call   14000f7c0 <iii_witness_emit_kernel>
   140001b17:	48 83 c4 20          	add    rsp,0x20
   140001b1b:	58                   	pop    rax
   140001b1c:	58                   	pop    rax
   140001b1d:	48 89 ec             	mov    rsp,rbp
   140001b20:	5d                   	pop    rbp
   140001b21:	c3                   	ret
   140001b22:	48 8b 45 e8          	mov    rax,QWORD PTR [rbp-0x18]
   140001b26:	50                   	push   rax
   140001b27:	48 b8 02 00 00 00 00 	movabs rax,0x2
   140001b2e:	00 00 00 
   140001b31:	50                   	push   rax
   140001b32:	58                   	pop    rax
   140001b33:	48 f7 d8             	neg    rax
   140001b36:	50                   	push   rax
   140001b37:	59                   	pop    rcx
   140001b38:	58                   	pop    rax
   140001b39:	48 39 c8             	cmp    rax,rcx
   140001b3c:	0f 94 c0             	sete   al
   140001b3f:	48 0f b6 c0          	movzx  rax,al
   140001b43:	50                   	push   rax
   140001b44:	58                   	pop    rax
   140001b45:	48 85 c0             	test   rax,rax
   140001b48:	74 2e                	je     140001b78 <L_p_iii_trit_sum+0xde>
   140001b4a:	48 b8 01 00 00 00 00 	movabs rax,0x1
   140001b51:	00 00 00 
   140001b54:	50                   	push   rax
   140001b55:	58                   	pop    rax
   140001b56:	48 f7 d8             	neg    rax
   140001b59:	50                   	push   rax
   140001b5a:	58                   	pop    rax
   140001b5b:	50                   	push   rax
   140001b5c:	50                   	push   rax
   140001b5d:	48 c7 c1 02 00 00 00 	mov    rcx,0x2
   140001b64:	48 83 ec 20          	sub    rsp,0x20
   140001b68:	e8 53 dc 00 00       	call   14000f7c0 <iii_witness_emit_kernel>
   140001b6d:	48 83 c4 20          	add    rsp,0x20
   140001b71:	58                   	pop    rax
   140001b72:	58                   	pop    rax
   140001b73:	48 89 ec             	mov    rsp,rbp
   140001b76:	5d                   	pop    rbp
   140001b77:	c3                   	ret
   140001b78:	48 8b 45 e8          	mov    rax,QWORD PTR [rbp-0x18]
   140001b7c:	50                   	push   rax
   140001b7d:	58                   	pop    rax
   140001b7e:	50                   	push   rax
   140001b7f:	50                   	push   rax
   140001b80:	48 c7 c1 02 00 00 00 	mov    rcx,0x2
   140001b87:	48 83 ec 20          	sub    rsp,0x20
   140001b8b:	e8 30 dc 00 00       	call   14000f7c0 <iii_witness_emit_kernel>
   140001b90:	48 83 c4 20          	add    rsp,0x20
   140001b94:	58                   	pop    rax
   140001b95:	58                   	pop    rax
   140001b96:	48 89 ec             	mov    rsp,rbp
   140001b99:	5d                   	pop    rbp
   140001b9a:	c3                   	ret

0000000140001b9b <L_p_iii_trit_mul>:
   140001b9b:	55                   	push   rbp
   140001b9c:	48 89 e5             	mov    rbp,rsp
   140001b9f:	48 81 ec 00 04 00 00 	sub    rsp,0x400
   140001ba6:	48 89 4d f8          	mov    QWORD PTR [rbp-0x8],rcx
   140001baa:	48 89 55 f0          	mov    QWORD PTR [rbp-0x10],rdx
   140001bae:	48 c7 c1 01 00 00 00 	mov    rcx,0x1
   140001bb5:	48 83 ec 20          	sub    rsp,0x20
   140001bb9:	e8 02 dc 00 00       	call   14000f7c0 <iii_witness_emit_kernel>
   140001bbe:	48 83 c4 20          	add    rsp,0x20
   140001bc2:	48 8b 45 f8          	mov    rax,QWORD PTR [rbp-0x8]
   140001bc6:	50                   	push   rax
   140001bc7:	48 8b 45 f0          	mov    rax,QWORD PTR [rbp-0x10]
   140001bcb:	50                   	push   rax
   140001bcc:	59                   	pop    rcx
   140001bcd:	58                   	pop    rax
   140001bce:	48 0f af c1          	imul   rax,rcx
   140001bd2:	50                   	push   rax
   140001bd3:	58                   	pop    rax
   140001bd4:	50                   	push   rax
   140001bd5:	50                   	push   rax
   140001bd6:	48 c7 c1 02 00 00 00 	mov    rcx,0x2
   140001bdd:	48 83 ec 20          	sub    rsp,0x20
   140001be1:	e8 da db 00 00       	call   14000f7c0 <iii_witness_emit_kernel>
   140001be6:	48 83 c4 20          	add    rsp,0x20
   140001bea:	58                   	pop    rax
   140001beb:	58                   	pop    rax
   140001bec:	48 89 ec             	mov    rsp,rbp
   140001bef:	5d                   	pop    rbp
   140001bf0:	c3                   	ret

0000000140001bf1 <L_p_iii_trit_sub>:
   140001bf1:	55                   	push   rbp
   140001bf2:	48 89 e5             	mov    rbp,rsp
   140001bf5:	48 81 ec 00 04 00 00 	sub    rsp,0x400
   140001bfc:	48 89 4d f8          	mov    QWORD PTR [rbp-0x8],rcx
   140001c00:	48 89 55 f0          	mov    QWORD PTR [rbp-0x10],rdx
   140001c04:	48 c7 c1 01 00 00 00 	mov    rcx,0x1
   140001c0b:	48 83 ec 20          	sub    rsp,0x20
   140001c0f:	e8 ac db 00 00       	call   14000f7c0 <iii_witness_emit_kernel>
   140001c14:	48 83 c4 20          	add    rsp,0x20
   140001c18:	48 8b 45 f8          	mov    rax,QWORD PTR [rbp-0x8]
   140001c1c:	50                   	push   rax
   140001c1d:	48 b8 00 00 00 00 00 	movabs rax,0x0
   140001c24:	00 00 00 
   140001c27:	50                   	push   rax
   140001c28:	48 8b 45 f0          	mov    rax,QWORD PTR [rbp-0x10]
   140001c2c:	50                   	push   rax
   140001c2d:	59                   	pop    rcx
   140001c2e:	58                   	pop    rax
   140001c2f:	48 29 c8             	sub    rax,rcx
   140001c32:	50                   	push   rax
   140001c33:	5a                   	pop    rdx
   140001c34:	59                   	pop    rcx
   140001c35:	48 83 ec 20          	sub    rsp,0x20
   140001c39:	e8 5c fe ff ff       	call   140001a9a <L_p_iii_trit_sum>
   140001c3e:	48 83 c4 20          	add    rsp,0x20
   140001c42:	50                   	push   rax
   140001c43:	58                   	pop    rax
   140001c44:	50                   	push   rax
   140001c45:	50                   	push   rax
   140001c46:	48 c7 c1 02 00 00 00 	mov    rcx,0x2
   140001c4d:	48 83 ec 20          	sub    rsp,0x20
   140001c51:	e8 6a db 00 00       	call   14000f7c0 <iii_witness_emit_kernel>
   140001c56:	48 83 c4 20          	add    rsp,0x20
   140001c5a:	58                   	pop    rax
   140001c5b:	58                   	pop    rax
   140001c5c:	48 89 ec             	mov    rsp,rbp
   140001c5f:	5d                   	pop    rbp
   140001c60:	c3                   	ret

0000000140001c61 <L_p_iii_hexad_pack6>:
   140001c61:	55                   	push   rbp
   140001c62:	48 89 e5             	mov    rbp,rsp
   140001c65:	48 81 ec 00 04 00 00 	sub    rsp,0x400
   140001c6c:	48 89 4d f8          	mov    QWORD PTR [rbp-0x8],rcx
   140001c70:	48 c7 c1 01 00 00 00 	mov    rcx,0x1
   140001c77:	48 83 ec 20          	sub    rsp,0x20
   140001c7b:	e8 40 db 00 00       	call   14000f7c0 <iii_witness_emit_kernel>
   140001c80:	48 83 c4 20          	add    rsp,0x20
   140001c84:	58                   	pop    rax
   140001c85:	48 89 45 f0          	mov    QWORD PTR [rbp-0x10],rax
   140001c89:	48 b8 00 00 00 00 00 	movabs rax,0x0
   140001c90:	00 00 00 
   140001c93:	50                   	push   rax
   140001c94:	58                   	pop    rax
   140001c95:	48 89 45 e8          	mov    QWORD PTR [rbp-0x18],rax
   140001c99:	48 b8 01 00 00 00 00 	movabs rax,0x1
   140001ca0:	00 00 00 
   140001ca3:	50                   	push   rax
   140001ca4:	58                   	pop    rax
   140001ca5:	48 89 45 e0          	mov    QWORD PTR [rbp-0x20],rax
   140001ca9:	48 b8 00 00 00 00 00 	movabs rax,0x0
   140001cb0:	00 00 00 
   140001cb3:	50                   	push   rax
   140001cb4:	58                   	pop    rax
   140001cb5:	48 89 45 d8          	mov    QWORD PTR [rbp-0x28],rax
   140001cb9:	48 8b 45 d8          	mov    rax,QWORD PTR [rbp-0x28]
   140001cbd:	50                   	push   rax
   140001cbe:	48 b8 06 00 00 00 00 	movabs rax,0x6
   140001cc5:	00 00 00 
   140001cc8:	50                   	push   rax
   140001cc9:	59                   	pop    rcx
   140001cca:	58                   	pop    rax
   140001ccb:	48 39 c8             	cmp    rax,rcx
   140001cce:	0f 9c c0             	setl   al
   140001cd1:	48 0f b6 c0          	movzx  rax,al
   140001cd5:	50                   	push   rax
   140001cd6:	58                   	pop    rax
   140001cd7:	48 85 c0             	test   rax,rax
   140001cda:	74 62                	je     140001d3e <L_p_iii_hexad_pack6+0xdd>
   140001cdc:	58                   	pop    rax
   140001cdd:	48 89 45 d0          	mov    QWORD PTR [rbp-0x30],rax
   140001ce1:	48 8b 45 e8          	mov    rax,QWORD PTR [rbp-0x18]
   140001ce5:	50                   	push   rax
   140001ce6:	48 8b 45 d0          	mov    rax,QWORD PTR [rbp-0x30]
   140001cea:	50                   	push   rax
   140001ceb:	48 8b 45 e0          	mov    rax,QWORD PTR [rbp-0x20]
   140001cef:	50                   	push   rax
   140001cf0:	59                   	pop    rcx
   140001cf1:	58                   	pop    rax
   140001cf2:	48 0f af c1          	imul   rax,rcx
   140001cf6:	50                   	push   rax
   140001cf7:	59                   	pop    rcx
   140001cf8:	58                   	pop    rax
   140001cf9:	48 01 c8             	add    rax,rcx
   140001cfc:	50                   	push   rax
   140001cfd:	58                   	pop    rax
   140001cfe:	48 89 45 e8          	mov    QWORD PTR [rbp-0x18],rax
   140001d02:	48 8b 45 e0          	mov    rax,QWORD PTR [rbp-0x20]
   140001d06:	50                   	push   rax
   140001d07:	48 b8 03 00 00 00 00 	movabs rax,0x3
   140001d0e:	00 00 00 
   140001d11:	50                   	push   rax
   140001d12:	59                   	pop    rcx
   140001d13:	58                   	pop    rax
   140001d14:	48 0f af c1          	imul   rax,rcx
   140001d18:	50                   	push   rax
   140001d19:	58                   	pop    rax
   140001d1a:	48 89 45 e0          	mov    QWORD PTR [rbp-0x20],rax
   140001d1e:	48 8b 45 d8          	mov    rax,QWORD PTR [rbp-0x28]
   140001d22:	50                   	push   rax
   140001d23:	48 b8 01 00 00 00 00 	movabs rax,0x1
   140001d2a:	00 00 00 
   140001d2d:	50                   	push   rax
   140001d2e:	59                   	pop    rcx
   140001d2f:	58                   	pop    rax
   140001d30:	48 01 c8             	add    rax,rcx
   140001d33:	50                   	push   rax
   140001d34:	58                   	pop    rax
   140001d35:	48 89 45 d8          	mov    QWORD PTR [rbp-0x28],rax
   140001d39:	e9 7b ff ff ff       	jmp    140001cb9 <L_p_iii_hexad_pack6+0x58>
   140001d3e:	58                   	pop    rax
   140001d3f:	50                   	push   rax
   140001d40:	50                   	push   rax
   140001d41:	48 c7 c1 02 00 00 00 	mov    rcx,0x2
   140001d48:	48 83 ec 20          	sub    rsp,0x20
   140001d4c:	e8 6f da 00 00       	call   14000f7c0 <iii_witness_emit_kernel>
   140001d51:	48 83 c4 20          	add    rsp,0x20
   140001d55:	58                   	pop    rax
   140001d56:	58                   	pop    rax
   140001d57:	48 89 ec             	mov    rsp,rbp
   140001d5a:	5d                   	pop    rbp
   140001d5b:	c3                   	ret

0000000140001d5c <L_p_iii_hexad_unpack6>:
   140001d5c:	55                   	push   rbp
   140001d5d:	48 89 e5             	mov    rbp,rsp
   140001d60:	48 81 ec 00 04 00 00 	sub    rsp,0x400
   140001d67:	48 89 4d f8          	mov    QWORD PTR [rbp-0x8],rcx
   140001d6b:	48 89 55 f0          	mov    QWORD PTR [rbp-0x10],rdx
   140001d6f:	48 c7 c1 01 00 00 00 	mov    rcx,0x1
   140001d76:	48 83 ec 20          	sub    rsp,0x20
   140001d7a:	e8 41 da 00 00       	call   14000f7c0 <iii_witness_emit_kernel>
   140001d7f:	48 83 c4 20          	add    rsp,0x20
   140001d83:	48 8b 05 8e f2 00 00 	mov    rax,QWORD PTR [rip+0xf28e]        # 140011018 <.rodata+0x18>
   140001d8a:	50                   	push   rax
   140001d8b:	59                   	pop    rcx
   140001d8c:	58                   	pop    rax
   140001d8d:	48 39 c8             	cmp    rax,rcx
   140001d90:	0f 9d c0             	setge  al
   140001d93:	48 0f b6 c0          	movzx  rax,al
   140001d97:	50                   	push   rax
   140001d98:	58                   	pop    rax
   140001d99:	48 85 c0             	test   rax,rax
   140001d9c:	74 29                	je     140001dc7 <L_p_iii_hexad_unpack6+0x6b>
   140001d9e:	48 b8 00 00 00 00 00 	movabs rax,0x0
   140001da5:	00 00 00 
   140001da8:	50                   	push   rax
   140001da9:	58                   	pop    rax
   140001daa:	50                   	push   rax
   140001dab:	50                   	push   rax
   140001dac:	48 c7 c1 02 00 00 00 	mov    rcx,0x2
   140001db3:	48 83 ec 20          	sub    rsp,0x20
   140001db7:	e8 04 da 00 00       	call   14000f7c0 <iii_witness_emit_kernel>
   140001dbc:	48 83 c4 20          	add    rsp,0x20
   140001dc0:	58                   	pop    rax
   140001dc1:	58                   	pop    rax
   140001dc2:	48 89 ec             	mov    rsp,rbp
   140001dc5:	5d                   	pop    rbp
   140001dc6:	c3                   	ret
   140001dc7:	58                   	pop    rax
   140001dc8:	48 89 45 e8          	mov    QWORD PTR [rbp-0x18],rax
   140001dcc:	58                   	pop    rax
   140001dcd:	48 89 45 e0          	mov    QWORD PTR [rbp-0x20],rax
   140001dd1:	48 b8 00 00 00 00 00 	movabs rax,0x0
   140001dd8:	00 00 00 
   140001ddb:	50                   	push   rax
   140001ddc:	58                   	pop    rax
   140001ddd:	48 89 45 d8          	mov    QWORD PTR [rbp-0x28],rax
   140001de1:	48 8b 45 d8          	mov    rax,QWORD PTR [rbp-0x28]
   140001de5:	50                   	push   rax
   140001de6:	48 b8 06 00 00 00 00 	movabs rax,0x6
   140001ded:	00 00 00 
   140001df0:	50                   	push   rax
   140001df1:	59                   	pop    rcx
   140001df2:	58                   	pop    rax
   140001df3:	48 39 c8             	cmp    rax,rcx
   140001df6:	0f 9c c0             	setl   al
   140001df9:	48 0f b6 c0          	movzx  rax,al
   140001dfd:	50                   	push   rax
   140001dfe:	58                   	pop    rax
   140001dff:	48 85 c0             	test   rax,rax
   140001e02:	0f 84 92 00 00 00    	je     140001e9a <L_p_iii_hexad_unpack6+0x13e>
   140001e08:	48 8b 45 e0          	mov    rax,QWORD PTR [rbp-0x20]
   140001e0c:	50                   	push   rax
   140001e0d:	48 b8 03 00 00 00 00 	movabs rax,0x3
   140001e14:	00 00 00 
   140001e17:	50                   	push   rax
   140001e18:	59                   	pop    rcx
   140001e19:	58                   	pop    rax
   140001e1a:	48 99                	cqo
   140001e1c:	48 f7 f9             	idiv   rcx
   140001e1f:	50                   	push   rax
   140001e20:	58                   	pop    rax
   140001e21:	48 89 45 d0          	mov    QWORD PTR [rbp-0x30],rax
   140001e25:	48 8b 45 e0          	mov    rax,QWORD PTR [rbp-0x20]
   140001e29:	50                   	push   rax
   140001e2a:	48 8b 45 d0          	mov    rax,QWORD PTR [rbp-0x30]
   140001e2e:	50                   	push   rax
   140001e2f:	48 b8 03 00 00 00 00 	movabs rax,0x3
   140001e36:	00 00 00 
   140001e39:	50                   	push   rax
   140001e3a:	59                   	pop    rcx
   140001e3b:	58                   	pop    rax
   140001e3c:	48 0f af c1          	imul   rax,rcx
   140001e40:	50                   	push   rax
   140001e41:	59                   	pop    rcx
   140001e42:	58                   	pop    rax
   140001e43:	48 29 c8             	sub    rax,rcx
   140001e46:	50                   	push   rax
   140001e47:	58                   	pop    rax
   140001e48:	48 89 45 c8          	mov    QWORD PTR [rbp-0x38],rax
   140001e4c:	48 b8 01 00 00 00 00 	movabs rax,0x1
   140001e53:	00 00 00 
   140001e56:	50                   	push   rax
   140001e57:	59                   	pop    rcx
   140001e58:	58                   	pop    rax
   140001e59:	48 29 c8             	sub    rax,rcx
   140001e5c:	50                   	push   rax
   140001e5d:	58                   	pop    rax
   140001e5e:	50                   	push   rax
   140001e5f:	48 8b 45 e8          	mov    rax,QWORD PTR [rbp-0x18]
   140001e63:	50                   	push   rax
   140001e64:	48 8b 45 d8          	mov    rax,QWORD PTR [rbp-0x28]
   140001e68:	50                   	push   rax
   140001e69:	59                   	pop    rcx
   140001e6a:	58                   	pop    rax
   140001e6b:	5a                   	pop    rdx
   140001e6c:	48 89 14 c8          	mov    QWORD PTR [rax+rcx*8],rdx
   140001e70:	48 8b 45 d0          	mov    rax,QWORD PTR [rbp-0x30]
   140001e74:	50                   	push   rax
   140001e75:	58                   	pop    rax
   140001e76:	48 89 45 e0          	mov    QWORD PTR [rbp-0x20],rax
   140001e7a:	48 8b 45 d8          	mov    rax,QWORD PTR [rbp-0x28]
   140001e7e:	50                   	push   rax
   140001e7f:	48 b8 01 00 00 00 00 	movabs rax,0x1
   140001e86:	00 00 00 
   140001e89:	50                   	push   rax
   140001e8a:	59                   	pop    rcx
   140001e8b:	58                   	pop    rax
   140001e8c:	48 01 c8             	add    rax,rcx
   140001e8f:	50                   	push   rax
   140001e90:	58                   	pop    rax
   140001e91:	48 89 45 d8          	mov    QWORD PTR [rbp-0x28],rax
   140001e95:	e9 47 ff ff ff       	jmp    140001de1 <L_p_iii_hexad_unpack6+0x85>
   140001e9a:	48 b8 01 00 00 00 00 	movabs rax,0x1
   140001ea1:	00 00 00 
   140001ea4:	50                   	push   rax
   140001ea5:	58                   	pop    rax
   140001ea6:	50                   	push   rax
   140001ea7:	50                   	push   rax
   140001ea8:	48 c7 c1 02 00 00 00 	mov    rcx,0x2
   140001eaf:	48 83 ec 20          	sub    rsp,0x20
   140001eb3:	e8 08 d9 00 00       	call   14000f7c0 <iii_witness_emit_kernel>
   140001eb8:	48 83 c4 20          	add    rsp,0x20
   140001ebc:	58                   	pop    rax
   140001ebd:	58                   	pop    rax
   140001ebe:	48 89 ec             	mov    rsp,rbp
   140001ec1:	5d                   	pop    rbp
   140001ec2:	c3                   	ret

0000000140001ec3 <L_p_iii_hexad_pillar>:
   140001ec3:	55                   	push   rbp
   140001ec4:	48 89 e5             	mov    rbp,rsp
   140001ec7:	48 81 ec 00 04 00 00 	sub    rsp,0x400
   140001ece:	48 89 4d f8          	mov    QWORD PTR [rbp-0x8],rcx
   140001ed2:	48 89 55 f0          	mov    QWORD PTR [rbp-0x10],rdx
   140001ed6:	48 c7 c1 01 00 00 00 	mov    rcx,0x1
   140001edd:	48 83 ec 20          	sub    rsp,0x20
   140001ee1:	e8 da d8 00 00       	call   14000f7c0 <iii_witness_emit_kernel>
   140001ee6:	48 83 c4 20          	add    rsp,0x20
   140001eea:	48 8b 45 f0          	mov    rax,QWORD PTR [rbp-0x10]
   140001eee:	50                   	push   rax
   140001eef:	48 b8 06 00 00 00 00 	movabs rax,0x6
   140001ef6:	00 00 00 
   140001ef9:	50                   	push   rax
   140001efa:	59                   	pop    rcx
   140001efb:	58                   	pop    rax
   140001efc:	48 39 c8             	cmp    rax,rcx
   140001eff:	0f 9d c0             	setge  al
   140001f02:	48 0f b6 c0          	movzx  rax,al
   140001f06:	50                   	push   rax
   140001f07:	58                   	pop    rax
   140001f08:	48 85 c0             	test   rax,rax
   140001f0b:	74 29                	je     140001f36 <L_p_iii_hexad_pillar+0x73>
   140001f0d:	48 b8 00 00 00 00 00 	movabs rax,0x0
   140001f14:	00 00 00 
   140001f17:	50                   	push   rax
   140001f18:	58                   	pop    rax
   140001f19:	50                   	push   rax
   140001f1a:	50                   	push   rax
   140001f1b:	48 c7 c1 02 00 00 00 	mov    rcx,0x2
   140001f22:	48 83 ec 20          	sub    rsp,0x20
   140001f26:	e8 95 d8 00 00       	call   14000f7c0 <iii_witness_emit_kernel>
   140001f2b:	48 83 c4 20          	add    rsp,0x20
   140001f2f:	58                   	pop    rax
   140001f30:	58                   	pop    rax
   140001f31:	48 89 ec             	mov    rsp,rbp
   140001f34:	5d                   	pop    rbp
   140001f35:	c3                   	ret
   140001f36:	48 8b 45 f8          	mov    rax,QWORD PTR [rbp-0x8]
   140001f3a:	50                   	push   rax
   140001f3b:	5a                   	pop    rdx
   140001f3c:	59                   	pop    rcx
   140001f3d:	48 83 ec 20          	sub    rsp,0x20
   140001f41:	e8 16 fe ff ff       	call   140001d5c <L_p_iii_hexad_unpack6>
   140001f46:	48 83 c4 20          	add    rsp,0x20
   140001f4a:	50                   	push   rax
   140001f4b:	48 b8 00 00 00 00 00 	movabs rax,0x0
   140001f52:	00 00 00 
   140001f55:	50                   	push   rax
   140001f56:	59                   	pop    rcx
   140001f57:	58                   	pop    rax
   140001f58:	48 39 c8             	cmp    rax,rcx
   140001f5b:	0f 94 c0             	sete   al
   140001f5e:	48 0f b6 c0          	movzx  rax,al
   140001f62:	50                   	push   rax
   140001f63:	58                   	pop    rax
   140001f64:	48 85 c0             	test   rax,rax
   140001f67:	74 29                	je     140001f92 <L_p_iii_hexad_pillar+0xcf>
   140001f69:	48 b8 00 00 00 00 00 	movabs rax,0x0
   140001f70:	00 00 00 
   140001f73:	50                   	push   rax
   140001f74:	58                   	pop    rax
   140001f75:	50                   	push   rax
   140001f76:	50                   	push   rax
   140001f77:	48 c7 c1 02 00 00 00 	mov    rcx,0x2
   140001f7e:	48 83 ec 20          	sub    rsp,0x20
   140001f82:	e8 39 d8 00 00       	call   14000f7c0 <iii_witness_emit_kernel>
   140001f87:	48 83 c4 20          	add    rsp,0x20
   140001f8b:	58                   	pop    rax
   140001f8c:	58                   	pop    rax
   140001f8d:	48 89 ec             	mov    rsp,rbp
   140001f90:	5d                   	pop    rbp
   140001f91:	c3                   	ret
   140001f92:	48 8d 05 67 32 01 00 	lea    rax,[rip+0x13267]        # 140015200 <L_p_HXA_TA>
   140001f99:	50                   	push   rax
   140001f9a:	59                   	pop    rcx
   140001f9b:	58                   	pop    rax
   140001f9c:	48 8b 04 c8          	mov    rax,QWORD PTR [rax+rcx*8]
   140001fa0:	50                   	push   rax
   140001fa1:	58                   	pop    rax
   140001fa2:	50                   	push   rax
   140001fa3:	50                   	push   rax
   140001fa4:	48 c7 c1 02 00 00 00 	mov    rcx,0x2
   140001fab:	48 83 ec 20          	sub    rsp,0x20
   140001faf:	e8 0c d8 00 00       	call   14000f7c0 <iii_witness_emit_kernel>
   140001fb4:	48 83 c4 20          	add    rsp,0x20
   140001fb8:	58                   	pop    rax
   140001fb9:	58                   	pop    rax
   140001fba:	48 89 ec             	mov    rsp,rbp
   140001fbd:	5d                   	pop    rbp
   140001fbe:	c3                   	ret

0000000140001fbf <L_p_iii_hexad_eq6>:
   140001fbf:	55                   	push   rbp
   140001fc0:	48 89 e5             	mov    rbp,rsp
   140001fc3:	48 81 ec 00 04 00 00 	sub    rsp,0x400
   140001fca:	48 89 4d f8          	mov    QWORD PTR [rbp-0x8],rcx
   140001fce:	48 89 55 f0          	mov    QWORD PTR [rbp-0x10],rdx
   140001fd2:	48 c7 c1 01 00 00 00 	mov    rcx,0x1
   140001fd9:	48 83 ec 20          	sub    rsp,0x20
   140001fdd:	e8 de d7 00 00       	call   14000f7c0 <iii_witness_emit_kernel>
   140001fe2:	48 83 c4 20          	add    rsp,0x20
   140001fe6:	48 8b 45 f8          	mov    rax,QWORD PTR [rbp-0x8]
   140001fea:	50                   	push   rax
   140001feb:	48 8b 45 f0          	mov    rax,QWORD PTR [rbp-0x10]
   140001fef:	50                   	push   rax
   140001ff0:	59                   	pop    rcx
   140001ff1:	58                   	pop    rax
   140001ff2:	48 39 c8             	cmp    rax,rcx
   140001ff5:	0f 94 c0             	sete   al
   140001ff8:	48 0f b6 c0          	movzx  rax,al
   140001ffc:	50                   	push   rax
   140001ffd:	58                   	pop    rax
   140001ffe:	48 85 c0             	test   rax,rax
   140002001:	74 29                	je     14000202c <L_p_iii_hexad_eq6+0x6d>
   140002003:	48 b8 01 00 00 00 00 	movabs rax,0x1
   14000200a:	00 00 00 
   14000200d:	50                   	push   rax
   14000200e:	58                   	pop    rax
   14000200f:	50                   	push   rax
   140002010:	50                   	push   rax
   140002011:	48 c7 c1 02 00 00 00 	mov    rcx,0x2
   140002018:	48 83 ec 20          	sub    rsp,0x20
   14000201c:	e8 9f d7 00 00       	call   14000f7c0 <iii_witness_emit_kernel>
   140002021:	48 83 c4 20          	add    rsp,0x20
   140002025:	58                   	pop    rax
   140002026:	58                   	pop    rax
   140002027:	48 89 ec             	mov    rsp,rbp
   14000202a:	5d                   	pop    rbp
   14000202b:	c3                   	ret
   14000202c:	48 b8 00 00 00 00 00 	movabs rax,0x0
   140002033:	00 00 00 
   140002036:	50                   	push   rax
   140002037:	58                   	pop    rax
   140002038:	50                   	push   rax
   140002039:	50                   	push   rax
   14000203a:	48 c7 c1 02 00 00 00 	mov    rcx,0x2
   140002041:	48 83 ec 20          	sub    rsp,0x20
   140002045:	e8 76 d7 00 00       	call   14000f7c0 <iii_witness_emit_kernel>
   14000204a:	48 83 c4 20          	add    rsp,0x20
   14000204e:	58                   	pop    rax
   14000204f:	58                   	pop    rax
   140002050:	48 89 ec             	mov    rsp,rbp
   140002053:	5d                   	pop    rbp
   140002054:	c3                   	ret

0000000140002055 <L_p_iii_hexad_compose6>:
   140002055:	55                   	push   rbp
   140002056:	48 89 e5             	mov    rbp,rsp
   140002059:	48 81 ec 00 04 00 00 	sub    rsp,0x400
   140002060:	48 89 4d f8          	mov    QWORD PTR [rbp-0x8],rcx
   140002064:	48 89 55 f0          	mov    QWORD PTR [rbp-0x10],rdx
   140002068:	48 c7 c1 01 00 00 00 	mov    rcx,0x1
   14000206f:	48 83 ec 20          	sub    rsp,0x20
   140002073:	e8 48 d7 00 00       	call   14000f7c0 <iii_witness_emit_kernel>
   140002078:	48 83 c4 20          	add    rsp,0x20
   14000207c:	48 8b 45 f8          	mov    rax,QWORD PTR [rbp-0x8]
   140002080:	50                   	push   rax
   140002081:	5a                   	pop    rdx
   140002082:	59                   	pop    rcx
   140002083:	48 83 ec 20          	sub    rsp,0x20
   140002087:	e8 d0 fc ff ff       	call   140001d5c <L_p_iii_hexad_unpack6>
   14000208c:	48 83 c4 20          	add    rsp,0x20
   140002090:	50                   	push   rax
   140002091:	48 b8 00 00 00 00 00 	movabs rax,0x0
   140002098:	00 00 00 
   14000209b:	50                   	push   rax
   14000209c:	59                   	pop    rcx
   14000209d:	58                   	pop    rax
   14000209e:	48 39 c8             	cmp    rax,rcx
   1400020a1:	0f 94 c0             	sete   al
   1400020a4:	48 0f b6 c0          	movzx  rax,al
   1400020a8:	50                   	push   rax
   1400020a9:	58                   	pop    rax
   1400020aa:	48 85 c0             	test   rax,rax
   1400020ad:	74 29                	je     1400020d8 <L_p_iii_hexad_compose6+0x83>
   1400020af:	48 b8 00 00 00 00 00 	movabs rax,0x0
   1400020b6:	00 00 00 
   1400020b9:	50                   	push   rax
   1400020ba:	58                   	pop    rax
   1400020bb:	50                   	push   rax
   1400020bc:	50                   	push   rax
   1400020bd:	48 c7 c1 02 00 00 00 	mov    rcx,0x2
   1400020c4:	48 83 ec 20          	sub    rsp,0x20
   1400020c8:	e8 f3 d6 00 00       	call   14000f7c0 <iii_witness_emit_kernel>
   1400020cd:	48 83 c4 20          	add    rsp,0x20
   1400020d1:	58                   	pop    rax
   1400020d2:	58                   	pop    rax
   1400020d3:	48 89 ec             	mov    rsp,rbp
   1400020d6:	5d                   	pop    rbp
   1400020d7:	c3                   	ret
   1400020d8:	48 8b 45 f0          	mov    rax,QWORD PTR [rbp-0x10]
   1400020dc:	50                   	push   rax
   1400020dd:	5a                   	pop    rdx
   1400020de:	59                   	pop    rcx
   1400020df:	48 83 ec 20          	sub    rsp,0x20
   1400020e3:	e8 74 fc ff ff       	call   140001d5c <L_p_iii_hexad_unpack6>
   1400020e8:	48 83 c4 20          	add    rsp,0x20
   1400020ec:	50                   	push   rax
   1400020ed:	48 b8 00 00 00 00 00 	movabs rax,0x0
   1400020f4:	00 00 00 
   1400020f7:	50                   	push   rax
   1400020f8:	59                   	pop    rcx
   1400020f9:	58                   	pop    rax
   1400020fa:	48 39 c8             	cmp    rax,rcx
   1400020fd:	0f 94 c0             	sete   al
   140002100:	48 0f b6 c0          	movzx  rax,al
   140002104:	50                   	push   rax
   140002105:	58                   	pop    rax
   140002106:	48 85 c0             	test   rax,rax
   140002109:	74 29                	je     140002134 <L_p_iii_hexad_compose6+0xdf>
   14000210b:	48 b8 00 00 00 00 00 	movabs rax,0x0
   140002112:	00 00 00 
   140002115:	50                   	push   rax
   140002116:	58                   	pop    rax
   140002117:	50                   	push   rax
   140002118:	50                   	push   rax
   140002119:	48 c7 c1 02 00 00 00 	mov    rcx,0x2
   140002120:	48 83 ec 20          	sub    rsp,0x20
   140002124:	e8 97 d6 00 00       	call   14000f7c0 <iii_witness_emit_kernel>
   140002129:	48 83 c4 20          	add    rsp,0x20
   14000212d:	58                   	pop    rax
   14000212e:	58                   	pop    rax
   14000212f:	48 89 ec             	mov    rsp,rbp
   140002132:	5d                   	pop    rbp
   140002133:	c3                   	ret
   140002134:	48 b8 00 00 00 00 00 	movabs rax,0x0
   14000213b:	00 00 00 
   14000213e:	50                   	push   rax
   14000213f:	58                   	pop    rax
   140002140:	48 89 45 e8          	mov    QWORD PTR [rbp-0x18],rax
   140002144:	48 8b 45 e8          	mov    rax,QWORD PTR [rbp-0x18]
   140002148:	50                   	push   rax
   140002149:	48 b8 04 00 00 00 00 	movabs rax,0x4
   140002150:	00 00 00 
   140002153:	50                   	push   rax
   140002154:	59                   	pop    rcx
   140002155:	58                   	pop    rax
   140002156:	48 39 c8             	cmp    rax,rcx
   140002159:	0f 9c c0             	setl   al
   14000215c:	48 0f b6 c0          	movzx  rax,al
   140002160:	50                   	push   rax
   140002161:	58                   	pop    rax
   140002162:	48 85 c0             	test   rax,rax
   140002165:	74 6e                	je     1400021d5 <L_p_iii_hexad_compose6+0x180>
   140002167:	48 8d 05 92 30 01 00 	lea    rax,[rip+0x13092]        # 140015200 <L_p_HXA_TA>
   14000216e:	50                   	push   rax
   14000216f:	48 8b 45 e8          	mov    rax,QWORD PTR [rbp-0x18]
   140002173:	50                   	push   rax
   140002174:	59                   	pop    rcx
   140002175:	58                   	pop    rax
   140002176:	48 8b 04 c8          	mov    rax,QWORD PTR [rax+rcx*8]
   14000217a:	50                   	push   rax
   14000217b:	48 8d 05 ae 30 01 00 	lea    rax,[rip+0x130ae]        # 140015230 <L_p_HXA_TB>
   140002182:	50                   	push   rax
   140002183:	48 8b 45 e8          	mov    rax,QWORD PTR [rbp-0x18]
   140002187:	50                   	push   rax
   140002188:	59                   	pop    rcx
   140002189:	58                   	pop    rax
   14000218a:	48 8b 04 c8          	mov    rax,QWORD PTR [rax+rcx*8]
   14000218e:	50                   	push   rax
   14000218f:	5a                   	pop    rdx
   140002190:	59                   	pop    rcx
   140002191:	48 83 ec 20          	sub    rsp,0x20
   140002195:	e8 e7 f5 ff ff       	call   140001781 <L_p_iii_trit_and>
   14000219a:	48 83 c4 20          	add    rsp,0x20
   14000219e:	50                   	push   rax
   14000219f:	58                   	pop    rax
   1400021a0:	50                   	push   rax
   1400021a1:	48 8d 05 b8 30 01 00 	lea    rax,[rip+0x130b8]        # 140015260 <L_p_HXA_TO>
   1400021a8:	50                   	push   rax
   1400021a9:	48 8b 45 e8          	mov    rax,QWORD PTR [rbp-0x18]
   1400021ad:	50                   	push   rax
   1400021ae:	59                   	pop    rcx
   1400021af:	58                   	pop    rax
   1400021b0:	5a                   	pop    rdx
   1400021b1:	48 89 14 c8          	mov    QWORD PTR [rax+rcx*8],rdx
   1400021b5:	48 8b 45 e8          	mov    rax,QWORD PTR [rbp-0x18]
   1400021b9:	50                   	push   rax
   1400021ba:	48 b8 01 00 00 00 00 	movabs rax,0x1
   1400021c1:	00 00 00 
   1400021c4:	50                   	push   rax
   1400021c5:	59                   	pop    rcx
   1400021c6:	58                   	pop    rax
   1400021c7:	48 01 c8             	add    rax,rcx
   1400021ca:	50                   	push   rax
   1400021cb:	58                   	pop    rax
   1400021cc:	48 89 45 e8          	mov    QWORD PTR [rbp-0x18],rax
   1400021d0:	e9 6f ff ff ff       	jmp    140002144 <L_p_iii_hexad_compose6+0xef>
   1400021d5:	48 b8 04 00 00 00 00 	movabs rax,0x4
   1400021dc:	00 00 00 
   1400021df:	50                   	push   rax
   1400021e0:	58                   	pop    rax
   1400021e1:	48 89 45 e8          	mov    QWORD PTR [rbp-0x18],rax
   1400021e5:	48 8b 45 e8          	mov    rax,QWORD PTR [rbp-0x18]
   1400021e9:	50                   	push   rax
   1400021ea:	48 b8 06 00 00 00 00 	movabs rax,0x6
   1400021f1:	00 00 00 
   1400021f4:	50                   	push   rax
   1400021f5:	59                   	pop    rcx
   1400021f6:	58                   	pop    rax
   1400021f7:	48 39 c8             	cmp    rax,rcx
   1400021fa:	0f 9c c0             	setl   al
   1400021fd:	48 0f b6 c0          	movzx  rax,al
   140002201:	50                   	push   rax
   140002202:	58                   	pop    rax
   140002203:	48 85 c0             	test   rax,rax
   140002206:	74 6e                	je     140002276 <L_p_iii_hexad_compose6+0x221>
   140002208:	48 8d 05 f1 2f 01 00 	lea    rax,[rip+0x12ff1]        # 140015200 <L_p_HXA_TA>
   14000220f:	50                   	push   rax
   140002210:	48 8b 45 e8          	mov    rax,QWORD PTR [rbp-0x18]
   140002214:	50                   	push   rax
   140002215:	59                   	pop    rcx
   140002216:	58                   	pop    rax
   140002217:	48 8b 04 c8          	mov    rax,QWORD PTR [rax+rcx*8]
   14000221b:	50                   	push   rax
   14000221c:	48 8d 05 0d 30 01 00 	lea    rax,[rip+0x1300d]        # 140015230 <L_p_HXA_TB>
   140002223:	50                   	push   rax
   140002224:	48 8b 45 e8          	mov    rax,QWORD PTR [rbp-0x18]
   140002228:	50                   	push   rax
   140002229:	59                   	pop    rcx
   14000222a:	58                   	pop    rax
   14000222b:	48 8b 04 c8          	mov    rax,QWORD PTR [rax+rcx*8]
   14000222f:	50                   	push   rax
   140002230:	5a                   	pop    rdx
   140002231:	59                   	pop    rcx
   140002232:	48 83 ec 20          	sub    rsp,0x20
   140002236:	e8 da f6 ff ff       	call   140001915 <L_p_iii_trit_or>
   14000223b:	48 83 c4 20          	add    rsp,0x20
   14000223f:	50                   	push   rax
   140002240:	58                   	pop    rax
   140002241:	50                   	push   rax
   140002242:	48 8d 05 17 30 01 00 	lea    rax,[rip+0x13017]        # 140015260 <L_p_HXA_TO>
   140002249:	50                   	push   rax
   14000224a:	48 8b 45 e8          	mov    rax,QWORD PTR [rbp-0x18]
   14000224e:	50                   	push   rax
   14000224f:	59                   	pop    rcx
   140002250:	58                   	pop    rax
   140002251:	5a                   	pop    rdx
   140002252:	48 89 14 c8          	mov    QWORD PTR [rax+rcx*8],rdx
   140002256:	48 8b 45 e8          	mov    rax,QWORD PTR [rbp-0x18]
   14000225a:	50                   	push   rax
   14000225b:	48 b8 01 00 00 00 00 	movabs rax,0x1
   140002262:	00 00 00 
   140002265:	50                   	push   rax
   140002266:	59                   	pop    rcx
   140002267:	58                   	pop    rax
   140002268:	48 01 c8             	add    rax,rcx
   14000226b:	50                   	push   rax
   14000226c:	58                   	pop    rax
   14000226d:	48 89 45 e8          	mov    QWORD PTR [rbp-0x18],rax
   140002271:	e9 6f ff ff ff       	jmp    1400021e5 <L_p_iii_hexad_compose6+0x190>
   140002276:	59                   	pop    rcx
   140002277:	48 83 ec 20          	sub    rsp,0x20
   14000227b:	e8 e1 f9 ff ff       	call   140001c61 <L_p_iii_hexad_pack6>
   140002280:	48 83 c4 20          	add    rsp,0x20
   140002284:	50                   	push   rax
   140002285:	58                   	pop    rax
   140002286:	50                   	push   rax
   140002287:	50                   	push   rax
   140002288:	48 c7 c1 02 00 00 00 	mov    rcx,0x2
   14000228f:	48 83 ec 20          	sub    rsp,0x20
   140002293:	e8 28 d5 00 00       	call   14000f7c0 <iii_witness_emit_kernel>
   140002298:	48 83 c4 20          	add    rsp,0x20
   14000229c:	58                   	pop    rax
   14000229d:	58                   	pop    rax
   14000229e:	48 89 ec             	mov    rsp,rbp
   1400022a1:	5d                   	pop    rbp
   1400022a2:	c3                   	ret

00000001400022a3 <L_p_iii_hexad_add>:
   1400022a3:	55                   	push   rbp
   1400022a4:	48 89 e5             	mov    rbp,rsp
   1400022a7:	48 81 ec 00 04 00 00 	sub    rsp,0x400
   1400022ae:	48 89 4d f8          	mov    QWORD PTR [rbp-0x8],rcx
   1400022b2:	48 89 55 f0          	mov    QWORD PTR [rbp-0x10],rdx
   1400022b6:	48 c7 c1 01 00 00 00 	mov    rcx,0x1
   1400022bd:	48 83 ec 20          	sub    rsp,0x20
   1400022c1:	e8 fa d4 00 00       	call   14000f7c0 <iii_witness_emit_kernel>
   1400022c6:	48 83 c4 20          	add    rsp,0x20
   1400022ca:	48 8b 45 f8          	mov    rax,QWORD PTR [rbp-0x8]
   1400022ce:	50                   	push   rax
   1400022cf:	5a                   	pop    rdx
   1400022d0:	59                   	pop    rcx
   1400022d1:	48 83 ec 20          	sub    rsp,0x20
   1400022d5:	e8 82 fa ff ff       	call   140001d5c <L_p_iii_hexad_unpack6>
   1400022da:	48 83 c4 20          	add    rsp,0x20
   1400022de:	50                   	push   rax
   1400022df:	48 b8 00 00 00 00 00 	movabs rax,0x0
   1400022e6:	00 00 00 
   1400022e9:	50                   	push   rax
   1400022ea:	59                   	pop    rcx
   1400022eb:	58                   	pop    rax
   1400022ec:	48 39 c8             	cmp    rax,rcx
   1400022ef:	0f 94 c0             	sete   al
   1400022f2:	48 0f b6 c0          	movzx  rax,al
   1400022f6:	50                   	push   rax
   1400022f7:	58                   	pop    rax
   1400022f8:	48 85 c0             	test   rax,rax
   1400022fb:	74 29                	je     140002326 <L_p_iii_hexad_add+0x83>
   1400022fd:	48 b8 00 00 00 00 00 	movabs rax,0x0
   140002304:	00 00 00 
   140002307:	50                   	push   rax
   140002308:	58                   	pop    rax
   140002309:	50                   	push   rax
   14000230a:	50                   	push   rax
   14000230b:	48 c7 c1 02 00 00 00 	mov    rcx,0x2
   140002312:	48 83 ec 20          	sub    rsp,0x20
   140002316:	e8 a5 d4 00 00       	call   14000f7c0 <iii_witness_emit_kernel>
   14000231b:	48 83 c4 20          	add    rsp,0x20
   14000231f:	58                   	pop    rax
   140002320:	58                   	pop    rax
   140002321:	48 89 ec             	mov    rsp,rbp
   140002324:	5d                   	pop    rbp
   140002325:	c3                   	ret
   140002326:	48 8b 45 f0          	mov    rax,QWORD PTR [rbp-0x10]
   14000232a:	50                   	push   rax
   14000232b:	5a                   	pop    rdx
   14000232c:	59                   	pop    rcx
   14000232d:	48 83 ec 20          	sub    rsp,0x20
   140002331:	e8 26 fa ff ff       	call   140001d5c <L_p_iii_hexad_unpack6>
   140002336:	48 83 c4 20          	add    rsp,0x20
   14000233a:	50                   	push   rax
   14000233b:	48 b8 00 00 00 00 00 	movabs rax,0x0
   140002342:	00 00 00 
   140002345:	50                   	push   rax
   140002346:	59                   	pop    rcx
   140002347:	58                   	pop    rax
   140002348:	48 39 c8             	cmp    rax,rcx
   14000234b:	0f 94 c0             	sete   al
   14000234e:	48 0f b6 c0          	movzx  rax,al
   140002352:	50                   	push   rax
   140002353:	58                   	pop    rax
   140002354:	48 85 c0             	test   rax,rax
   140002357:	74 29                	je     140002382 <L_p_iii_hexad_add+0xdf>
   140002359:	48 b8 00 00 00 00 00 	movabs rax,0x0
   140002360:	00 00 00 
   140002363:	50                   	push   rax
   140002364:	58                   	pop    rax
   140002365:	50                   	push   rax
   140002366:	50                   	push   rax
   140002367:	48 c7 c1 02 00 00 00 	mov    rcx,0x2
   14000236e:	48 83 ec 20          	sub    rsp,0x20
   140002372:	e8 49 d4 00 00       	call   14000f7c0 <iii_witness_emit_kernel>
   140002377:	48 83 c4 20          	add    rsp,0x20
   14000237b:	58                   	pop    rax
   14000237c:	58                   	pop    rax
   14000237d:	48 89 ec             	mov    rsp,rbp
   140002380:	5d                   	pop    rbp
   140002381:	c3                   	ret
   140002382:	48 b8 00 00 00 00 00 	movabs rax,0x0
   140002389:	00 00 00 
   14000238c:	50                   	push   rax
   14000238d:	58                   	pop    rax
   14000238e:	48 89 45 e8          	mov    QWORD PTR [rbp-0x18],rax
   140002392:	48 8b 45 e8          	mov    rax,QWORD PTR [rbp-0x18]
   140002396:	50                   	push   rax
   140002397:	48 b8 06 00 00 00 00 	movabs rax,0x6
   14000239e:	00 00 00 
   1400023a1:	50                   	push   rax
   1400023a2:	59                   	pop    rcx
   1400023a3:	58                   	pop    rax
   1400023a4:	48 39 c8             	cmp    rax,rcx
   1400023a7:	0f 9c c0             	setl   al
   1400023aa:	48 0f b6 c0          	movzx  rax,al
   1400023ae:	50                   	push   rax
   1400023af:	58                   	pop    rax
   1400023b0:	48 85 c0             	test   rax,rax
   1400023b3:	74 6e                	je     140002423 <L_p_iii_hexad_add+0x180>
   1400023b5:	48 8d 05 44 2e 01 00 	lea    rax,[rip+0x12e44]        # 140015200 <L_p_HXA_TA>
   1400023bc:	50                   	push   rax
   1400023bd:	48 8b 45 e8          	mov    rax,QWORD PTR [rbp-0x18]
   1400023c1:	50                   	push   rax
   1400023c2:	59                   	pop    rcx
   1400023c3:	58                   	pop    rax
   1400023c4:	48 8b 04 c8          	mov    rax,QWORD PTR [rax+rcx*8]
   1400023c8:	50                   	push   rax
   1400023c9:	48 8d 05 60 2e 01 00 	lea    rax,[rip+0x12e60]        # 140015230 <L_p_HXA_TB>
   1400023d0:	50                   	push   rax
   1400023d1:	48 8b 45 e8          	mov    rax,QWORD PTR [rbp-0x18]
   1400023d5:	50                   	push   rax
   1400023d6:	59                   	pop    rcx
   1400023d7:	58                   	pop    rax
   1400023d8:	48 8b 04 c8          	mov    rax,QWORD PTR [rax+rcx*8]
   1400023dc:	50                   	push   rax
   1400023dd:	5a                   	pop    rdx
   1400023de:	59                   	pop    rcx
   1400023df:	48 83 ec 20          	sub    rsp,0x20
   1400023e3:	e8 b2 f6 ff ff       	call   140001a9a <L_p_iii_trit_sum>
   1400023e8:	48 83 c4 20          	add    rsp,0x20
   1400023ec:	50                   	push   rax
   1400023ed:	58                   	pop    rax
   1400023ee:	50                   	push   rax
   1400023ef:	48 8d 05 6a 2e 01 00 	lea    rax,[rip+0x12e6a]        # 140015260 <L_p_HXA_TO>
   1400023f6:	50                   	push   rax
   1400023f7:	48 8b 45 e8          	mov    rax,QWORD PTR [rbp-0x18]
   1400023fb:	50                   	push   rax
   1400023fc:	59                   	pop    rcx
   1400023fd:	58                   	pop    rax
   1400023fe:	5a                   	pop    rdx
   1400023ff:	48 89 14 c8          	mov    QWORD PTR [rax+rcx*8],rdx
   140002403:	48 8b 45 e8          	mov    rax,QWORD PTR [rbp-0x18]
   140002407:	50                   	push   rax
   140002408:	48 b8 01 00 00 00 00 	movabs rax,0x1
   14000240f:	00 00 00 
   140002412:	50                   	push   rax
   140002413:	59                   	pop    rcx
   140002414:	58                   	pop    rax
   140002415:	48 01 c8             	add    rax,rcx
   140002418:	50                   	push   rax
   140002419:	58                   	pop    rax
   14000241a:	48 89 45 e8          	mov    QWORD PTR [rbp-0x18],rax
   14000241e:	e9 6f ff ff ff       	jmp    140002392 <L_p_iii_hexad_add+0xef>
   140002423:	59                   	pop    rcx
   140002424:	48 83 ec 20          	sub    rsp,0x20
   140002428:	e8 34 f8 ff ff       	call   140001c61 <L_p_iii_hexad_pack6>
   14000242d:	48 83 c4 20          	add    rsp,0x20
   140002431:	50                   	push   rax
   140002432:	58                   	pop    rax
   140002433:	50                   	push   rax
   140002434:	50                   	push   rax
   140002435:	48 c7 c1 02 00 00 00 	mov    rcx,0x2
   14000243c:	48 83 ec 20          	sub    rsp,0x20
   140002440:	e8 7b d3 00 00       	call   14000f7c0 <iii_witness_emit_kernel>
   140002445:	48 83 c4 20          	add    rsp,0x20
   140002449:	58                   	pop    rax
   14000244a:	58                   	pop    rax
   14000244b:	48 89 ec             	mov    rsp,rbp
   14000244e:	5d                   	pop    rbp
   14000244f:	c3                   	ret

0000000140002450 <L_p_iii_hexad_sub>:
   140002450:	55                   	push   rbp
   140002451:	48 89 e5             	mov    rbp,rsp
   140002454:	48 81 ec 00 04 00 00 	sub    rsp,0x400
   14000245b:	48 89 4d f8          	mov    QWORD PTR [rbp-0x8],rcx
   14000245f:	48 89 55 f0          	mov    QWORD PTR [rbp-0x10],rdx
   140002463:	48 c7 c1 01 00 00 00 	mov    rcx,0x1
   14000246a:	48 83 ec 20          	sub    rsp,0x20
   14000246e:	e8 4d d3 00 00       	call   14000f7c0 <iii_witness_emit_kernel>
   140002473:	48 83 c4 20          	add    rsp,0x20
   140002477:	48 8b 45 f8          	mov    rax,QWORD PTR [rbp-0x8]
   14000247b:	50                   	push   rax
   14000247c:	5a                   	pop    rdx
   14000247d:	59                   	pop    rcx
   14000247e:	48 83 ec 20          	sub    rsp,0x20
   140002482:	e8 d5 f8 ff ff       	call   140001d5c <L_p_iii_hexad_unpack6>
   140002487:	48 83 c4 20          	add    rsp,0x20
   14000248b:	50                   	push   rax
   14000248c:	48 b8 00 00 00 00 00 	movabs rax,0x0
   140002493:	00 00 00 
   140002496:	50                   	push   rax
   140002497:	59                   	pop    rcx
   140002498:	58                   	pop    rax
   140002499:	48 39 c8             	cmp    rax,rcx
   14000249c:	0f 94 c0             	sete   al
   14000249f:	48 0f b6 c0          	movzx  rax,al
   1400024a3:	50                   	push   rax
   1400024a4:	58                   	pop    rax
   1400024a5:	48 85 c0             	test   rax,rax
   1400024a8:	74 29                	je     1400024d3 <L_p_iii_hexad_sub+0x83>
   1400024aa:	48 b8 00 00 00 00 00 	movabs rax,0x0
   1400024b1:	00 00 00 
   1400024b4:	50                   	push   rax
   1400024b5:	58                   	pop    rax
   1400024b6:	50                   	push   rax
   1400024b7:	50                   	push   rax
   1400024b8:	48 c7 c1 02 00 00 00 	mov    rcx,0x2
   1400024bf:	48 83 ec 20          	sub    rsp,0x20
   1400024c3:	e8 f8 d2 00 00       	call   14000f7c0 <iii_witness_emit_kernel>
   1400024c8:	48 83 c4 20          	add    rsp,0x20
   1400024cc:	58                   	pop    rax
   1400024cd:	58                   	pop    rax
   1400024ce:	48 89 ec             	mov    rsp,rbp
   1400024d1:	5d                   	pop    rbp
   1400024d2:	c3                   	ret
   1400024d3:	48 8b 45 f0          	mov    rax,QWORD PTR [rbp-0x10]
   1400024d7:	50                   	push   rax
   1400024d8:	5a                   	pop    rdx
   1400024d9:	59                   	pop    rcx
   1400024da:	48 83 ec 20          	sub    rsp,0x20
   1400024de:	e8 79 f8 ff ff       	call   140001d5c <L_p_iii_hexad_unpack6>
   1400024e3:	48 83 c4 20          	add    rsp,0x20
   1400024e7:	50                   	push   rax
   1400024e8:	48 b8 00 00 00 00 00 	movabs rax,0x0
   1400024ef:	00 00 00 
   1400024f2:	50                   	push   rax
   1400024f3:	59                   	pop    rcx
   1400024f4:	58                   	pop    rax
   1400024f5:	48 39 c8             	cmp    rax,rcx
   1400024f8:	0f 94 c0             	sete   al
   1400024fb:	48 0f b6 c0          	movzx  rax,al
   1400024ff:	50                   	push   rax
   140002500:	58                   	pop    rax
   140002501:	48 85 c0             	test   rax,rax
   140002504:	74 29                	je     14000252f <L_p_iii_hexad_sub+0xdf>
   140002506:	48 b8 00 00 00 00 00 	movabs rax,0x0
   14000250d:	00 00 00 
   140002510:	50                   	push   rax
   140002511:	58                   	pop    rax
   140002512:	50                   	push   rax
   140002513:	50                   	push   rax
   140002514:	48 c7 c1 02 00 00 00 	mov    rcx,0x2
   14000251b:	48 83 ec 20          	sub    rsp,0x20
   14000251f:	e8 9c d2 00 00       	call   14000f7c0 <iii_witness_emit_kernel>
   140002524:	48 83 c4 20          	add    rsp,0x20
   140002528:	58                   	pop    rax
   140002529:	58                   	pop    rax
   14000252a:	48 89 ec             	mov    rsp,rbp
   14000252d:	5d                   	pop    rbp
   14000252e:	c3                   	ret
   14000252f:	48 b8 00 00 00 00 00 	movabs rax,0x0
   140002536:	00 00 00 
   140002539:	50                   	push   rax
   14000253a:	58                   	pop    rax
   14000253b:	48 89 45 e8          	mov    QWORD PTR [rbp-0x18],rax
   14000253f:	48 8b 45 e8          	mov    rax,QWORD PTR [rbp-0x18]
   140002543:	50                   	push   rax
   140002544:	48 b8 06 00 00 00 00 	movabs rax,0x6
   14000254b:	00 00 00 
   14000254e:	50                   	push   rax
   14000254f:	59                   	pop    rcx
   140002550:	58                   	pop    rax
   140002551:	48 39 c8             	cmp    rax,rcx
   140002554:	0f 9c c0             	setl   al
   140002557:	48 0f b6 c0          	movzx  rax,al
   14000255b:	50                   	push   rax
   14000255c:	58                   	pop    rax
   14000255d:	48 85 c0             	test   rax,rax
   140002560:	74 6e                	je     1400025d0 <L_p_iii_hexad_sub+0x180>
   140002562:	48 8d 05 97 2c 01 00 	lea    rax,[rip+0x12c97]        # 140015200 <L_p_HXA_TA>
   140002569:	50                   	push   rax
   14000256a:	48 8b 45 e8          	mov    rax,QWORD PTR [rbp-0x18]
   14000256e:	50                   	push   rax
   14000256f:	59                   	pop    rcx
   140002570:	58                   	pop    rax
   140002571:	48 8b 04 c8          	mov    rax,QWORD PTR [rax+rcx*8]
   140002575:	50                   	push   rax
   140002576:	48 8d 05 b3 2c 01 00 	lea    rax,[rip+0x12cb3]        # 140015230 <L_p_HXA_TB>
   14000257d:	50                   	push   rax
   14000257e:	48 8b 45 e8          	mov    rax,QWORD PTR [rbp-0x18]
   140002582:	50                   	push   rax
   140002583:	59                   	pop    rcx
   140002584:	58                   	pop    rax
   140002585:	48 8b 04 c8          	mov    rax,QWORD PTR [rax+rcx*8]
   140002589:	50                   	push   rax
   14000258a:	5a                   	pop    rdx
   14000258b:	59                   	pop    rcx
   14000258c:	48 83 ec 20          	sub    rsp,0x20
   140002590:	e8 5c f6 ff ff       	call   140001bf1 <L_p_iii_trit_sub>
   140002595:	48 83 c4 20          	add    rsp,0x20
   140002599:	50                   	push   rax
   14000259a:	58                   	pop    rax
   14000259b:	50                   	push   rax
   14000259c:	48 8d 05 bd 2c 01 00 	lea    rax,[rip+0x12cbd]        # 140015260 <L_p_HXA_TO>
   1400025a3:	50                   	push   rax
   1400025a4:	48 8b 45 e8          	mov    rax,QWORD PTR [rbp-0x18]
   1400025a8:	50                   	push   rax
   1400025a9:	59                   	pop    rcx
   1400025aa:	58                   	pop    rax
   1400025ab:	5a                   	pop    rdx
   1400025ac:	48 89 14 c8          	mov    QWORD PTR [rax+rcx*8],rdx
   1400025b0:	48 8b 45 e8          	mov    rax,QWORD PTR [rbp-0x18]
   1400025b4:	50                   	push   rax
   1400025b5:	48 b8 01 00 00 00 00 	movabs rax,0x1
   1400025bc:	00 00 00 
   1400025bf:	50                   	push   rax
   1400025c0:	59                   	pop    rcx
   1400025c1:	58                   	pop    rax
   1400025c2:	48 01 c8             	add    rax,rcx
   1400025c5:	50                   	push   rax
   1400025c6:	58                   	pop    rax
   1400025c7:	48 89 45 e8          	mov    QWORD PTR [rbp-0x18],rax
   1400025cb:	e9 6f ff ff ff       	jmp    14000253f <L_p_iii_hexad_sub+0xef>
   1400025d0:	59                   	pop    rcx
   1400025d1:	48 83 ec 20          	sub    rsp,0x20
   1400025d5:	e8 87 f6 ff ff       	call   140001c61 <L_p_iii_hexad_pack6>
   1400025da:	48 83 c4 20          	add    rsp,0x20
   1400025de:	50                   	push   rax
   1400025df:	58                   	pop    rax
   1400025e0:	50                   	push   rax
   1400025e1:	50                   	push   rax
   1400025e2:	48 c7 c1 02 00 00 00 	mov    rcx,0x2
   1400025e9:	48 83 ec 20          	sub    rsp,0x20
   1400025ed:	e8 ce d1 00 00       	call   14000f7c0 <iii_witness_emit_kernel>
   1400025f2:	48 83 c4 20          	add    rsp,0x20
   1400025f6:	58                   	pop    rax
   1400025f7:	58                   	pop    rax
   1400025f8:	48 89 ec             	mov    rsp,rbp
   1400025fb:	5d                   	pop    rbp
   1400025fc:	c3                   	ret

00000001400025fd <L_p_iii_hexad_mul>:
   1400025fd:	55                   	push   rbp
   1400025fe:	48 89 e5             	mov    rbp,rsp
   140002601:	48 81 ec 00 04 00 00 	sub    rsp,0x400
   140002608:	48 89 4d f8          	mov    QWORD PTR [rbp-0x8],rcx
   14000260c:	48 89 55 f0          	mov    QWORD PTR [rbp-0x10],rdx
   140002610:	48 c7 c1 01 00 00 00 	mov    rcx,0x1
   140002617:	48 83 ec 20          	sub    rsp,0x20
   14000261b:	e8 a0 d1 00 00       	call   14000f7c0 <iii_witness_emit_kernel>
   140002620:	48 83 c4 20          	add    rsp,0x20
   140002624:	48 8b 45 f8          	mov    rax,QWORD PTR [rbp-0x8]
   140002628:	50                   	push   rax
   140002629:	5a                   	pop    rdx
   14000262a:	59                   	pop    rcx
   14000262b:	48 83 ec 20          	sub    rsp,0x20
   14000262f:	e8 28 f7 ff ff       	call   140001d5c <L_p_iii_hexad_unpack6>
   140002634:	48 83 c4 20          	add    rsp,0x20
   140002638:	50                   	push   rax
   140002639:	48 b8 00 00 00 00 00 	movabs rax,0x0
   140002640:	00 00 00 
   140002643:	50                   	push   rax
   140002644:	59                   	pop    rcx
   140002645:	58                   	pop    rax
   140002646:	48 39 c8             	cmp    rax,rcx
   140002649:	0f 94 c0             	sete   al
   14000264c:	48 0f b6 c0          	movzx  rax,al
   140002650:	50                   	push   rax
   140002651:	58                   	pop    rax
   140002652:	48 85 c0             	test   rax,rax
   140002655:	74 29                	je     140002680 <L_p_iii_hexad_mul+0x83>
   140002657:	48 b8 00 00 00 00 00 	movabs rax,0x0
   14000265e:	00 00 00 
   140002661:	50                   	push   rax
   140002662:	58                   	pop    rax
   140002663:	50                   	push   rax
   140002664:	50                   	push   rax
   140002665:	48 c7 c1 02 00 00 00 	mov    rcx,0x2
   14000266c:	48 83 ec 20          	sub    rsp,0x20
   140002670:	e8 4b d1 00 00       	call   14000f7c0 <iii_witness_emit_kernel>
   140002675:	48 83 c4 20          	add    rsp,0x20
   140002679:	58                   	pop    rax
   14000267a:	58                   	pop    rax
   14000267b:	48 89 ec             	mov    rsp,rbp
   14000267e:	5d                   	pop    rbp
   14000267f:	c3                   	ret
   140002680:	48 8b 45 f0          	mov    rax,QWORD PTR [rbp-0x10]
   140002684:	50                   	push   rax
   140002685:	5a                   	pop    rdx
   140002686:	59                   	pop    rcx
   140002687:	48 83 ec 20          	sub    rsp,0x20
   14000268b:	e8 cc f6 ff ff       	call   140001d5c <L_p_iii_hexad_unpack6>
   140002690:	48 83 c4 20          	add    rsp,0x20
   140002694:	50                   	push   rax
   140002695:	48 b8 00 00 00 00 00 	movabs rax,0x0
   14000269c:	00 00 00 
   14000269f:	50                   	push   rax
   1400026a0:	59                   	pop    rcx
   1400026a1:	58                   	pop    rax
   1400026a2:	48 39 c8             	cmp    rax,rcx
   1400026a5:	0f 94 c0             	sete   al
   1400026a8:	48 0f b6 c0          	movzx  rax,al
   1400026ac:	50                   	push   rax
   1400026ad:	58                   	pop    rax
   1400026ae:	48 85 c0             	test   rax,rax
   1400026b1:	74 29                	je     1400026dc <L_p_iii_hexad_mul+0xdf>
   1400026b3:	48 b8 00 00 00 00 00 	movabs rax,0x0
   1400026ba:	00 00 00 
   1400026bd:	50                   	push   rax
   1400026be:	58                   	pop    rax
   1400026bf:	50                   	push   rax
   1400026c0:	50                   	push   rax
   1400026c1:	48 c7 c1 02 00 00 00 	mov    rcx,0x2
   1400026c8:	48 83 ec 20          	sub    rsp,0x20
   1400026cc:	e8 ef d0 00 00       	call   14000f7c0 <iii_witness_emit_kernel>
   1400026d1:	48 83 c4 20          	add    rsp,0x20
   1400026d5:	58                   	pop    rax
   1400026d6:	58                   	pop    rax
   1400026d7:	48 89 ec             	mov    rsp,rbp
   1400026da:	5d                   	pop    rbp
   1400026db:	c3                   	ret
   1400026dc:	48 b8 00 00 00 00 00 	movabs rax,0x0
   1400026e3:	00 00 00 
   1400026e6:	50                   	push   rax
   1400026e7:	58                   	pop    rax
   1400026e8:	48 89 45 e8          	mov    QWORD PTR [rbp-0x18],rax
   1400026ec:	48 8b 45 e8          	mov    rax,QWORD PTR [rbp-0x18]
   1400026f0:	50                   	push   rax
   1400026f1:	48 b8 06 00 00 00 00 	movabs rax,0x6
   1400026f8:	00 00 00 
   1400026fb:	50                   	push   rax
   1400026fc:	59                   	pop    rcx
   1400026fd:	58                   	pop    rax
   1400026fe:	48 39 c8             	cmp    rax,rcx
   140002701:	0f 9c c0             	setl   al
   140002704:	48 0f b6 c0          	movzx  rax,al
   140002708:	50                   	push   rax
   140002709:	58                   	pop    rax
   14000270a:	48 85 c0             	test   rax,rax
   14000270d:	74 6e                	je     14000277d <L_p_iii_hexad_mul+0x180>
   14000270f:	48 8d 05 ea 2a 01 00 	lea    rax,[rip+0x12aea]        # 140015200 <L_p_HXA_TA>
   140002716:	50                   	push   rax
   140002717:	48 8b 45 e8          	mov    rax,QWORD PTR [rbp-0x18]
   14000271b:	50                   	push   rax
   14000271c:	59                   	pop    rcx
   14000271d:	58                   	pop    rax
   14000271e:	48 8b 04 c8          	mov    rax,QWORD PTR [rax+rcx*8]
   140002722:	50                   	push   rax
   140002723:	48 8d 05 06 2b 01 00 	lea    rax,[rip+0x12b06]        # 140015230 <L_p_HXA_TB>
   14000272a:	50                   	push   rax
   14000272b:	48 8b 45 e8          	mov    rax,QWORD PTR [rbp-0x18]
   14000272f:	50                   	push   rax
   140002730:	59                   	pop    rcx
   140002731:	58                   	pop    rax
   140002732:	48 8b 04 c8          	mov    rax,QWORD PTR [rax+rcx*8]
   140002736:	50                   	push   rax
   140002737:	5a                   	pop    rdx
   140002738:	59                   	pop    rcx
   140002739:	48 83 ec 20          	sub    rsp,0x20
   14000273d:	e8 59 f4 ff ff       	call   140001b9b <L_p_iii_trit_mul>
   140002742:	48 83 c4 20          	add    rsp,0x20
   140002746:	50                   	push   rax
   140002747:	58                   	pop    rax
   140002748:	50                   	push   rax
   140002749:	48 8d 05 10 2b 01 00 	lea    rax,[rip+0x12b10]        # 140015260 <L_p_HXA_TO>
   140002750:	50                   	push   rax
   140002751:	48 8b 45 e8          	mov    rax,QWORD PTR [rbp-0x18]
   140002755:	50                   	push   rax
   140002756:	59                   	pop    rcx
   140002757:	58                   	pop    rax
   140002758:	5a                   	pop    rdx
   140002759:	48 89 14 c8          	mov    QWORD PTR [rax+rcx*8],rdx
   14000275d:	48 8b 45 e8          	mov    rax,QWORD PTR [rbp-0x18]
   140002761:	50                   	push   rax
   140002762:	48 b8 01 00 00 00 00 	movabs rax,0x1
   140002769:	00 00 00 
   14000276c:	50                   	push   rax
   14000276d:	59                   	pop    rcx
   14000276e:	58                   	pop    rax
   14000276f:	48 01 c8             	add    rax,rcx
   140002772:	50                   	push   rax
   140002773:	58                   	pop    rax
   140002774:	48 89 45 e8          	mov    QWORD PTR [rbp-0x18],rax
   140002778:	e9 6f ff ff ff       	jmp    1400026ec <L_p_iii_hexad_mul+0xef>
   14000277d:	59                   	pop    rcx
   14000277e:	48 83 ec 20          	sub    rsp,0x20
   140002782:	e8 da f4 ff ff       	call   140001c61 <L_p_iii_hexad_pack6>
   140002787:	48 83 c4 20          	add    rsp,0x20
   14000278b:	50                   	push   rax
   14000278c:	58                   	pop    rax
   14000278d:	50                   	push   rax
   14000278e:	50                   	push   rax
   14000278f:	48 c7 c1 02 00 00 00 	mov    rcx,0x2
   140002796:	48 83 ec 20          	sub    rsp,0x20
   14000279a:	e8 21 d0 00 00       	call   14000f7c0 <iii_witness_emit_kernel>
   14000279f:	48 83 c4 20          	add    rsp,0x20
   1400027a3:	58                   	pop    rax
   1400027a4:	58                   	pop    rax
   1400027a5:	48 89 ec             	mov    rsp,rbp
   1400027a8:	5d                   	pop    rbp
   1400027a9:	c3                   	ret

00000001400027aa <L_p_iii_hexad_neg6>:
   1400027aa:	55                   	push   rbp
   1400027ab:	48 89 e5             	mov    rbp,rsp
   1400027ae:	48 81 ec 00 04 00 00 	sub    rsp,0x400
   1400027b5:	48 89 4d f8          	mov    QWORD PTR [rbp-0x8],rcx
   1400027b9:	48 c7 c1 01 00 00 00 	mov    rcx,0x1
   1400027c0:	48 83 ec 20          	sub    rsp,0x20
   1400027c4:	e8 f7 cf 00 00       	call   14000f7c0 <iii_witness_emit_kernel>
   1400027c9:	48 83 c4 20          	add    rsp,0x20
   1400027cd:	48 8b 45 f8          	mov    rax,QWORD PTR [rbp-0x8]
   1400027d1:	50                   	push   rax
   1400027d2:	5a                   	pop    rdx
   1400027d3:	59                   	pop    rcx
   1400027d4:	48 83 ec 20          	sub    rsp,0x20
   1400027d8:	e8 7f f5 ff ff       	call   140001d5c <L_p_iii_hexad_unpack6>
   1400027dd:	48 83 c4 20          	add    rsp,0x20
   1400027e1:	50                   	push   rax
   1400027e2:	48 b8 00 00 00 00 00 	movabs rax,0x0
   1400027e9:	00 00 00 
   1400027ec:	50                   	push   rax
   1400027ed:	59                   	pop    rcx
   1400027ee:	58                   	pop    rax
   1400027ef:	48 39 c8             	cmp    rax,rcx
   1400027f2:	0f 94 c0             	sete   al
   1400027f5:	48 0f b6 c0          	movzx  rax,al
   1400027f9:	50                   	push   rax
   1400027fa:	58                   	pop    rax
   1400027fb:	48 85 c0             	test   rax,rax
   1400027fe:	74 29                	je     140002829 <L_p_iii_hexad_neg6+0x7f>
   140002800:	48 b8 00 00 00 00 00 	movabs rax,0x0
   140002807:	00 00 00 
   14000280a:	50                   	push   rax
   14000280b:	58                   	pop    rax
   14000280c:	50                   	push   rax
   14000280d:	50                   	push   rax
   14000280e:	48 c7 c1 02 00 00 00 	mov    rcx,0x2
   140002815:	48 83 ec 20          	sub    rsp,0x20
   140002819:	e8 a2 cf 00 00       	call   14000f7c0 <iii_witness_emit_kernel>
   14000281e:	48 83 c4 20          	add    rsp,0x20
   140002822:	58                   	pop    rax
   140002823:	58                   	pop    rax
   140002824:	48 89 ec             	mov    rsp,rbp
   140002827:	5d                   	pop    rbp
   140002828:	c3                   	ret
   140002829:	48 b8 00 00 00 00 00 	movabs rax,0x0
   140002830:	00 00 00 
   140002833:	50                   	push   rax
   140002834:	58                   	pop    rax
   140002835:	48 89 45 f0          	mov    QWORD PTR [rbp-0x10],rax
   140002839:	48 8b 45 f0          	mov    rax,QWORD PTR [rbp-0x10]
   14000283d:	50                   	push   rax
   14000283e:	48 b8 06 00 00 00 00 	movabs rax,0x6
   140002845:	00 00 00 
   140002848:	50                   	push   rax
   140002849:	59                   	pop    rcx
   14000284a:	58                   	pop    rax
   14000284b:	48 39 c8             	cmp    rax,rcx
   14000284e:	0f 9c c0             	setl   al
   140002851:	48 0f b6 c0          	movzx  rax,al
   140002855:	50                   	push   rax
   140002856:	58                   	pop    rax
   140002857:	48 85 c0             	test   rax,rax
   14000285a:	74 58                	je     1400028b4 <L_p_iii_hexad_neg6+0x10a>
   14000285c:	48 b8 00 00 00 00 00 	movabs rax,0x0
   140002863:	00 00 00 
   140002866:	50                   	push   rax
   140002867:	48 8d 05 92 29 01 00 	lea    rax,[rip+0x12992]        # 140015200 <L_p_HXA_TA>
   14000286e:	50                   	push   rax
   14000286f:	48 8b 45 f0          	mov    rax,QWORD PTR [rbp-0x10]
   140002873:	50                   	push   rax
   140002874:	59                   	pop    rcx
   140002875:	58                   	pop    rax
   140002876:	48 8b 04 c8          	mov    rax,QWORD PTR [rax+rcx*8]
   14000287a:	50                   	push   rax
   14000287b:	59                   	pop    rcx
   14000287c:	58                   	pop    rax
   14000287d:	48 29 c8             	sub    rax,rcx
   140002880:	50                   	push   rax
   140002881:	58                   	pop    rax
   140002882:	50                   	push   rax
   140002883:	48 8d 05 d6 29 01 00 	lea    rax,[rip+0x129d6]        # 140015260 <L_p_HXA_TO>
   14000288a:	50                   	push   rax
   14000288b:	48 8b 45 f0          	mov    rax,QWORD PTR [rbp-0x10]
   14000288f:	50                   	push   rax
   140002890:	59                   	pop    rcx
   140002891:	58                   	pop    rax
   140002892:	5a                   	pop    rdx
   140002893:	48 89 14 c8          	mov    QWORD PTR [rax+rcx*8],rdx
   140002897:	48 8b 45 f0          	mov    rax,QWORD PTR [rbp-0x10]
   14000289b:	50                   	push   rax
   14000289c:	48 b8 01 00 00 00 00 	movabs rax,0x1
   1400028a3:	00 00 00 
   1400028a6:	50                   	push   rax
   1400028a7:	59                   	pop    rcx
   1400028a8:	58                   	pop    rax
   1400028a9:	48 01 c8             	add    rax,rcx
   1400028ac:	50                   	push   rax
   1400028ad:	58                   	pop    rax
   1400028ae:	48 89 45 f0          	mov    QWORD PTR [rbp-0x10],rax
   1400028b2:	eb 85                	jmp    140002839 <L_p_iii_hexad_neg6+0x8f>
   1400028b4:	59                   	pop    rcx
   1400028b5:	48 83 ec 20          	sub    rsp,0x20
   1400028b9:	e8 a3 f3 ff ff       	call   140001c61 <L_p_iii_hexad_pack6>
   1400028be:	48 83 c4 20          	add    rsp,0x20
   1400028c2:	50                   	push   rax
   1400028c3:	58                   	pop    rax
   1400028c4:	50                   	push   rax
   1400028c5:	50                   	push   rax
   1400028c6:	48 c7 c1 02 00 00 00 	mov    rcx,0x2
   1400028cd:	48 83 ec 20          	sub    rsp,0x20
   1400028d1:	e8 ea ce 00 00       	call   14000f7c0 <iii_witness_emit_kernel>
   1400028d6:	48 83 c4 20          	add    rsp,0x20
   1400028da:	58                   	pop    rax
   1400028db:	58                   	pop    rax
   1400028dc:	48 89 ec             	mov    rsp,rbp
   1400028df:	5d                   	pop    rbp
   1400028e0:	c3                   	ret

00000001400028e1 <L_p_iii_hexad_active_neg>:
   1400028e1:	55                   	push   rbp
   1400028e2:	48 89 e5             	mov    rbp,rsp
   1400028e5:	48 81 ec 00 04 00 00 	sub    rsp,0x400
   1400028ec:	48 89 4d f8          	mov    QWORD PTR [rbp-0x8],rcx
   1400028f0:	48 c7 c1 01 00 00 00 	mov    rcx,0x1
   1400028f7:	48 83 ec 20          	sub    rsp,0x20
   1400028fb:	e8 c0 ce 00 00       	call   14000f7c0 <iii_witness_emit_kernel>
   140002900:	48 83 c4 20          	add    rsp,0x20
   140002904:	48 8b 45 f8          	mov    rax,QWORD PTR [rbp-0x8]
   140002908:	50                   	push   rax
   140002909:	5a                   	pop    rdx
   14000290a:	59                   	pop    rcx
   14000290b:	48 83 ec 20          	sub    rsp,0x20
   14000290f:	e8 48 f4 ff ff       	call   140001d5c <L_p_iii_hexad_unpack6>
   140002914:	48 83 c4 20          	add    rsp,0x20
   140002918:	50                   	push   rax
   140002919:	48 b8 00 00 00 00 00 	movabs rax,0x0
   140002920:	00 00 00 
   140002923:	50                   	push   rax
   140002924:	59                   	pop    rcx
   140002925:	58                   	pop    rax
   140002926:	48 39 c8             	cmp    rax,rcx
   140002929:	0f 94 c0             	sete   al
   14000292c:	48 0f b6 c0          	movzx  rax,al
   140002930:	50                   	push   rax
   140002931:	58                   	pop    rax
   140002932:	48 85 c0             	test   rax,rax
   140002935:	74 29                	je     140002960 <L_p_iii_hexad_active_neg+0x7f>
   140002937:	48 b8 00 00 00 00 00 	movabs rax,0x0
   14000293e:	00 00 00 
   140002941:	50                   	push   rax
   140002942:	58                   	pop    rax
   140002943:	50                   	push   rax
   140002944:	50                   	push   rax
   140002945:	48 c7 c1 02 00 00 00 	mov    rcx,0x2
   14000294c:	48 83 ec 20          	sub    rsp,0x20
   140002950:	e8 6b ce 00 00       	call   14000f7c0 <iii_witness_emit_kernel>
   140002955:	48 83 c4 20          	add    rsp,0x20
   140002959:	58                   	pop    rax
   14000295a:	58                   	pop    rax
   14000295b:	48 89 ec             	mov    rsp,rbp
   14000295e:	5d                   	pop    rbp
   14000295f:	c3                   	ret
   140002960:	48 b8 00 00 00 00 00 	movabs rax,0x0
   140002967:	00 00 00 
   14000296a:	50                   	push   rax
   14000296b:	58                   	pop    rax
   14000296c:	48 89 45 f0          	mov    QWORD PTR [rbp-0x10],rax
   140002970:	48 8b 45 f0          	mov    rax,QWORD PTR [rbp-0x10]
   140002974:	50                   	push   rax
   140002975:	48 b8 06 00 00 00 00 	movabs rax,0x6
   14000297c:	00 00 00 
   14000297f:	50                   	push   rax
   140002980:	59                   	pop    rcx
   140002981:	58                   	pop    rax
   140002982:	48 39 c8             	cmp    rax,rcx
   140002985:	0f 9c c0             	setl   al
   140002988:	48 0f b6 c0          	movzx  rax,al
   14000298c:	50                   	push   rax
   14000298d:	58                   	pop    rax
   14000298e:	48 85 c0             	test   rax,rax
   140002991:	74 47                	je     1400029da <L_p_iii_hexad_active_neg+0xf9>
   140002993:	48 8d 05 66 28 01 00 	lea    rax,[rip+0x12866]        # 140015200 <L_p_HXA_TA>
   14000299a:	50                   	push   rax
   14000299b:	48 8b 45 f0          	mov    rax,QWORD PTR [rbp-0x10]
   14000299f:	50                   	push   rax
   1400029a0:	59                   	pop    rcx
   1400029a1:	58                   	pop    rax
   1400029a2:	48 8b 04 c8          	mov    rax,QWORD PTR [rax+rcx*8]
   1400029a6:	50                   	push   rax
   1400029a7:	58                   	pop    rax
   1400029a8:	50                   	push   rax
   1400029a9:	48 8d 05 b0 28 01 00 	lea    rax,[rip+0x128b0]        # 140015260 <L_p_HXA_TO>
   1400029b0:	50                   	push   rax
   1400029b1:	48 8b 45 f0          	mov    rax,QWORD PTR [rbp-0x10]
   1400029b5:	50                   	push   rax
   1400029b6:	59                   	pop    rcx
   1400029b7:	58                   	pop    rax
   1400029b8:	5a                   	pop    rdx
   1400029b9:	48 89 14 c8          	mov    QWORD PTR [rax+rcx*8],rdx
   1400029bd:	48 8b 45 f0          	mov    rax,QWORD PTR [rbp-0x10]
   1400029c1:	50                   	push   rax
   1400029c2:	48 b8 01 00 00 00 00 	movabs rax,0x1
   1400029c9:	00 00 00 
   1400029cc:	50                   	push   rax
   1400029cd:	59                   	pop    rcx
   1400029ce:	58                   	pop    rax
   1400029cf:	48 01 c8             	add    rax,rcx
   1400029d2:	50                   	push   rax
   1400029d3:	58                   	pop    rax
   1400029d4:	48 89 45 f0          	mov    QWORD PTR [rbp-0x10],rax
   1400029d8:	eb 96                	jmp    140002970 <L_p_iii_hexad_active_neg+0x8f>
   1400029da:	48 b8 01 00 00 00 00 	movabs rax,0x1
   1400029e1:	00 00 00 
   1400029e4:	50                   	push   rax
   1400029e5:	58                   	pop    rax
   1400029e6:	48 89 45 f0          	mov    QWORD PTR [rbp-0x10],rax
   1400029ea:	48 8b 45 f0          	mov    rax,QWORD PTR [rbp-0x10]
   1400029ee:	50                   	push   rax
   1400029ef:	48 b8 05 00 00 00 00 	movabs rax,0x5
   1400029f6:	00 00 00 
   1400029f9:	50                   	push   rax
   1400029fa:	59                   	pop    rcx
   1400029fb:	58                   	pop    rax
   1400029fc:	48 39 c8             	cmp    rax,rcx
   1400029ff:	0f 9c c0             	setl   al
   140002a02:	48 0f b6 c0          	movzx  rax,al
   140002a06:	50                   	push   rax
   140002a07:	58                   	pop    rax
   140002a08:	48 85 c0             	test   rax,rax
   140002a0b:	74 58                	je     140002a65 <L_p_iii_hexad_active_neg+0x184>
   140002a0d:	48 b8 00 00 00 00 00 	movabs rax,0x0
   140002a14:	00 00 00 
   140002a17:	50                   	push   rax
   140002a18:	48 8d 05 e1 27 01 00 	lea    rax,[rip+0x127e1]        # 140015200 <L_p_HXA_TA>
   140002a1f:	50                   	push   rax
   140002a20:	48 8b 45 f0          	mov    rax,QWORD PTR [rbp-0x10]
   140002a24:	50                   	push   rax
   140002a25:	59                   	pop    rcx
   140002a26:	58                   	pop    rax
   140002a27:	48 8b 04 c8          	mov    rax,QWORD PTR [rax+rcx*8]
   140002a2b:	50                   	push   rax
   140002a2c:	59                   	pop    rcx
   140002a2d:	58                   	pop    rax
   140002a2e:	48 29 c8             	sub    rax,rcx
   140002a31:	50                   	push   rax
   140002a32:	58                   	pop    rax
   140002a33:	50                   	push   rax
   140002a34:	48 8d 05 25 28 01 00 	lea    rax,[rip+0x12825]        # 140015260 <L_p_HXA_TO>
   140002a3b:	50                   	push   rax
   140002a3c:	48 8b 45 f0          	mov    rax,QWORD PTR [rbp-0x10]
   140002a40:	50                   	push   rax
   140002a41:	59                   	pop    rcx
   140002a42:	58                   	pop    rax
   140002a43:	5a                   	pop    rdx
   140002a44:	48 89 14 c8          	mov    QWORD PTR [rax+rcx*8],rdx
   140002a48:	48 8b 45 f0          	mov    rax,QWORD PTR [rbp-0x10]
   140002a4c:	50                   	push   rax
   140002a4d:	48 b8 01 00 00 00 00 	movabs rax,0x1
   140002a54:	00 00 00 
   140002a57:	50                   	push   rax
   140002a58:	59                   	pop    rcx
   140002a59:	58                   	pop    rax
   140002a5a:	48 01 c8             	add    rax,rcx
   140002a5d:	50                   	push   rax
   140002a5e:	58                   	pop    rax
   140002a5f:	48 89 45 f0          	mov    QWORD PTR [rbp-0x10],rax
   140002a63:	eb 85                	jmp    1400029ea <L_p_iii_hexad_active_neg+0x109>
   140002a65:	59                   	pop    rcx
   140002a66:	48 83 ec 20          	sub    rsp,0x20
   140002a6a:	e8 f2 f1 ff ff       	call   140001c61 <L_p_iii_hexad_pack6>
   140002a6f:	48 83 c4 20          	add    rsp,0x20
   140002a73:	50                   	push   rax
   140002a74:	58                   	pop    rax
   140002a75:	50                   	push   rax
   140002a76:	50                   	push   rax
   140002a77:	48 c7 c1 02 00 00 00 	mov    rcx,0x2
   140002a7e:	48 83 ec 20          	sub    rsp,0x20
   140002a82:	e8 39 cd 00 00       	call   14000f7c0 <iii_witness_emit_kernel>
   140002a87:	48 83 c4 20          	add    rsp,0x20
   140002a8b:	58                   	pop    rax
   140002a8c:	58                   	pop    rax
   140002a8d:	48 89 ec             	mov    rsp,rbp
   140002a90:	5d                   	pop    rbp
   140002a91:	c3                   	ret
   140002a92:	90                   	nop
   140002a93:	90                   	nop
   140002a94:	90                   	nop
   140002a95:	90                   	nop
   140002a96:	90                   	nop
   140002a97:	90                   	nop
   140002a98:	90                   	nop
   140002a99:	90                   	nop
   140002a9a:	90                   	nop
   140002a9b:	90                   	nop
   140002a9c:	90                   	nop
   140002a9d:	90                   	nop
   140002a9e:	90                   	nop
   140002a9f:	90                   	nop

0000000140002aa0 <L_p__hxr_set_bit>:
   140002aa0:	55                   	push   rbp
   140002aa1:	48 89 e5             	mov    rbp,rsp
   140002aa4:	48 81 ec 00 04 00 00 	sub    rsp,0x400
   140002aab:	48 89 4d f8          	mov    QWORD PTR [rbp-0x8],rcx
   140002aaf:	48 c7 c1 01 00 00 00 	mov    rcx,0x1
   140002ab6:	48 83 ec 20          	sub    rsp,0x20
   140002aba:	e8 01 cd 00 00       	call   14000f7c0 <iii_witness_emit_kernel>
   140002abf:	48 83 c4 20          	add    rsp,0x20
   140002ac3:	48 b8 01 00 00 00 00 	movabs rax,0x1
   140002aca:	00 00 00 
   140002acd:	50                   	push   rax
   140002ace:	58                   	pop    rax
   140002acf:	48 89 45 f0          	mov    QWORD PTR [rbp-0x10],rax
   140002ad3:	58                   	pop    rax
   140002ad4:	48 89 45 e8          	mov    QWORD PTR [rbp-0x18],rax
   140002ad8:	58                   	pop    rax
   140002ad9:	48 89 45 e0          	mov    QWORD PTR [rbp-0x20],rax
   140002add:	48 8d 05 ac 27 01 00 	lea    rax,[rip+0x127ac]        # 140015290 <L_p_HXR_BITMAP>
   140002ae4:	50                   	push   rax
   140002ae5:	48 8b 45 e8          	mov    rax,QWORD PTR [rbp-0x18]
   140002ae9:	50                   	push   rax
   140002aea:	59                   	pop    rcx
   140002aeb:	58                   	pop    rax
   140002aec:	48 8b 04 c8          	mov    rax,QWORD PTR [rax+rcx*8]
   140002af0:	50                   	push   rax
   140002af1:	48 8b 45 e0          	mov    rax,QWORD PTR [rbp-0x20]
   140002af5:	50                   	push   rax
   140002af6:	59                   	pop    rcx
   140002af7:	58                   	pop    rax
   140002af8:	48 09 c8             	or     rax,rcx
   140002afb:	50                   	push   rax
   140002afc:	58                   	pop    rax
   140002afd:	50                   	push   rax
   140002afe:	48 8d 05 8b 27 01 00 	lea    rax,[rip+0x1278b]        # 140015290 <L_p_HXR_BITMAP>
   140002b05:	50                   	push   rax
   140002b06:	48 8b 45 e8          	mov    rax,QWORD PTR [rbp-0x18]
   140002b0a:	50                   	push   rax
   140002b0b:	59                   	pop    rcx
   140002b0c:	58                   	pop    rax
   140002b0d:	5a                   	pop    rdx
   140002b0e:	48 89 14 c8          	mov    QWORD PTR [rax+rcx*8],rdx
   140002b12:	48 b8 00 00 00 00 00 	movabs rax,0x0
   140002b19:	00 00 00 
   140002b1c:	50                   	push   rax
   140002b1d:	58                   	pop    rax
   140002b1e:	50                   	push   rax
   140002b1f:	50                   	push   rax
   140002b20:	48 c7 c1 02 00 00 00 	mov    rcx,0x2
   140002b27:	48 83 ec 20          	sub    rsp,0x20
   140002b2b:	e8 90 cc 00 00       	call   14000f7c0 <iii_witness_emit_kernel>
   140002b30:	48 83 c4 20          	add    rsp,0x20
   140002b34:	58                   	pop    rax
   140002b35:	58                   	pop    rax
   140002b36:	48 89 ec             	mov    rsp,rbp
   140002b39:	5d                   	pop    rbp
   140002b3a:	c3                   	ret

0000000140002b3b <L_p__hxr_clear_bit>:
   140002b3b:	55                   	push   rbp
   140002b3c:	48 89 e5             	mov    rbp,rsp
   140002b3f:	48 81 ec 00 04 00 00 	sub    rsp,0x400
   140002b46:	48 89 4d f8          	mov    QWORD PTR [rbp-0x8],rcx
   140002b4a:	48 c7 c1 01 00 00 00 	mov    rcx,0x1
   140002b51:	48 83 ec 20          	sub    rsp,0x20
   140002b55:	e8 66 cc 00 00       	call   14000f7c0 <iii_witness_emit_kernel>
   140002b5a:	48 83 c4 20          	add    rsp,0x20
   140002b5e:	48 b8 01 00 00 00 00 	movabs rax,0x1
   140002b65:	00 00 00 
   140002b68:	50                   	push   rax
   140002b69:	58                   	pop    rax
   140002b6a:	48 89 45 f0          	mov    QWORD PTR [rbp-0x10],rax
   140002b6e:	58                   	pop    rax
   140002b6f:	48 89 45 e8          	mov    QWORD PTR [rbp-0x18],rax
   140002b73:	58                   	pop    rax
   140002b74:	48 89 45 e0          	mov    QWORD PTR [rbp-0x20],rax
   140002b78:	48 8d 05 11 27 01 00 	lea    rax,[rip+0x12711]        # 140015290 <L_p_HXR_BITMAP>
   140002b7f:	50                   	push   rax
   140002b80:	48 8b 45 e8          	mov    rax,QWORD PTR [rbp-0x18]
   140002b84:	50                   	push   rax
   140002b85:	59                   	pop    rcx
   140002b86:	58                   	pop    rax
   140002b87:	48 8b 04 c8          	mov    rax,QWORD PTR [rax+rcx*8]
   140002b8b:	50                   	push   rax
   140002b8c:	48 8b 45 e0          	mov    rax,QWORD PTR [rbp-0x20]
   140002b90:	50                   	push   rax
   140002b91:	48 b8 ff 00 00 00 00 	movabs rax,0xff
   140002b98:	00 00 00 
   140002b9b:	50                   	push   rax
   140002b9c:	59                   	pop    rcx
   140002b9d:	58                   	pop    rax
   140002b9e:	48 31 c8             	xor    rax,rcx
   140002ba1:	50                   	push   rax
   140002ba2:	59                   	pop    rcx
   140002ba3:	58                   	pop    rax
   140002ba4:	48 21 c8             	and    rax,rcx
   140002ba7:	50                   	push   rax
   140002ba8:	58                   	pop    rax
   140002ba9:	50                   	push   rax
   140002baa:	48 8d 05 df 26 01 00 	lea    rax,[rip+0x126df]        # 140015290 <L_p_HXR_BITMAP>
   140002bb1:	50                   	push   rax
   140002bb2:	48 8b 45 e8          	mov    rax,QWORD PTR [rbp-0x18]
   140002bb6:	50                   	push   rax
   140002bb7:	59                   	pop    rcx
   140002bb8:	58                   	pop    rax
   140002bb9:	5a                   	pop    rdx
   140002bba:	48 89 14 c8          	mov    QWORD PTR [rax+rcx*8],rdx
   140002bbe:	48 b8 00 00 00 00 00 	movabs rax,0x0
   140002bc5:	00 00 00 
   140002bc8:	50                   	push   rax
   140002bc9:	58                   	pop    rax
   140002bca:	50                   	push   rax
   140002bcb:	50                   	push   rax
   140002bcc:	48 c7 c1 02 00 00 00 	mov    rcx,0x2
   140002bd3:	48 83 ec 20          	sub    rsp,0x20
   140002bd7:	e8 e4 cb 00 00       	call   14000f7c0 <iii_witness_emit_kernel>
   140002bdc:	48 83 c4 20          	add    rsp,0x20
   140002be0:	58                   	pop    rax
   140002be1:	58                   	pop    rax
   140002be2:	48 89 ec             	mov    rsp,rbp
   140002be5:	5d                   	pop    rbp
   140002be6:	c3                   	ret

0000000140002be7 <L_p__hxr_get_bit>:
   140002be7:	55                   	push   rbp
   140002be8:	48 89 e5             	mov    rbp,rsp
   140002beb:	48 81 ec 00 04 00 00 	sub    rsp,0x400
   140002bf2:	48 89 4d f8          	mov    QWORD PTR [rbp-0x8],rcx
   140002bf6:	48 c7 c1 01 00 00 00 	mov    rcx,0x1
   140002bfd:	48 83 ec 20          	sub    rsp,0x20
   140002c01:	e8 ba cb 00 00       	call   14000f7c0 <iii_witness_emit_kernel>
   140002c06:	48 83 c4 20          	add    rsp,0x20
   140002c0a:	58                   	pop    rax
   140002c0b:	48 89 45 f0          	mov    QWORD PTR [rbp-0x10],rax
   140002c0f:	48 8d 05 7a 26 01 00 	lea    rax,[rip+0x1267a]        # 140015290 <L_p_HXR_BITMAP>
   140002c16:	50                   	push   rax
   140002c17:	48 8b 45 f0          	mov    rax,QWORD PTR [rbp-0x10]
   140002c1b:	50                   	push   rax
   140002c1c:	59                   	pop    rcx
   140002c1d:	58                   	pop    rax
   140002c1e:	48 8b 04 c8          	mov    rax,QWORD PTR [rax+rcx*8]
   140002c22:	50                   	push   rax
   140002c23:	48 8b 45 f8          	mov    rax,QWORD PTR [rbp-0x8]
   140002c27:	50                   	push   rax
   140002c28:	48 b8 07 00 00 00 00 	movabs rax,0x7
   140002c2f:	00 00 00 
   140002c32:	50                   	push   rax
   140002c33:	59                   	pop    rcx
   140002c34:	58                   	pop    rax
   140002c35:	48 21 c8             	and    rax,rcx
   140002c38:	50                   	push   rax
   140002c39:	59                   	pop    rcx
   140002c3a:	58                   	pop    rax
   140002c3b:	48 d3 e8             	shr    rax,cl
   140002c3e:	50                   	push   rax
   140002c3f:	48 b8 01 00 00 00 00 	movabs rax,0x1
   140002c46:	00 00 00 
   140002c49:	50                   	push   rax
   140002c4a:	59                   	pop    rcx
   140002c4b:	58                   	pop    rax
   140002c4c:	48 21 c8             	and    rax,rcx
   140002c4f:	50                   	push   rax
   140002c50:	58                   	pop    rax
   140002c51:	50                   	push   rax
   140002c52:	50                   	push   rax
   140002c53:	48 c7 c1 02 00 00 00 	mov    rcx,0x2
   140002c5a:	48 83 ec 20          	sub    rsp,0x20
   140002c5e:	e8 5d cb 00 00       	call   14000f7c0 <iii_witness_emit_kernel>
   140002c63:	48 83 c4 20          	add    rsp,0x20
   140002c67:	58                   	pop    rax
   140002c68:	58                   	pop    rax
   140002c69:	48 89 ec             	mov    rsp,rbp
   140002c6c:	5d                   	pop    rbp
   140002c6d:	c3                   	ret

0000000140002c6e <L_p_iii_hexad_init>:
   140002c6e:	55                   	push   rbp
   140002c6f:	48 89 e5             	mov    rbp,rsp
   140002c72:	48 81 ec 00 04 00 00 	sub    rsp,0x400
   140002c79:	48 c7 c1 01 00 00 00 	mov    rcx,0x1
   140002c80:	48 83 ec 20          	sub    rsp,0x20
   140002c84:	e8 37 cb 00 00       	call   14000f7c0 <iii_witness_emit_kernel>
   140002c89:	48 83 c4 20          	add    rsp,0x20
   140002c8d:	48 8b 05 6c d3 00 00 	mov    rax,QWORD PTR [rip+0xd36c]        # 140010000 <L_p_HXR_INIT>
   140002c94:	50                   	push   rax
   140002c95:	48 b8 01 00 00 00 00 	movabs rax,0x1
   140002c9c:	00 00 00 
   140002c9f:	50                   	push   rax
   140002ca0:	59                   	pop    rcx
   140002ca1:	58                   	pop    rax
   140002ca2:	48 39 c8             	cmp    rax,rcx
   140002ca5:	0f 94 c0             	sete   al
   140002ca8:	48 0f b6 c0          	movzx  rax,al
   140002cac:	50                   	push   rax
   140002cad:	58                   	pop    rax
   140002cae:	48 85 c0             	test   rax,rax
   140002cb1:	74 29                	je     140002cdc <L_p_iii_hexad_init+0x6e>
   140002cb3:	48 b8 00 00 00 00 00 	movabs rax,0x0
   140002cba:	00 00 00 
   140002cbd:	50                   	push   rax
   140002cbe:	58                   	pop    rax
   140002cbf:	50                   	push   rax
   140002cc0:	50                   	push   rax
   140002cc1:	48 c7 c1 02 00 00 00 	mov    rcx,0x2
   140002cc8:	48 83 ec 20          	sub    rsp,0x20
   140002ccc:	e8 ef ca 00 00       	call   14000f7c0 <iii_witness_emit_kernel>
   140002cd1:	48 83 c4 20          	add    rsp,0x20
   140002cd5:	58                   	pop    rax
   140002cd6:	58                   	pop    rax
   140002cd7:	48 89 ec             	mov    rsp,rbp
   140002cda:	5d                   	pop    rbp
   140002cdb:	c3                   	ret
   140002cdc:	48 b8 00 00 00 00 00 	movabs rax,0x0
   140002ce3:	00 00 00 
   140002ce6:	50                   	push   rax
   140002ce7:	58                   	pop    rax
   140002ce8:	48 89 45 f8          	mov    QWORD PTR [rbp-0x8],rax
   140002cec:	48 8b 45 f8          	mov    rax,QWORD PTR [rbp-0x8]
   140002cf0:	50                   	push   rax
   140002cf1:	48 8b 05 30 e3 00 00 	mov    rax,QWORD PTR [rip+0xe330]        # 140011028 <.rodata+0x8>
   140002cf8:	50                   	push   rax
   140002cf9:	59                   	pop    rcx
   140002cfa:	58                   	pop    rax
   140002cfb:	48 39 c8             	cmp    rax,rcx
   140002cfe:	0f 9c c0             	setl   al
   140002d01:	48 0f b6 c0          	movzx  rax,al
   140002d05:	50                   	push   rax
   140002d06:	58                   	pop    rax
   140002d07:	48 85 c0             	test   rax,rax
   140002d0a:	74 3e                	je     140002d4a <L_p_iii_hexad_init+0xdc>
   140002d0c:	48 b8 00 00 00 00 00 	movabs rax,0x0
   140002d13:	00 00 00 
   140002d16:	50                   	push   rax
   140002d17:	58                   	pop    rax
   140002d18:	50                   	push   rax
   140002d19:	48 8d 05 70 25 01 00 	lea    rax,[rip+0x12570]        # 140015290 <L_p_HXR_BITMAP>
   140002d20:	50                   	push   rax
   140002d21:	48 8b 45 f8          	mov    rax,QWORD PTR [rbp-0x8]
   140002d25:	50                   	push   rax
   140002d26:	59                   	pop    rcx
   140002d27:	58                   	pop    rax
   140002d28:	5a                   	pop    rdx
   140002d29:	48 89 14 c8          	mov    QWORD PTR [rax+rcx*8],rdx
   140002d2d:	48 8b 45 f8          	mov    rax,QWORD PTR [rbp-0x8]
   140002d31:	50                   	push   rax
   140002d32:	48 b8 01 00 00 00 00 	movabs rax,0x1
   140002d39:	00 00 00 
   140002d3c:	50                   	push   rax
   140002d3d:	59                   	pop    rcx
   140002d3e:	58                   	pop    rax
   140002d3f:	48 01 c8             	add    rax,rcx
   140002d42:	50                   	push   rax
   140002d43:	58                   	pop    rax
   140002d44:	48 89 45 f8          	mov    QWORD PTR [rbp-0x8],rax
   140002d48:	eb a2                	jmp    140002cec <L_p_iii_hexad_init+0x7e>
   140002d4a:	48 b8 00 00 00 00 00 	movabs rax,0x0
   140002d51:	00 00 00 
   140002d54:	50                   	push   rax
   140002d55:	58                   	pop    rax
   140002d56:	48 89 45 f0          	mov    QWORD PTR [rbp-0x10],rax
   140002d5a:	48 8b 45 f0          	mov    rax,QWORD PTR [rbp-0x10]
   140002d5e:	50                   	push   rax
   140002d5f:	48 8b 05 ba e2 00 00 	mov    rax,QWORD PTR [rip+0xe2ba]        # 140011020 <.rodata>
   140002d66:	50                   	push   rax
   140002d67:	59                   	pop    rcx
   140002d68:	58                   	pop    rax
   140002d69:	48 39 c8             	cmp    rax,rcx
   140002d6c:	0f 9c c0             	setl   al
   140002d6f:	48 0f b6 c0          	movzx  rax,al
   140002d73:	50                   	push   rax
   140002d74:	58                   	pop    rax
   140002d75:	48 85 c0             	test   rax,rax
   140002d78:	0f 84 13 01 00 00    	je     140002e91 <L_p_iii_hexad_init+0x223>
   140002d7e:	5a                   	pop    rdx
   140002d7f:	59                   	pop    rcx
   140002d80:	48 83 ec 20          	sub    rsp,0x20
   140002d84:	e8 d3 ef ff ff       	call   140001d5c <L_p_iii_hexad_unpack6>
   140002d89:	48 83 c4 20          	add    rsp,0x20
   140002d8d:	50                   	push   rax
   140002d8e:	58                   	pop    rax
   140002d8f:	48 b8 01 00 00 00 00 	movabs rax,0x1
   140002d96:	00 00 00 
   140002d99:	50                   	push   rax
   140002d9a:	58                   	pop    rax
   140002d9b:	48 89 45 e8          	mov    QWORD PTR [rbp-0x18],rax
   140002d9f:	48 b8 00 00 00 00 00 	movabs rax,0x0
   140002da6:	00 00 00 
   140002da9:	50                   	push   rax
   140002daa:	58                   	pop    rax
   140002dab:	48 89 45 e0          	mov    QWORD PTR [rbp-0x20],rax
   140002daf:	48 8b 45 e0          	mov    rax,QWORD PTR [rbp-0x20]
   140002db3:	50                   	push   rax
   140002db4:	48 b8 04 00 00 00 00 	movabs rax,0x4
   140002dbb:	00 00 00 
   140002dbe:	50                   	push   rax
   140002dbf:	59                   	pop    rcx
   140002dc0:	58                   	pop    rax
   140002dc1:	48 39 c8             	cmp    rax,rcx
   140002dc4:	0f 9c c0             	setl   al
   140002dc7:	48 0f b6 c0          	movzx  rax,al
   140002dcb:	50                   	push   rax
   140002dcc:	58                   	pop    rax
   140002dcd:	48 85 c0             	test   rax,rax
   140002dd0:	74 67                	je     140002e39 <L_p_iii_hexad_init+0x1cb>
   140002dd2:	48 8d 05 37 29 01 00 	lea    rax,[rip+0x12937]        # 140015710 <L_p_HXR_TRITS>
   140002dd9:	50                   	push   rax
   140002dda:	48 8b 45 e0          	mov    rax,QWORD PTR [rbp-0x20]
   140002dde:	50                   	push   rax
   140002ddf:	59                   	pop    rcx
   140002de0:	58                   	pop    rax
   140002de1:	48 8b 04 c8          	mov    rax,QWORD PTR [rax+rcx*8]
   140002de5:	50                   	push   rax
   140002de6:	48 b8 01 00 00 00 00 	movabs rax,0x1
   140002ded:	00 00 00 
   140002df0:	50                   	push   rax
   140002df1:	58                   	pop    rax
   140002df2:	48 f7 d8             	neg    rax
   140002df5:	50                   	push   rax
   140002df6:	59                   	pop    rcx
   140002df7:	58                   	pop    rax
   140002df8:	48 39 c8             	cmp    rax,rcx
   140002dfb:	0f 94 c0             	sete   al
   140002dfe:	48 0f b6 c0          	movzx  rax,al
   140002e02:	50                   	push   rax
   140002e03:	58                   	pop    rax
   140002e04:	48 85 c0             	test   rax,rax
   140002e07:	74 10                	je     140002e19 <L_p_iii_hexad_init+0x1ab>
   140002e09:	48 b8 00 00 00 00 00 	movabs rax,0x0
   140002e10:	00 00 00 
   140002e13:	50                   	push   rax
   140002e14:	58                   	pop    rax
   140002e15:	48 89 45 e8          	mov    QWORD PTR [rbp-0x18],rax
   140002e19:	48 8b 45 e0          	mov    rax,QWORD PTR [rbp-0x20]
   140002e1d:	50                   	push   rax
   140002e1e:	48 b8 01 00 00 00 00 	movabs rax,0x1
   140002e25:	00 00 00 
   140002e28:	50                   	push   rax
   140002e29:	59                   	pop    rcx
   140002e2a:	58                   	pop    rax
   140002e2b:	48 01 c8             	add    rax,rcx
   140002e2e:	50                   	push   rax
   140002e2f:	58                   	pop    rax
   140002e30:	48 89 45 e0          	mov    QWORD PTR [rbp-0x20],rax
   140002e34:	e9 76 ff ff ff       	jmp    140002daf <L_p_iii_hexad_init+0x141>
   140002e39:	48 8b 45 e8          	mov    rax,QWORD PTR [rbp-0x18]
   140002e3d:	50                   	push   rax
   140002e3e:	48 b8 01 00 00 00 00 	movabs rax,0x1
   140002e45:	00 00 00 
   140002e48:	50                   	push   rax
   140002e49:	59                   	pop    rcx
   140002e4a:	58                   	pop    rax
   140002e4b:	48 39 c8             	cmp    rax,rcx
   140002e4e:	0f 94 c0             	sete   al
   140002e51:	48 0f b6 c0          	movzx  rax,al
   140002e55:	50                   	push   rax
   140002e56:	58                   	pop    rax
   140002e57:	48 85 c0             	test   rax,rax
   140002e5a:	74 15                	je     140002e71 <L_p_iii_hexad_init+0x203>
   140002e5c:	48 8b 45 f0          	mov    rax,QWORD PTR [rbp-0x10]
   140002e60:	50                   	push   rax
   140002e61:	59                   	pop    rcx
   140002e62:	48 83 ec 20          	sub    rsp,0x20
   140002e66:	e8 35 fc ff ff       	call   140002aa0 <L_p__hxr_set_bit>
   140002e6b:	48 83 c4 20          	add    rsp,0x20
   140002e6f:	50                   	push   rax
   140002e70:	58                   	pop    rax
   140002e71:	48 8b 45 f0          	mov    rax,QWORD PTR [rbp-0x10]
   140002e75:	50                   	push   rax
   140002e76:	48 b8 01 00 00 00 00 	movabs rax,0x1
   140002e7d:	00 00 00 
   140002e80:	50                   	push   rax
   140002e81:	59                   	pop    rcx
   140002e82:	58                   	pop    rax
   140002e83:	48 01 c8             	add    rax,rcx
   140002e86:	50                   	push   rax
   140002e87:	58                   	pop    rax
   140002e88:	48 89 45 f0          	mov    QWORD PTR [rbp-0x10],rax
   140002e8c:	e9 c9 fe ff ff       	jmp    140002d5a <L_p_iii_hexad_init+0xec>
   140002e91:	48 b8 01 00 00 00 00 	movabs rax,0x1
   140002e98:	00 00 00 
   140002e9b:	50                   	push   rax
   140002e9c:	58                   	pop    rax
   140002e9d:	48 89 45 d8          	mov    QWORD PTR [rbp-0x28],rax
   140002ea1:	48 8b 45 d8          	mov    rax,QWORD PTR [rbp-0x28]
   140002ea5:	50                   	push   rax
   140002ea6:	48 8b 05 83 e1 00 00 	mov    rax,QWORD PTR [rip+0xe183]        # 140011030 <.rodata+0x10>
   140002ead:	50                   	push   rax
   140002eae:	59                   	pop    rcx
   140002eaf:	58                   	pop    rax
   140002eb0:	48 39 c8             	cmp    rax,rcx
   140002eb3:	0f 9c c0             	setl   al
   140002eb6:	48 0f b6 c0          	movzx  rax,al
   140002eba:	50                   	push   rax
   140002ebb:	58                   	pop    rax
   140002ebc:	48 85 c0             	test   rax,rax
   140002ebf:	74 2d                	je     140002eee <L_p_iii_hexad_init+0x280>
   140002ec1:	59                   	pop    rcx
   140002ec2:	48 83 ec 20          	sub    rsp,0x20
   140002ec6:	e8 70 fc ff ff       	call   140002b3b <L_p__hxr_clear_bit>
   140002ecb:	48 83 c4 20          	add    rsp,0x20
   140002ecf:	50                   	push   rax
   140002ed0:	58                   	pop    rax
   140002ed1:	48 8b 45 d8          	mov    rax,QWORD PTR [rbp-0x28]
   140002ed5:	50                   	push   rax
   140002ed6:	48 b8 01 00 00 00 00 	movabs rax,0x1
   140002edd:	00 00 00 
   140002ee0:	50                   	push   rax
   140002ee1:	59                   	pop    rcx
   140002ee2:	58                   	pop    rax
   140002ee3:	48 01 c8             	add    rax,rcx
   140002ee6:	50                   	push   rax
   140002ee7:	58                   	pop    rax
   140002ee8:	48 89 45 d8          	mov    QWORD PTR [rbp-0x28],rax
   140002eec:	eb b3                	jmp    140002ea1 <L_p_iii_hexad_init+0x233>
   140002eee:	48 b8 01 00 00 00 00 	movabs rax,0x1
   140002ef5:	00 00 00 
   140002ef8:	50                   	push   rax
   140002ef9:	58                   	pop    rax
   140002efa:	48 89 05 ff d0 00 00 	mov    QWORD PTR [rip+0xd0ff],rax        # 140010000 <L_p_HXR_INIT>
   140002f01:	48 b8 00 00 00 00 00 	movabs rax,0x0
   140002f08:	00 00 00 
   140002f0b:	50                   	push   rax
   140002f0c:	58                   	pop    rax
   140002f0d:	50                   	push   rax
   140002f0e:	50                   	push   rax
   140002f0f:	48 c7 c1 02 00 00 00 	mov    rcx,0x2
   140002f16:	48 83 ec 20          	sub    rsp,0x20
   140002f1a:	e8 a1 c8 00 00       	call   14000f7c0 <iii_witness_emit_kernel>
   140002f1f:	48 83 c4 20          	add    rsp,0x20
   140002f23:	58                   	pop    rax
   140002f24:	58                   	pop    rax
   140002f25:	48 89 ec             	mov    rsp,rbp
   140002f28:	5d                   	pop    rbp
   140002f29:	c3                   	ret

0000000140002f2a <L_p_iii_hexad_reachable>:
   140002f2a:	55                   	push   rbp
   140002f2b:	48 89 e5             	mov    rbp,rsp
   140002f2e:	48 81 ec 00 04 00 00 	sub    rsp,0x400
   140002f35:	48 89 4d f8          	mov    QWORD PTR [rbp-0x8],rcx
   140002f39:	48 c7 c1 01 00 00 00 	mov    rcx,0x1
   140002f40:	48 83 ec 20          	sub    rsp,0x20
   140002f44:	e8 77 c8 00 00       	call   14000f7c0 <iii_witness_emit_kernel>
   140002f49:	48 83 c4 20          	add    rsp,0x20
   140002f4d:	48 83 ec 20          	sub    rsp,0x20
   140002f51:	e8 18 fd ff ff       	call   140002c6e <L_p_iii_hexad_init>
   140002f56:	48 83 c4 20          	add    rsp,0x20
   140002f5a:	50                   	push   rax
   140002f5b:	58                   	pop    rax
   140002f5c:	48 8b 05 bd e0 00 00 	mov    rax,QWORD PTR [rip+0xe0bd]        # 140011020 <.rodata>
   140002f63:	50                   	push   rax
   140002f64:	59                   	pop    rcx
   140002f65:	58                   	pop    rax
   140002f66:	48 39 c8             	cmp    rax,rcx
   140002f69:	0f 9d c0             	setge  al
   140002f6c:	48 0f b6 c0          	movzx  rax,al
   140002f70:	50                   	push   rax
   140002f71:	58                   	pop    rax
   140002f72:	48 85 c0             	test   rax,rax
   140002f75:	74 29                	je     140002fa0 <L_p_iii_hexad_reachable+0x76>
   140002f77:	48 b8 00 00 00 00 00 	movabs rax,0x0
   140002f7e:	00 00 00 
   140002f81:	50                   	push   rax
   140002f82:	58                   	pop    rax
   140002f83:	50                   	push   rax
   140002f84:	50                   	push   rax
   140002f85:	48 c7 c1 02 00 00 00 	mov    rcx,0x2
   140002f8c:	48 83 ec 20          	sub    rsp,0x20
   140002f90:	e8 2b c8 00 00       	call   14000f7c0 <iii_witness_emit_kernel>
   140002f95:	48 83 c4 20          	add    rsp,0x20
   140002f99:	58                   	pop    rax
   140002f9a:	58                   	pop    rax
   140002f9b:	48 89 ec             	mov    rsp,rbp
   140002f9e:	5d                   	pop    rbp
   140002f9f:	c3                   	ret
   140002fa0:	59                   	pop    rcx
   140002fa1:	48 83 ec 20          	sub    rsp,0x20
   140002fa5:	e8 3d fc ff ff       	call   140002be7 <L_p__hxr_get_bit>
   140002faa:	48 83 c4 20          	add    rsp,0x20
   140002fae:	50                   	push   rax
   140002faf:	58                   	pop    rax
   140002fb0:	50                   	push   rax
   140002fb1:	50                   	push   rax
   140002fb2:	48 c7 c1 02 00 00 00 	mov    rcx,0x2
   140002fb9:	48 83 ec 20          	sub    rsp,0x20
   140002fbd:	e8 fe c7 00 00       	call   14000f7c0 <iii_witness_emit_kernel>
   140002fc2:	48 83 c4 20          	add    rsp,0x20
   140002fc6:	58                   	pop    rax
   140002fc7:	58                   	pop    rax
   140002fc8:	48 89 ec             	mov    rsp,rbp
   140002fcb:	5d                   	pop    rbp
   140002fcc:	c3                   	ret

0000000140002fcd <L_p_iii_hexad_bitmap_sha256>:
   140002fcd:	55                   	push   rbp
   140002fce:	48 89 e5             	mov    rbp,rsp
   140002fd1:	48 81 ec 00 04 00 00 	sub    rsp,0x400
   140002fd8:	48 89 4d f8          	mov    QWORD PTR [rbp-0x8],rcx
   140002fdc:	48 c7 c1 01 00 00 00 	mov    rcx,0x1
   140002fe3:	48 83 ec 20          	sub    rsp,0x20
   140002fe7:	e8 d4 c7 00 00       	call   14000f7c0 <iii_witness_emit_kernel>
   140002fec:	48 83 c4 20          	add    rsp,0x20
   140002ff0:	48 83 ec 20          	sub    rsp,0x20
   140002ff4:	e8 75 fc ff ff       	call   140002c6e <L_p_iii_hexad_init>
   140002ff9:	48 83 c4 20          	add    rsp,0x20
   140002ffd:	50                   	push   rax
   140002ffe:	58                   	pop    rax
   140002fff:	48 8b 05 22 e0 00 00 	mov    rax,QWORD PTR [rip+0xe022]        # 140011028 <.rodata+0x8>
   140003006:	50                   	push   rax
   140003007:	41 58                	pop    r8
   140003009:	5a                   	pop    rdx
   14000300a:	59                   	pop    rcx
   14000300b:	48 83 ec 20          	sub    rsp,0x20
   14000300f:	e8 58 40 00 00       	call   14000706c <L_p_sha256_oneshot>
   140003014:	48 83 c4 20          	add    rsp,0x20
   140003018:	50                   	push   rax
   140003019:	58                   	pop    rax
   14000301a:	48 b8 00 00 00 00 00 	movabs rax,0x0
   140003021:	00 00 00 
   140003024:	50                   	push   rax
   140003025:	58                   	pop    rax
   140003026:	50                   	push   rax
   140003027:	50                   	push   rax
   140003028:	48 c7 c1 02 00 00 00 	mov    rcx,0x2
   14000302f:	48 83 ec 20          	sub    rsp,0x20
   140003033:	e8 88 c7 00 00       	call   14000f7c0 <iii_witness_emit_kernel>
   140003038:	48 83 c4 20          	add    rsp,0x20
   14000303c:	58                   	pop    rax
   14000303d:	58                   	pop    rax
   14000303e:	48 89 ec             	mov    rsp,rbp
   140003041:	5d                   	pop    rbp
   140003042:	c3                   	ret

0000000140003043 <L_p_iii_hexad_reachable_count>:
   140003043:	55                   	push   rbp
   140003044:	48 89 e5             	mov    rbp,rsp
   140003047:	48 81 ec 00 04 00 00 	sub    rsp,0x400
   14000304e:	48 c7 c1 01 00 00 00 	mov    rcx,0x1
   140003055:	48 83 ec 20          	sub    rsp,0x20
   140003059:	e8 62 c7 00 00       	call   14000f7c0 <iii_witness_emit_kernel>
   14000305e:	48 83 c4 20          	add    rsp,0x20
   140003062:	48 83 ec 20          	sub    rsp,0x20
   140003066:	e8 03 fc ff ff       	call   140002c6e <L_p_iii_hexad_init>
   14000306b:	48 83 c4 20          	add    rsp,0x20
   14000306f:	50                   	push   rax
   140003070:	58                   	pop    rax
   140003071:	48 b8 00 00 00 00 00 	movabs rax,0x0
   140003078:	00 00 00 
   14000307b:	50                   	push   rax
   14000307c:	58                   	pop    rax
   14000307d:	48 89 45 f8          	mov    QWORD PTR [rbp-0x8],rax
   140003081:	48 b8 00 00 00 00 00 	movabs rax,0x0
   140003088:	00 00 00 
   14000308b:	50                   	push   rax
   14000308c:	58                   	pop    rax
   14000308d:	48 89 45 f0          	mov    QWORD PTR [rbp-0x10],rax
   140003091:	48 8b 45 f0          	mov    rax,QWORD PTR [rbp-0x10]
   140003095:	50                   	push   rax
   140003096:	48 8b 05 83 df 00 00 	mov    rax,QWORD PTR [rip+0xdf83]        # 140011020 <.rodata>
   14000309d:	50                   	push   rax
   14000309e:	59                   	pop    rcx
   14000309f:	58                   	pop    rax
   1400030a0:	48 39 c8             	cmp    rax,rcx
   1400030a3:	0f 9c c0             	setl   al
   1400030a6:	48 0f b6 c0          	movzx  rax,al
   1400030aa:	50                   	push   rax
   1400030ab:	58                   	pop    rax
   1400030ac:	48 85 c0             	test   rax,rax
   1400030af:	74 2d                	je     1400030de <L_p_iii_hexad_reachable_count+0x9b>
   1400030b1:	48 8b 45 f8          	mov    rax,QWORD PTR [rbp-0x8]
   1400030b5:	50                   	push   rax
   1400030b6:	59                   	pop    rcx
   1400030b7:	58                   	pop    rax
   1400030b8:	48 01 c8             	add    rax,rcx
   1400030bb:	50                   	push   rax
   1400030bc:	58                   	pop    rax
   1400030bd:	48 89 45 f8          	mov    QWORD PTR [rbp-0x8],rax
   1400030c1:	48 8b 45 f0          	mov    rax,QWORD PTR [rbp-0x10]
   1400030c5:	50                   	push   rax
   1400030c6:	48 b8 01 00 00 00 00 	movabs rax,0x1
   1400030cd:	00 00 00 
   1400030d0:	50                   	push   rax
   1400030d1:	59                   	pop    rcx
   1400030d2:	58                   	pop    rax
   1400030d3:	48 01 c8             	add    rax,rcx
   1400030d6:	50                   	push   rax
   1400030d7:	58                   	pop    rax
   1400030d8:	48 89 45 f0          	mov    QWORD PTR [rbp-0x10],rax
   1400030dc:	eb b3                	jmp    140003091 <L_p_iii_hexad_reachable_count+0x4e>
   1400030de:	48 8b 45 f8          	mov    rax,QWORD PTR [rbp-0x8]
   1400030e2:	50                   	push   rax
   1400030e3:	58                   	pop    rax
   1400030e4:	50                   	push   rax
   1400030e5:	50                   	push   rax
   1400030e6:	48 c7 c1 02 00 00 00 	mov    rcx,0x2
   1400030ed:	48 83 ec 20          	sub    rsp,0x20
   1400030f1:	e8 ca c6 00 00       	call   14000f7c0 <iii_witness_emit_kernel>
   1400030f6:	48 83 c4 20          	add    rsp,0x20
   1400030fa:	58                   	pop    rax
   1400030fb:	58                   	pop    rax
   1400030fc:	48 89 ec             	mov    rsp,rbp
   1400030ff:	5d                   	pop    rbp
   140003100:	c3                   	ret

0000000140003101 <L_p_iii_hexad_internal_set_bit>:
   140003101:	55                   	push   rbp
   140003102:	48 89 e5             	mov    rbp,rsp
   140003105:	48 81 ec 00 04 00 00 	sub    rsp,0x400
   14000310c:	48 89 4d f8          	mov    QWORD PTR [rbp-0x8],rcx
   140003110:	48 c7 c1 01 00 00 00 	mov    rcx,0x1
   140003117:	48 83 ec 20          	sub    rsp,0x20
   14000311b:	e8 a0 c6 00 00       	call   14000f7c0 <iii_witness_emit_kernel>
   140003120:	48 83 c4 20          	add    rsp,0x20
   140003124:	48 83 ec 20          	sub    rsp,0x20
   140003128:	e8 41 fb ff ff       	call   140002c6e <L_p_iii_hexad_init>
   14000312d:	48 83 c4 20          	add    rsp,0x20
   140003131:	50                   	push   rax
   140003132:	58                   	pop    rax
   140003133:	48 8b 05 e6 de 00 00 	mov    rax,QWORD PTR [rip+0xdee6]        # 140011020 <.rodata>
   14000313a:	50                   	push   rax
   14000313b:	59                   	pop    rcx
   14000313c:	58                   	pop    rax
   14000313d:	48 39 c8             	cmp    rax,rcx
   140003140:	0f 9d c0             	setge  al
   140003143:	48 0f b6 c0          	movzx  rax,al
   140003147:	50                   	push   rax
   140003148:	58                   	pop    rax
   140003149:	48 85 c0             	test   rax,rax
   14000314c:	74 2e                	je     14000317c <L_p_iii_hexad_internal_set_bit+0x7b>
   14000314e:	48 b8 01 00 00 00 00 	movabs rax,0x1
   140003155:	00 00 00 
   140003158:	50                   	push   rax
   140003159:	58                   	pop    rax
   14000315a:	48 f7 d8             	neg    rax
   14000315d:	50                   	push   rax
   14000315e:	58                   	pop    rax
   14000315f:	50                   	push   rax
   140003160:	50                   	push   rax
   140003161:	48 c7 c1 02 00 00 00 	mov    rcx,0x2
   140003168:	48 83 ec 20          	sub    rsp,0x20
   14000316c:	e8 4f c6 00 00       	call   14000f7c0 <iii_witness_emit_kernel>
   140003171:	48 83 c4 20          	add    rsp,0x20
   140003175:	58                   	pop    rax
   140003176:	58                   	pop    rax
   140003177:	48 89 ec             	mov    rsp,rbp
   14000317a:	5d                   	pop    rbp
   14000317b:	c3                   	ret
   14000317c:	59                   	pop    rcx
   14000317d:	48 83 ec 20          	sub    rsp,0x20
   140003181:	e8 61 fa ff ff       	call   140002be7 <L_p__hxr_get_bit>
   140003186:	48 83 c4 20          	add    rsp,0x20
   14000318a:	50                   	push   rax
   14000318b:	48 b8 01 00 00 00 00 	movabs rax,0x1
   140003192:	00 00 00 
   140003195:	50                   	push   rax
   140003196:	59                   	pop    rcx
   140003197:	58                   	pop    rax
   140003198:	48 39 c8             	cmp    rax,rcx
   14000319b:	0f 94 c0             	sete   al
   14000319e:	48 0f b6 c0          	movzx  rax,al
   1400031a2:	50                   	push   rax
   1400031a3:	58                   	pop    rax
   1400031a4:	48 85 c0             	test   rax,rax
   1400031a7:	74 29                	je     1400031d2 <L_p_iii_hexad_internal_set_bit+0xd1>
   1400031a9:	48 b8 00 00 00 00 00 	movabs rax,0x0
   1400031b0:	00 00 00 
   1400031b3:	50                   	push   rax
   1400031b4:	58                   	pop    rax
   1400031b5:	50                   	push   rax
   1400031b6:	50                   	push   rax
   1400031b7:	48 c7 c1 02 00 00 00 	mov    rcx,0x2
   1400031be:	48 83 ec 20          	sub    rsp,0x20
   1400031c2:	e8 f9 c5 00 00       	call   14000f7c0 <iii_witness_emit_kernel>
   1400031c7:	48 83 c4 20          	add    rsp,0x20
   1400031cb:	58                   	pop    rax
   1400031cc:	58                   	pop    rax
   1400031cd:	48 89 ec             	mov    rsp,rbp
   1400031d0:	5d                   	pop    rbp
   1400031d1:	c3                   	ret
   1400031d2:	59                   	pop    rcx
   1400031d3:	48 83 ec 20          	sub    rsp,0x20
   1400031d7:	e8 c4 f8 ff ff       	call   140002aa0 <L_p__hxr_set_bit>
   1400031dc:	48 83 c4 20          	add    rsp,0x20
   1400031e0:	50                   	push   rax
   1400031e1:	58                   	pop    rax
   1400031e2:	48 b8 01 00 00 00 00 	movabs rax,0x1
   1400031e9:	00 00 00 
   1400031ec:	50                   	push   rax
   1400031ed:	58                   	pop    rax
   1400031ee:	50                   	push   rax
   1400031ef:	50                   	push   rax
   1400031f0:	48 c7 c1 02 00 00 00 	mov    rcx,0x2
   1400031f7:	48 83 ec 20          	sub    rsp,0x20
   1400031fb:	e8 c0 c5 00 00       	call   14000f7c0 <iii_witness_emit_kernel>
   140003200:	48 83 c4 20          	add    rsp,0x20
   140003204:	58                   	pop    rax
   140003205:	58                   	pop    rax
   140003206:	48 89 ec             	mov    rsp,rbp
   140003209:	5d                   	pop    rbp
   14000320a:	c3                   	ret

000000014000320b <L_p_iii_hexad_internal_get_bit>:
   14000320b:	55                   	push   rbp
   14000320c:	48 89 e5             	mov    rbp,rsp
   14000320f:	48 81 ec 00 04 00 00 	sub    rsp,0x400
   140003216:	48 89 4d f8          	mov    QWORD PTR [rbp-0x8],rcx
   14000321a:	48 c7 c1 01 00 00 00 	mov    rcx,0x1
   140003221:	48 83 ec 20          	sub    rsp,0x20
   140003225:	e8 96 c5 00 00       	call   14000f7c0 <iii_witness_emit_kernel>
   14000322a:	48 83 c4 20          	add    rsp,0x20
   14000322e:	48 83 ec 20          	sub    rsp,0x20
   140003232:	e8 37 fa ff ff       	call   140002c6e <L_p_iii_hexad_init>
   140003237:	48 83 c4 20          	add    rsp,0x20
   14000323b:	50                   	push   rax
   14000323c:	58                   	pop    rax
   14000323d:	48 8b 05 dc dd 00 00 	mov    rax,QWORD PTR [rip+0xdddc]        # 140011020 <.rodata>
   140003244:	50                   	push   rax
   140003245:	59                   	pop    rcx
   140003246:	58                   	pop    rax
   140003247:	48 39 c8             	cmp    rax,rcx
   14000324a:	0f 9d c0             	setge  al
   14000324d:	48 0f b6 c0          	movzx  rax,al
   140003251:	50                   	push   rax
   140003252:	58                   	pop    rax
   140003253:	48 85 c0             	test   rax,rax
   140003256:	74 2e                	je     140003286 <L_p_iii_hexad_internal_get_bit+0x7b>
   140003258:	48 b8 01 00 00 00 00 	movabs rax,0x1
   14000325f:	00 00 00 
   140003262:	50                   	push   rax
   140003263:	58                   	pop    rax
   140003264:	48 f7 d8             	neg    rax
   140003267:	50                   	push   rax
   140003268:	58                   	pop    rax
   140003269:	50                   	push   rax
   14000326a:	50                   	push   rax
   14000326b:	48 c7 c1 02 00 00 00 	mov    rcx,0x2
   140003272:	48 83 ec 20          	sub    rsp,0x20
   140003276:	e8 45 c5 00 00       	call   14000f7c0 <iii_witness_emit_kernel>
   14000327b:	48 83 c4 20          	add    rsp,0x20
   14000327f:	58                   	pop    rax
   140003280:	58                   	pop    rax
   140003281:	48 89 ec             	mov    rsp,rbp
   140003284:	5d                   	pop    rbp
   140003285:	c3                   	ret
   140003286:	58                   	pop    rax
   140003287:	50                   	push   rax
   140003288:	50                   	push   rax
   140003289:	48 c7 c1 02 00 00 00 	mov    rcx,0x2
   140003290:	48 83 ec 20          	sub    rsp,0x20
   140003294:	e8 27 c5 00 00       	call   14000f7c0 <iii_witness_emit_kernel>
   140003299:	48 83 c4 20          	add    rsp,0x20
   14000329d:	58                   	pop    rax
   14000329e:	58                   	pop    rax
   14000329f:	48 89 ec             	mov    rsp,rbp
   1400032a2:	5d                   	pop    rbp
   1400032a3:	c3                   	ret
   1400032a4:	90                   	nop
   1400032a5:	90                   	nop
   1400032a6:	90                   	nop
   1400032a7:	90                   	nop
   1400032a8:	90                   	nop
   1400032a9:	90                   	nop
   1400032aa:	90                   	nop
   1400032ab:	90                   	nop
   1400032ac:	90                   	nop
   1400032ad:	90                   	nop
   1400032ae:	90                   	nop
   1400032af:	90                   	nop

00000001400032b0 <L_p_xii_term_arena_reset>:
   1400032b0:	55                   	push   rbp
   1400032b1:	48 89 e5             	mov    rbp,rsp
   1400032b4:	48 81 ec 00 04 00 00 	sub    rsp,0x400
   1400032bb:	48 c7 c1 01 00 00 00 	mov    rcx,0x1
   1400032c2:	48 83 ec 20          	sub    rsp,0x20
   1400032c6:	e8 f5 c4 00 00       	call   14000f7c0 <iii_witness_emit_kernel>
   1400032cb:	48 83 c4 20          	add    rsp,0x20
   1400032cf:	48 b8 00 00 00 00 00 	movabs rax,0x0
   1400032d6:	00 00 00 
   1400032d9:	50                   	push   rax
   1400032da:	58                   	pop    rax
   1400032db:	48 89 05 2e cd 00 00 	mov    QWORD PTR [rip+0xcd2e],rax        # 140010010 <L_p_XII_TERM_NEXT>
   1400032e2:	48 b8 00 00 00 00 00 	movabs rax,0x0
   1400032e9:	00 00 00 
   1400032ec:	50                   	push   rax
   1400032ed:	58                   	pop    rax
   1400032ee:	48 89 45 f8          	mov    QWORD PTR [rbp-0x8],rax
   1400032f2:	48 8b 45 f8          	mov    rax,QWORD PTR [rbp-0x8]
   1400032f6:	50                   	push   rax
   1400032f7:	48 8b 05 7a de 00 00 	mov    rax,QWORD PTR [rip+0xde7a]        # 140011178 <.rodata+0x140>
   1400032fe:	50                   	push   rax
   1400032ff:	59                   	pop    rcx
   140003300:	58                   	pop    rax
   140003301:	48 39 c8             	cmp    rax,rcx
   140003304:	0f 9c c0             	setl   al
   140003307:	48 0f b6 c0          	movzx  rax,al
   14000330b:	50                   	push   rax
   14000330c:	58                   	pop    rax
   14000330d:	48 85 c0             	test   rax,rax
   140003310:	74 3e                	je     140003350 <L_p_xii_term_arena_reset+0xa0>
   140003312:	48 b8 00 00 00 00 00 	movabs rax,0x0
   140003319:	00 00 00 
   14000331c:	50                   	push   rax
   14000331d:	58                   	pop    rax
   14000331e:	50                   	push   rax
   14000331f:	48 8d 05 1a 24 01 00 	lea    rax,[rip+0x1241a]        # 140015740 <L_p_XII_TERM_ARENA>
   140003326:	50                   	push   rax
   140003327:	48 8b 45 f8          	mov    rax,QWORD PTR [rbp-0x8]
   14000332b:	50                   	push   rax
   14000332c:	59                   	pop    rcx
   14000332d:	58                   	pop    rax
   14000332e:	5a                   	pop    rdx
   14000332f:	48 89 14 c8          	mov    QWORD PTR [rax+rcx*8],rdx
   140003333:	48 8b 45 f8          	mov    rax,QWORD PTR [rbp-0x8]
   140003337:	50                   	push   rax
   140003338:	48 b8 01 00 00 00 00 	movabs rax,0x1
   14000333f:	00 00 00 
   140003342:	50                   	push   rax
   140003343:	59                   	pop    rcx
   140003344:	58                   	pop    rax
   140003345:	48 01 c8             	add    rax,rcx
   140003348:	50                   	push   rax
   140003349:	58                   	pop    rax
   14000334a:	48 89 45 f8          	mov    QWORD PTR [rbp-0x8],rax
   14000334e:	eb a2                	jmp    1400032f2 <L_p_xii_term_arena_reset+0x42>
   140003350:	48 b8 00 00 00 00 00 	movabs rax,0x0
   140003357:	00 00 00 
   14000335a:	50                   	push   rax
   14000335b:	58                   	pop    rax
   14000335c:	50                   	push   rax
   14000335d:	50                   	push   rax
   14000335e:	48 c7 c1 02 00 00 00 	mov    rcx,0x2
   140003365:	48 83 ec 20          	sub    rsp,0x20
   140003369:	e8 52 c4 00 00       	call   14000f7c0 <iii_witness_emit_kernel>
   14000336e:	48 83 c4 20          	add    rsp,0x20
   140003372:	58                   	pop    rax
   140003373:	58                   	pop    rax
   140003374:	48 89 ec             	mov    rsp,rbp
   140003377:	5d                   	pop    rbp
   140003378:	c3                   	ret

0000000140003379 <L_p_xii_term_arena_used>:
   140003379:	55                   	push   rbp
   14000337a:	48 89 e5             	mov    rbp,rsp
   14000337d:	48 81 ec 00 04 00 00 	sub    rsp,0x400
   140003384:	48 c7 c1 01 00 00 00 	mov    rcx,0x1
   14000338b:	48 83 ec 20          	sub    rsp,0x20
   14000338f:	e8 2c c4 00 00       	call   14000f7c0 <iii_witness_emit_kernel>
   140003394:	48 83 c4 20          	add    rsp,0x20
   140003398:	48 8b 05 71 cc 00 00 	mov    rax,QWORD PTR [rip+0xcc71]        # 140010010 <L_p_XII_TERM_NEXT>
   14000339f:	50                   	push   rax
   1400033a0:	58                   	pop    rax
   1400033a1:	50                   	push   rax
   1400033a2:	50                   	push   rax
   1400033a3:	48 c7 c1 02 00 00 00 	mov    rcx,0x2
   1400033aa:	48 83 ec 20          	sub    rsp,0x20
   1400033ae:	e8 0d c4 00 00       	call   14000f7c0 <iii_witness_emit_kernel>
   1400033b3:	48 83 c4 20          	add    rsp,0x20
   1400033b7:	58                   	pop    rax
   1400033b8:	58                   	pop    rax
   1400033b9:	48 89 ec             	mov    rsp,rbp
   1400033bc:	5d                   	pop    rbp
   1400033bd:	c3                   	ret

00000001400033be <L_p_xii_term_arena_capacity>:
   1400033be:	55                   	push   rbp
   1400033bf:	48 89 e5             	mov    rbp,rsp
   1400033c2:	48 81 ec 00 04 00 00 	sub    rsp,0x400
   1400033c9:	48 c7 c1 01 00 00 00 	mov    rcx,0x1
   1400033d0:	48 83 ec 20          	sub    rsp,0x20
   1400033d4:	e8 e7 c3 00 00       	call   14000f7c0 <iii_witness_emit_kernel>
   1400033d9:	48 83 c4 20          	add    rsp,0x20
   1400033dd:	48 8b 05 9c dd 00 00 	mov    rax,QWORD PTR [rip+0xdd9c]        # 140011180 <.rodata+0x148>
   1400033e4:	50                   	push   rax
   1400033e5:	58                   	pop    rax
   1400033e6:	50                   	push   rax
   1400033e7:	50                   	push   rax
   1400033e8:	48 c7 c1 02 00 00 00 	mov    rcx,0x2
   1400033ef:	48 83 ec 20          	sub    rsp,0x20
   1400033f3:	e8 c8 c3 00 00       	call   14000f7c0 <iii_witness_emit_kernel>
   1400033f8:	48 83 c4 20          	add    rsp,0x20
   1400033fc:	58                   	pop    rax
   1400033fd:	58                   	pop    rax
   1400033fe:	48 89 ec             	mov    rsp,rbp
   140003401:	5d                   	pop    rbp
   140003402:	c3                   	ret

0000000140003403 <L_p__xii_term_write_u32>:
   140003403:	55                   	push   rbp
   140003404:	48 89 e5             	mov    rbp,rsp
   140003407:	48 81 ec 00 04 00 00 	sub    rsp,0x400
   14000340e:	48 89 4d f8          	mov    QWORD PTR [rbp-0x8],rcx
   140003412:	48 89 55 f0          	mov    QWORD PTR [rbp-0x10],rdx
   140003416:	48 c7 c1 01 00 00 00 	mov    rcx,0x1
   14000341d:	48 83 ec 20          	sub    rsp,0x20
   140003421:	e8 9a c3 00 00       	call   14000f7c0 <iii_witness_emit_kernel>
   140003426:	48 83 c4 20          	add    rsp,0x20
   14000342a:	58                   	pop    rax
   14000342b:	50                   	push   rax
   14000342c:	48 8d 05 0d 23 01 00 	lea    rax,[rip+0x1230d]        # 140015740 <L_p_XII_TERM_ARENA>
   140003433:	50                   	push   rax
   140003434:	48 8b 45 f8          	mov    rax,QWORD PTR [rbp-0x8]
   140003438:	50                   	push   rax
   140003439:	59                   	pop    rcx
   14000343a:	58                   	pop    rax
   14000343b:	5a                   	pop    rdx
   14000343c:	48 89 14 c8          	mov    QWORD PTR [rax+rcx*8],rdx
   140003440:	58                   	pop    rax
   140003441:	50                   	push   rax
   140003442:	48 8d 05 f7 22 01 00 	lea    rax,[rip+0x122f7]        # 140015740 <L_p_XII_TERM_ARENA>
   140003449:	50                   	push   rax
   14000344a:	48 8b 45 f8          	mov    rax,QWORD PTR [rbp-0x8]
   14000344e:	50                   	push   rax
   14000344f:	48 b8 01 00 00 00 00 	movabs rax,0x1
   140003456:	00 00 00 
   140003459:	50                   	push   rax
   14000345a:	59                   	pop    rcx
   14000345b:	58                   	pop    rax
   14000345c:	48 01 c8             	add    rax,rcx
   14000345f:	50                   	push   rax
   140003460:	59                   	pop    rcx
   140003461:	58                   	pop    rax
   140003462:	5a                   	pop    rdx
   140003463:	48 89 14 c8          	mov    QWORD PTR [rax+rcx*8],rdx
   140003467:	58                   	pop    rax
   140003468:	50                   	push   rax
   140003469:	48 8d 05 d0 22 01 00 	lea    rax,[rip+0x122d0]        # 140015740 <L_p_XII_TERM_ARENA>
   140003470:	50                   	push   rax
   140003471:	48 8b 45 f8          	mov    rax,QWORD PTR [rbp-0x8]
   140003475:	50                   	push   rax
   140003476:	48 b8 02 00 00 00 00 	movabs rax,0x2
   14000347d:	00 00 00 
   140003480:	50                   	push   rax
   140003481:	59                   	pop    rcx
   140003482:	58                   	pop    rax
   140003483:	48 01 c8             	add    rax,rcx
   140003486:	50                   	push   rax
   140003487:	59                   	pop    rcx
   140003488:	58                   	pop    rax
   140003489:	5a                   	pop    rdx
   14000348a:	48 89 14 c8          	mov    QWORD PTR [rax+rcx*8],rdx
   14000348e:	58                   	pop    rax
   14000348f:	50                   	push   rax
   140003490:	48 8d 05 a9 22 01 00 	lea    rax,[rip+0x122a9]        # 140015740 <L_p_XII_TERM_ARENA>
   140003497:	50                   	push   rax
   140003498:	48 8b 45 f8          	mov    rax,QWORD PTR [rbp-0x8]
   14000349c:	50                   	push   rax
   14000349d:	48 b8 03 00 00 00 00 	movabs rax,0x3
   1400034a4:	00 00 00 
   1400034a7:	50                   	push   rax
   1400034a8:	59                   	pop    rcx
   1400034a9:	58                   	pop    rax
   1400034aa:	48 01 c8             	add    rax,rcx
   1400034ad:	50                   	push   rax
   1400034ae:	59                   	pop    rcx
   1400034af:	58                   	pop    rax
   1400034b0:	5a                   	pop    rdx
   1400034b1:	48 89 14 c8          	mov    QWORD PTR [rax+rcx*8],rdx
   1400034b5:	48 b8 00 00 00 00 00 	movabs rax,0x0
   1400034bc:	00 00 00 
   1400034bf:	50                   	push   rax
   1400034c0:	58                   	pop    rax
   1400034c1:	50                   	push   rax
   1400034c2:	50                   	push   rax
   1400034c3:	48 c7 c1 02 00 00 00 	mov    rcx,0x2
   1400034ca:	48 83 ec 20          	sub    rsp,0x20
   1400034ce:	e8 ed c2 00 00       	call   14000f7c0 <iii_witness_emit_kernel>
   1400034d3:	48 83 c4 20          	add    rsp,0x20
   1400034d7:	58                   	pop    rax
   1400034d8:	58                   	pop    rax
   1400034d9:	48 89 ec             	mov    rsp,rbp
   1400034dc:	5d                   	pop    rbp
   1400034dd:	c3                   	ret

00000001400034de <L_p__xii_term_read_u32>:
   1400034de:	55                   	push   rbp
   1400034df:	48 89 e5             	mov    rbp,rsp
   1400034e2:	48 81 ec 00 04 00 00 	sub    rsp,0x400
   1400034e9:	48 89 4d f8          	mov    QWORD PTR [rbp-0x8],rcx
   1400034ed:	48 c7 c1 01 00 00 00 	mov    rcx,0x1
   1400034f4:	48 83 ec 20          	sub    rsp,0x20
   1400034f8:	e8 c3 c2 00 00       	call   14000f7c0 <iii_witness_emit_kernel>
   1400034fd:	48 83 c4 20          	add    rsp,0x20
   140003501:	58                   	pop    rax
   140003502:	48 89 45 f0          	mov    QWORD PTR [rbp-0x10],rax
   140003506:	58                   	pop    rax
   140003507:	48 89 45 e8          	mov    QWORD PTR [rbp-0x18],rax
   14000350b:	58                   	pop    rax
   14000350c:	48 89 45 e0          	mov    QWORD PTR [rbp-0x20],rax
   140003510:	58                   	pop    rax
   140003511:	48 89 45 d8          	mov    QWORD PTR [rbp-0x28],rax
   140003515:	48 8b 45 f0          	mov    rax,QWORD PTR [rbp-0x10]
   140003519:	50                   	push   rax
   14000351a:	48 8b 45 e8          	mov    rax,QWORD PTR [rbp-0x18]
   14000351e:	50                   	push   rax
   14000351f:	48 b8 08 00 00 00 00 	movabs rax,0x8
   140003526:	00 00 00 
   140003529:	50                   	push   rax
   14000352a:	59                   	pop    rcx
   14000352b:	58                   	pop    rax
   14000352c:	48 d3 e0             	shl    rax,cl
   14000352f:	50                   	push   rax
   140003530:	59                   	pop    rcx
   140003531:	58                   	pop    rax
   140003532:	48 09 c8             	or     rax,rcx
   140003535:	50                   	push   rax
   140003536:	48 8b 45 e0          	mov    rax,QWORD PTR [rbp-0x20]
   14000353a:	50                   	push   rax
   14000353b:	48 b8 10 00 00 00 00 	movabs rax,0x10
   140003542:	00 00 00 
   140003545:	50                   	push   rax
   140003546:	59                   	pop    rcx
   140003547:	58                   	pop    rax
   140003548:	48 d3 e0             	shl    rax,cl
   14000354b:	50                   	push   rax
   14000354c:	59                   	pop    rcx
   14000354d:	58                   	pop    rax
   14000354e:	48 09 c8             	or     rax,rcx
   140003551:	50                   	push   rax
   140003552:	48 8b 45 d8          	mov    rax,QWORD PTR [rbp-0x28]
   140003556:	50                   	push   rax
   140003557:	48 b8 18 00 00 00 00 	movabs rax,0x18
   14000355e:	00 00 00 
   140003561:	50                   	push   rax
   140003562:	59                   	pop    rcx
   140003563:	58                   	pop    rax
   140003564:	48 d3 e0             	shl    rax,cl
   140003567:	50                   	push   rax
   140003568:	59                   	pop    rcx
   140003569:	58                   	pop    rax
   14000356a:	48 09 c8             	or     rax,rcx
   14000356d:	50                   	push   rax
   14000356e:	58                   	pop    rax
   14000356f:	50                   	push   rax
   140003570:	50                   	push   rax
   140003571:	48 c7 c1 02 00 00 00 	mov    rcx,0x2
   140003578:	48 83 ec 20          	sub    rsp,0x20
   14000357c:	e8 3f c2 00 00       	call   14000f7c0 <iii_witness_emit_kernel>
   140003581:	48 83 c4 20          	add    rsp,0x20
   140003585:	58                   	pop    rax
   140003586:	58                   	pop    rax
   140003587:	48 89 ec             	mov    rsp,rbp
   14000358a:	5d                   	pop    rbp
   14000358b:	c3                   	ret

000000014000358c <L_p__xii_term_write_u64>:
   14000358c:	55                   	push   rbp
   14000358d:	48 89 e5             	mov    rbp,rsp
   140003590:	48 81 ec 00 04 00 00 	sub    rsp,0x400
   140003597:	48 89 4d f8          	mov    QWORD PTR [rbp-0x8],rcx
   14000359b:	48 89 55 f0          	mov    QWORD PTR [rbp-0x10],rdx
   14000359f:	48 c7 c1 01 00 00 00 	mov    rcx,0x1
   1400035a6:	48 83 ec 20          	sub    rsp,0x20
   1400035aa:	e8 11 c2 00 00       	call   14000f7c0 <iii_witness_emit_kernel>
   1400035af:	48 83 c4 20          	add    rsp,0x20
   1400035b3:	58                   	pop    rax
   1400035b4:	50                   	push   rax
   1400035b5:	48 8d 05 84 21 01 00 	lea    rax,[rip+0x12184]        # 140015740 <L_p_XII_TERM_ARENA>
   1400035bc:	50                   	push   rax
   1400035bd:	48 8b 45 f8          	mov    rax,QWORD PTR [rbp-0x8]
   1400035c1:	50                   	push   rax
   1400035c2:	59                   	pop    rcx
   1400035c3:	58                   	pop    rax
   1400035c4:	5a                   	pop    rdx
   1400035c5:	48 89 14 c8          	mov    QWORD PTR [rax+rcx*8],rdx
   1400035c9:	58                   	pop    rax
   1400035ca:	50                   	push   rax
   1400035cb:	48 8d 05 6e 21 01 00 	lea    rax,[rip+0x1216e]        # 140015740 <L_p_XII_TERM_ARENA>
   1400035d2:	50                   	push   rax
   1400035d3:	48 8b 45 f8          	mov    rax,QWORD PTR [rbp-0x8]
   1400035d7:	50                   	push   rax
   1400035d8:	48 b8 01 00 00 00 00 	movabs rax,0x1
   1400035df:	00 00 00 
   1400035e2:	50                   	push   rax
   1400035e3:	59                   	pop    rcx
   1400035e4:	58                   	pop    rax
   1400035e5:	48 01 c8             	add    rax,rcx
   1400035e8:	50                   	push   rax
   1400035e9:	59                   	pop    rcx
   1400035ea:	58                   	pop    rax
   1400035eb:	5a                   	pop    rdx
   1400035ec:	48 89 14 c8          	mov    QWORD PTR [rax+rcx*8],rdx
   1400035f0:	58                   	pop    rax
   1400035f1:	50                   	push   rax
   1400035f2:	48 8d 05 47 21 01 00 	lea    rax,[rip+0x12147]        # 140015740 <L_p_XII_TERM_ARENA>
   1400035f9:	50                   	push   rax
   1400035fa:	48 8b 45 f8          	mov    rax,QWORD PTR [rbp-0x8]
   1400035fe:	50                   	push   rax
   1400035ff:	48 b8 02 00 00 00 00 	movabs rax,0x2
   140003606:	00 00 00 
   140003609:	50                   	push   rax
   14000360a:	59                   	pop    rcx
   14000360b:	58                   	pop    rax
   14000360c:	48 01 c8             	add    rax,rcx
   14000360f:	50                   	push   rax
   140003610:	59                   	pop    rcx
   140003611:	58                   	pop    rax
   140003612:	5a                   	pop    rdx
   140003613:	48 89 14 c8          	mov    QWORD PTR [rax+rcx*8],rdx
   140003617:	58                   	pop    rax
   140003618:	50                   	push   rax
   140003619:	48 8d 05 20 21 01 00 	lea    rax,[rip+0x12120]        # 140015740 <L_p_XII_TERM_ARENA>
   140003620:	50                   	push   rax
   140003621:	48 8b 45 f8          	mov    rax,QWORD PTR [rbp-0x8]
   140003625:	50                   	push   rax
   140003626:	48 b8 03 00 00 00 00 	movabs rax,0x3
   14000362d:	00 00 00 
   140003630:	50                   	push   rax
   140003631:	59                   	pop    rcx
   140003632:	58                   	pop    rax
   140003633:	48 01 c8             	add    rax,rcx
   140003636:	50                   	push   rax
   140003637:	59                   	pop    rcx
   140003638:	58                   	pop    rax
   140003639:	5a                   	pop    rdx
   14000363a:	48 89 14 c8          	mov    QWORD PTR [rax+rcx*8],rdx
   14000363e:	58                   	pop    rax
   14000363f:	50                   	push   rax
   140003640:	48 8d 05 f9 20 01 00 	lea    rax,[rip+0x120f9]        # 140015740 <L_p_XII_TERM_ARENA>
   140003647:	50                   	push   rax
   140003648:	48 8b 45 f8          	mov    rax,QWORD PTR [rbp-0x8]
   14000364c:	50                   	push   rax
   14000364d:	48 b8 04 00 00 00 00 	movabs rax,0x4
   140003654:	00 00 00 
   140003657:	50                   	push   rax
   140003658:	59                   	pop    rcx
   140003659:	58                   	pop    rax
   14000365a:	48 01 c8             	add    rax,rcx
   14000365d:	50                   	push   rax
   14000365e:	59                   	pop    rcx
   14000365f:	58                   	pop    rax
   140003660:	5a                   	pop    rdx
   140003661:	48 89 14 c8          	mov    QWORD PTR [rax+rcx*8],rdx
   140003665:	58                   	pop    rax
   140003666:	50                   	push   rax
   140003667:	48 8d 05 d2 20 01 00 	lea    rax,[rip+0x120d2]        # 140015740 <L_p_XII_TERM_ARENA>
   14000366e:	50                   	push   rax
   14000366f:	48 8b 45 f8          	mov    rax,QWORD PTR [rbp-0x8]
   140003673:	50                   	push   rax
   140003674:	48 b8 05 00 00 00 00 	movabs rax,0x5
   14000367b:	00 00 00 
   14000367e:	50                   	push   rax
   14000367f:	59                   	pop    rcx
   140003680:	58                   	pop    rax
   140003681:	48 01 c8             	add    rax,rcx
   140003684:	50                   	push   rax
   140003685:	59                   	pop    rcx
   140003686:	58                   	pop    rax
   140003687:	5a                   	pop    rdx
   140003688:	48 89 14 c8          	mov    QWORD PTR [rax+rcx*8],rdx
   14000368c:	58                   	pop    rax
   14000368d:	50                   	push   rax
   14000368e:	48 8d 05 ab 20 01 00 	lea    rax,[rip+0x120ab]        # 140015740 <L_p_XII_TERM_ARENA>
   140003695:	50                   	push   rax
   140003696:	48 8b 45 f8          	mov    rax,QWORD PTR [rbp-0x8]
   14000369a:	50                   	push   rax
   14000369b:	48 b8 06 00 00 00 00 	movabs rax,0x6
   1400036a2:	00 00 00 
   1400036a5:	50                   	push   rax
   1400036a6:	59                   	pop    rcx
   1400036a7:	58                   	pop    rax
   1400036a8:	48 01 c8             	add    rax,rcx
   1400036ab:	50                   	push   rax
   1400036ac:	59                   	pop    rcx
   1400036ad:	58                   	pop    rax
   1400036ae:	5a                   	pop    rdx
   1400036af:	48 89 14 c8          	mov    QWORD PTR [rax+rcx*8],rdx
   1400036b3:	58                   	pop    rax
   1400036b4:	50                   	push   rax
   1400036b5:	48 8d 05 84 20 01 00 	lea    rax,[rip+0x12084]        # 140015740 <L_p_XII_TERM_ARENA>
   1400036bc:	50                   	push   rax
   1400036bd:	48 8b 45 f8          	mov    rax,QWORD PTR [rbp-0x8]
   1400036c1:	50                   	push   rax
   1400036c2:	48 b8 07 00 00 00 00 	movabs rax,0x7
   1400036c9:	00 00 00 
   1400036cc:	50                   	push   rax
   1400036cd:	59                   	pop    rcx
   1400036ce:	58                   	pop    rax
   1400036cf:	48 01 c8             	add    rax,rcx
   1400036d2:	50                   	push   rax
   1400036d3:	59                   	pop    rcx
   1400036d4:	58                   	pop    rax
   1400036d5:	5a                   	pop    rdx
   1400036d6:	48 89 14 c8          	mov    QWORD PTR [rax+rcx*8],rdx
   1400036da:	48 b8 00 00 00 00 00 	movabs rax,0x0
   1400036e1:	00 00 00 
   1400036e4:	50                   	push   rax
   1400036e5:	58                   	pop    rax
   1400036e6:	50                   	push   rax
   1400036e7:	50                   	push   rax
   1400036e8:	48 c7 c1 02 00 00 00 	mov    rcx,0x2
   1400036ef:	48 83 ec 20          	sub    rsp,0x20
   1400036f3:	e8 c8 c0 00 00       	call   14000f7c0 <iii_witness_emit_kernel>
   1400036f8:	48 83 c4 20          	add    rsp,0x20
   1400036fc:	58                   	pop    rax
   1400036fd:	58                   	pop    rax
   1400036fe:	48 89 ec             	mov    rsp,rbp
   140003701:	5d                   	pop    rbp
   140003702:	c3                   	ret

0000000140003703 <L_p__xii_term_read_u64>:
   140003703:	55                   	push   rbp
   140003704:	48 89 e5             	mov    rbp,rsp
   140003707:	48 81 ec 00 04 00 00 	sub    rsp,0x400
   14000370e:	48 89 4d f8          	mov    QWORD PTR [rbp-0x8],rcx
   140003712:	48 c7 c1 01 00 00 00 	mov    rcx,0x1
   140003719:	48 83 ec 20          	sub    rsp,0x20
   14000371d:	e8 9e c0 00 00       	call   14000f7c0 <iii_witness_emit_kernel>
   140003722:	48 83 c4 20          	add    rsp,0x20
   140003726:	58                   	pop    rax
   140003727:	48 89 45 f0          	mov    QWORD PTR [rbp-0x10],rax
   14000372b:	58                   	pop    rax
   14000372c:	48 89 45 e8          	mov    QWORD PTR [rbp-0x18],rax
   140003730:	58                   	pop    rax
   140003731:	48 89 45 e0          	mov    QWORD PTR [rbp-0x20],rax
   140003735:	58                   	pop    rax
   140003736:	48 89 45 d8          	mov    QWORD PTR [rbp-0x28],rax
   14000373a:	58                   	pop    rax
   14000373b:	48 89 45 d0          	mov    QWORD PTR [rbp-0x30],rax
   14000373f:	58                   	pop    rax
   140003740:	48 89 45 c8          	mov    QWORD PTR [rbp-0x38],rax
   140003744:	58                   	pop    rax
   140003745:	48 89 45 c0          	mov    QWORD PTR [rbp-0x40],rax
   140003749:	58                   	pop    rax
   14000374a:	48 89 45 b8          	mov    QWORD PTR [rbp-0x48],rax
   14000374e:	48 8b 45 f0          	mov    rax,QWORD PTR [rbp-0x10]
   140003752:	50                   	push   rax
   140003753:	48 8b 45 e8          	mov    rax,QWORD PTR [rbp-0x18]
   140003757:	50                   	push   rax
   140003758:	48 b8 08 00 00 00 00 	movabs rax,0x8
   14000375f:	00 00 00 
   140003762:	50                   	push   rax
   140003763:	59                   	pop    rcx
   140003764:	58                   	pop    rax
   140003765:	48 d3 e0             	shl    rax,cl
   140003768:	50                   	push   rax
   140003769:	59                   	pop    rcx
   14000376a:	58                   	pop    rax
   14000376b:	48 09 c8             	or     rax,rcx
   14000376e:	50                   	push   rax
   14000376f:	48 8b 45 e0          	mov    rax,QWORD PTR [rbp-0x20]
   140003773:	50                   	push   rax
   140003774:	48 b8 10 00 00 00 00 	movabs rax,0x10
   14000377b:	00 00 00 
   14000377e:	50                   	push   rax
   14000377f:	59                   	pop    rcx
   140003780:	58                   	pop    rax
   140003781:	48 d3 e0             	shl    rax,cl
   140003784:	50                   	push   rax
   140003785:	59                   	pop    rcx
   140003786:	58                   	pop    rax
   140003787:	48 09 c8             	or     rax,rcx
   14000378a:	50                   	push   rax
   14000378b:	48 8b 45 d8          	mov    rax,QWORD PTR [rbp-0x28]
   14000378f:	50                   	push   rax
   140003790:	48 b8 18 00 00 00 00 	movabs rax,0x18
   140003797:	00 00 00 
   14000379a:	50                   	push   rax
   14000379b:	59                   	pop    rcx
   14000379c:	58                   	pop    rax
   14000379d:	48 d3 e0             	shl    rax,cl
   1400037a0:	50                   	push   rax
   1400037a1:	59                   	pop    rcx
   1400037a2:	58                   	pop    rax
   1400037a3:	48 09 c8             	or     rax,rcx
   1400037a6:	50                   	push   rax
   1400037a7:	58                   	pop    rax
   1400037a8:	48 89 45 b0          	mov    QWORD PTR [rbp-0x50],rax
   1400037ac:	48 8b 45 d0          	mov    rax,QWORD PTR [rbp-0x30]
   1400037b0:	50                   	push   rax
   1400037b1:	48 b8 20 00 00 00 00 	movabs rax,0x20
   1400037b8:	00 00 00 
   1400037bb:	50                   	push   rax
   1400037bc:	59                   	pop    rcx
   1400037bd:	58                   	pop    rax
   1400037be:	48 d3 e0             	shl    rax,cl
   1400037c1:	50                   	push   rax
   1400037c2:	48 8b 45 c8          	mov    rax,QWORD PTR [rbp-0x38]
   1400037c6:	50                   	push   rax
   1400037c7:	48 b8 28 00 00 00 00 	movabs rax,0x28
   1400037ce:	00 00 00 
   1400037d1:	50                   	push   rax
   1400037d2:	59                   	pop    rcx
   1400037d3:	58                   	pop    rax
   1400037d4:	48 d3 e0             	shl    rax,cl
   1400037d7:	50                   	push   rax
   1400037d8:	59                   	pop    rcx
   1400037d9:	58                   	pop    rax
   1400037da:	48 09 c8             	or     rax,rcx
   1400037dd:	50                   	push   rax
   1400037de:	48 8b 45 c0          	mov    rax,QWORD PTR [rbp-0x40]
   1400037e2:	50                   	push   rax
   1400037e3:	48 b8 30 00 00 00 00 	movabs rax,0x30
   1400037ea:	00 00 00 
   1400037ed:	50                   	push   rax
   1400037ee:	59                   	pop    rcx
   1400037ef:	58                   	pop    rax
   1400037f0:	48 d3 e0             	shl    rax,cl
   1400037f3:	50                   	push   rax
   1400037f4:	59                   	pop    rcx
   1400037f5:	58                   	pop    rax
   1400037f6:	48 09 c8             	or     rax,rcx
   1400037f9:	50                   	push   rax
   1400037fa:	48 8b 45 b8          	mov    rax,QWORD PTR [rbp-0x48]
   1400037fe:	50                   	push   rax
   1400037ff:	48 b8 38 00 00 00 00 	movabs rax,0x38
   140003806:	00 00 00 
   140003809:	50                   	push   rax
   14000380a:	59                   	pop    rcx
   14000380b:	58                   	pop    rax
   14000380c:	48 d3 e0             	shl    rax,cl
   14000380f:	50                   	push   rax
   140003810:	59                   	pop    rcx
   140003811:	58                   	pop    rax
   140003812:	48 09 c8             	or     rax,rcx
   140003815:	50                   	push   rax
   140003816:	58                   	pop    rax
   140003817:	48 89 45 a8          	mov    QWORD PTR [rbp-0x58],rax
   14000381b:	48 8b 45 b0          	mov    rax,QWORD PTR [rbp-0x50]
   14000381f:	50                   	push   rax
   140003820:	48 8b 45 a8          	mov    rax,QWORD PTR [rbp-0x58]
   140003824:	50                   	push   rax
   140003825:	59                   	pop    rcx
   140003826:	58                   	pop    rax
   140003827:	48 09 c8             	or     rax,rcx
   14000382a:	50                   	push   rax
   14000382b:	58                   	pop    rax
   14000382c:	50                   	push   rax
   14000382d:	50                   	push   rax
   14000382e:	48 c7 c1 02 00 00 00 	mov    rcx,0x2
   140003835:	48 83 ec 20          	sub    rsp,0x20
   140003839:	e8 82 bf 00 00       	call   14000f7c0 <iii_witness_emit_kernel>
   14000383e:	48 83 c4 20          	add    rsp,0x20
   140003842:	58                   	pop    rax
   140003843:	58                   	pop    rax
   140003844:	48 89 ec             	mov    rsp,rbp
   140003847:	5d                   	pop    rbp
   140003848:	c3                   	ret

0000000140003849 <L_p_xii_term_alloc>:
   140003849:	55                   	push   rbp
   14000384a:	48 89 e5             	mov    rbp,rsp
   14000384d:	48 81 ec 00 04 00 00 	sub    rsp,0x400
   140003854:	48 c7 c1 01 00 00 00 	mov    rcx,0x1
   14000385b:	48 83 ec 20          	sub    rsp,0x20
   14000385f:	e8 5c bf 00 00       	call   14000f7c0 <iii_witness_emit_kernel>
   140003864:	48 83 c4 20          	add    rsp,0x20
   140003868:	48 8b 05 a1 c7 00 00 	mov    rax,QWORD PTR [rip+0xc7a1]        # 140010010 <L_p_XII_TERM_NEXT>
   14000386f:	50                   	push   rax
   140003870:	58                   	pop    rax
   140003871:	48 89 45 f8          	mov    QWORD PTR [rbp-0x8],rax
   140003875:	48 8b 45 f8          	mov    rax,QWORD PTR [rbp-0x8]
   140003879:	50                   	push   rax
   14000387a:	48 8b 05 ff d8 00 00 	mov    rax,QWORD PTR [rip+0xd8ff]        # 140011180 <.rodata+0x148>
   140003881:	50                   	push   rax
   140003882:	59                   	pop    rcx
   140003883:	58                   	pop    rax
   140003884:	48 39 c8             	cmp    rax,rcx
   140003887:	0f 9d c0             	setge  al
   14000388a:	48 0f b6 c0          	movzx  rax,al
   14000388e:	50                   	push   rax
   14000388f:	58                   	pop    rax
   140003890:	48 85 c0             	test   rax,rax
   140003893:	74 26                	je     1400038bb <L_p_xii_term_alloc+0x72>
   140003895:	48 8b 05 6c d8 00 00 	mov    rax,QWORD PTR [rip+0xd86c]        # 140011108 <.rodata+0xd0>
   14000389c:	50                   	push   rax
   14000389d:	58                   	pop    rax
   14000389e:	50                   	push   rax
   14000389f:	50                   	push   rax
   1400038a0:	48 c7 c1 02 00 00 00 	mov    rcx,0x2
   1400038a7:	48 83 ec 20          	sub    rsp,0x20
   1400038ab:	e8 10 bf 00 00       	call   14000f7c0 <iii_witness_emit_kernel>
   1400038b0:	48 83 c4 20          	add    rsp,0x20
   1400038b4:	58                   	pop    rax
   1400038b5:	58                   	pop    rax
   1400038b6:	48 89 ec             	mov    rsp,rbp
   1400038b9:	5d                   	pop    rbp
   1400038ba:	c3                   	ret
   1400038bb:	48 8b 45 f8          	mov    rax,QWORD PTR [rbp-0x8]
   1400038bf:	50                   	push   rax
   1400038c0:	48 b8 01 00 00 00 00 	movabs rax,0x1
   1400038c7:	00 00 00 
   1400038ca:	50                   	push   rax
   1400038cb:	59                   	pop    rcx
   1400038cc:	58                   	pop    rax
   1400038cd:	48 01 c8             	add    rax,rcx
   1400038d0:	50                   	push   rax
   1400038d1:	58                   	pop    rax
   1400038d2:	48 89 05 37 c7 00 00 	mov    QWORD PTR [rip+0xc737],rax        # 140010010 <L_p_XII_TERM_NEXT>
   1400038d9:	48 8b 45 f8          	mov    rax,QWORD PTR [rbp-0x8]
   1400038dd:	50                   	push   rax
   1400038de:	48 8b 05 8b d8 00 00 	mov    rax,QWORD PTR [rip+0xd88b]        # 140011170 <.rodata+0x138>
   1400038e5:	50                   	push   rax
   1400038e6:	59                   	pop    rcx
   1400038e7:	58                   	pop    rax
   1400038e8:	48 0f af c1          	imul   rax,rcx
   1400038ec:	50                   	push   rax
   1400038ed:	58                   	pop    rax
   1400038ee:	48 89 45 f0          	mov    QWORD PTR [rbp-0x10],rax
   1400038f2:	48 b8 00 00 00 00 00 	movabs rax,0x0
   1400038f9:	00 00 00 
   1400038fc:	50                   	push   rax
   1400038fd:	58                   	pop    rax
   1400038fe:	48 89 45 e8          	mov    QWORD PTR [rbp-0x18],rax
   140003902:	48 8b 45 e8          	mov    rax,QWORD PTR [rbp-0x18]
   140003906:	50                   	push   rax
   140003907:	48 8b 05 62 d8 00 00 	mov    rax,QWORD PTR [rip+0xd862]        # 140011170 <.rodata+0x138>
   14000390e:	50                   	push   rax
   14000390f:	59                   	pop    rcx
   140003910:	58                   	pop    rax
   140003911:	48 39 c8             	cmp    rax,rcx
   140003914:	0f 9c c0             	setl   al
   140003917:	48 0f b6 c0          	movzx  rax,al
   14000391b:	50                   	push   rax
   14000391c:	58                   	pop    rax
   14000391d:	48 85 c0             	test   rax,rax
   140003920:	74 49                	je     14000396b <L_p_xii_term_alloc+0x122>
   140003922:	48 b8 00 00 00 00 00 	movabs rax,0x0
   140003929:	00 00 00 
   14000392c:	50                   	push   rax
   14000392d:	58                   	pop    rax
   14000392e:	50                   	push   rax
   14000392f:	48 8d 05 0a 1e 01 00 	lea    rax,[rip+0x11e0a]        # 140015740 <L_p_XII_TERM_ARENA>
   140003936:	50                   	push   rax
   140003937:	48 8b 45 f0          	mov    rax,QWORD PTR [rbp-0x10]
   14000393b:	50                   	push   rax
   14000393c:	48 8b 45 e8          	mov    rax,QWORD PTR [rbp-0x18]
   140003940:	50                   	push   rax
   140003941:	59                   	pop    rcx
   140003942:	58                   	pop    rax
   140003943:	48 01 c8             	add    rax,rcx
   140003946:	50                   	push   rax
   140003947:	59                   	pop    rcx
   140003948:	58                   	pop    rax
   140003949:	5a                   	pop    rdx
   14000394a:	48 89 14 c8          	mov    QWORD PTR [rax+rcx*8],rdx
   14000394e:	48 8b 45 e8          	mov    rax,QWORD PTR [rbp-0x18]
   140003952:	50                   	push   rax
   140003953:	48 b8 01 00 00 00 00 	movabs rax,0x1
   14000395a:	00 00 00 
   14000395d:	50                   	push   rax
   14000395e:	59                   	pop    rcx
   14000395f:	58                   	pop    rax
   140003960:	48 01 c8             	add    rax,rcx
   140003963:	50                   	push   rax
   140003964:	58                   	pop    rax
   140003965:	48 89 45 e8          	mov    QWORD PTR [rbp-0x18],rax
   140003969:	eb 97                	jmp    140003902 <L_p_xii_term_alloc+0xb9>
   14000396b:	48 8b 45 f0          	mov    rax,QWORD PTR [rbp-0x10]
   14000396f:	50                   	push   rax
   140003970:	48 b8 08 00 00 00 00 	movabs rax,0x8
   140003977:	00 00 00 
   14000397a:	50                   	push   rax
   14000397b:	59                   	pop    rcx
   14000397c:	58                   	pop    rax
   14000397d:	48 01 c8             	add    rax,rcx
   140003980:	50                   	push   rax
   140003981:	48 8b 05 80 d7 00 00 	mov    rax,QWORD PTR [rip+0xd780]        # 140011108 <.rodata+0xd0>
   140003988:	50                   	push   rax
   140003989:	5a                   	pop    rdx
   14000398a:	59                   	pop    rcx
   14000398b:	48 83 ec 20          	sub    rsp,0x20
   14000398f:	e8 6f fa ff ff       	call   140003403 <L_p__xii_term_write_u32>
   140003994:	48 83 c4 20          	add    rsp,0x20
   140003998:	50                   	push   rax
   140003999:	58                   	pop    rax
   14000399a:	48 8b 45 f0          	mov    rax,QWORD PTR [rbp-0x10]
   14000399e:	50                   	push   rax
   14000399f:	48 b8 0c 00 00 00 00 	movabs rax,0xc
   1400039a6:	00 00 00 
   1400039a9:	50                   	push   rax
   1400039aa:	59                   	pop    rcx
   1400039ab:	58                   	pop    rax
   1400039ac:	48 01 c8             	add    rax,rcx
   1400039af:	50                   	push   rax
   1400039b0:	48 8b 05 51 d7 00 00 	mov    rax,QWORD PTR [rip+0xd751]        # 140011108 <.rodata+0xd0>
   1400039b7:	50                   	push   rax
   1400039b8:	5a                   	pop    rdx
   1400039b9:	59                   	pop    rcx
   1400039ba:	48 83 ec 20          	sub    rsp,0x20
   1400039be:	e8 40 fa ff ff       	call   140003403 <L_p__xii_term_write_u32>
   1400039c3:	48 83 c4 20          	add    rsp,0x20
   1400039c7:	50                   	push   rax
   1400039c8:	58                   	pop    rax
   1400039c9:	48 8b 45 f0          	mov    rax,QWORD PTR [rbp-0x10]
   1400039cd:	50                   	push   rax
   1400039ce:	48 b8 10 00 00 00 00 	movabs rax,0x10
   1400039d5:	00 00 00 
   1400039d8:	50                   	push   rax
   1400039d9:	59                   	pop    rcx
   1400039da:	58                   	pop    rax
   1400039db:	48 01 c8             	add    rax,rcx
   1400039de:	50                   	push   rax
   1400039df:	48 8b 05 22 d7 00 00 	mov    rax,QWORD PTR [rip+0xd722]        # 140011108 <.rodata+0xd0>
   1400039e6:	50                   	push   rax
   1400039e7:	5a                   	pop    rdx
   1400039e8:	59                   	pop    rcx
   1400039e9:	48 83 ec 20          	sub    rsp,0x20
   1400039ed:	e8 11 fa ff ff       	call   140003403 <L_p__xii_term_write_u32>
   1400039f2:	48 83 c4 20          	add    rsp,0x20
   1400039f6:	50                   	push   rax
   1400039f7:	58                   	pop    rax
   1400039f8:	48 8b 45 f8          	mov    rax,QWORD PTR [rbp-0x8]
   1400039fc:	50                   	push   rax
   1400039fd:	58                   	pop    rax
   1400039fe:	50                   	push   rax
   1400039ff:	50                   	push   rax
   140003a00:	48 c7 c1 02 00 00 00 	mov    rcx,0x2
   140003a07:	48 83 ec 20          	sub    rsp,0x20
   140003a0b:	e8 b0 bd 00 00       	call   14000f7c0 <iii_witness_emit_kernel>
   140003a10:	48 83 c4 20          	add    rsp,0x20
   140003a14:	58                   	pop    rax
   140003a15:	58                   	pop    rax
   140003a16:	48 89 ec             	mov    rsp,rbp
   140003a19:	5d                   	pop    rbp
   140003a1a:	c3                   	ret

0000000140003a1b <L_p_xii_term_set_kind>:
   140003a1b:	55                   	push   rbp
   140003a1c:	48 89 e5             	mov    rbp,rsp
   140003a1f:	48 81 ec 00 04 00 00 	sub    rsp,0x400
   140003a26:	48 89 4d f8          	mov    QWORD PTR [rbp-0x8],rcx
   140003a2a:	48 89 55 f0          	mov    QWORD PTR [rbp-0x10],rdx
   140003a2e:	48 c7 c1 01 00 00 00 	mov    rcx,0x1
   140003a35:	48 83 ec 20          	sub    rsp,0x20
   140003a39:	e8 82 bd 00 00       	call   14000f7c0 <iii_witness_emit_kernel>
   140003a3e:	48 83 c4 20          	add    rsp,0x20
   140003a42:	48 8b 45 f8          	mov    rax,QWORD PTR [rbp-0x8]
   140003a46:	50                   	push   rax
   140003a47:	48 8b 05 32 d7 00 00 	mov    rax,QWORD PTR [rip+0xd732]        # 140011180 <.rodata+0x148>
   140003a4e:	50                   	push   rax
   140003a4f:	59                   	pop    rcx
   140003a50:	58                   	pop    rax
   140003a51:	48 39 c8             	cmp    rax,rcx
   140003a54:	0f 9d c0             	setge  al
   140003a57:	48 0f b6 c0          	movzx  rax,al
   140003a5b:	50                   	push   rax
   140003a5c:	58                   	pop    rax
   140003a5d:	48 85 c0             	test   rax,rax
   140003a60:	74 2e                	je     140003a90 <L_p_xii_term_set_kind+0x75>
   140003a62:	48 b8 01 00 00 00 00 	movabs rax,0x1
   140003a69:	00 00 00 
   140003a6c:	50                   	push   rax
   140003a6d:	58                   	pop    rax
   140003a6e:	48 f7 d8             	neg    rax
   140003a71:	50                   	push   rax
   140003a72:	58                   	pop    rax
   140003a73:	50                   	push   rax
   140003a74:	50                   	push   rax
   140003a75:	48 c7 c1 02 00 00 00 	mov    rcx,0x2
   140003a7c:	48 83 ec 20          	sub    rsp,0x20
   140003a80:	e8 3b bd 00 00       	call   14000f7c0 <iii_witness_emit_kernel>
   140003a85:	48 83 c4 20          	add    rsp,0x20
   140003a89:	58                   	pop    rax
   140003a8a:	58                   	pop    rax
   140003a8b:	48 89 ec             	mov    rsp,rbp
   140003a8e:	5d                   	pop    rbp
   140003a8f:	c3                   	ret
   140003a90:	48 8b 45 f0          	mov    rax,QWORD PTR [rbp-0x10]
   140003a94:	50                   	push   rax
   140003a95:	58                   	pop    rax
   140003a96:	50                   	push   rax
   140003a97:	48 8d 05 a2 1c 01 00 	lea    rax,[rip+0x11ca2]        # 140015740 <L_p_XII_TERM_ARENA>
   140003a9e:	50                   	push   rax
   140003a9f:	48 8b 45 f8          	mov    rax,QWORD PTR [rbp-0x8]
   140003aa3:	50                   	push   rax
   140003aa4:	48 8b 05 c5 d6 00 00 	mov    rax,QWORD PTR [rip+0xd6c5]        # 140011170 <.rodata+0x138>
   140003aab:	50                   	push   rax
   140003aac:	59                   	pop    rcx
   140003aad:	58                   	pop    rax
   140003aae:	48 0f af c1          	imul   rax,rcx
   140003ab2:	50                   	push   rax
   140003ab3:	59                   	pop    rcx
   140003ab4:	58                   	pop    rax
   140003ab5:	5a                   	pop    rdx
   140003ab6:	48 89 14 c8          	mov    QWORD PTR [rax+rcx*8],rdx
   140003aba:	48 b8 00 00 00 00 00 	movabs rax,0x0
   140003ac1:	00 00 00 
   140003ac4:	50                   	push   rax
   140003ac5:	58                   	pop    rax
   140003ac6:	50                   	push   rax
   140003ac7:	50                   	push   rax
   140003ac8:	48 c7 c1 02 00 00 00 	mov    rcx,0x2
   140003acf:	48 83 ec 20          	sub    rsp,0x20
   140003ad3:	e8 e8 bc 00 00       	call   14000f7c0 <iii_witness_emit_kernel>
   140003ad8:	48 83 c4 20          	add    rsp,0x20
   140003adc:	58                   	pop    rax
   140003add:	58                   	pop    rax
   140003ade:	48 89 ec             	mov    rsp,rbp
   140003ae1:	5d                   	pop    rbp
   140003ae2:	c3                   	ret

0000000140003ae3 <L_p_xii_term_get_kind>:
   140003ae3:	55                   	push   rbp
   140003ae4:	48 89 e5             	mov    rbp,rsp
   140003ae7:	48 81 ec 00 04 00 00 	sub    rsp,0x400
   140003aee:	48 89 4d f8          	mov    QWORD PTR [rbp-0x8],rcx
   140003af2:	48 c7 c1 01 00 00 00 	mov    rcx,0x1
   140003af9:	48 83 ec 20          	sub    rsp,0x20
   140003afd:	e8 be bc 00 00       	call   14000f7c0 <iii_witness_emit_kernel>
   140003b02:	48 83 c4 20          	add    rsp,0x20
   140003b06:	48 8b 45 f8          	mov    rax,QWORD PTR [rbp-0x8]
   140003b0a:	50                   	push   rax
   140003b0b:	48 8b 05 6e d6 00 00 	mov    rax,QWORD PTR [rip+0xd66e]        # 140011180 <.rodata+0x148>
   140003b12:	50                   	push   rax
   140003b13:	59                   	pop    rcx
   140003b14:	58                   	pop    rax
   140003b15:	48 39 c8             	cmp    rax,rcx
   140003b18:	0f 9d c0             	setge  al
   140003b1b:	48 0f b6 c0          	movzx  rax,al
   140003b1f:	50                   	push   rax
   140003b20:	58                   	pop    rax
   140003b21:	48 85 c0             	test   rax,rax
   140003b24:	74 29                	je     140003b4f <L_p_xii_term_get_kind+0x6c>
   140003b26:	48 b8 00 00 00 00 00 	movabs rax,0x0
   140003b2d:	00 00 00 
   140003b30:	50                   	push   rax
   140003b31:	58                   	pop    rax
   140003b32:	50                   	push   rax
   140003b33:	50                   	push   rax
   140003b34:	48 c7 c1 02 00 00 00 	mov    rcx,0x2
   140003b3b:	48 83 ec 20          	sub    rsp,0x20
   140003b3f:	e8 7c bc 00 00       	call   14000f7c0 <iii_witness_emit_kernel>
   140003b44:	48 83 c4 20          	add    rsp,0x20
   140003b48:	58                   	pop    rax
   140003b49:	58                   	pop    rax
   140003b4a:	48 89 ec             	mov    rsp,rbp
   140003b4d:	5d                   	pop    rbp
   140003b4e:	c3                   	ret
   140003b4f:	48 8d 05 ea 1b 01 00 	lea    rax,[rip+0x11bea]        # 140015740 <L_p_XII_TERM_ARENA>
   140003b56:	50                   	push   rax
   140003b57:	48 8b 45 f8          	mov    rax,QWORD PTR [rbp-0x8]
   140003b5b:	50                   	push   rax
   140003b5c:	48 8b 05 0d d6 00 00 	mov    rax,QWORD PTR [rip+0xd60d]        # 140011170 <.rodata+0x138>
   140003b63:	50                   	push   rax
   140003b64:	59                   	pop    rcx
   140003b65:	58                   	pop    rax
   140003b66:	48 0f af c1          	imul   rax,rcx
   140003b6a:	50                   	push   rax
   140003b6b:	59                   	pop    rcx
   140003b6c:	58                   	pop    rax
   140003b6d:	48 8b 04 c8          	mov    rax,QWORD PTR [rax+rcx*8]
   140003b71:	50                   	push   rax
   140003b72:	58                   	pop    rax
   140003b73:	50                   	push   rax
   140003b74:	50                   	push   rax
   140003b75:	48 c7 c1 02 00 00 00 	mov    rcx,0x2
   140003b7c:	48 83 ec 20          	sub    rsp,0x20
   140003b80:	e8 3b bc 00 00       	call   14000f7c0 <iii_witness_emit_kernel>
   140003b85:	48 83 c4 20          	add    rsp,0x20
   140003b89:	58                   	pop    rax
   140003b8a:	58                   	pop    rax
   140003b8b:	48 89 ec             	mov    rsp,rbp
   140003b8e:	5d                   	pop    rbp
   140003b8f:	c3                   	ret

0000000140003b90 <L_p_xii_term_set_flags>:
   140003b90:	55                   	push   rbp
   140003b91:	48 89 e5             	mov    rbp,rsp
   140003b94:	48 81 ec 00 04 00 00 	sub    rsp,0x400
   140003b9b:	48 89 4d f8          	mov    QWORD PTR [rbp-0x8],rcx
   140003b9f:	48 89 55 f0          	mov    QWORD PTR [rbp-0x10],rdx
   140003ba3:	48 c7 c1 01 00 00 00 	mov    rcx,0x1
   140003baa:	48 83 ec 20          	sub    rsp,0x20
   140003bae:	e8 0d bc 00 00       	call   14000f7c0 <iii_witness_emit_kernel>
   140003bb3:	48 83 c4 20          	add    rsp,0x20
   140003bb7:	48 8b 45 f8          	mov    rax,QWORD PTR [rbp-0x8]
   140003bbb:	50                   	push   rax
   140003bbc:	48 8b 05 bd d5 00 00 	mov    rax,QWORD PTR [rip+0xd5bd]        # 140011180 <.rodata+0x148>
   140003bc3:	50                   	push   rax
   140003bc4:	59                   	pop    rcx
   140003bc5:	58                   	pop    rax
   140003bc6:	48 39 c8             	cmp    rax,rcx
   140003bc9:	0f 9d c0             	setge  al
   140003bcc:	48 0f b6 c0          	movzx  rax,al
   140003bd0:	50                   	push   rax
   140003bd1:	58                   	pop    rax
   140003bd2:	48 85 c0             	test   rax,rax
   140003bd5:	74 2e                	je     140003c05 <L_p_xii_term_set_flags+0x75>
   140003bd7:	48 b8 01 00 00 00 00 	movabs rax,0x1
   140003bde:	00 00 00 
   140003be1:	50                   	push   rax
   140003be2:	58                   	pop    rax
   140003be3:	48 f7 d8             	neg    rax
   140003be6:	50                   	push   rax
   140003be7:	58                   	pop    rax
   140003be8:	50                   	push   rax
   140003be9:	50                   	push   rax
   140003bea:	48 c7 c1 02 00 00 00 	mov    rcx,0x2
   140003bf1:	48 83 ec 20          	sub    rsp,0x20
   140003bf5:	e8 c6 bb 00 00       	call   14000f7c0 <iii_witness_emit_kernel>
   140003bfa:	48 83 c4 20          	add    rsp,0x20
   140003bfe:	58                   	pop    rax
   140003bff:	58                   	pop    rax
   140003c00:	48 89 ec             	mov    rsp,rbp
   140003c03:	5d                   	pop    rbp
   140003c04:	c3                   	ret
   140003c05:	48 8b 45 f0          	mov    rax,QWORD PTR [rbp-0x10]
   140003c09:	50                   	push   rax
   140003c0a:	58                   	pop    rax
   140003c0b:	50                   	push   rax
   140003c0c:	48 8d 05 2d 1b 01 00 	lea    rax,[rip+0x11b2d]        # 140015740 <L_p_XII_TERM_ARENA>
   140003c13:	50                   	push   rax
   140003c14:	48 8b 45 f8          	mov    rax,QWORD PTR [rbp-0x8]
   140003c18:	50                   	push   rax
   140003c19:	48 8b 05 50 d5 00 00 	mov    rax,QWORD PTR [rip+0xd550]        # 140011170 <.rodata+0x138>
   140003c20:	50                   	push   rax
   140003c21:	59                   	pop    rcx
   140003c22:	58                   	pop    rax
   140003c23:	48 0f af c1          	imul   rax,rcx
   140003c27:	50                   	push   rax
   140003c28:	48 b8 01 00 00 00 00 	movabs rax,0x1
   140003c2f:	00 00 00 
   140003c32:	50                   	push   rax
   140003c33:	59                   	pop    rcx
   140003c34:	58                   	pop    rax
   140003c35:	48 01 c8             	add    rax,rcx
   140003c38:	50                   	push   rax
   140003c39:	59                   	pop    rcx
   140003c3a:	58                   	pop    rax
   140003c3b:	5a                   	pop    rdx
   140003c3c:	48 89 14 c8          	mov    QWORD PTR [rax+rcx*8],rdx
   140003c40:	48 b8 00 00 00 00 00 	movabs rax,0x0
   140003c47:	00 00 00 
   140003c4a:	50                   	push   rax
   140003c4b:	58                   	pop    rax
   140003c4c:	50                   	push   rax
   140003c4d:	50                   	push   rax
   140003c4e:	48 c7 c1 02 00 00 00 	mov    rcx,0x2
   140003c55:	48 83 ec 20          	sub    rsp,0x20
   140003c59:	e8 62 bb 00 00       	call   14000f7c0 <iii_witness_emit_kernel>
   140003c5e:	48 83 c4 20          	add    rsp,0x20
   140003c62:	58                   	pop    rax
   140003c63:	58                   	pop    rax
   140003c64:	48 89 ec             	mov    rsp,rbp
   140003c67:	5d                   	pop    rbp
   140003c68:	c3                   	ret

0000000140003c69 <L_p_xii_term_get_flags>:
   140003c69:	55                   	push   rbp
   140003c6a:	48 89 e5             	mov    rbp,rsp
   140003c6d:	48 81 ec 00 04 00 00 	sub    rsp,0x400
   140003c74:	48 89 4d f8          	mov    QWORD PTR [rbp-0x8],rcx
   140003c78:	48 c7 c1 01 00 00 00 	mov    rcx,0x1
   140003c7f:	48 83 ec 20          	sub    rsp,0x20
   140003c83:	e8 38 bb 00 00       	call   14000f7c0 <iii_witness_emit_kernel>
   140003c88:	48 83 c4 20          	add    rsp,0x20
   140003c8c:	48 8b 45 f8          	mov    rax,QWORD PTR [rbp-0x8]
   140003c90:	50                   	push   rax
   140003c91:	48 8b 05 e8 d4 00 00 	mov    rax,QWORD PTR [rip+0xd4e8]        # 140011180 <.rodata+0x148>
   140003c98:	50                   	push   rax
   140003c99:	59                   	pop    rcx
   140003c9a:	58                   	pop    rax
   140003c9b:	48 39 c8             	cmp    rax,rcx
   140003c9e:	0f 9d c0             	setge  al
   140003ca1:	48 0f b6 c0          	movzx  rax,al
   140003ca5:	50                   	push   rax
   140003ca6:	58                   	pop    rax
   140003ca7:	48 85 c0             	test   rax,rax
   140003caa:	74 29                	je     140003cd5 <L_p_xii_term_get_flags+0x6c>
   140003cac:	48 b8 00 00 00 00 00 	movabs rax,0x0
   140003cb3:	00 00 00 
   140003cb6:	50                   	push   rax
   140003cb7:	58                   	pop    rax
   140003cb8:	50                   	push   rax
   140003cb9:	50                   	push   rax
   140003cba:	48 c7 c1 02 00 00 00 	mov    rcx,0x2
   140003cc1:	48 83 ec 20          	sub    rsp,0x20
   140003cc5:	e8 f6 ba 00 00       	call   14000f7c0 <iii_witness_emit_kernel>
   140003cca:	48 83 c4 20          	add    rsp,0x20
   140003cce:	58                   	pop    rax
   140003ccf:	58                   	pop    rax
   140003cd0:	48 89 ec             	mov    rsp,rbp
   140003cd3:	5d                   	pop    rbp
   140003cd4:	c3                   	ret
   140003cd5:	48 8d 05 64 1a 01 00 	lea    rax,[rip+0x11a64]        # 140015740 <L_p_XII_TERM_ARENA>
   140003cdc:	50                   	push   rax
   140003cdd:	48 8b 45 f8          	mov    rax,QWORD PTR [rbp-0x8]
   140003ce1:	50                   	push   rax
   140003ce2:	48 8b 05 87 d4 00 00 	mov    rax,QWORD PTR [rip+0xd487]        # 140011170 <.rodata+0x138>
   140003ce9:	50                   	push   rax
   140003cea:	59                   	pop    rcx
   140003ceb:	58                   	pop    rax
   140003cec:	48 0f af c1          	imul   rax,rcx
   140003cf0:	50                   	push   rax
   140003cf1:	48 b8 01 00 00 00 00 	movabs rax,0x1
   140003cf8:	00 00 00 
   140003cfb:	50                   	push   rax
   140003cfc:	59                   	pop    rcx
   140003cfd:	58                   	pop    rax
   140003cfe:	48 01 c8             	add    rax,rcx
   140003d01:	50                   	push   rax
   140003d02:	59                   	pop    rcx
   140003d03:	58                   	pop    rax
   140003d04:	48 8b 04 c8          	mov    rax,QWORD PTR [rax+rcx*8]
   140003d08:	50                   	push   rax
   140003d09:	58                   	pop    rax
   140003d0a:	50                   	push   rax
   140003d0b:	50                   	push   rax
   140003d0c:	48 c7 c1 02 00 00 00 	mov    rcx,0x2
   140003d13:	48 83 ec 20          	sub    rsp,0x20
   140003d17:	e8 a4 ba 00 00       	call   14000f7c0 <iii_witness_emit_kernel>
   140003d1c:	48 83 c4 20          	add    rsp,0x20
   140003d20:	58                   	pop    rax
   140003d21:	58                   	pop    rax
   140003d22:	48 89 ec             	mov    rsp,rbp
   140003d25:	5d                   	pop    rbp
   140003d26:	c3                   	ret

0000000140003d27 <L_p_xii_term_set_hexad>:
   140003d27:	55                   	push   rbp
   140003d28:	48 89 e5             	mov    rbp,rsp
   140003d2b:	48 81 ec 00 04 00 00 	sub    rsp,0x400
   140003d32:	48 89 4d f8          	mov    QWORD PTR [rbp-0x8],rcx
   140003d36:	48 89 55 f0          	mov    QWORD PTR [rbp-0x10],rdx
   140003d3a:	48 c7 c1 01 00 00 00 	mov    rcx,0x1
   140003d41:	48 83 ec 20          	sub    rsp,0x20
   140003d45:	e8 76 ba 00 00       	call   14000f7c0 <iii_witness_emit_kernel>
   140003d4a:	48 83 c4 20          	add    rsp,0x20
   140003d4e:	48 8b 45 f8          	mov    rax,QWORD PTR [rbp-0x8]
   140003d52:	50                   	push   rax
   140003d53:	48 8b 05 26 d4 00 00 	mov    rax,QWORD PTR [rip+0xd426]        # 140011180 <.rodata+0x148>
   140003d5a:	50                   	push   rax
   140003d5b:	59                   	pop    rcx
   140003d5c:	58                   	pop    rax
   140003d5d:	48 39 c8             	cmp    rax,rcx
   140003d60:	0f 9d c0             	setge  al
   140003d63:	48 0f b6 c0          	movzx  rax,al
   140003d67:	50                   	push   rax
   140003d68:	58                   	pop    rax
   140003d69:	48 85 c0             	test   rax,rax
   140003d6c:	74 2e                	je     140003d9c <L_p_xii_term_set_hexad+0x75>
   140003d6e:	48 b8 01 00 00 00 00 	movabs rax,0x1
   140003d75:	00 00 00 
   140003d78:	50                   	push   rax
   140003d79:	58                   	pop    rax
   140003d7a:	48 f7 d8             	neg    rax
   140003d7d:	50                   	push   rax
   140003d7e:	58                   	pop    rax
   140003d7f:	50                   	push   rax
   140003d80:	50                   	push   rax
   140003d81:	48 c7 c1 02 00 00 00 	mov    rcx,0x2
   140003d88:	48 83 ec 20          	sub    rsp,0x20
   140003d8c:	e8 2f ba 00 00       	call   14000f7c0 <iii_witness_emit_kernel>
   140003d91:	48 83 c4 20          	add    rsp,0x20
   140003d95:	58                   	pop    rax
   140003d96:	58                   	pop    rax
   140003d97:	48 89 ec             	mov    rsp,rbp
   140003d9a:	5d                   	pop    rbp
   140003d9b:	c3                   	ret
   140003d9c:	48 8b 45 f0          	mov    rax,QWORD PTR [rbp-0x10]
   140003da0:	50                   	push   rax
   140003da1:	58                   	pop    rax
   140003da2:	50                   	push   rax
   140003da3:	48 8d 05 96 19 01 00 	lea    rax,[rip+0x11996]        # 140015740 <L_p_XII_TERM_ARENA>
   140003daa:	50                   	push   rax
   140003dab:	48 8b 45 f8          	mov    rax,QWORD PTR [rbp-0x8]
   140003daf:	50                   	push   rax
   140003db0:	48 8b 05 b9 d3 00 00 	mov    rax,QWORD PTR [rip+0xd3b9]        # 140011170 <.rodata+0x138>
   140003db7:	50                   	push   rax
   140003db8:	59                   	pop    rcx
   140003db9:	58                   	pop    rax
   140003dba:	48 0f af c1          	imul   rax,rcx
   140003dbe:	50                   	push   rax
   140003dbf:	48 b8 02 00 00 00 00 	movabs rax,0x2
   140003dc6:	00 00 00 
   140003dc9:	50                   	push   rax
   140003dca:	59                   	pop    rcx
   140003dcb:	58                   	pop    rax
   140003dcc:	48 01 c8             	add    rax,rcx
   140003dcf:	50                   	push   rax
   140003dd0:	59                   	pop    rcx
   140003dd1:	58                   	pop    rax
   140003dd2:	5a                   	pop    rdx
   140003dd3:	48 89 14 c8          	mov    QWORD PTR [rax+rcx*8],rdx
   140003dd7:	48 8b 45 f8          	mov    rax,QWORD PTR [rbp-0x8]
   140003ddb:	50                   	push   rax
   140003ddc:	59                   	pop    rcx
   140003ddd:	48 83 ec 20          	sub    rsp,0x20
   140003de1:	e8 83 fe ff ff       	call   140003c69 <L_p_xii_term_get_flags>
   140003de6:	48 83 c4 20          	add    rsp,0x20
   140003dea:	50                   	push   rax
   140003deb:	58                   	pop    rax
   140003dec:	48 89 45 e8          	mov    QWORD PTR [rbp-0x18],rax
   140003df0:	48 8b 45 f8          	mov    rax,QWORD PTR [rbp-0x8]
   140003df4:	50                   	push   rax
   140003df5:	48 8b 45 e8          	mov    rax,QWORD PTR [rbp-0x18]
   140003df9:	50                   	push   rax
   140003dfa:	48 8b 05 67 d3 00 00 	mov    rax,QWORD PTR [rip+0xd367]        # 140011168 <.rodata+0x130>
   140003e01:	50                   	push   rax
   140003e02:	59                   	pop    rcx
   140003e03:	58                   	pop    rax
   140003e04:	48 09 c8             	or     rax,rcx
   140003e07:	50                   	push   rax
   140003e08:	5a                   	pop    rdx
   140003e09:	59                   	pop    rcx
   140003e0a:	48 83 ec 20          	sub    rsp,0x20
   140003e0e:	e8 7d fd ff ff       	call   140003b90 <L_p_xii_term_set_flags>
   140003e13:	48 83 c4 20          	add    rsp,0x20
   140003e17:	50                   	push   rax
   140003e18:	58                   	pop    rax
   140003e19:	48 b8 00 00 00 00 00 	movabs rax,0x0
   140003e20:	00 00 00 
   140003e23:	50                   	push   rax
   140003e24:	58                   	pop    rax
   140003e25:	50                   	push   rax
   140003e26:	50                   	push   rax
   140003e27:	48 c7 c1 02 00 00 00 	mov    rcx,0x2
   140003e2e:	48 83 ec 20          	sub    rsp,0x20
   140003e32:	e8 89 b9 00 00       	call   14000f7c0 <iii_witness_emit_kernel>
   140003e37:	48 83 c4 20          	add    rsp,0x20
   140003e3b:	58                   	pop    rax
   140003e3c:	58                   	pop    rax
   140003e3d:	48 89 ec             	mov    rsp,rbp
   140003e40:	5d                   	pop    rbp
   140003e41:	c3                   	ret

0000000140003e42 <L_p_xii_term_get_hexad>:
   140003e42:	55                   	push   rbp
   140003e43:	48 89 e5             	mov    rbp,rsp
   140003e46:	48 81 ec 00 04 00 00 	sub    rsp,0x400
   140003e4d:	48 89 4d f8          	mov    QWORD PTR [rbp-0x8],rcx
   140003e51:	48 c7 c1 01 00 00 00 	mov    rcx,0x1
   140003e58:	48 83 ec 20          	sub    rsp,0x20
   140003e5c:	e8 5f b9 00 00       	call   14000f7c0 <iii_witness_emit_kernel>
   140003e61:	48 83 c4 20          	add    rsp,0x20
   140003e65:	48 8b 45 f8          	mov    rax,QWORD PTR [rbp-0x8]
   140003e69:	50                   	push   rax
   140003e6a:	48 8b 05 0f d3 00 00 	mov    rax,QWORD PTR [rip+0xd30f]        # 140011180 <.rodata+0x148>
   140003e71:	50                   	push   rax
   140003e72:	59                   	pop    rcx
   140003e73:	58                   	pop    rax
   140003e74:	48 39 c8             	cmp    rax,rcx
   140003e77:	0f 9d c0             	setge  al
   140003e7a:	48 0f b6 c0          	movzx  rax,al
   140003e7e:	50                   	push   rax
   140003e7f:	58                   	pop    rax
   140003e80:	48 85 c0             	test   rax,rax
   140003e83:	74 29                	je     140003eae <L_p_xii_term_get_hexad+0x6c>
   140003e85:	48 b8 00 00 00 00 00 	movabs rax,0x0
   140003e8c:	00 00 00 
   140003e8f:	50                   	push   rax
   140003e90:	58                   	pop    rax
   140003e91:	50                   	push   rax
   140003e92:	50                   	push   rax
   140003e93:	48 c7 c1 02 00 00 00 	mov    rcx,0x2
   140003e9a:	48 83 ec 20          	sub    rsp,0x20
   140003e9e:	e8 1d b9 00 00       	call   14000f7c0 <iii_witness_emit_kernel>
   140003ea3:	48 83 c4 20          	add    rsp,0x20
   140003ea7:	58                   	pop    rax
   140003ea8:	58                   	pop    rax
   140003ea9:	48 89 ec             	mov    rsp,rbp
   140003eac:	5d                   	pop    rbp
   140003ead:	c3                   	ret
   140003eae:	48 8d 05 8b 18 01 00 	lea    rax,[rip+0x1188b]        # 140015740 <L_p_XII_TERM_ARENA>
   140003eb5:	50                   	push   rax
   140003eb6:	48 8b 45 f8          	mov    rax,QWORD PTR [rbp-0x8]
   140003eba:	50                   	push   rax
   140003ebb:	48 8b 05 ae d2 00 00 	mov    rax,QWORD PTR [rip+0xd2ae]        # 140011170 <.rodata+0x138>
   140003ec2:	50                   	push   rax
   140003ec3:	59                   	pop    rcx
   140003ec4:	58                   	pop    rax
   140003ec5:	48 0f af c1          	imul   rax,rcx
   140003ec9:	50                   	push   rax
   140003eca:	48 b8 02 00 00 00 00 	movabs rax,0x2
   140003ed1:	00 00 00 
   140003ed4:	50                   	push   rax
   140003ed5:	59                   	pop    rcx
   140003ed6:	58                   	pop    rax
   140003ed7:	48 01 c8             	add    rax,rcx
   140003eda:	50                   	push   rax
   140003edb:	59                   	pop    rcx
   140003edc:	58                   	pop    rax
   140003edd:	48 8b 04 c8          	mov    rax,QWORD PTR [rax+rcx*8]
   140003ee1:	50                   	push   rax
   140003ee2:	58                   	pop    rax
   140003ee3:	50                   	push   rax
   140003ee4:	50                   	push   rax
   140003ee5:	48 c7 c1 02 00 00 00 	mov    rcx,0x2
   140003eec:	48 83 ec 20          	sub    rsp,0x20
   140003ef0:	e8 cb b8 00 00       	call   14000f7c0 <iii_witness_emit_kernel>
   140003ef5:	48 83 c4 20          	add    rsp,0x20
   140003ef9:	58                   	pop    rax
   140003efa:	58                   	pop    rax
   140003efb:	48 89 ec             	mov    rsp,rbp
   140003efe:	5d                   	pop    rbp
   140003eff:	c3                   	ret

0000000140003f00 <L_p_xii_term_set_subform>:
   140003f00:	55                   	push   rbp
   140003f01:	48 89 e5             	mov    rbp,rsp
   140003f04:	48 81 ec 00 04 00 00 	sub    rsp,0x400
   140003f0b:	48 89 4d f8          	mov    QWORD PTR [rbp-0x8],rcx
   140003f0f:	48 89 55 f0          	mov    QWORD PTR [rbp-0x10],rdx
   140003f13:	48 c7 c1 01 00 00 00 	mov    rcx,0x1
   140003f1a:	48 83 ec 20          	sub    rsp,0x20
   140003f1e:	e8 9d b8 00 00       	call   14000f7c0 <iii_witness_emit_kernel>
   140003f23:	48 83 c4 20          	add    rsp,0x20
   140003f27:	48 8b 45 f8          	mov    rax,QWORD PTR [rbp-0x8]
   140003f2b:	50                   	push   rax
   140003f2c:	48 8b 05 4d d2 00 00 	mov    rax,QWORD PTR [rip+0xd24d]        # 140011180 <.rodata+0x148>
   140003f33:	50                   	push   rax
   140003f34:	59                   	pop    rcx
   140003f35:	58                   	pop    rax
   140003f36:	48 39 c8             	cmp    rax,rcx
   140003f39:	0f 9d c0             	setge  al
   140003f3c:	48 0f b6 c0          	movzx  rax,al
   140003f40:	50                   	push   rax
   140003f41:	58                   	pop    rax
   140003f42:	48 85 c0             	test   rax,rax
   140003f45:	74 2e                	je     140003f75 <L_p_xii_term_set_subform+0x75>
   140003f47:	48 b8 01 00 00 00 00 	movabs rax,0x1
   140003f4e:	00 00 00 
   140003f51:	50                   	push   rax
   140003f52:	58                   	pop    rax
   140003f53:	48 f7 d8             	neg    rax
   140003f56:	50                   	push   rax
   140003f57:	58                   	pop    rax
   140003f58:	50                   	push   rax
   140003f59:	50                   	push   rax
   140003f5a:	48 c7 c1 02 00 00 00 	mov    rcx,0x2
   140003f61:	48 83 ec 20          	sub    rsp,0x20
   140003f65:	e8 56 b8 00 00       	call   14000f7c0 <iii_witness_emit_kernel>
   140003f6a:	48 83 c4 20          	add    rsp,0x20
   140003f6e:	58                   	pop    rax
   140003f6f:	58                   	pop    rax
   140003f70:	48 89 ec             	mov    rsp,rbp
   140003f73:	5d                   	pop    rbp
   140003f74:	c3                   	ret
   140003f75:	48 8b 45 f8          	mov    rax,QWORD PTR [rbp-0x8]
   140003f79:	50                   	push   rax
   140003f7a:	48 8b 05 ef d1 00 00 	mov    rax,QWORD PTR [rip+0xd1ef]        # 140011170 <.rodata+0x138>
   140003f81:	50                   	push   rax
   140003f82:	59                   	pop    rcx
   140003f83:	58                   	pop    rax
   140003f84:	48 0f af c1          	imul   rax,rcx
   140003f88:	50                   	push   rax
   140003f89:	48 b8 04 00 00 00 00 	movabs rax,0x4
   140003f90:	00 00 00 
   140003f93:	50                   	push   rax
   140003f94:	59                   	pop    rcx
   140003f95:	58                   	pop    rax
   140003f96:	48 01 c8             	add    rax,rcx
   140003f99:	50                   	push   rax
   140003f9a:	48 8b 45 f0          	mov    rax,QWORD PTR [rbp-0x10]
   140003f9e:	50                   	push   rax
   140003f9f:	5a                   	pop    rdx
   140003fa0:	59                   	pop    rcx
   140003fa1:	48 83 ec 20          	sub    rsp,0x20
   140003fa5:	e8 59 f4 ff ff       	call   140003403 <L_p__xii_term_write_u32>
   140003faa:	48 83 c4 20          	add    rsp,0x20
   140003fae:	50                   	push   rax
   140003faf:	58                   	pop    rax
   140003fb0:	48 b8 00 00 00 00 00 	movabs rax,0x0
   140003fb7:	00 00 00 
   140003fba:	50                   	push   rax
   140003fbb:	58                   	pop    rax
   140003fbc:	50                   	push   rax
   140003fbd:	50                   	push   rax
   140003fbe:	48 c7 c1 02 00 00 00 	mov    rcx,0x2
   140003fc5:	48 83 ec 20          	sub    rsp,0x20
   140003fc9:	e8 f2 b7 00 00       	call   14000f7c0 <iii_witness_emit_kernel>
   140003fce:	48 83 c4 20          	add    rsp,0x20
   140003fd2:	58                   	pop    rax
   140003fd3:	58                   	pop    rax
   140003fd4:	48 89 ec             	mov    rsp,rbp
   140003fd7:	5d                   	pop    rbp
   140003fd8:	c3                   	ret

0000000140003fd9 <L_p_xii_term_get_subform>:
   140003fd9:	55                   	push   rbp
   140003fda:	48 89 e5             	mov    rbp,rsp
   140003fdd:	48 81 ec 00 04 00 00 	sub    rsp,0x400
   140003fe4:	48 89 4d f8          	mov    QWORD PTR [rbp-0x8],rcx
   140003fe8:	48 c7 c1 01 00 00 00 	mov    rcx,0x1
   140003fef:	48 83 ec 20          	sub    rsp,0x20
   140003ff3:	e8 c8 b7 00 00       	call   14000f7c0 <iii_witness_emit_kernel>
   140003ff8:	48 83 c4 20          	add    rsp,0x20
   140003ffc:	48 8b 45 f8          	mov    rax,QWORD PTR [rbp-0x8]
   140004000:	50                   	push   rax
   140004001:	48 8b 05 78 d1 00 00 	mov    rax,QWORD PTR [rip+0xd178]        # 140011180 <.rodata+0x148>
   140004008:	50                   	push   rax
   140004009:	59                   	pop    rcx
   14000400a:	58                   	pop    rax
   14000400b:	48 39 c8             	cmp    rax,rcx
   14000400e:	0f 9d c0             	setge  al
   140004011:	48 0f b6 c0          	movzx  rax,al
   140004015:	50                   	push   rax
   140004016:	58                   	pop    rax
   140004017:	48 85 c0             	test   rax,rax
   14000401a:	74 29                	je     140004045 <L_p_xii_term_get_subform+0x6c>
   14000401c:	48 b8 00 00 00 00 00 	movabs rax,0x0
   140004023:	00 00 00 
   140004026:	50                   	push   rax
   140004027:	58                   	pop    rax
   140004028:	50                   	push   rax
   140004029:	50                   	push   rax
   14000402a:	48 c7 c1 02 00 00 00 	mov    rcx,0x2
   140004031:	48 83 ec 20          	sub    rsp,0x20
   140004035:	e8 86 b7 00 00       	call   14000f7c0 <iii_witness_emit_kernel>
   14000403a:	48 83 c4 20          	add    rsp,0x20
   14000403e:	58                   	pop    rax
   14000403f:	58                   	pop    rax
   140004040:	48 89 ec             	mov    rsp,rbp
   140004043:	5d                   	pop    rbp
   140004044:	c3                   	ret
   140004045:	48 8b 45 f8          	mov    rax,QWORD PTR [rbp-0x8]
   140004049:	50                   	push   rax
   14000404a:	48 8b 05 1f d1 00 00 	mov    rax,QWORD PTR [rip+0xd11f]        # 140011170 <.rodata+0x138>
   140004051:	50                   	push   rax
   140004052:	59                   	pop    rcx
   140004053:	58                   	pop    rax
   140004054:	48 0f af c1          	imul   rax,rcx
   140004058:	50                   	push   rax
   140004059:	48 b8 04 00 00 00 00 	movabs rax,0x4
   140004060:	00 00 00 
   140004063:	50                   	push   rax
   140004064:	59                   	pop    rcx
   140004065:	58                   	pop    rax
   140004066:	48 01 c8             	add    rax,rcx
   140004069:	50                   	push   rax
   14000406a:	59                   	pop    rcx
   14000406b:	48 83 ec 20          	sub    rsp,0x20
   14000406f:	e8 6a f4 ff ff       	call   1400034de <L_p__xii_term_read_u32>
   140004074:	48 83 c4 20          	add    rsp,0x20
   140004078:	50                   	push   rax
   140004079:	58                   	pop    rax
   14000407a:	50                   	push   rax
   14000407b:	50                   	push   rax
   14000407c:	48 c7 c1 02 00 00 00 	mov    rcx,0x2
   140004083:	48 83 ec 20          	sub    rsp,0x20
   140004087:	e8 34 b7 00 00       	call   14000f7c0 <iii_witness_emit_kernel>
   14000408c:	48 83 c4 20          	add    rsp,0x20
   140004090:	58                   	pop    rax
   140004091:	58                   	pop    rax
   140004092:	48 89 ec             	mov    rsp,rbp
   140004095:	5d                   	pop    rbp
   140004096:	c3                   	ret

0000000140004097 <L_p_xii_term_set_child_a>:
   140004097:	55                   	push   rbp
   140004098:	48 89 e5             	mov    rbp,rsp
   14000409b:	48 81 ec 00 04 00 00 	sub    rsp,0x400
   1400040a2:	48 89 4d f8          	mov    QWORD PTR [rbp-0x8],rcx
   1400040a6:	48 89 55 f0          	mov    QWORD PTR [rbp-0x10],rdx
   1400040aa:	48 c7 c1 01 00 00 00 	mov    rcx,0x1
   1400040b1:	48 83 ec 20          	sub    rsp,0x20
   1400040b5:	e8 06 b7 00 00       	call   14000f7c0 <iii_witness_emit_kernel>
   1400040ba:	48 83 c4 20          	add    rsp,0x20
   1400040be:	48 8b 45 f8          	mov    rax,QWORD PTR [rbp-0x8]
   1400040c2:	50                   	push   rax
   1400040c3:	48 8b 05 b6 d0 00 00 	mov    rax,QWORD PTR [rip+0xd0b6]        # 140011180 <.rodata+0x148>
   1400040ca:	50                   	push   rax
   1400040cb:	59                   	pop    rcx
   1400040cc:	58                   	pop    rax
   1400040cd:	48 39 c8             	cmp    rax,rcx
   1400040d0:	0f 9d c0             	setge  al
   1400040d3:	48 0f b6 c0          	movzx  rax,al
   1400040d7:	50                   	push   rax
   1400040d8:	58                   	pop    rax
   1400040d9:	48 85 c0             	test   rax,rax
   1400040dc:	74 2e                	je     14000410c <L_p_xii_term_set_child_a+0x75>
   1400040de:	48 b8 01 00 00 00 00 	movabs rax,0x1
   1400040e5:	00 00 00 
   1400040e8:	50                   	push   rax
   1400040e9:	58                   	pop    rax
   1400040ea:	48 f7 d8             	neg    rax
   1400040ed:	50                   	push   rax
   1400040ee:	58                   	pop    rax
   1400040ef:	50                   	push   rax
   1400040f0:	50                   	push   rax
   1400040f1:	48 c7 c1 02 00 00 00 	mov    rcx,0x2
   1400040f8:	48 83 ec 20          	sub    rsp,0x20
   1400040fc:	e8 bf b6 00 00       	call   14000f7c0 <iii_witness_emit_kernel>
   140004101:	48 83 c4 20          	add    rsp,0x20
   140004105:	58                   	pop    rax
   140004106:	58                   	pop    rax
   140004107:	48 89 ec             	mov    rsp,rbp
   14000410a:	5d                   	pop    rbp
   14000410b:	c3                   	ret
   14000410c:	48 8b 45 f8          	mov    rax,QWORD PTR [rbp-0x8]
   140004110:	50                   	push   rax
   140004111:	48 8b 05 58 d0 00 00 	mov    rax,QWORD PTR [rip+0xd058]        # 140011170 <.rodata+0x138>
   140004118:	50                   	push   rax
   140004119:	59                   	pop    rcx
   14000411a:	58                   	pop    rax
   14000411b:	48 0f af c1          	imul   rax,rcx
   14000411f:	50                   	push   rax
   140004120:	48 b8 08 00 00 00 00 	movabs rax,0x8
   140004127:	00 00 00 
   14000412a:	50                   	push   rax
   14000412b:	59                   	pop    rcx
   14000412c:	58                   	pop    rax
   14000412d:	48 01 c8             	add    rax,rcx
   140004130:	50                   	push   rax
   140004131:	48 8b 45 f0          	mov    rax,QWORD PTR [rbp-0x10]
   140004135:	50                   	push   rax
   140004136:	5a                   	pop    rdx
   140004137:	59                   	pop    rcx
   140004138:	48 83 ec 20          	sub    rsp,0x20
   14000413c:	e8 c2 f2 ff ff       	call   140003403 <L_p__xii_term_write_u32>
   140004141:	48 83 c4 20          	add    rsp,0x20
   140004145:	50                   	push   rax
   140004146:	58                   	pop    rax
   140004147:	48 b8 00 00 00 00 00 	movabs rax,0x0
   14000414e:	00 00 00 
   140004151:	50                   	push   rax
   140004152:	58                   	pop    rax
   140004153:	50                   	push   rax
   140004154:	50                   	push   rax
   140004155:	48 c7 c1 02 00 00 00 	mov    rcx,0x2
   14000415c:	48 83 ec 20          	sub    rsp,0x20
   140004160:	e8 5b b6 00 00       	call   14000f7c0 <iii_witness_emit_kernel>
   140004165:	48 83 c4 20          	add    rsp,0x20
   140004169:	58                   	pop    rax
   14000416a:	58                   	pop    rax
   14000416b:	48 89 ec             	mov    rsp,rbp
   14000416e:	5d                   	pop    rbp
   14000416f:	c3                   	ret

0000000140004170 <L_p_xii_term_get_child_a>:
   140004170:	55                   	push   rbp
   140004171:	48 89 e5             	mov    rbp,rsp
   140004174:	48 81 ec 00 04 00 00 	sub    rsp,0x400
   14000417b:	48 89 4d f8          	mov    QWORD PTR [rbp-0x8],rcx
   14000417f:	48 c7 c1 01 00 00 00 	mov    rcx,0x1
   140004186:	48 83 ec 20          	sub    rsp,0x20
   14000418a:	e8 31 b6 00 00       	call   14000f7c0 <iii_witness_emit_kernel>
   14000418f:	48 83 c4 20          	add    rsp,0x20
   140004193:	48 8b 45 f8          	mov    rax,QWORD PTR [rbp-0x8]
   140004197:	50                   	push   rax
   140004198:	48 8b 05 e1 cf 00 00 	mov    rax,QWORD PTR [rip+0xcfe1]        # 140011180 <.rodata+0x148>
   14000419f:	50                   	push   rax
   1400041a0:	59                   	pop    rcx
   1400041a1:	58                   	pop    rax
   1400041a2:	48 39 c8             	cmp    rax,rcx
   1400041a5:	0f 9d c0             	setge  al
   1400041a8:	48 0f b6 c0          	movzx  rax,al
   1400041ac:	50                   	push   rax
   1400041ad:	58                   	pop    rax
   1400041ae:	48 85 c0             	test   rax,rax
   1400041b1:	74 26                	je     1400041d9 <L_p_xii_term_get_child_a+0x69>
   1400041b3:	48 8b 05 4e cf 00 00 	mov    rax,QWORD PTR [rip+0xcf4e]        # 140011108 <.rodata+0xd0>
   1400041ba:	50                   	push   rax
   1400041bb:	58                   	pop    rax
   1400041bc:	50                   	push   rax
   1400041bd:	50                   	push   rax
   1400041be:	48 c7 c1 02 00 00 00 	mov    rcx,0x2
   1400041c5:	48 83 ec 20          	sub    rsp,0x20
   1400041c9:	e8 f2 b5 00 00       	call   14000f7c0 <iii_witness_emit_kernel>
   1400041ce:	48 83 c4 20          	add    rsp,0x20
   1400041d2:	58                   	pop    rax
   1400041d3:	58                   	pop    rax
   1400041d4:	48 89 ec             	mov    rsp,rbp
   1400041d7:	5d                   	pop    rbp
   1400041d8:	c3                   	ret
   1400041d9:	48 8b 45 f8          	mov    rax,QWORD PTR [rbp-0x8]
   1400041dd:	50                   	push   rax
   1400041de:	48 8b 05 8b cf 00 00 	mov    rax,QWORD PTR [rip+0xcf8b]        # 140011170 <.rodata+0x138>
   1400041e5:	50                   	push   rax
   1400041e6:	59                   	pop    rcx
   1400041e7:	58                   	pop    rax
   1400041e8:	48 0f af c1          	imul   rax,rcx
   1400041ec:	50                   	push   rax
   1400041ed:	48 b8 08 00 00 00 00 	movabs rax,0x8
   1400041f4:	00 00 00 
   1400041f7:	50                   	push   rax
   1400041f8:	59                   	pop    rcx
   1400041f9:	58                   	pop    rax
   1400041fa:	48 01 c8             	add    rax,rcx
   1400041fd:	50                   	push   rax
   1400041fe:	59                   	pop    rcx
   1400041ff:	48 83 ec 20          	sub    rsp,0x20
   140004203:	e8 d6 f2 ff ff       	call   1400034de <L_p__xii_term_read_u32>
   140004208:	48 83 c4 20          	add    rsp,0x20
   14000420c:	50                   	push   rax
   14000420d:	58                   	pop    rax
   14000420e:	50                   	push   rax
   14000420f:	50                   	push   rax
   140004210:	48 c7 c1 02 00 00 00 	mov    rcx,0x2
   140004217:	48 83 ec 20          	sub    rsp,0x20
   14000421b:	e8 a0 b5 00 00       	call   14000f7c0 <iii_witness_emit_kernel>
   140004220:	48 83 c4 20          	add    rsp,0x20
   140004224:	58                   	pop    rax
   140004225:	58                   	pop    rax
   140004226:	48 89 ec             	mov    rsp,rbp
   140004229:	5d                   	pop    rbp
   14000422a:	c3                   	ret

000000014000422b <L_p_xii_term_set_child_b>:
   14000422b:	55                   	push   rbp
   14000422c:	48 89 e5             	mov    rbp,rsp
   14000422f:	48 81 ec 00 04 00 00 	sub    rsp,0x400
   140004236:	48 89 4d f8          	mov    QWORD PTR [rbp-0x8],rcx
   14000423a:	48 89 55 f0          	mov    QWORD PTR [rbp-0x10],rdx
   14000423e:	48 c7 c1 01 00 00 00 	mov    rcx,0x1
   140004245:	48 83 ec 20          	sub    rsp,0x20
   140004249:	e8 72 b5 00 00       	call   14000f7c0 <iii_witness_emit_kernel>
   14000424e:	48 83 c4 20          	add    rsp,0x20
   140004252:	48 8b 45 f8          	mov    rax,QWORD PTR [rbp-0x8]
   140004256:	50                   	push   rax
   140004257:	48 8b 05 22 cf 00 00 	mov    rax,QWORD PTR [rip+0xcf22]        # 140011180 <.rodata+0x148>
   14000425e:	50                   	push   rax
   14000425f:	59                   	pop    rcx
   140004260:	58                   	pop    rax
   140004261:	48 39 c8             	cmp    rax,rcx
   140004264:	0f 9d c0             	setge  al
   140004267:	48 0f b6 c0          	movzx  rax,al
   14000426b:	50                   	push   rax
   14000426c:	58                   	pop    rax
   14000426d:	48 85 c0             	test   rax,rax
   140004270:	74 2e                	je     1400042a0 <L_p_xii_term_set_child_b+0x75>
   140004272:	48 b8 01 00 00 00 00 	movabs rax,0x1
   140004279:	00 00 00 
   14000427c:	50                   	push   rax
   14000427d:	58                   	pop    rax
   14000427e:	48 f7 d8             	neg    rax
   140004281:	50                   	push   rax
   140004282:	58                   	pop    rax
   140004283:	50                   	push   rax
   140004284:	50                   	push   rax
   140004285:	48 c7 c1 02 00 00 00 	mov    rcx,0x2
   14000428c:	48 83 ec 20          	sub    rsp,0x20
   140004290:	e8 2b b5 00 00       	call   14000f7c0 <iii_witness_emit_kernel>
   140004295:	48 83 c4 20          	add    rsp,0x20
   140004299:	58                   	pop    rax
   14000429a:	58                   	pop    rax
   14000429b:	48 89 ec             	mov    rsp,rbp
   14000429e:	5d                   	pop    rbp
   14000429f:	c3                   	ret
   1400042a0:	48 8b 45 f8          	mov    rax,QWORD PTR [rbp-0x8]
   1400042a4:	50                   	push   rax
   1400042a5:	48 8b 05 c4 ce 00 00 	mov    rax,QWORD PTR [rip+0xcec4]        # 140011170 <.rodata+0x138>
   1400042ac:	50                   	push   rax
   1400042ad:	59                   	pop    rcx
   1400042ae:	58                   	pop    rax
   1400042af:	48 0f af c1          	imul   rax,rcx
   1400042b3:	50                   	push   rax
