# III Stage-0 Ring-0 codegen output (Windows kernel-mode .sys)
# Output binary: iiis-0.sys
    .att_syntax
    .section .rdata,"dr"
L_str_0:
    .ascii "hexad_algebra.iiihexad_pfs.iiisha256.iii\0"
L_str_1:
    .ascii "hexad_pfs.iiisha256.iii\0"
L_str_2:
    .ascii "sha256.iii\0"
    .section .rodata
L_p_HXR_HEXAD_MAX:
    .quad 0x2d9
L_p_HXR_BITMAP_LEN:
    .quad 0x90
L_p_HXR_PFS_COUNT:
    .quad 0x7
    .section .bss
    .global L_p_HXR_BITMAP
L_p_HXR_BITMAP:
    .zero 1152
    .section .data
    .global L_p_HXR_INIT
L_p_HXR_INIT:
    .quad 0x0
    .section .bss
    .global L_p_HXR_TRITS
L_p_HXR_TRITS:
    .zero 48
    .section .text,"xr"  /* PE/COFF §6 */
    /* IRQL_REQUIRES_MAX(2) */
    .global L_p__hxr_set_bit
L_p__hxr_set_bit:
    .seh_proc L_p__hxr_set_bit
    pushq %rbp
    .seh_pushreg %rbp
    movq %rsp, %rbp
    subq $1024, %rsp
    .seh_stackalloc 1024
    .seh_endprologue
    movq %rcx, -8(%rbp)
    /* witness enter (D9, ADR-024) */
    movq $1, %rcx  /* IIIW_ENTER */
    subq $32, %rsp
    callq iii_witness_emit_kernel
    addq $32, %rsp
    movabsq $0x1, %rax
    pushq %rax
    popq %rax
    movq %rax, -16(%rbp)
    movq -8(%rbp), %rax
    pushq %rax
    movabsq $0x3, %rax
    pushq %rax
    popq %rcx
    popq %rax
    shrq %cl, %rax
    pushq %rax
    popq %rax
    movq %rax, -24(%rbp)
    movq -16(%rbp), %rax
    pushq %rax
    movq -8(%rbp), %rax
    pushq %rax
    movabsq $0x7, %rax
    pushq %rax
    popq %rcx
    popq %rax
    andq %rcx, %rax
    pushq %rax
    popq %rcx
    popq %rax
    shlq %cl, %rax
    pushq %rax
    popq %rax
    movq %rax, -32(%rbp)
    leaq L_p_HXR_BITMAP(%rip), %rax
    pushq %rax
    movq -24(%rbp), %rax
    pushq %rax
    popq %rcx
    popq %rax
    movq (%rax,%rcx,8), %rax
    pushq %rax
    movq -32(%rbp), %rax
    pushq %rax
    popq %rcx
    popq %rax
    orq %rcx, %rax
    pushq %rax
    popq %rax
    pushq %rax
    leaq L_p_HXR_BITMAP(%rip), %rax
    pushq %rax
    movq -24(%rbp), %rax
    pushq %rax
    popq %rcx
    popq %rax
    popq %rdx
    movq %rdx, (%rax,%rcx,8)
    movabsq $0x0, %rax
    pushq %rax
    popq %rax
    pushq %rax
    pushq %rax
    movq $2, %rcx  /* IIIW_EXIT */
    subq $32, %rsp
    callq iii_witness_emit_kernel
    addq $32, %rsp
    popq %rax
    popq %rax
    movq %rbp, %rsp
    popq %rbp
    retq
    .seh_endproc
    .section .text,"xr"  /* PE/COFF §6 */
    /* IRQL_REQUIRES_MAX(2) */
    .global L_p__hxr_clear_bit
L_p__hxr_clear_bit:
    .seh_proc L_p__hxr_clear_bit
    pushq %rbp
    .seh_pushreg %rbp
    movq %rsp, %rbp
    subq $1024, %rsp
    .seh_stackalloc 1024
    .seh_endprologue
    movq %rcx, -8(%rbp)
    /* witness enter (D9, ADR-024) */
    movq $1, %rcx  /* IIIW_ENTER */
    subq $32, %rsp
    callq iii_witness_emit_kernel
    addq $32, %rsp
    movabsq $0x1, %rax
    pushq %rax
    popq %rax
    movq %rax, -16(%rbp)
    movq -8(%rbp), %rax
    pushq %rax
    movabsq $0x3, %rax
    pushq %rax
    popq %rcx
    popq %rax
    shrq %cl, %rax
    pushq %rax
    popq %rax
    movq %rax, -24(%rbp)
    movq -16(%rbp), %rax
    pushq %rax
    movq -8(%rbp), %rax
    pushq %rax
    movabsq $0x7, %rax
    pushq %rax
    popq %rcx
    popq %rax
    andq %rcx, %rax
    pushq %rax
    popq %rcx
    popq %rax
    shlq %cl, %rax
    pushq %rax
    popq %rax
    movq %rax, -32(%rbp)
    leaq L_p_HXR_BITMAP(%rip), %rax
    pushq %rax
    movq -24(%rbp), %rax
    pushq %rax
    popq %rcx
    popq %rax
    movq (%rax,%rcx,8), %rax
    pushq %rax
    movq -32(%rbp), %rax
    pushq %rax
    movabsq $0xff, %rax
    pushq %rax
    popq %rcx
    popq %rax
    xorq %rcx, %rax
    pushq %rax
    popq %rcx
    popq %rax
    andq %rcx, %rax
    pushq %rax
    popq %rax
    pushq %rax
    leaq L_p_HXR_BITMAP(%rip), %rax
    pushq %rax
    movq -24(%rbp), %rax
    pushq %rax
    popq %rcx
    popq %rax
    popq %rdx
    movq %rdx, (%rax,%rcx,8)
    movabsq $0x0, %rax
    pushq %rax
    popq %rax
    pushq %rax
    pushq %rax
    movq $2, %rcx  /* IIIW_EXIT */
    subq $32, %rsp
    callq iii_witness_emit_kernel
    addq $32, %rsp
    popq %rax
    popq %rax
    movq %rbp, %rsp
    popq %rbp
    retq
    .seh_endproc
    .section .text,"xr"  /* PE/COFF §6 */
    /* IRQL_REQUIRES_MAX(2) */
    .global L_p__hxr_get_bit
L_p__hxr_get_bit:
    .seh_proc L_p__hxr_get_bit
    pushq %rbp
    .seh_pushreg %rbp
    movq %rsp, %rbp
    subq $1024, %rsp
    .seh_stackalloc 1024
    .seh_endprologue
    movq %rcx, -8(%rbp)
    /* witness enter (D9, ADR-024) */
    movq $1, %rcx  /* IIIW_ENTER */
    subq $32, %rsp
    callq iii_witness_emit_kernel
    addq $32, %rsp
    movq -8(%rbp), %rax
    pushq %rax
    movabsq $0x3, %rax
    pushq %rax
    popq %rcx
    popq %rax
    shrq %cl, %rax
    pushq %rax
    popq %rax
    movq %rax, -16(%rbp)
    leaq L_p_HXR_BITMAP(%rip), %rax
    pushq %rax
    movq -16(%rbp), %rax
    pushq %rax
    popq %rcx
    popq %rax
    movq (%rax,%rcx,8), %rax
    pushq %rax
    movq -8(%rbp), %rax
    pushq %rax
    movabsq $0x7, %rax
    pushq %rax
    popq %rcx
    popq %rax
    andq %rcx, %rax
    pushq %rax
    popq %rcx
    popq %rax
    shrq %cl, %rax
    pushq %rax
    movabsq $0x1, %rax
    pushq %rax
    popq %rcx
    popq %rax
    andq %rcx, %rax
    pushq %rax
    popq %rax
    pushq %rax
    pushq %rax
    movq $2, %rcx  /* IIIW_EXIT */
    subq $32, %rsp
    callq iii_witness_emit_kernel
    addq $32, %rsp
    popq %rax
    popq %rax
    movq %rbp, %rsp
    popq %rbp
    retq
    .seh_endproc
    .section .text,"xr"  /* PE/COFF §6 */
    /* IRQL_REQUIRES_MAX(2) */
    .global L_p_iii_hexad_init
L_p_iii_hexad_init:
    .seh_proc L_p_iii_hexad_init
    pushq %rbp
    .seh_pushreg %rbp
    movq %rsp, %rbp
    subq $1024, %rsp
    .seh_stackalloc 1024
    .seh_endprologue
    /* witness enter (D9, ADR-024) */
    movq $1, %rcx  /* IIIW_ENTER */
    subq $32, %rsp
    callq iii_witness_emit_kernel
    addq $32, %rsp
    movq L_p_HXR_INIT(%rip), %rax
    pushq %rax
    movabsq $0x1, %rax
    pushq %rax
    popq %rcx
    popq %rax
    cmpq %rcx, %rax
    sete %al
    movzbq %al, %rax
    pushq %rax
    popq %rax
    testq %rax, %rax
    jz L_if_end_1
    movabsq $0x0, %rax
    pushq %rax
    popq %rax
    pushq %rax
    pushq %rax
    movq $2, %rcx  /* IIIW_EXIT */
    subq $32, %rsp
    callq iii_witness_emit_kernel
    addq $32, %rsp
    popq %rax
    popq %rax
    movq %rbp, %rsp
    popq %rbp
    retq
L_if_end_1:
    movabsq $0x0, %rax
    pushq %rax
    popq %rax
    movq %rax, -8(%rbp)
L_for_top_2:
    movq -8(%rbp), %rax
    pushq %rax
    movq L_p_HXR_BITMAP_LEN(%rip), %rax
    pushq %rax
    popq %rcx
    popq %rax
    cmpq %rcx, %rax
    setl %al
    movzbq %al, %rax
    pushq %rax
    popq %rax
    testq %rax, %rax
    jz L_for_end_3
    movabsq $0x0, %rax
    pushq %rax
    popq %rax
    pushq %rax
    leaq L_p_HXR_BITMAP(%rip), %rax
    pushq %rax
    movq -8(%rbp), %rax
    pushq %rax
    popq %rcx
    popq %rax
    popq %rdx
    movq %rdx, (%rax,%rcx,8)
    movq -8(%rbp), %rax
    pushq %rax
    movabsq $0x1, %rax
    pushq %rax
    popq %rcx
    popq %rax
    addq %rcx, %rax
    pushq %rax
    popq %rax
    movq %rax, -8(%rbp)
    jmp L_for_top_2
L_for_end_3:
    movabsq $0x0, %rax
    pushq %rax
    popq %rax
    movq %rax, -16(%rbp)
L_for_top_4:
    movq -16(%rbp), %rax
    pushq %rax
    movq L_p_HXR_HEXAD_MAX(%rip), %rax
    pushq %rax
    popq %rcx
    popq %rax
    cmpq %rcx, %rax
    setl %al
    movzbq %al, %rax
    pushq %rax
    popq %rax
    testq %rax, %rax
    jz L_for_end_5
    movq -16(%rbp), %rax
    pushq %rax
    leaq L_p_HXR_TRITS(%rip), %rax
    pushq %rax
    popq %rax
    pushq %rax
    popq %rdx
    popq %rcx
    subq $32, %rsp
    callq L_p_iii_hexad_unpack6
    addq $32, %rsp
    pushq %rax
    popq %rax
    movabsq $0x1, %rax
    pushq %rax
    popq %rax
    movq %rax, -24(%rbp)
    movabsq $0x0, %rax
    pushq %rax
    popq %rax
    movq %rax, -32(%rbp)
L_for_top_6:
    movq -32(%rbp), %rax
    pushq %rax
    movabsq $0x4, %rax
    pushq %rax
    popq %rcx
    popq %rax
    cmpq %rcx, %rax
    setl %al
    movzbq %al, %rax
    pushq %rax
    popq %rax
    testq %rax, %rax
    jz L_for_end_7
    leaq L_p_HXR_TRITS(%rip), %rax
    pushq %rax
    movq -32(%rbp), %rax
    pushq %rax
    popq %rcx
    popq %rax
    movq (%rax,%rcx,8), %rax
    pushq %rax
    movabsq $0x1, %rax
    pushq %rax
    popq %rax
    negq %rax
    pushq %rax
    popq %rcx
    popq %rax
    cmpq %rcx, %rax
    sete %al
    movzbq %al, %rax
    pushq %rax
    popq %rax
    testq %rax, %rax
    jz L_if_end_9
    movabsq $0x0, %rax
    pushq %rax
    popq %rax
    movq %rax, -24(%rbp)
L_if_end_9:
    movq -32(%rbp), %rax
    pushq %rax
    movabsq $0x1, %rax
    pushq %rax
    popq %rcx
    popq %rax
    addq %rcx, %rax
    pushq %rax
    popq %rax
    movq %rax, -32(%rbp)
    jmp L_for_top_6
L_for_end_7:
    movq -24(%rbp), %rax
    pushq %rax
    movabsq $0x1, %rax
    pushq %rax
    popq %rcx
    popq %rax
    cmpq %rcx, %rax
    sete %al
    movzbq %al, %rax
    pushq %rax
    popq %rax
    testq %rax, %rax
    jz L_if_end_11
    movq -16(%rbp), %rax
    pushq %rax
    popq %rcx
    subq $32, %rsp
    callq L_p__hxr_set_bit
    addq $32, %rsp
    pushq %rax
    popq %rax
L_if_end_11:
    movq -16(%rbp), %rax
    pushq %rax
    movabsq $0x1, %rax
    pushq %rax
    popq %rcx
    popq %rax
    addq %rcx, %rax
    pushq %rax
    popq %rax
    movq %rax, -16(%rbp)
    jmp L_for_top_4
L_for_end_5:
    movabsq $0x1, %rax
    pushq %rax
    popq %rax
    movq %rax, -40(%rbp)
L_for_top_12:
    movq -40(%rbp), %rax
    pushq %rax
    movq L_p_HXR_PFS_COUNT(%rip), %rax
    pushq %rax
    popq %rcx
    popq %rax
    cmpq %rcx, %rax
    setl %al
    movzbq %al, %rax
    pushq %rax
    popq %rax
    testq %rax, %rax
    jz L_for_end_13
    movq -40(%rbp), %rax
    pushq %rax
    popq %rcx
    subq $32, %rsp
    callq L_p_iii_hexad_pfs
    addq $32, %rsp
    pushq %rax
    popq %rcx
    subq $32, %rsp
    callq L_p__hxr_clear_bit
    addq $32, %rsp
    pushq %rax
    popq %rax
    movq -40(%rbp), %rax
    pushq %rax
    movabsq $0x1, %rax
    pushq %rax
    popq %rcx
    popq %rax
    addq %rcx, %rax
    pushq %rax
    popq %rax
    movq %rax, -40(%rbp)
    jmp L_for_top_12
L_for_end_13:
    movabsq $0x1, %rax
    pushq %rax
    popq %rax
    movq %rax, L_p_HXR_INIT(%rip)
    movabsq $0x0, %rax
    pushq %rax
    popq %rax
    pushq %rax
    pushq %rax
    movq $2, %rcx  /* IIIW_EXIT */
    subq $32, %rsp
    callq iii_witness_emit_kernel
    addq $32, %rsp
    popq %rax
    popq %rax
    movq %rbp, %rsp
    popq %rbp
    retq
    .seh_endproc
    .section .text,"xr"  /* PE/COFF §6 */
    /* IRQL_REQUIRES_MAX(2) */
    .global L_p_iii_hexad_reachable
L_p_iii_hexad_reachable:
    .seh_proc L_p_iii_hexad_reachable
    pushq %rbp
    .seh_pushreg %rbp
    movq %rsp, %rbp
    subq $1024, %rsp
    .seh_stackalloc 1024
    .seh_endprologue
    movq %rcx, -8(%rbp)
    /* witness enter (D9, ADR-024) */
    movq $1, %rcx  /* IIIW_ENTER */
    subq $32, %rsp
    callq iii_witness_emit_kernel
    addq $32, %rsp
    subq $32, %rsp
    callq L_p_iii_hexad_init
    addq $32, %rsp
    pushq %rax
    popq %rax
    movq -8(%rbp), %rax
    pushq %rax
    movq L_p_HXR_HEXAD_MAX(%rip), %rax
    pushq %rax
    popq %rcx
    popq %rax
    cmpq %rcx, %rax
    setge %al
    movzbq %al, %rax
    pushq %rax
    popq %rax
    testq %rax, %rax
    jz L_if_end_15
    movabsq $0x0, %rax
    pushq %rax
    popq %rax
    pushq %rax
    pushq %rax
    movq $2, %rcx  /* IIIW_EXIT */
    subq $32, %rsp
    callq iii_witness_emit_kernel
    addq $32, %rsp
    popq %rax
    popq %rax
    movq %rbp, %rsp
    popq %rbp
    retq
L_if_end_15:
    movq -8(%rbp), %rax
    pushq %rax
    popq %rcx
    subq $32, %rsp
    callq L_p__hxr_get_bit
    addq $32, %rsp
    pushq %rax
    popq %rax
    pushq %rax
    pushq %rax
    movq $2, %rcx  /* IIIW_EXIT */
    subq $32, %rsp
    callq iii_witness_emit_kernel
    addq $32, %rsp
    popq %rax
    popq %rax
    movq %rbp, %rsp
    popq %rbp
    retq
    .seh_endproc
    .section .text,"xr"  /* PE/COFF §6 */
    /* IRQL_REQUIRES_MAX(2) */
    .global L_p_iii_hexad_bitmap_sha256
L_p_iii_hexad_bitmap_sha256:
    .seh_proc L_p_iii_hexad_bitmap_sha256
    pushq %rbp
    .seh_pushreg %rbp
    movq %rsp, %rbp
    subq $1024, %rsp
    .seh_stackalloc 1024
    .seh_endprologue
    movq %rcx, -8(%rbp)
    /* witness enter (D9, ADR-024) */
    movq $1, %rcx  /* IIIW_ENTER */
    subq $32, %rsp
    callq iii_witness_emit_kernel
    addq $32, %rsp
    subq $32, %rsp
    callq L_p_iii_hexad_init
    addq $32, %rsp
    pushq %rax
    popq %rax
    leaq L_p_HXR_BITMAP(%rip), %rax
    pushq %rax
    popq %rax
    pushq %rax
    movq L_p_HXR_BITMAP_LEN(%rip), %rax
    pushq %rax
    movq -8(%rbp), %rax
    pushq %rax
    popq %r8
    popq %rdx
    popq %rcx
    subq $32, %rsp
    callq L_p_sha256_oneshot
    addq $32, %rsp
    pushq %rax
    popq %rax
    movabsq $0x0, %rax
    pushq %rax
    popq %rax
    pushq %rax
    pushq %rax
    movq $2, %rcx  /* IIIW_EXIT */
    subq $32, %rsp
    callq iii_witness_emit_kernel
    addq $32, %rsp
    popq %rax
    popq %rax
    movq %rbp, %rsp
    popq %rbp
    retq
    .seh_endproc
    .section .text,"xr"  /* PE/COFF §6 */
    /* IRQL_REQUIRES_MAX(2) */
    .global L_p_iii_hexad_reachable_count
L_p_iii_hexad_reachable_count:
    .seh_proc L_p_iii_hexad_reachable_count
    pushq %rbp
    .seh_pushreg %rbp
    movq %rsp, %rbp
    subq $1024, %rsp
    .seh_stackalloc 1024
    .seh_endprologue
    /* witness enter (D9, ADR-024) */
    movq $1, %rcx  /* IIIW_ENTER */
    subq $32, %rsp
    callq iii_witness_emit_kernel
    addq $32, %rsp
    subq $32, %rsp
    callq L_p_iii_hexad_init
    addq $32, %rsp
    pushq %rax
    popq %rax
    movabsq $0x0, %rax
    pushq %rax
    popq %rax
    movq %rax, -8(%rbp)
    movabsq $0x0, %rax
    pushq %rax
    popq %rax
    movq %rax, -16(%rbp)
L_for_top_16:
    movq -16(%rbp), %rax
    pushq %rax
    movq L_p_HXR_HEXAD_MAX(%rip), %rax
    pushq %rax
    popq %rcx
    popq %rax
    cmpq %rcx, %rax
    setl %al
    movzbq %al, %rax
    pushq %rax
    popq %rax
    testq %rax, %rax
    jz L_for_end_17
    movq -8(%rbp), %rax
    pushq %rax
    movq -16(%rbp), %rax
    pushq %rax
    popq %rcx
    subq $32, %rsp
    callq L_p__hxr_get_bit
    addq $32, %rsp
    pushq %rax
    popq %rcx
    popq %rax
    addq %rcx, %rax
    pushq %rax
    popq %rax
    movq %rax, -8(%rbp)
    movq -16(%rbp), %rax
    pushq %rax
    movabsq $0x1, %rax
    pushq %rax
    popq %rcx
    popq %rax
    addq %rcx, %rax
    pushq %rax
    popq %rax
    movq %rax, -16(%rbp)
    jmp L_for_top_16
L_for_end_17:
    movq -8(%rbp), %rax
    pushq %rax
    popq %rax
    pushq %rax
    pushq %rax
    movq $2, %rcx  /* IIIW_EXIT */
    subq $32, %rsp
    callq iii_witness_emit_kernel
    addq $32, %rsp
    popq %rax
    popq %rax
    movq %rbp, %rsp
    popq %rbp
    retq
    .seh_endproc
    .section .text,"xr"  /* PE/COFF §6 */
    /* IRQL_REQUIRES_MAX(2) */
    .global L_p_iii_hexad_internal_set_bit
L_p_iii_hexad_internal_set_bit:
    .seh_proc L_p_iii_hexad_internal_set_bit
    pushq %rbp
    .seh_pushreg %rbp
    movq %rsp, %rbp
    subq $1024, %rsp
    .seh_stackalloc 1024
    .seh_endprologue
    movq %rcx, -8(%rbp)
    /* witness enter (D9, ADR-024) */
    movq $1, %rcx  /* IIIW_ENTER */
    subq $32, %rsp
    callq iii_witness_emit_kernel
    addq $32, %rsp
    subq $32, %rsp
    callq L_p_iii_hexad_init
    addq $32, %rsp
    pushq %rax
    popq %rax
    movq -8(%rbp), %rax
    pushq %rax
    movq L_p_HXR_HEXAD_MAX(%rip), %rax
    pushq %rax
    popq %rcx
    popq %rax
    cmpq %rcx, %rax
    setge %al
    movzbq %al, %rax
    pushq %rax
    popq %rax
    testq %rax, %rax
    jz L_if_end_19
    movabsq $0x1, %rax
    pushq %rax
    popq %rax
    negq %rax
    pushq %rax
    popq %rax
    pushq %rax
    pushq %rax
    movq $2, %rcx  /* IIIW_EXIT */
    subq $32, %rsp
    callq iii_witness_emit_kernel
    addq $32, %rsp
    popq %rax
    popq %rax
    movq %rbp, %rsp
    popq %rbp
    retq
L_if_end_19:
    movq -8(%rbp), %rax
    pushq %rax
    popq %rcx
    subq $32, %rsp
    callq L_p__hxr_get_bit
    addq $32, %rsp
    pushq %rax
    movabsq $0x1, %rax
    pushq %rax
    popq %rcx
    popq %rax
    cmpq %rcx, %rax
    sete %al
    movzbq %al, %rax
    pushq %rax
    popq %rax
    testq %rax, %rax
    jz L_if_end_21
    movabsq $0x0, %rax
    pushq %rax
    popq %rax
    pushq %rax
    pushq %rax
    movq $2, %rcx  /* IIIW_EXIT */
    subq $32, %rsp
    callq iii_witness_emit_kernel
    addq $32, %rsp
    popq %rax
    popq %rax
    movq %rbp, %rsp
    popq %rbp
    retq
L_if_end_21:
    movq -8(%rbp), %rax
    pushq %rax
    popq %rcx
    subq $32, %rsp
    callq L_p__hxr_set_bit
    addq $32, %rsp
    pushq %rax
    popq %rax
    movabsq $0x1, %rax
    pushq %rax
    popq %rax
    pushq %rax
    pushq %rax
    movq $2, %rcx  /* IIIW_EXIT */
    subq $32, %rsp
    callq iii_witness_emit_kernel
    addq $32, %rsp
    popq %rax
    popq %rax
    movq %rbp, %rsp
    popq %rbp
    retq
    .seh_endproc
    .section .text,"xr"  /* PE/COFF §6 */
    /* IRQL_REQUIRES_MAX(2) */
    .global L_p_iii_hexad_internal_get_bit
L_p_iii_hexad_internal_get_bit:
    .seh_proc L_p_iii_hexad_internal_get_bit
    pushq %rbp
    .seh_pushreg %rbp
    movq %rsp, %rbp
    subq $1024, %rsp
    .seh_stackalloc 1024
    .seh_endprologue
    movq %rcx, -8(%rbp)
    /* witness enter (D9, ADR-024) */
    movq $1, %rcx  /* IIIW_ENTER */
    subq $32, %rsp
    callq iii_witness_emit_kernel
    addq $32, %rsp
    subq $32, %rsp
    callq L_p_iii_hexad_init
    addq $32, %rsp
    pushq %rax
    popq %rax
    movq -8(%rbp), %rax
    pushq %rax
    movq L_p_HXR_HEXAD_MAX(%rip), %rax
    pushq %rax
    popq %rcx
    popq %rax
    cmpq %rcx, %rax
    setge %al
    movzbq %al, %rax
    pushq %rax
    popq %rax
    testq %rax, %rax
    jz L_if_end_23
    movabsq $0x1, %rax
    pushq %rax
    popq %rax
    negq %rax
    pushq %rax
    popq %rax
    pushq %rax
    pushq %rax
    movq $2, %rcx  /* IIIW_EXIT */
    subq $32, %rsp
    callq iii_witness_emit_kernel
    addq $32, %rsp
    popq %rax
    popq %rax
    movq %rbp, %rsp
    popq %rbp
    retq
L_if_end_23:
    movq -8(%rbp), %rax
    pushq %rax
    popq %rcx
    subq $32, %rsp
    callq L_p__hxr_get_bit
    addq $32, %rsp
    pushq %rax
    popq %rax
    pushq %rax
    pushq %rax
    movq $2, %rcx  /* IIIW_EXIT */
    subq $32, %rsp
    callq iii_witness_emit_kernel
    addq $32, %rsp
    popq %rax
    popq %rax
    movq %rbp, %rsp
    popq %rbp
    retq
    .seh_endproc
