# III Stage-0 Ring-0 codegen output (Windows kernel-mode .sys)
# Output binary: iiis-0.sys
    .att_syntax
    .section .rdata,"dr"
L_str_0:
    .ascii "keccak.iii\0"
L_str_1:
    .ascii "keccak.iii\0"
L_str_2:
    .ascii "keccak.iii\0"
L_str_3:
    .ascii "keccak.iii\0"
    .section .bss
    .global L_p_KK256_STATE
L_p_KK256_STATE:
    .zero 1600
    .global L_p_KK256_MP
L_p_KK256_MP:
    .zero 8
    .global L_p_KK256_ML
L_p_KK256_ML:
    .zero 8
    .global L_p_KK256_OP
L_p_KK256_OP:
    .zero 8
    .global L_p_KK256_SST
L_p_KK256_SST:
    .zero 1600
    .global L_p_KK256_POS
L_p_KK256_POS:
    .zero 8
    .global L_p_KK256_FOUT
L_p_KK256_FOUT:
    .zero 8
    .global L_p_KK256_MSG
L_p_KK256_MSG:
    .zero 64
    .global L_p_KK256_OUT
L_p_KK256_OUT:
    .zero 256
    .global L_p_KK256_REF
L_p_KK256_REF:
    .zero 256
    .global L_p_KK256_BIG
L_p_KK256_BIG:
    .zero 2400
    .global L_p_KK256_STREAM
L_p_KK256_STREAM:
    .zero 4096
    .global L_p_KK256_BREF
L_p_KK256_BREF:
    .zero 256
    .section .text,"xr"  /* PE/COFF §6 */
    /* IRQL_REQUIRES_MAX(2) */
    .global L_p_keccak256_oneshot
L_p_keccak256_oneshot:
    .seh_proc L_p_keccak256_oneshot
    pushq %rbp
    .seh_pushreg %rbp
    movq %rsp, %rbp
    subq $1024, %rsp
    .seh_stackalloc 1024
    .seh_endprologue
    movq %rcx, -8(%rbp)
    movq %rdx, -16(%rbp)
    movq %r8, -24(%rbp)
    /* witness enter (D9, ADR-024) */
    movq $1, %rcx  /* IIIW_ENTER */
    subq $32, %rsp
    callq iii_witness_emit_kernel
    addq $32, %rsp
    movq -8(%rbp), %rax
    pushq %rax
    popq %rax
    pushq %rax
    leaq L_p_KK256_MP(%rip), %rax
    pushq %rax
    movabsq $0x0, %rax
    pushq %rax
    popq %rcx
    popq %rax
    popq %rdx
    movq %rdx, (%rax,%rcx,8)
    movq -16(%rbp), %rax
    pushq %rax
    popq %rax
    pushq %rax
    leaq L_p_KK256_ML(%rip), %rax
    pushq %rax
    movabsq $0x0, %rax
    pushq %rax
    popq %rcx
    popq %rax
    popq %rdx
    movq %rdx, (%rax,%rcx,8)
    movq -24(%rbp), %rax
    pushq %rax
    popq %rax
    pushq %rax
    leaq L_p_KK256_OP(%rip), %rax
    pushq %rax
    movabsq $0x0, %rax
    pushq %rax
    popq %rcx
    popq %rax
    popq %rdx
    movq %rdx, (%rax,%rcx,8)
    leaq L_p_KK256_STATE(%rip), %rax
    pushq %rax
    popq %rax
    pushq %rax
    popq %rcx
    subq $32, %rsp
    callq L_p_keccak_state_zero
    addq $32, %rsp
    pushq %rax
    popq %rax
    movq %rax, -32(%rbp)
    movq -32(%rbp), %rax
    pushq %rax
    movabsq $0x0, %rax
    pushq %rax
    popq %rcx
    popq %rax
    cmpq %rcx, %rax
    setne %al
    movzbq %al, %rax
    pushq %rax
    popq %rax
    testq %rax, %rax
    jz L_if_end_1
    movq -32(%rbp), %rax
    pushq %rax
    popq %rax
    pushq %rax
    pushq %rax
    movq $2, %rcx  /* IIIW_EXIT */
    subq $32, %rsp
    callq iii_witness_emit_kernel
    addq $32, %rsp
    popq %rax
    popq %rax
    movq %rbp, %rsp
    popq %rbp
    retq
L_if_end_1:
    leaq L_p_KK256_STATE(%rip), %rax
    pushq %rax
    popq %rax
    pushq %rax
    leaq L_p_KK256_MP(%rip), %rax
    pushq %rax
    movabsq $0x0, %rax
    pushq %rax
    popq %rcx
    popq %rax
    movq (%rax,%rcx,8), %rax
    pushq %rax
    leaq L_p_KK256_ML(%rip), %rax
    pushq %rax
    movabsq $0x0, %rax
    pushq %rax
    popq %rcx
    popq %rax
    movq (%rax,%rcx,8), %rax
    pushq %rax
    movabsq $0x100000088, %rax
    pushq %rax
    popq %r9
    popq %r8
    popq %rdx
    popq %rcx
    subq $32, %rsp
    callq L_p_keccak_absorb
    addq $32, %rsp
    pushq %rax
    popq %rax
    movq %rax, -40(%rbp)
    movq -40(%rbp), %rax
    pushq %rax
    movabsq $0x0, %rax
    pushq %rax
    popq %rcx
    popq %rax
    cmpq %rcx, %rax
    setne %al
    movzbq %al, %rax
    pushq %rax
    popq %rax
    testq %rax, %rax
    jz L_if_end_3
    movq -40(%rbp), %rax
    pushq %rax
    popq %rax
    pushq %rax
    pushq %rax
    movq $2, %rcx  /* IIIW_EXIT */
    subq $32, %rsp
    callq iii_witness_emit_kernel
    addq $32, %rsp
    popq %rax
    popq %rax
    movq %rbp, %rsp
    popq %rbp
    retq
L_if_end_3:
    leaq L_p_KK256_STATE(%rip), %rax
    pushq %rax
    popq %rax
    pushq %rax
    leaq L_p_KK256_OP(%rip), %rax
    pushq %rax
    movabsq $0x0, %rax
    pushq %rax
    popq %rcx
    popq %rax
    movq (%rax,%rcx,8), %rax
    pushq %rax
    movabsq $0x20, %rax
    pushq %rax
    movabsq $0x88, %rax
    pushq %rax
    popq %r9
    popq %r8
    popq %rdx
    popq %rcx
    subq $32, %rsp
    callq L_p_keccak_squeeze
    addq $32, %rsp
    pushq %rax
    popq %rax
    movq %rax, -48(%rbp)
    movq -48(%rbp), %rax
    pushq %rax
    movabsq $0x0, %rax
    pushq %rax
    popq %rcx
    popq %rax
    cmpq %rcx, %rax
    setne %al
    movzbq %al, %rax
    pushq %rax
    popq %rax
    testq %rax, %rax
    jz L_if_end_5
    movq -48(%rbp), %rax
    pushq %rax
    popq %rax
    pushq %rax
    pushq %rax
    movq $2, %rcx  /* IIIW_EXIT */
    subq $32, %rsp
    callq iii_witness_emit_kernel
    addq $32, %rsp
    popq %rax
    popq %rax
    movq %rbp, %rsp
    popq %rbp
    retq
L_if_end_5:
    movabsq $0x0, %rax
    pushq %rax
    popq %rax
    pushq %rax
    pushq %rax
    movq $2, %rcx  /* IIIW_EXIT */
    subq $32, %rsp
    callq iii_witness_emit_kernel
    addq $32, %rsp
    popq %rax
    popq %rax
    movq %rbp, %rsp
    popq %rbp
    retq
    .seh_endproc
    .section .text,"xr"  /* PE/COFF §6 */
    /* IRQL_REQUIRES_MAX(2) */
    .global L_p_keccak256_init
L_p_keccak256_init:
    .seh_proc L_p_keccak256_init
    pushq %rbp
    .seh_pushreg %rbp
    movq %rsp, %rbp
    subq $1024, %rsp
    .seh_stackalloc 1024
    .seh_endprologue
    /* witness enter (D9, ADR-024) */
    movq $1, %rcx  /* IIIW_ENTER */
    subq $32, %rsp
    callq iii_witness_emit_kernel
    addq $32, %rsp
    movabsq $0x0, %rax
    pushq %rax
    popq %rax
    movq %rax, -8(%rbp)
L_for_top_6:
    movq -8(%rbp), %rax
    pushq %rax
    movabsq $0xc8, %rax
    pushq %rax
    popq %rcx
    popq %rax
    cmpq %rcx, %rax
    setb %al
    movzbq %al, %rax
    pushq %rax
    popq %rax
    testq %rax, %rax
    jz L_for_end_7
    movabsq $0x0, %rax
    pushq %rax
    popq %rax
    pushq %rax
    leaq L_p_KK256_SST(%rip), %rax
    pushq %rax
    movq -8(%rbp), %rax
    pushq %rax
    popq %rcx
    popq %rax
    popq %rdx
    movq %rdx, (%rax,%rcx,8)
    movq -8(%rbp), %rax
    pushq %rax
    movabsq $0x1, %rax
    pushq %rax
    popq %rcx
    popq %rax
    addq %rcx, %rax
    pushq %rax
    popq %rax
    movq %rax, -8(%rbp)
    jmp L_for_top_6
L_for_end_7:
    movabsq $0x0, %rax
    pushq %rax
    popq %rax
    pushq %rax
    leaq L_p_KK256_POS(%rip), %rax
    pushq %rax
    movabsq $0x0, %rax
    pushq %rax
    popq %rcx
    popq %rax
    popq %rdx
    movq %rdx, (%rax,%rcx,8)
    movabsq $0x0, %rax
    pushq %rax
    popq %rax
    pushq %rax
    pushq %rax
    movq $2, %rcx  /* IIIW_EXIT */
    subq $32, %rsp
    callq iii_witness_emit_kernel
    addq $32, %rsp
    popq %rax
    popq %rax
    movq %rbp, %rsp
    popq %rbp
    retq
    .seh_endproc
    .section .text,"xr"  /* PE/COFF §6 */
    /* IRQL_REQUIRES_MAX(2) */
    .global L_p_keccak256_update
L_p_keccak256_update:
    .seh_proc L_p_keccak256_update
    pushq %rbp
    .seh_pushreg %rbp
    movq %rsp, %rbp
    subq $1024, %rsp
    .seh_stackalloc 1024
    .seh_endprologue
    movq %rcx, -8(%rbp)
    movq %rdx, -16(%rbp)
    /* witness enter (D9, ADR-024) */
    movq $1, %rcx  /* IIIW_ENTER */
    subq $32, %rsp
    callq iii_witness_emit_kernel
    addq $32, %rsp
    movq -8(%rbp), %rax
    pushq %rax
    popq %rax
    movq %rax, -24(%rbp)
    movq -16(%rbp), %rax
    pushq %rax
    popq %rax
    movq %rax, -32(%rbp)
    movq -32(%rbp), %rax
    pushq %rax
    movabsq $0x0, %rax
    pushq %rax
    popq %rcx
    popq %rax
    cmpq %rcx, %rax
    setne %al
    movzbq %al, %rax
    pushq %rax
    popq %rax
    testq %rax, %rax
    jz L_if_end_9
    movq -24(%rbp), %rax
    pushq %rax
    movabsq $0x0, %rax
    pushq %rax
    popq %rcx
    popq %rax
    cmpq %rcx, %rax
    sete %al
    movzbq %al, %rax
    pushq %rax
    popq %rax
    testq %rax, %rax
    jz L_if_end_11
    movabsq $0x1, %rax
    pushq %rax
    popq %rax
    negq %rax
    pushq %rax
    popq %rax
    pushq %rax
    pushq %rax
    movq $2, %rcx  /* IIIW_EXIT */
    subq $32, %rsp
    callq iii_witness_emit_kernel
    addq $32, %rsp
    popq %rax
    popq %rax
    movq %rbp, %rsp
    popq %rbp
    retq
L_if_end_11:
L_if_end_9:
    movabsq $0x0, %rax
    pushq %rax
    popq %rax
    movq %rax, -40(%rbp)
    leaq L_p_KK256_POS(%rip), %rax
    pushq %rax
    movabsq $0x0, %rax
    pushq %rax
    popq %rcx
    popq %rax
    movq (%rax,%rcx,8), %rax
    pushq %rax
    popq %rax
    movq %rax, -48(%rbp)
    movq -48(%rbp), %rax
    pushq %rax
    movabsq $0x0, %rax
    pushq %rax
    popq %rcx
    popq %rax
    cmpq %rcx, %rax
    setne %al
    movzbq %al, %rax
    pushq %rax
    popq %rax
    testq %rax, %rax
    jz L_if_end_13
L_for_top_14:
    movq -48(%rbp), %rax
    pushq %rax
    movabsq $0x88, %rax
    pushq %rax
    popq %rcx
    popq %rax
    cmpq %rcx, %rax
    setb %al
    movzbq %al, %rax
    pushq %rax
    popq %rax
    testq %rax, %rax
    jz L_for_end_15
    movq -40(%rbp), %rax
    pushq %rax
    movq -32(%rbp), %rax
    pushq %rax
    popq %rcx
    popq %rax
    cmpq %rcx, %rax
    setae %al
    movzbq %al, %rax
    pushq %rax
    popq %rax
    testq %rax, %rax
    jz L_if_end_17
    movq -48(%rbp), %rax
    pushq %rax
    popq %rax
    pushq %rax
    leaq L_p_KK256_POS(%rip), %rax
    pushq %rax
    movabsq $0x0, %rax
    pushq %rax
    popq %rcx
    popq %rax
    popq %rdx
    movq %rdx, (%rax,%rcx,8)
    movabsq $0x0, %rax
    pushq %rax
    popq %rax
    pushq %rax
    pushq %rax
    movq $2, %rcx  /* IIIW_EXIT */
    subq $32, %rsp
    callq iii_witness_emit_kernel
    addq $32, %rsp
    popq %rax
    popq %rax
    movq %rbp, %rsp
    popq %rbp
    retq
L_if_end_17:
    leaq L_p_KK256_SST(%rip), %rax
    pushq %rax
    movq -48(%rbp), %rax
    pushq %rax
    popq %rcx
    popq %rax
    movq (%rax,%rcx,8), %rax
    pushq %rax
    movq -24(%rbp), %rax
    pushq %rax
    movq -40(%rbp), %rax
    pushq %rax
    popq %rcx
    popq %rax
    movq (%rax,%rcx,8), %rax
    pushq %rax
    popq %rcx
    popq %rax
    xorq %rcx, %rax
    pushq %rax
    popq %rax
    pushq %rax
    leaq L_p_KK256_SST(%rip), %rax
    pushq %rax
    movq -48(%rbp), %rax
    pushq %rax
    popq %rcx
    popq %rax
    popq %rdx
    movq %rdx, (%rax,%rcx,8)
    movq -40(%rbp), %rax
    pushq %rax
    movabsq $0x1, %rax
    pushq %rax
    popq %rcx
    popq %rax
    addq %rcx, %rax
    pushq %rax
    popq %rax
    movq %rax, -40(%rbp)
    movq -48(%rbp), %rax
    pushq %rax
    movabsq $0x1, %rax
    pushq %rax
    popq %rcx
    popq %rax
    addq %rcx, %rax
    pushq %rax
    popq %rax
    movq %rax, -48(%rbp)
    jmp L_for_top_14
L_for_end_15:
    leaq L_p_KK256_SST(%rip), %rax
    pushq %rax
    popq %rax
    pushq %rax
    popq %rcx
    subq $32, %rsp
    callq L_p_keccak_f1600
    addq $32, %rsp
    pushq %rax
    popq %rax
L_if_end_13:
L_for_top_18:
    movq -40(%rbp), %rax
    pushq %rax
    movabsq $0x88, %rax
    pushq %rax
    popq %rcx
    popq %rax
    addq %rcx, %rax
    pushq %rax
    movq -32(%rbp), %rax
    pushq %rax
    popq %rcx
    popq %rax
    cmpq %rcx, %rax
    setbe %al
    movzbq %al, %rax
    pushq %rax
    popq %rax
    testq %rax, %rax
    jz L_for_end_19
    movabsq $0x0, %rax
    pushq %rax
    popq %rax
    movq %rax, -56(%rbp)
L_for_top_20:
    movq -56(%rbp), %rax
    pushq %rax
    movabsq $0x88, %rax
    pushq %rax
    popq %rcx
    popq %rax
    cmpq %rcx, %rax
    setb %al
    movzbq %al, %rax
    pushq %rax
    popq %rax
    testq %rax, %rax
    jz L_for_end_21
    leaq L_p_KK256_SST(%rip), %rax
    pushq %rax
    movq -56(%rbp), %rax
    pushq %rax
    popq %rcx
    popq %rax
    movq (%rax,%rcx,8), %rax
    pushq %rax
    movq -24(%rbp), %rax
    pushq %rax
    movq -40(%rbp), %rax
    pushq %rax
    movq -56(%rbp), %rax
    pushq %rax
    popq %rcx
    popq %rax
    addq %rcx, %rax
    pushq %rax
    popq %rcx
    popq %rax
    movq (%rax,%rcx,8), %rax
    pushq %rax
    popq %rcx
    popq %rax
    xorq %rcx, %rax
    pushq %rax
    popq %rax
    pushq %rax
    leaq L_p_KK256_SST(%rip), %rax
    pushq %rax
    movq -56(%rbp), %rax
    pushq %rax
    popq %rcx
    popq %rax
    popq %rdx
    movq %rdx, (%rax,%rcx,8)
    movq -56(%rbp), %rax
    pushq %rax
    movabsq $0x1, %rax
    pushq %rax
    popq %rcx
    popq %rax
    addq %rcx, %rax
    pushq %rax
    popq %rax
    movq %rax, -56(%rbp)
    jmp L_for_top_20
L_for_end_21:
    leaq L_p_KK256_SST(%rip), %rax
    pushq %rax
    popq %rax
    pushq %rax
    popq %rcx
    subq $32, %rsp
    callq L_p_keccak_f1600
    addq $32, %rsp
    pushq %rax
    popq %rax
    movq -40(%rbp), %rax
    pushq %rax
    movabsq $0x88, %rax
    pushq %rax
    popq %rcx
    popq %rax
    addq %rcx, %rax
    pushq %rax
    popq %rax
    movq %rax, -40(%rbp)
    jmp L_for_top_18
L_for_end_19:
    movq -32(%rbp), %rax
    pushq %rax
    movq -40(%rbp), %rax
    pushq %rax
    popq %rcx
    popq %rax
    subq %rcx, %rax
    pushq %rax
    popq %rax
    movq %rax, -64(%rbp)
    movabsq $0x0, %rax
    pushq %rax
    popq %rax
    movq %rax, -72(%rbp)
L_for_top_22:
    movq -72(%rbp), %rax
    pushq %rax
    movq -64(%rbp), %rax
    pushq %rax
    popq %rcx
    popq %rax
    cmpq %rcx, %rax
    setb %al
    movzbq %al, %rax
    pushq %rax
    popq %rax
    testq %rax, %rax
    jz L_for_end_23
    leaq L_p_KK256_SST(%rip), %rax
    pushq %rax
    movq -72(%rbp), %rax
    pushq %rax
    popq %rcx
    popq %rax
    movq (%rax,%rcx,8), %rax
    pushq %rax
    movq -24(%rbp), %rax
    pushq %rax
    movq -40(%rbp), %rax
    pushq %rax
    movq -72(%rbp), %rax
    pushq %rax
    popq %rcx
    popq %rax
    addq %rcx, %rax
    pushq %rax
    popq %rcx
    popq %rax
    movq (%rax,%rcx,8), %rax
    pushq %rax
    popq %rcx
    popq %rax
    xorq %rcx, %rax
    pushq %rax
    popq %rax
    pushq %rax
    leaq L_p_KK256_SST(%rip), %rax
    pushq %rax
    movq -72(%rbp), %rax
    pushq %rax
    popq %rcx
    popq %rax
    popq %rdx
    movq %rdx, (%rax,%rcx,8)
    movq -72(%rbp), %rax
    pushq %rax
    movabsq $0x1, %rax
    pushq %rax
    popq %rcx
    popq %rax
    addq %rcx, %rax
    pushq %rax
    popq %rax
    movq %rax, -72(%rbp)
    jmp L_for_top_22
L_for_end_23:
    movq -64(%rbp), %rax
    pushq %rax
    popq %rax
    pushq %rax
    leaq L_p_KK256_POS(%rip), %rax
    pushq %rax
    movabsq $0x0, %rax
    pushq %rax
    popq %rcx
    popq %rax
    popq %rdx
    movq %rdx, (%rax,%rcx,8)
    movabsq $0x0, %rax
    pushq %rax
    popq %rax
    pushq %rax
    pushq %rax
    movq $2, %rcx  /* IIIW_EXIT */
    subq $32, %rsp
    callq iii_witness_emit_kernel
    addq $32, %rsp
    popq %rax
    popq %rax
    movq %rbp, %rsp
    popq %rbp
    retq
    .seh_endproc
    .section .text,"xr"  /* PE/COFF §6 */
    /* IRQL_REQUIRES_MAX(2) */
    .global L_p_keccak256_final
L_p_keccak256_final:
    .seh_proc L_p_keccak256_final
    pushq %rbp
    .seh_pushreg %rbp
    movq %rsp, %rbp
    subq $1024, %rsp
    .seh_stackalloc 1024
    .seh_endprologue
    movq %rcx, -8(%rbp)
    /* witness enter (D9, ADR-024) */
    movq $1, %rcx  /* IIIW_ENTER */
    subq $32, %rsp
    callq iii_witness_emit_kernel
    addq $32, %rsp
    movq -8(%rbp), %rax
    pushq %rax
    movabsq $0x0, %rax
    pushq %rax
    popq %rcx
    popq %rax
    cmpq %rcx, %rax
    sete %al
    movzbq %al, %rax
    pushq %rax
    popq %rax
    testq %rax, %rax
    jz L_if_end_25
    movabsq $0x0, %rax
    pushq %rax
    movabsq $0x1, %rax
    pushq %rax
    popq %rcx
    popq %rax
    subq %rcx, %rax
    pushq %rax
    popq %rax
    pushq %rax
    pushq %rax
    movq $2, %rcx  /* IIIW_EXIT */
    subq $32, %rsp
    callq iii_witness_emit_kernel
    addq $32, %rsp
    popq %rax
    popq %rax
    movq %rbp, %rsp
    popq %rbp
    retq
L_if_end_25:
    movq -8(%rbp), %rax
    pushq %rax
    popq %rax
    pushq %rax
    leaq L_p_KK256_FOUT(%rip), %rax
    pushq %rax
    movabsq $0x0, %rax
    pushq %rax
    popq %rcx
    popq %rax
    popq %rdx
    movq %rdx, (%rax,%rcx,8)
    leaq L_p_KK256_POS(%rip), %rax
    pushq %rax
    movabsq $0x0, %rax
    pushq %rax
    popq %rcx
    popq %rax
    movq (%rax,%rcx,8), %rax
    pushq %rax
    popq %rax
    movq %rax, -16(%rbp)
    leaq L_p_KK256_SST(%rip), %rax
    pushq %rax
    movq -16(%rbp), %rax
    pushq %rax
    popq %rcx
    popq %rax
    movq (%rax,%rcx,8), %rax
    pushq %rax
    movabsq $0x1, %rax
    pushq %rax
    popq %rcx
    popq %rax
    xorq %rcx, %rax
    pushq %rax
    popq %rax
    pushq %rax
    leaq L_p_KK256_SST(%rip), %rax
    pushq %rax
    movq -16(%rbp), %rax
    pushq %rax
    popq %rcx
    popq %rax
    popq %rdx
    movq %rdx, (%rax,%rcx,8)
    leaq L_p_KK256_SST(%rip), %rax
    pushq %rax
    movabsq $0x87, %rax
    pushq %rax
    popq %rcx
    popq %rax
    movq (%rax,%rcx,8), %rax
    pushq %rax
    movabsq $0x80, %rax
    pushq %rax
    popq %rcx
    popq %rax
    xorq %rcx, %rax
    pushq %rax
    popq %rax
    pushq %rax
    leaq L_p_KK256_SST(%rip), %rax
    pushq %rax
    movabsq $0x87, %rax
    pushq %rax
    popq %rcx
    popq %rax
    popq %rdx
    movq %rdx, (%rax,%rcx,8)
    leaq L_p_KK256_SST(%rip), %rax
    pushq %rax
    popq %rax
    pushq %rax
    popq %rcx
    subq $32, %rsp
    callq L_p_keccak_f1600
    addq $32, %rsp
    pushq %rax
    popq %rax
    leaq L_p_KK256_FOUT(%rip), %rax
    pushq %rax
    movabsq $0x0, %rax
    pushq %rax
    popq %rcx
    popq %rax
    movq (%rax,%rcx,8), %rax
    pushq %rax
    popq %rax
    movq %rax, -24(%rbp)
    movabsq $0x0, %rax
    pushq %rax
    popq %rax
    movq %rax, -32(%rbp)
L_for_top_26:
    movq -32(%rbp), %rax
    pushq %rax
    movabsq $0x20, %rax
    pushq %rax
    popq %rcx
    popq %rax
    cmpq %rcx, %rax
    setb %al
    movzbq %al, %rax
    pushq %rax
    popq %rax
    testq %rax, %rax
    jz L_for_end_27
    leaq L_p_KK256_SST(%rip), %rax
    pushq %rax
    movq -32(%rbp), %rax
    pushq %rax
    popq %rcx
    popq %rax
    movq (%rax,%rcx,8), %rax
    pushq %rax
    popq %rax
    pushq %rax
    movq -24(%rbp), %rax
    pushq %rax
    movq -32(%rbp), %rax
    pushq %rax
    popq %rcx
    popq %rax
    popq %rdx
    movq %rdx, (%rax,%rcx,8)
    movq -32(%rbp), %rax
    pushq %rax
    movabsq $0x1, %rax
    pushq %rax
    popq %rcx
    popq %rax
    addq %rcx, %rax
    pushq %rax
    popq %rax
    movq %rax, -32(%rbp)
    jmp L_for_top_26
L_for_end_27:
    movabsq $0x0, %rax
    pushq %rax
    popq %rax
    pushq %rax
    pushq %rax
    movq $2, %rcx  /* IIIW_EXIT */
    subq $32, %rsp
    callq iii_witness_emit_kernel
    addq $32, %rsp
    popq %rax
    popq %rax
    movq %rbp, %rsp
    popq %rbp
    retq
    .seh_endproc
    .section .text,"xr"  /* PE/COFF §6 */
    /* IRQL_REQUIRES_MAX(2) */
    .global L_p_keccak256_final_bp
L_p_keccak256_final_bp:
    .seh_proc L_p_keccak256_final_bp
    pushq %rbp
    .seh_pushreg %rbp
    movq %rsp, %rbp
    subq $1024, %rsp
    .seh_stackalloc 1024
    .seh_endprologue
    movq %rcx, -8(%rbp)
    /* witness enter (D9, ADR-024) */
    movq $1, %rcx  /* IIIW_ENTER */
    subq $32, %rsp
    callq iii_witness_emit_kernel
    addq $32, %rsp
    movq -8(%rbp), %rax
    pushq %rax
    movabsq $0x0, %rax
    pushq %rax
    popq %rcx
    popq %rax
    cmpq %rcx, %rax
    sete %al
    movzbq %al, %rax
    pushq %rax
    popq %rax
    testq %rax, %rax
    jz L_if_end_29
    movabsq $0x0, %rax
    pushq %rax
    movabsq $0x1, %rax
    pushq %rax
    popq %rcx
    popq %rax
    subq %rcx, %rax
    pushq %rax
    popq %rax
    pushq %rax
    pushq %rax
    movq $2, %rcx  /* IIIW_EXIT */
    subq $32, %rsp
    callq iii_witness_emit_kernel
    addq $32, %rsp
    popq %rax
    popq %rax
    movq %rbp, %rsp
    popq %rbp
    retq
L_if_end_29:
    leaq L_p_KK256_POS(%rip), %rax
    pushq %rax
    movabsq $0x0, %rax
    pushq %rax
    popq %rcx
    popq %rax
    movq (%rax,%rcx,8), %rax
    pushq %rax
    popq %rax
    movq %rax, -16(%rbp)
    leaq L_p_KK256_SST(%rip), %rax
    pushq %rax
    movq -16(%rbp), %rax
    pushq %rax
    popq %rcx
    popq %rax
    movq (%rax,%rcx,8), %rax
    pushq %rax
    movabsq $0x1, %rax
    pushq %rax
    popq %rcx
    popq %rax
    xorq %rcx, %rax
    pushq %rax
    popq %rax
    pushq %rax
    leaq L_p_KK256_SST(%rip), %rax
    pushq %rax
    movq -16(%rbp), %rax
    pushq %rax
    popq %rcx
    popq %rax
    popq %rdx
    movq %rdx, (%rax,%rcx,8)
    leaq L_p_KK256_SST(%rip), %rax
    pushq %rax
    movabsq $0x87, %rax
    pushq %rax
    popq %rcx
    popq %rax
    movq (%rax,%rcx,8), %rax
    pushq %rax
    movabsq $0x80, %rax
    pushq %rax
    popq %rcx
    popq %rax
    xorq %rcx, %rax
    pushq %rax
    popq %rax
    pushq %rax
    leaq L_p_KK256_SST(%rip), %rax
    pushq %rax
    movabsq $0x87, %rax
    pushq %rax
    popq %rcx
    popq %rax
    popq %rdx
    movq %rdx, (%rax,%rcx,8)
    leaq L_p_KK256_SST(%rip), %rax
    pushq %rax
    popq %rax
    pushq %rax
    popq %rcx
    subq $32, %rsp
    callq L_p_keccak_f1600
    addq $32, %rsp
    pushq %rax
    popq %rax
    movq -8(%rbp), %rax
    pushq %rax
    popq %rax
    movq %rax, -24(%rbp)
    movabsq $0x0, %rax
    pushq %rax
    popq %rax
    movq %rax, -32(%rbp)
L_for_top_30:
    movq -32(%rbp), %rax
    pushq %rax
    movabsq $0x4, %rax
    pushq %rax
    popq %rcx
    popq %rax
    cmpq %rcx, %rax
    setb %al
    movzbq %al, %rax
    pushq %rax
    popq %rax
    testq %rax, %rax
    jz L_for_end_31
    movq -32(%rbp), %rax
    pushq %rax
    movabsq $0x8, %rax
    pushq %rax
    popq %rcx
    popq %rax
    imulq %rcx, %rax
    pushq %rax
    popq %rax
    movq %rax, -40(%rbp)
    leaq L_p_KK256_SST(%rip), %rax
    pushq %rax
    movq -40(%rbp), %rax
    pushq %rax
    popq %rcx
    popq %rax
    movq (%rax,%rcx,8), %rax
    pushq %rax
    movabsq $0xff, %rax
    pushq %rax
    popq %rcx
    popq %rax
    andq %rcx, %rax
    pushq %rax
    popq %rax
    movq %rax, -48(%rbp)
    movq -48(%rbp), %rax
    pushq %rax
    leaq L_p_KK256_SST(%rip), %rax
    pushq %rax
    movq -40(%rbp), %rax
    pushq %rax
    movabsq $0x1, %rax
    pushq %rax
    popq %rcx
    popq %rax
    addq %rcx, %rax
    pushq %rax
    popq %rcx
    popq %rax
    movq (%rax,%rcx,8), %rax
    pushq %rax
    movabsq $0xff, %rax
    pushq %rax
    popq %rcx
    popq %rax
    andq %rcx, %rax
    pushq %rax
    movabsq $0x8, %rax
    pushq %rax
    popq %rcx
    popq %rax
    shlq %cl, %rax
    pushq %rax
    popq %rcx
    popq %rax
    orq %rcx, %rax
    pushq %rax
    popq %rax
    movq %rax, -48(%rbp)
    movq -48(%rbp), %rax
    pushq %rax
    leaq L_p_KK256_SST(%rip), %rax
    pushq %rax
    movq -40(%rbp), %rax
    pushq %rax
    movabsq $0x2, %rax
    pushq %rax
    popq %rcx
    popq %rax
    addq %rcx, %rax
    pushq %rax
    popq %rcx
    popq %rax
    movq (%rax,%rcx,8), %rax
    pushq %rax
    movabsq $0xff, %rax
    pushq %rax
    popq %rcx
    popq %rax
    andq %rcx, %rax
    pushq %rax
    movabsq $0x10, %rax
    pushq %rax
    popq %rcx
    popq %rax
    shlq %cl, %rax
    pushq %rax
    popq %rcx
    popq %rax
    orq %rcx, %rax
    pushq %rax
    popq %rax
    movq %rax, -48(%rbp)
    movq -48(%rbp), %rax
    pushq %rax
    leaq L_p_KK256_SST(%rip), %rax
    pushq %rax
    movq -40(%rbp), %rax
    pushq %rax
    movabsq $0x3, %rax
    pushq %rax
    popq %rcx
    popq %rax
    addq %rcx, %rax
    pushq %rax
    popq %rcx
    popq %rax
    movq (%rax,%rcx,8), %rax
    pushq %rax
    movabsq $0xff, %rax
    pushq %rax
    popq %rcx
    popq %rax
    andq %rcx, %rax
    pushq %rax
    movabsq $0x18, %rax
    pushq %rax
    popq %rcx
    popq %rax
    shlq %cl, %rax
    pushq %rax
    popq %rcx
    popq %rax
    orq %rcx, %rax
    pushq %rax
    popq %rax
    movq %rax, -48(%rbp)
    movq -48(%rbp), %rax
    pushq %rax
    leaq L_p_KK256_SST(%rip), %rax
    pushq %rax
    movq -40(%rbp), %rax
    pushq %rax
    movabsq $0x4, %rax
    pushq %rax
    popq %rcx
    popq %rax
    addq %rcx, %rax
    pushq %rax
    popq %rcx
    popq %rax
    movq (%rax,%rcx,8), %rax
    pushq %rax
    movabsq $0xff, %rax
    pushq %rax
    popq %rcx
    popq %rax
    andq %rcx, %rax
    pushq %rax
    movabsq $0x20, %rax
    pushq %rax
    popq %rcx
    popq %rax
    shlq %cl, %rax
    pushq %rax
    popq %rcx
    popq %rax
    orq %rcx, %rax
    pushq %rax
    popq %rax
    movq %rax, -48(%rbp)
    movq -48(%rbp), %rax
    pushq %rax
    leaq L_p_KK256_SST(%rip), %rax
    pushq %rax
    movq -40(%rbp), %rax
    pushq %rax
    movabsq $0x5, %rax
    pushq %rax
    popq %rcx
    popq %rax
    addq %rcx, %rax
    pushq %rax
    popq %rcx
    popq %rax
    movq (%rax,%rcx,8), %rax
    pushq %rax
    movabsq $0xff, %rax
    pushq %rax
    popq %rcx
    popq %rax
    andq %rcx, %rax
    pushq %rax
    movabsq $0x28, %rax
    pushq %rax
    popq %rcx
    popq %rax
    shlq %cl, %rax
    pushq %rax
    popq %rcx
    popq %rax
    orq %rcx, %rax
    pushq %rax
    popq %rax
    movq %rax, -48(%rbp)
    movq -48(%rbp), %rax
    pushq %rax
    leaq L_p_KK256_SST(%rip), %rax
    pushq %rax
    movq -40(%rbp), %rax
    pushq %rax
    movabsq $0x6, %rax
    pushq %rax
    popq %rcx
    popq %rax
    addq %rcx, %rax
    pushq %rax
    popq %rcx
    popq %rax
    movq (%rax,%rcx,8), %rax
    pushq %rax
    movabsq $0xff, %rax
    pushq %rax
    popq %rcx
    popq %rax
    andq %rcx, %rax
    pushq %rax
    movabsq $0x30, %rax
    pushq %rax
    popq %rcx
    popq %rax
    shlq %cl, %rax
    pushq %rax
    popq %rcx
    popq %rax
    orq %rcx, %rax
    pushq %rax
    popq %rax
    movq %rax, -48(%rbp)
    movq -48(%rbp), %rax
    pushq %rax
    leaq L_p_KK256_SST(%rip), %rax
    pushq %rax
    movq -40(%rbp), %rax
    pushq %rax
    movabsq $0x7, %rax
    pushq %rax
    popq %rcx
    popq %rax
    addq %rcx, %rax
    pushq %rax
    popq %rcx
    popq %rax
    movq (%rax,%rcx,8), %rax
    pushq %rax
    movabsq $0xff, %rax
    pushq %rax
    popq %rcx
    popq %rax
    andq %rcx, %rax
    pushq %rax
    movabsq $0x38, %rax
    pushq %rax
    popq %rcx
    popq %rax
    shlq %cl, %rax
    pushq %rax
    popq %rcx
    popq %rax
    orq %rcx, %rax
    pushq %rax
    popq %rax
    movq %rax, -48(%rbp)
    movq -48(%rbp), %rax
    pushq %rax
    popq %rax
    pushq %rax
    movq -24(%rbp), %rax
    pushq %rax
    movq -32(%rbp), %rax
    pushq %rax
    popq %rcx
    popq %rax
    popq %rdx
    movq %rdx, (%rax,%rcx,8)
    movq -32(%rbp), %rax
    pushq %rax
    movabsq $0x1, %rax
    pushq %rax
    popq %rcx
    popq %rax
    addq %rcx, %rax
    pushq %rax
    popq %rax
    movq %rax, -32(%rbp)
    jmp L_for_top_30
L_for_end_31:
    movabsq $0x0, %rax
    pushq %rax
    popq %rax
    pushq %rax
    pushq %rax
    movq $2, %rcx  /* IIIW_EXIT */
    subq $32, %rsp
    callq iii_witness_emit_kernel
    addq $32, %rsp
    popq %rax
    popq %rax
    movq %rbp, %rsp
    popq %rbp
    retq
    .seh_endproc
    .section .text,"xr"  /* PE/COFF §6 */
    /* IRQL_REQUIRES_MAX(2) */
    .global L_p_keccak256_kat
L_p_keccak256_kat:
    .seh_proc L_p_keccak256_kat
    pushq %rbp
    .seh_pushreg %rbp
    movq %rsp, %rbp
    subq $1024, %rsp
    .seh_stackalloc 1024
    .seh_endprologue
    /* witness enter (D9, ADR-024) */
    movq $1, %rcx  /* IIIW_ENTER */
    subq $32, %rsp
    callq iii_witness_emit_kernel
    addq $32, %rsp
    movabsq $0x0, %rax
    pushq %rax
    movabsq $0x5, %rax
    pushq %rax
    leaq L_p_KK256_OUT(%rip), %rax
    pushq %rax
    popq %rax
    pushq %rax
    popq %r8
    popq %rdx
    popq %rcx
    subq $32, %rsp
    callq L_p_keccak256_oneshot
    addq $32, %rsp
    pushq %rax
    movabsq $0x0, %rax
    pushq %rax
    popq %rcx
    popq %rax
    cmpq %rcx, %rax
    sete %al
    movzbq %al, %rax
    pushq %rax
    popq %rax
    testq %rax, %rax
    jz L_if_end_33
    movabsq $0xc, %rax
    pushq %rax
    popq %rax
    pushq %rax
    pushq %rax
    movq $2, %rcx  /* IIIW_EXIT */
    subq $32, %rsp
    callq iii_witness_emit_kernel
    addq $32, %rsp
    popq %rax
    popq %rax
    movq %rbp, %rsp
    popq %rbp
    retq
L_if_end_33:
    leaq L_p_KK256_MSG(%rip), %rax
    pushq %rax
    popq %rax
    pushq %rax
    movabsq $0x0, %rax
    pushq %rax
    leaq L_p_KK256_OUT(%rip), %rax
    pushq %rax
    popq %rax
    pushq %rax
    popq %r8
    popq %rdx
    popq %rcx
    subq $32, %rsp
    callq L_p_keccak256_oneshot
    addq $32, %rsp
    pushq %rax
    popq %rax
    leaq L_p_KK256_OUT(%rip), %rax
    pushq %rax
    movabsq $0x0, %rax
    pushq %rax
    popq %rcx
    popq %rax
    movq (%rax,%rcx,8), %rax
    pushq %rax
    movabsq $0xc5, %rax
    pushq %rax
    popq %rcx
    popq %rax
    cmpq %rcx, %rax
    setne %al
    movzbq %al, %rax
    pushq %rax
    popq %rax
    testq %rax, %rax
    jz L_if_end_35
    movabsq $0x1, %rax
    pushq %rax
    popq %rax
    pushq %rax
    pushq %rax
    movq $2, %rcx  /* IIIW_EXIT */
    subq $32, %rsp
    callq iii_witness_emit_kernel
    addq $32, %rsp
    popq %rax
    popq %rax
    movq %rbp, %rsp
    popq %rbp
    retq
L_if_end_35:
    leaq L_p_KK256_OUT(%rip), %rax
    pushq %rax
    movabsq $0x1, %rax
    pushq %rax
    popq %rcx
    popq %rax
    movq (%rax,%rcx,8), %rax
    pushq %rax
    movabsq $0xd2, %rax
    pushq %rax
    popq %rcx
    popq %rax
    cmpq %rcx, %rax
    setne %al
    movzbq %al, %rax
    pushq %rax
    popq %rax
    testq %rax, %rax
    jz L_if_end_37
    movabsq $0x2, %rax
    pushq %rax
    popq %rax
    pushq %rax
    pushq %rax
    movq $2, %rcx  /* IIIW_EXIT */
    subq $32, %rsp
    callq iii_witness_emit_kernel
    addq $32, %rsp
    popq %rax
    popq %rax
    movq %rbp, %rsp
    popq %rbp
    retq
L_if_end_37:
    leaq L_p_KK256_OUT(%rip), %rax
    pushq %rax
    movabsq $0x2, %rax
    pushq %rax
    popq %rcx
    popq %rax
    movq (%rax,%rcx,8), %rax
    pushq %rax
    movabsq $0x46, %rax
    pushq %rax
    popq %rcx
    popq %rax
    cmpq %rcx, %rax
    setne %al
    movzbq %al, %rax
    pushq %rax
    popq %rax
    testq %rax, %rax
    jz L_if_end_39
    movabsq $0x3, %rax
    pushq %rax
    popq %rax
    pushq %rax
    pushq %rax
    movq $2, %rcx  /* IIIW_EXIT */
    subq $32, %rsp
    callq iii_witness_emit_kernel
    addq $32, %rsp
    popq %rax
    popq %rax
    movq %rbp, %rsp
    popq %rbp
    retq
L_if_end_39:
    leaq L_p_KK256_OUT(%rip), %rax
    pushq %rax
    movabsq $0x1f, %rax
    pushq %rax
    popq %rcx
    popq %rax
    movq (%rax,%rcx,8), %rax
    pushq %rax
    movabsq $0x70, %rax
    pushq %rax
    popq %rcx
    popq %rax
    cmpq %rcx, %rax
    setne %al
    movzbq %al, %rax
    pushq %rax
    popq %rax
    testq %rax, %rax
    jz L_if_end_41
    movabsq $0x4, %rax
    pushq %rax
    popq %rax
    pushq %rax
    pushq %rax
    movq $2, %rcx  /* IIIW_EXIT */
    subq $32, %rsp
    callq iii_witness_emit_kernel
    addq $32, %rsp
    popq %rax
    popq %rax
    movq %rbp, %rsp
    popq %rbp
    retq
L_if_end_41:
    movabsq $0x61, %rax
    pushq %rax
    popq %rax
    pushq %rax
    leaq L_p_KK256_MSG(%rip), %rax
    pushq %rax
    movabsq $0x0, %rax
    pushq %rax
    popq %rcx
    popq %rax
    popq %rdx
    movq %rdx, (%rax,%rcx,8)
    movabsq $0x62, %rax
    pushq %rax
    popq %rax
    pushq %rax
    leaq L_p_KK256_MSG(%rip), %rax
    pushq %rax
    movabsq $0x1, %rax
    pushq %rax
    popq %rcx
    popq %rax
    popq %rdx
    movq %rdx, (%rax,%rcx,8)
    movabsq $0x63, %rax
    pushq %rax
    popq %rax
    pushq %rax
    leaq L_p_KK256_MSG(%rip), %rax
    pushq %rax
    movabsq $0x2, %rax
    pushq %rax
    popq %rcx
    popq %rax
    popq %rdx
    movq %rdx, (%rax,%rcx,8)
    leaq L_p_KK256_MSG(%rip), %rax
    pushq %rax
    popq %rax
    pushq %rax
    movabsq $0x3, %rax
    pushq %rax
    leaq L_p_KK256_OUT(%rip), %rax
    pushq %rax
    popq %rax
    pushq %rax
    popq %r8
    popq %rdx
    popq %rcx
    subq $32, %rsp
    callq L_p_keccak256_oneshot
    addq $32, %rsp
    pushq %rax
    popq %rax
    leaq L_p_KK256_OUT(%rip), %rax
    pushq %rax
    movabsq $0x0, %rax
    pushq %rax
    popq %rcx
    popq %rax
    movq (%rax,%rcx,8), %rax
    pushq %rax
    movabsq $0x4e, %rax
    pushq %rax
    popq %rcx
    popq %rax
    cmpq %rcx, %rax
    setne %al
    movzbq %al, %rax
    pushq %rax
    popq %rax
    testq %rax, %rax
    jz L_if_end_43
    movabsq $0x5, %rax
    pushq %rax
    popq %rax
    pushq %rax
    pushq %rax
    movq $2, %rcx  /* IIIW_EXIT */
    subq $32, %rsp
    callq iii_witness_emit_kernel
    addq $32, %rsp
    popq %rax
    popq %rax
    movq %rbp, %rsp
    popq %rbp
    retq
L_if_end_43:
    leaq L_p_KK256_OUT(%rip), %rax
    pushq %rax
    movabsq $0x1, %rax
    pushq %rax
    popq %rcx
    popq %rax
    movq (%rax,%rcx,8), %rax
    pushq %rax
    movabsq $0x3, %rax
    pushq %rax
    popq %rcx
    popq %rax
    cmpq %rcx, %rax
    setne %al
    movzbq %al, %rax
    pushq %rax
    popq %rax
    testq %rax, %rax
    jz L_if_end_45
    movabsq $0x6, %rax
    pushq %rax
    popq %rax
    pushq %rax
    pushq %rax
    movq $2, %rcx  /* IIIW_EXIT */
    subq $32, %rsp
    callq iii_witness_emit_kernel
    addq $32, %rsp
    popq %rax
    popq %rax
    movq %rbp, %rsp
    popq %rbp
    retq
L_if_end_45:
    leaq L_p_KK256_OUT(%rip), %rax
    pushq %rax
    movabsq $0x2, %rax
    pushq %rax
    popq %rcx
    popq %rax
    movq (%rax,%rcx,8), %rax
    pushq %rax
    movabsq $0x65, %rax
    pushq %rax
    popq %rcx
    popq %rax
    cmpq %rcx, %rax
    setne %al
    movzbq %al, %rax
    pushq %rax
    popq %rax
    testq %rax, %rax
    jz L_if_end_47
    movabsq $0x7, %rax
    pushq %rax
    popq %rax
    pushq %rax
    pushq %rax
    movq $2, %rcx  /* IIIW_EXIT */
    subq $32, %rsp
    callq iii_witness_emit_kernel
    addq $32, %rsp
    popq %rax
    popq %rax
    movq %rbp, %rsp
    popq %rbp
    retq
L_if_end_47:
    leaq L_p_KK256_OUT(%rip), %rax
    pushq %rax
    movabsq $0x1f, %rax
    pushq %rax
    popq %rcx
    popq %rax
    movq (%rax,%rcx,8), %rax
    pushq %rax
    movabsq $0x45, %rax
    pushq %rax
    popq %rcx
    popq %rax
    cmpq %rcx, %rax
    setne %al
    movzbq %al, %rax
    pushq %rax
    popq %rax
    testq %rax, %rax
    jz L_if_end_49
    movabsq $0x8, %rax
    pushq %rax
    popq %rax
    pushq %rax
    pushq %rax
    movq $2, %rcx  /* IIIW_EXIT */
    subq $32, %rsp
    callq iii_witness_emit_kernel
    addq $32, %rsp
    popq %rax
    popq %rax
    movq %rbp, %rsp
    popq %rbp
    retq
L_if_end_49:
    subq $32, %rsp
    callq L_p_keccak256_init
    addq $32, %rsp
    pushq %rax
    popq %rax
    movabsq $0x61, %rax
    pushq %rax
    popq %rax
    pushq %rax
    leaq L_p_KK256_MSG(%rip), %rax
    pushq %rax
    movabsq $0x0, %rax
    pushq %rax
    popq %rcx
    popq %rax
    popq %rdx
    movq %rdx, (%rax,%rcx,8)
    leaq L_p_KK256_MSG(%rip), %rax
    pushq %rax
    popq %rax
    pushq %rax
    movabsq $0x1, %rax
    pushq %rax
    popq %rdx
    popq %rcx
    subq $32, %rsp
    callq L_p_keccak256_update
    addq $32, %rsp
    pushq %rax
    popq %rax
    movabsq $0x62, %rax
    pushq %rax
    popq %rax
    pushq %rax
    leaq L_p_KK256_MSG(%rip), %rax
    pushq %rax
    movabsq $0x0, %rax
    pushq %rax
    popq %rcx
    popq %rax
    popq %rdx
    movq %rdx, (%rax,%rcx,8)
    movabsq $0x63, %rax
    pushq %rax
    popq %rax
    pushq %rax
    leaq L_p_KK256_MSG(%rip), %rax
    pushq %rax
    movabsq $0x1, %rax
    pushq %rax
    popq %rcx
    popq %rax
    popq %rdx
    movq %rdx, (%rax,%rcx,8)
    leaq L_p_KK256_MSG(%rip), %rax
    pushq %rax
    popq %rax
    pushq %rax
    movabsq $0x2, %rax
    pushq %rax
    popq %rdx
    popq %rcx
    subq $32, %rsp
    callq L_p_keccak256_update
    addq $32, %rsp
    pushq %rax
    popq %rax
    leaq L_p_KK256_OUT(%rip), %rax
    pushq %rax
    popq %rax
    pushq %rax
    popq %rcx
    subq $32, %rsp
    callq L_p_keccak256_final
    addq $32, %rsp
    pushq %rax
    popq %rax
    leaq L_p_KK256_OUT(%rip), %rax
    pushq %rax
    movabsq $0x0, %rax
    pushq %rax
    popq %rcx
    popq %rax
    movq (%rax,%rcx,8), %rax
    pushq %rax
    movabsq $0x4e, %rax
    pushq %rax
    popq %rcx
    popq %rax
    cmpq %rcx, %rax
    setne %al
    movzbq %al, %rax
    pushq %rax
    popq %rax
    testq %rax, %rax
    jz L_if_end_51
    movabsq $0x9, %rax
    pushq %rax
    popq %rax
    pushq %rax
    pushq %rax
    movq $2, %rcx  /* IIIW_EXIT */
    subq $32, %rsp
    callq iii_witness_emit_kernel
    addq $32, %rsp
    popq %rax
    popq %rax
    movq %rbp, %rsp
    popq %rbp
    retq
L_if_end_51:
    leaq L_p_KK256_OUT(%rip), %rax
    pushq %rax
    movabsq $0x1f, %rax
    pushq %rax
    popq %rcx
    popq %rax
    movq (%rax,%rcx,8), %rax
    pushq %rax
    movabsq $0x45, %rax
    pushq %rax
    popq %rcx
    popq %rax
    cmpq %rcx, %rax
    setne %al
    movzbq %al, %rax
    pushq %rax
    popq %rax
    testq %rax, %rax
    jz L_if_end_53
    movabsq $0xa, %rax
    pushq %rax
    popq %rax
    pushq %rax
    pushq %rax
    movq $2, %rcx  /* IIIW_EXIT */
    subq $32, %rsp
    callq iii_witness_emit_kernel
    addq $32, %rsp
    popq %rax
    popq %rax
    movq %rbp, %rsp
    popq %rbp
    retq
L_if_end_53:
    movabsq $0x0, %rax
    pushq %rax
    popq %rax
    movq %rax, -8(%rbp)
L_for_top_54:
    movq -8(%rbp), %rax
    pushq %rax
    movabsq $0xc8, %rax
    pushq %rax
    popq %rcx
    popq %rax
    cmpq %rcx, %rax
    setb %al
    movzbq %al, %rax
    pushq %rax
    popq %rax
    testq %rax, %rax
    jz L_for_end_55
    movq -8(%rbp), %rax
    pushq %rax
    movabsq $0x7, %rax
    pushq %rax
    popq %rcx
    popq %rax
    imulq %rcx, %rax
    pushq %rax
    movabsq $0x3, %rax
    pushq %rax
    popq %rcx
    popq %rax
    addq %rcx, %rax
    pushq %rax
    popq %rax
    movzbq %al, %rax
    pushq %rax
    popq %rax
    pushq %rax
    leaq L_p_KK256_BIG(%rip), %rax
    pushq %rax
    movq -8(%rbp), %rax
    pushq %rax
    popq %rcx
    popq %rax
    popq %rdx
    movq %rdx, (%rax,%rcx,8)
    movq -8(%rbp), %rax
    pushq %rax
    movabsq $0x1, %rax
    pushq %rax
    popq %rcx
    popq %rax
    addq %rcx, %rax
    pushq %rax
    popq %rax
    movq %rax, -8(%rbp)
    jmp L_for_top_54
L_for_end_55:
    leaq L_p_KK256_BIG(%rip), %rax
    pushq %rax
    popq %rax
    pushq %rax
    movabsq $0xc8, %rax
    pushq %rax
    leaq L_p_KK256_REF(%rip), %rax
    pushq %rax
    popq %rax
    pushq %rax
    popq %r8
    popq %rdx
    popq %rcx
    subq $32, %rsp
    callq L_p_keccak256_oneshot
    addq $32, %rsp
    pushq %rax
    popq %rax
    subq $32, %rsp
    callq L_p_keccak256_init
    addq $32, %rsp
    pushq %rax
    popq %rax
    leaq L_p_KK256_BIG(%rip), %rax
    pushq %rax
    popq %rax
    pushq %rax
    movabsq $0x96, %rax
    pushq %rax
    popq %rdx
    popq %rcx
    subq $32, %rsp
    callq L_p_keccak256_update
    addq $32, %rsp
    pushq %rax
    popq %rax
    leaq L_p_KK256_BIG(%rip), %rax
    pushq %rax
    popq %rax
    pushq %rax
    movabsq $0x96, %rax
    pushq %rax
    popq %rcx
    popq %rax
    addq %rcx, %rax
    pushq %rax
    movabsq $0x32, %rax
    pushq %rax
    popq %rdx
    popq %rcx
    subq $32, %rsp
    callq L_p_keccak256_update
    addq $32, %rsp
    pushq %rax
    popq %rax
    leaq L_p_KK256_OUT(%rip), %rax
    pushq %rax
    popq %rax
    pushq %rax
    popq %rcx
    subq $32, %rsp
    callq L_p_keccak256_final
    addq $32, %rsp
    pushq %rax
    popq %rax
    movabsq $0x0, %rax
    pushq %rax
    popq %rax
    movq %rax, -16(%rbp)
L_for_top_56:
    movq -16(%rbp), %rax
    pushq %rax
    movabsq $0x20, %rax
    pushq %rax
    popq %rcx
    popq %rax
    cmpq %rcx, %rax
    setb %al
    movzbq %al, %rax
    pushq %rax
    popq %rax
    testq %rax, %rax
    jz L_for_end_57
    leaq L_p_KK256_OUT(%rip), %rax
    pushq %rax
    movq -16(%rbp), %rax
    pushq %rax
    popq %rcx
    popq %rax
    movq (%rax,%rcx,8), %rax
    pushq %rax
    leaq L_p_KK256_REF(%rip), %rax
    pushq %rax
    movq -16(%rbp), %rax
    pushq %rax
    popq %rcx
    popq %rax
    movq (%rax,%rcx,8), %rax
    pushq %rax
    popq %rcx
    popq %rax
    cmpq %rcx, %rax
    setne %al
    movzbq %al, %rax
    pushq %rax
    popq %rax
    testq %rax, %rax
    jz L_if_end_59
    movabsq $0xb, %rax
    pushq %rax
    popq %rax
    pushq %rax
    pushq %rax
    movq $2, %rcx  /* IIIW_EXIT */
    subq $32, %rsp
    callq iii_witness_emit_kernel
    addq $32, %rsp
    popq %rax
    popq %rax
    movq %rbp, %rsp
    popq %rbp
    retq
L_if_end_59:
    movq -16(%rbp), %rax
    pushq %rax
    movabsq $0x1, %rax
    pushq %rax
    popq %rcx
    popq %rax
    addq %rcx, %rax
    pushq %rax
    popq %rax
    movq %rax, -16(%rbp)
    jmp L_for_top_56
L_for_end_57:
    movabsq $0x63, %rax
    pushq %rax
    popq %rax
    pushq %rax
    pushq %rax
    movq $2, %rcx  /* IIIW_EXIT */
    subq $32, %rsp
    callq iii_witness_emit_kernel
    addq $32, %rsp
    popq %rax
    popq %rax
    movq %rbp, %rsp
    popq %rbp
    retq
    .seh_endproc
    .section .text,"xr"  /* PE/COFF §6 */
    /* IRQL_REQUIRES_MAX(2) */
    .global L_p_k256_blk_eq
L_p_k256_blk_eq:
    .seh_proc L_p_k256_blk_eq
    pushq %rbp
    .seh_pushreg %rbp
    movq %rsp, %rbp
    subq $1024, %rsp
    .seh_stackalloc 1024
    .seh_endprologue
    /* witness enter (D9, ADR-024) */
    movq $1, %rcx  /* IIIW_ENTER */
    subq $32, %rsp
    callq iii_witness_emit_kernel
    addq $32, %rsp
    movabsq $0x0, %rax
    pushq %rax
    popq %rax
    movq %rax, -8(%rbp)
L_for_top_60:
    movq -8(%rbp), %rax
    pushq %rax
    movabsq $0x20, %rax
    pushq %rax
    popq %rcx
    popq %rax
    cmpq %rcx, %rax
    setb %al
    movzbq %al, %rax
    pushq %rax
    popq %rax
    testq %rax, %rax
    jz L_for_end_61
    leaq L_p_KK256_OUT(%rip), %rax
    pushq %rax
    movq -8(%rbp), %rax
    pushq %rax
    popq %rcx
    popq %rax
    movq (%rax,%rcx,8), %rax
    pushq %rax
    leaq L_p_KK256_BREF(%rip), %rax
    pushq %rax
    movq -8(%rbp), %rax
    pushq %rax
    popq %rcx
    popq %rax
    movq (%rax,%rcx,8), %rax
    pushq %rax
    popq %rcx
    popq %rax
    cmpq %rcx, %rax
    setne %al
    movzbq %al, %rax
    pushq %rax
    popq %rax
    testq %rax, %rax
    jz L_if_end_63
    movabsq $0x0, %rax
    pushq %rax
    popq %rax
    pushq %rax
    pushq %rax
    movq $2, %rcx  /* IIIW_EXIT */
    subq $32, %rsp
    callq iii_witness_emit_kernel
    addq $32, %rsp
    popq %rax
    popq %rax
    movq %rbp, %rsp
    popq %rbp
    retq
L_if_end_63:
    movq -8(%rbp), %rax
    pushq %rax
    movabsq $0x1, %rax
    pushq %rax
    popq %rcx
    popq %rax
    addq %rcx, %rax
    pushq %rax
    popq %rax
    movq %rax, -8(%rbp)
    jmp L_for_top_60
L_for_end_61:
    movabsq $0x1, %rax
    pushq %rax
    popq %rax
    pushq %rax
    pushq %rax
    movq $2, %rcx  /* IIIW_EXIT */
    subq $32, %rsp
    callq iii_witness_emit_kernel
    addq $32, %rsp
    popq %rax
    popq %rax
    movq %rbp, %rsp
    popq %rbp
    retq
    .seh_endproc
    .section .text,"xr"  /* PE/COFF §6 */
    /* IRQL_REQUIRES_MAX(2) */
    .global L_p_keccak256_block_kat
L_p_keccak256_block_kat:
    .seh_proc L_p_keccak256_block_kat
    pushq %rbp
    .seh_pushreg %rbp
    movq %rsp, %rbp
    subq $1024, %rsp
    .seh_stackalloc 1024
    .seh_endprologue
    /* witness enter (D9, ADR-024) */
    movq $1, %rcx  /* IIIW_ENTER */
    subq $32, %rsp
    callq iii_witness_emit_kernel
    addq $32, %rsp
    movabsq $0x190, %rax
    pushq %rax
    popq %rax
    movq %rax, -8(%rbp)
    movabsq $0x0, %rax
    pushq %rax
    popq %rax
    movq %rax, -16(%rbp)
L_for_top_64:
    movq -16(%rbp), %rax
    pushq %rax
    movq -8(%rbp), %rax
    pushq %rax
    popq %rcx
    popq %rax
    cmpq %rcx, %rax
    setb %al
    movzbq %al, %rax
    pushq %rax
    popq %rax
    testq %rax, %rax
    jz L_for_end_65
    movq -16(%rbp), %rax
    pushq %rax
    movabsq $0x83, %rax
    pushq %rax
    popq %rcx
    popq %rax
    imulq %rcx, %rax
    pushq %rax
    movabsq $0x11, %rax
    pushq %rax
    popq %rcx
    popq %rax
    addq %rcx, %rax
    pushq %rax
    movabsq $0xff, %rax
    pushq %rax
    popq %rcx
    popq %rax
    andq %rcx, %rax
    pushq %rax
    popq %rax
    movzbq %al, %rax
    pushq %rax
    popq %rax
    pushq %rax
    leaq L_p_KK256_STREAM(%rip), %rax
    pushq %rax
    movq -16(%rbp), %rax
    pushq %rax
    popq %rcx
    popq %rax
    popq %rdx
    movq %rdx, (%rax,%rcx,8)
    movq -16(%rbp), %rax
    pushq %rax
    movabsq $0x1, %rax
    pushq %rax
    popq %rcx
    popq %rax
    addq %rcx, %rax
    pushq %rax
    popq %rax
    movq %rax, -16(%rbp)
    jmp L_for_top_64
L_for_end_65:
    leaq L_p_KK256_STREAM(%rip), %rax
    pushq %rax
    popq %rax
    pushq %rax
    popq %rax
    movq %rax, -24(%rbp)
    movq -24(%rbp), %rax
    pushq %rax
    movq -8(%rbp), %rax
    pushq %rax
    leaq L_p_KK256_BREF(%rip), %rax
    pushq %rax
    popq %rax
    pushq %rax
    popq %r8
    popq %rdx
    popq %rcx
    subq $32, %rsp
    callq L_p_keccak256_oneshot
    addq $32, %rsp
    pushq %rax
    popq %rax
    subq $32, %rsp
    callq L_p_keccak256_init
    addq $32, %rsp
    pushq %rax
    popq %rax
    movq -24(%rbp), %rax
    pushq %rax
    movabsq $0x1, %rax
    pushq %rax
    popq %rdx
    popq %rcx
    subq $32, %rsp
    callq L_p_keccak256_update
    addq $32, %rsp
    pushq %rax
    popq %rax
    movq -24(%rbp), %rax
    pushq %rax
    movabsq $0x1, %rax
    pushq %rax
    popq %rcx
    popq %rax
    addq %rcx, %rax
    pushq %rax
    movabsq $0x87, %rax
    pushq %rax
    popq %rdx
    popq %rcx
    subq $32, %rsp
    callq L_p_keccak256_update
    addq $32, %rsp
    pushq %rax
    popq %rax
    movq -24(%rbp), %rax
    pushq %rax
    movabsq $0x88, %rax
    pushq %rax
    popq %rcx
    popq %rax
    addq %rcx, %rax
    pushq %rax
    movabsq $0x1, %rax
    pushq %rax
    popq %rdx
    popq %rcx
    subq $32, %rsp
    callq L_p_keccak256_update
    addq $32, %rsp
    pushq %rax
    popq %rax
    movq -24(%rbp), %rax
    pushq %rax
    movabsq $0x89, %rax
    pushq %rax
    popq %rcx
    popq %rax
    addq %rcx, %rax
    pushq %rax
    movabsq $0x107, %rax
    pushq %rax
    popq %rdx
    popq %rcx
    subq $32, %rsp
    callq L_p_keccak256_update
    addq $32, %rsp
    pushq %rax
    popq %rax
    leaq L_p_KK256_OUT(%rip), %rax
    pushq %rax
    popq %rax
    pushq %rax
    popq %rcx
    subq $32, %rsp
    callq L_p_keccak256_final
    addq $32, %rsp
    pushq %rax
    popq %rax
    subq $32, %rsp
    callq L_p_k256_blk_eq
    addq $32, %rsp
    pushq %rax
    movabsq $0x0, %rax
    pushq %rax
    popq %rcx
    popq %rax
    cmpq %rcx, %rax
    sete %al
    movzbq %al, %rax
    pushq %rax
    popq %rax
    testq %rax, %rax
    jz L_if_end_67
    movabsq $0x1, %rax
    pushq %rax
    popq %rax
    pushq %rax
    pushq %rax
    movq $2, %rcx  /* IIIW_EXIT */
    subq $32, %rsp
    callq iii_witness_emit_kernel
    addq $32, %rsp
    popq %rax
    popq %rax
    movq %rbp, %rsp
    popq %rbp
    retq
L_if_end_67:
    subq $32, %rsp
    callq L_p_keccak256_init
    addq $32, %rsp
    pushq %rax
    popq %rax
    movq -24(%rbp), %rax
    pushq %rax
    movabsq $0x88, %rax
    pushq %rax
    popq %rdx
    popq %rcx
    subq $32, %rsp
    callq L_p_keccak256_update
    addq $32, %rsp
    pushq %rax
    popq %rax
    movq -24(%rbp), %rax
    pushq %rax
    movabsq $0x88, %rax
    pushq %rax
    popq %rcx
    popq %rax
    addq %rcx, %rax
    pushq %rax
    movabsq $0x88, %rax
    pushq %rax
    popq %rdx
    popq %rcx
    subq $32, %rsp
    callq L_p_keccak256_update
    addq $32, %rsp
    pushq %rax
    popq %rax
    movq -24(%rbp), %rax
    pushq %rax
    movabsq $0x110, %rax
    pushq %rax
    popq %rcx
    popq %rax
    addq %rcx, %rax
    pushq %rax
    movabsq $0x80, %rax
    pushq %rax
    popq %rdx
    popq %rcx
    subq $32, %rsp
    callq L_p_keccak256_update
    addq $32, %rsp
    pushq %rax
    popq %rax
    leaq L_p_KK256_OUT(%rip), %rax
    pushq %rax
    popq %rax
    pushq %rax
    popq %rcx
    subq $32, %rsp
    callq L_p_keccak256_final
    addq $32, %rsp
    pushq %rax
    popq %rax
    subq $32, %rsp
    callq L_p_k256_blk_eq
    addq $32, %rsp
    pushq %rax
    movabsq $0x0, %rax
    pushq %rax
    popq %rcx
    popq %rax
    cmpq %rcx, %rax
    sete %al
    movzbq %al, %rax
    pushq %rax
    popq %rax
    testq %rax, %rax
    jz L_if_end_69
    movabsq $0x2, %rax
    pushq %rax
    popq %rax
    pushq %rax
    pushq %rax
    movq $2, %rcx  /* IIIW_EXIT */
    subq $32, %rsp
    callq iii_witness_emit_kernel
    addq $32, %rsp
    popq %rax
    popq %rax
    movq %rbp, %rsp
    popq %rbp
    retq
L_if_end_69:
    subq $32, %rsp
    callq L_p_keccak256_init
    addq $32, %rsp
    pushq %rax
    popq %rax
    movq -24(%rbp), %rax
    pushq %rax
    movq -8(%rbp), %rax
    pushq %rax
    popq %rdx
    popq %rcx
    subq $32, %rsp
    callq L_p_keccak256_update
    addq $32, %rsp
    pushq %rax
    popq %rax
    leaq L_p_KK256_OUT(%rip), %rax
    pushq %rax
    popq %rax
    pushq %rax
    popq %rcx
    subq $32, %rsp
    callq L_p_keccak256_final
    addq $32, %rsp
    pushq %rax
    popq %rax
    subq $32, %rsp
    callq L_p_k256_blk_eq
    addq $32, %rsp
    pushq %rax
    movabsq $0x0, %rax
    pushq %rax
    popq %rcx
    popq %rax
    cmpq %rcx, %rax
    sete %al
    movzbq %al, %rax
    pushq %rax
    popq %rax
    testq %rax, %rax
    jz L_if_end_71
    movabsq $0x3, %rax
    pushq %rax
    popq %rax
    pushq %rax
    pushq %rax
    movq $2, %rcx  /* IIIW_EXIT */
    subq $32, %rsp
    callq iii_witness_emit_kernel
    addq $32, %rsp
    popq %rax
    popq %rax
    movq %rbp, %rsp
    popq %rbp
    retq
L_if_end_71:
    subq $32, %rsp
    callq L_p_keccak256_init
    addq $32, %rsp
    pushq %rax
    popq %rax
    movabsq $0x0, %rax
    pushq %rax
    popq %rax
    movq %rax, -32(%rbp)
L_for_top_72:
    movq -32(%rbp), %rax
    pushq %rax
    movq -8(%rbp), %rax
    pushq %rax
    popq %rcx
    popq %rax
    cmpq %rcx, %rax
    setb %al
    movzbq %al, %rax
    pushq %rax
    popq %rax
    testq %rax, %rax
    jz L_for_end_73
    movq -24(%rbp), %rax
    pushq %rax
    movq -32(%rbp), %rax
    pushq %rax
    popq %rcx
    popq %rax
    addq %rcx, %rax
    pushq %rax
    movabsq $0x1, %rax
    pushq %rax
    popq %rdx
    popq %rcx
    subq $32, %rsp
    callq L_p_keccak256_update
    addq $32, %rsp
    pushq %rax
    popq %rax
    movq -32(%rbp), %rax
    pushq %rax
    movabsq $0x1, %rax
    pushq %rax
    popq %rcx
    popq %rax
    addq %rcx, %rax
    pushq %rax
    popq %rax
    movq %rax, -32(%rbp)
    jmp L_for_top_72
L_for_end_73:
    leaq L_p_KK256_OUT(%rip), %rax
    pushq %rax
    popq %rax
    pushq %rax
    popq %rcx
    subq $32, %rsp
    callq L_p_keccak256_final
    addq $32, %rsp
    pushq %rax
    popq %rax
    subq $32, %rsp
    callq L_p_k256_blk_eq
    addq $32, %rsp
    pushq %rax
    movabsq $0x0, %rax
    pushq %rax
    popq %rcx
    popq %rax
    cmpq %rcx, %rax
    sete %al
    movzbq %al, %rax
    pushq %rax
    popq %rax
    testq %rax, %rax
    jz L_if_end_75
    movabsq $0x4, %rax
    pushq %rax
    popq %rax
    pushq %rax
    pushq %rax
    movq $2, %rcx  /* IIIW_EXIT */
    subq $32, %rsp
    callq iii_witness_emit_kernel
    addq $32, %rsp
    popq %rax
    popq %rax
    movq %rbp, %rsp
    popq %rbp
    retq
L_if_end_75:
    subq $32, %rsp
    callq L_p_keccak256_init
    addq $32, %rsp
    pushq %rax
    popq %rax
    movq -24(%rbp), %rax
    pushq %rax
    movabsq $0x87, %rax
    pushq %rax
    popq %rdx
    popq %rcx
    subq $32, %rsp
    callq L_p_keccak256_update
    addq $32, %rsp
    pushq %rax
    popq %rax
    movq -24(%rbp), %rax
    pushq %rax
    movabsq $0x87, %rax
    pushq %rax
    popq %rcx
    popq %rax
    addq %rcx, %rax
    pushq %rax
    movabsq $0x89, %rax
    pushq %rax
    popq %rdx
    popq %rcx
    subq $32, %rsp
    callq L_p_keccak256_update
    addq $32, %rsp
    pushq %rax
    popq %rax
    movq -24(%rbp), %rax
    pushq %rax
    movabsq $0x110, %rax
    pushq %rax
    popq %rcx
    popq %rax
    addq %rcx, %rax
    pushq %rax
    movabsq $0x80, %rax
    pushq %rax
    popq %rdx
    popq %rcx
    subq $32, %rsp
    callq L_p_keccak256_update
    addq $32, %rsp
    pushq %rax
    popq %rax
    leaq L_p_KK256_OUT(%rip), %rax
    pushq %rax
    popq %rax
    pushq %rax
    popq %rcx
    subq $32, %rsp
    callq L_p_keccak256_final
    addq $32, %rsp
    pushq %rax
    popq %rax
    subq $32, %rsp
    callq L_p_k256_blk_eq
    addq $32, %rsp
    pushq %rax
    movabsq $0x0, %rax
    pushq %rax
    popq %rcx
    popq %rax
    cmpq %rcx, %rax
    sete %al
    movzbq %al, %rax
    pushq %rax
    popq %rax
    testq %rax, %rax
    jz L_if_end_77
    movabsq $0x5, %rax
    pushq %rax
    popq %rax
    pushq %rax
    pushq %rax
    movq $2, %rcx  /* IIIW_EXIT */
    subq $32, %rsp
    callq iii_witness_emit_kernel
    addq $32, %rsp
    popq %rax
    popq %rax
    movq %rbp, %rsp
    popq %rbp
    retq
L_if_end_77:
    movabsq $0x63, %rax
    pushq %rax
    popq %rax
    pushq %rax
    pushq %rax
    movq $2, %rcx  /* IIIW_EXIT */
    subq $32, %rsp
    callq iii_witness_emit_kernel
    addq $32, %rsp
    popq %rax
    popq %rax
    movq %rbp, %rsp
    popq %rbp
    retq
    .seh_endproc
