# III Stage-0 Ring-0 codegen output (Windows kernel-mode .sys)
# Output binary: iiis-0.sys
    .att_syntax
    .section .rdata,"dr"
L_str_0:
    .ascii "sha256.iii\0"
L_str_1:
    .ascii "sha256_ni.iii\0"
L_str_2:
    .ascii "cpufeat.iii\0"
L_str_3:
    .ascii "sha256.iii\0"
L_str_4:
    .ascii "sha256.iii\0"
L_str_5:
    .ascii "sha256.iii\0"
L_str_6:
    .ascii "sha256_ni.iii\0"
L_str_7:
    .ascii "sha256_ni.iii\0"
L_str_8:
    .ascii "sha256_ni.iii\0"
    .section .rodata
L_p_SHA_PATH_SOFTWARE:
    .quad 0x0
L_p_SHA_PATH_SHA_NI:
    .quad 0x1
L_p_SHA_OV_AUTO:
    .quad 0x0
L_p_SHA_OV_SOFTWARE:
    .quad 0x1
L_p_SHA_OV_SHA_NI:
    .quad 0x2
    .section .data
    .global L_p_SHA_DISPATCH_OV
L_p_SHA_DISPATCH_OV:
    .quad 0x0
    .global L_p_SHA_DISPATCH_ACTIVE
L_p_SHA_DISPATCH_ACTIVE:
    .quad 0x0
    .section .text,"xr"  /* PE/COFF §6 */
    /* IRQL_REQUIRES_MAX(2) */
    .global L_p_sha256_dispatch_select
L_p_sha256_dispatch_select:
    .seh_proc L_p_sha256_dispatch_select
    pushq %rbp
    .seh_pushreg %rbp
    movq %rsp, %rbp
    subq $1024, %rsp
    .seh_stackalloc 1024
    .seh_endprologue
    /* witness enter (D9, ADR-024) */
    movq $1, %rcx  /* IIIW_ENTER */
    subq $32, %rsp
    callq iii_witness_emit_kernel
    addq $32, %rsp
    movq L_p_SHA_DISPATCH_OV(%rip), %rax
    pushq %rax
    popq %rax
    movq %rax, -8(%rbp)
    movl -8(%rbp), %eax
    pushq %rax
    movq L_p_SHA_OV_SOFTWARE(%rip), %rax
    pushq %rax
    popq %rcx
    popq %rax
    cmpq %rcx, %rax
    sete %al
    movzbq %al, %rax
    pushq %rax
    popq %rax
    testq %rax, %rax
    jz L_if_end_1
    movq L_p_SHA_PATH_SOFTWARE(%rip), %rax
    pushq %rax
    popq %rax
    pushq %rax
    pushq %rax
    movq $2, %rcx  /* IIIW_EXIT */
    subq $32, %rsp
    callq iii_witness_emit_kernel
    addq $32, %rsp
    popq %rax
    popq %rax
    movq %rbp, %rsp
    popq %rbp
    retq
L_if_end_1:
    subq $32, %rsp
    callq L_p_cpufeat_has_sha
    addq $32, %rsp
    pushq %rax
    movabsq $0x1, %rax
    pushq %rax
    popq %rcx
    popq %rax
    cmpq %rcx, %rax
    sete %al
    movzbq %al, %rax
    pushq %rax
    popq %rax
    testq %rax, %rax
    jz L_if_end_3
    movq L_p_SHA_PATH_SHA_NI(%rip), %rax
    pushq %rax
    popq %rax
    pushq %rax
    pushq %rax
    movq $2, %rcx  /* IIIW_EXIT */
    subq $32, %rsp
    callq iii_witness_emit_kernel
    addq $32, %rsp
    popq %rax
    popq %rax
    movq %rbp, %rsp
    popq %rbp
    retq
L_if_end_3:
    movq L_p_SHA_PATH_SOFTWARE(%rip), %rax
    pushq %rax
    popq %rax
    pushq %rax
    pushq %rax
    movq $2, %rcx  /* IIIW_EXIT */
    subq $32, %rsp
    callq iii_witness_emit_kernel
    addq $32, %rsp
    popq %rax
    popq %rax
    movq %rbp, %rsp
    popq %rbp
    retq
    .seh_endproc
    .section .text,"xr"  /* PE/COFF §6 */
    /* IRQL_REQUIRES_MAX(2) */
    .global L_p_sha256_dispatch_force_path
L_p_sha256_dispatch_force_path:
    .seh_proc L_p_sha256_dispatch_force_path
    pushq %rbp
    .seh_pushreg %rbp
    movq %rsp, %rbp
    subq $1024, %rsp
    .seh_stackalloc 1024
    .seh_endprologue
    movq %rcx, -8(%rbp)
    /* witness enter (D9, ADR-024) */
    movq $1, %rcx  /* IIIW_ENTER */
    subq $32, %rsp
    callq iii_witness_emit_kernel
    addq $32, %rsp
    movl -8(%rbp), %eax
    pushq %rax
    movabsq $0xffffffff, %rax
    pushq %rax
    popq %rcx
    popq %rax
    andq %rcx, %rax
    pushq %rax
    popq %rax
    movq %rax, -16(%rbp)
    movl -16(%rbp), %eax
    pushq %rax
    movq L_p_SHA_PATH_SOFTWARE(%rip), %rax
    pushq %rax
    popq %rcx
    popq %rax
    cmpq %rcx, %rax
    sete %al
    movzbq %al, %rax
    pushq %rax
    popq %rax
    testq %rax, %rax
    jz L_if_end_5
    movq L_p_SHA_OV_SOFTWARE(%rip), %rax
    pushq %rax
    popq %rax
    movq %rax, L_p_SHA_DISPATCH_OV(%rip)
    subq $32, %rsp
    callq L_p_sha256_dispatch_select
    addq $32, %rsp
    pushq %rax
    popq %rax
    pushq %rax
    pushq %rax
    movq $2, %rcx  /* IIIW_EXIT */
    subq $32, %rsp
    callq iii_witness_emit_kernel
    addq $32, %rsp
    popq %rax
    popq %rax
    movq %rbp, %rsp
    popq %rbp
    retq
L_if_end_5:
    movl -16(%rbp), %eax
    pushq %rax
    movq L_p_SHA_PATH_SHA_NI(%rip), %rax
    pushq %rax
    popq %rcx
    popq %rax
    cmpq %rcx, %rax
    sete %al
    movzbq %al, %rax
    pushq %rax
    popq %rax
    testq %rax, %rax
    jz L_if_end_7
    movq L_p_SHA_OV_SHA_NI(%rip), %rax
    pushq %rax
    popq %rax
    movq %rax, L_p_SHA_DISPATCH_OV(%rip)
    subq $32, %rsp
    callq L_p_sha256_dispatch_select
    addq $32, %rsp
    pushq %rax
    popq %rax
    pushq %rax
    pushq %rax
    movq $2, %rcx  /* IIIW_EXIT */
    subq $32, %rsp
    callq iii_witness_emit_kernel
    addq $32, %rsp
    popq %rax
    popq %rax
    movq %rbp, %rsp
    popq %rbp
    retq
L_if_end_7:
    subq $32, %rsp
    callq L_p_sha256_dispatch_select
    addq $32, %rsp
    pushq %rax
    popq %rax
    pushq %rax
    pushq %rax
    movq $2, %rcx  /* IIIW_EXIT */
    subq $32, %rsp
    callq iii_witness_emit_kernel
    addq $32, %rsp
    popq %rax
    popq %rax
    movq %rbp, %rsp
    popq %rbp
    retq
    .seh_endproc
    .section .text,"xr"  /* PE/COFF §6 */
    /* IRQL_REQUIRES_MAX(2) */
    .global L_p_sha256_dispatch_path
L_p_sha256_dispatch_path:
    .seh_proc L_p_sha256_dispatch_path
    pushq %rbp
    .seh_pushreg %rbp
    movq %rsp, %rbp
    subq $1024, %rsp
    .seh_stackalloc 1024
    .seh_endprologue
    /* witness enter (D9, ADR-024) */
    movq $1, %rcx  /* IIIW_ENTER */
    subq $32, %rsp
    callq iii_witness_emit_kernel
    addq $32, %rsp
    subq $32, %rsp
    callq L_p_sha256_dispatch_select
    addq $32, %rsp
    pushq %rax
    popq %rax
    pushq %rax
    pushq %rax
    movq $2, %rcx  /* IIIW_EXIT */
    subq $32, %rsp
    callq iii_witness_emit_kernel
    addq $32, %rsp
    popq %rax
    popq %rax
    movq %rbp, %rsp
    popq %rbp
    retq
    .seh_endproc
    .section .text,"xr"  /* PE/COFF §6 */
    /* IRQL_REQUIRES_MAX(2) */
    .global L_p_sha256_dispatch_oneshot
L_p_sha256_dispatch_oneshot:
    .seh_proc L_p_sha256_dispatch_oneshot
    pushq %rbp
    .seh_pushreg %rbp
    movq %rsp, %rbp
    subq $1024, %rsp
    .seh_stackalloc 1024
    .seh_endprologue
    movq %rcx, -8(%rbp)
    movq %rdx, -16(%rbp)
    movq %r8, -24(%rbp)
    /* witness enter (D9, ADR-024) */
    movq $1, %rcx  /* IIIW_ENTER */
    subq $32, %rsp
    callq iii_witness_emit_kernel
    addq $32, %rsp
    subq $32, %rsp
    callq L_p_sha256_dispatch_select
    addq $32, %rsp
    pushq %rax
    movq L_p_SHA_PATH_SHA_NI(%rip), %rax
    pushq %rax
    popq %rcx
    popq %rax
    cmpq %rcx, %rax
    sete %al
    movzbq %al, %rax
    pushq %rax
    popq %rax
    testq %rax, %rax
    jz L_if_end_9
    movq -8(%rbp), %rax
    pushq %rax
    movq -16(%rbp), %rax
    pushq %rax
    movq -24(%rbp), %rax
    pushq %rax
    popq %r8
    popq %rdx
    popq %rcx
    subq $32, %rsp
    callq L_p_sha256_ni_oneshot
    addq $32, %rsp
    pushq %rax
    popq %rax
    pushq %rax
    pushq %rax
    movq $2, %rcx  /* IIIW_EXIT */
    subq $32, %rsp
    callq iii_witness_emit_kernel
    addq $32, %rsp
    popq %rax
    popq %rax
    movq %rbp, %rsp
    popq %rbp
    retq
L_if_end_9:
    movq -8(%rbp), %rax
    pushq %rax
    movq -16(%rbp), %rax
    pushq %rax
    movq -24(%rbp), %rax
    pushq %rax
    popq %r8
    popq %rdx
    popq %rcx
    subq $32, %rsp
    callq L_p_sha256_oneshot
    addq $32, %rsp
    pushq %rax
    popq %rax
    pushq %rax
    pushq %rax
    movq $2, %rcx  /* IIIW_EXIT */
    subq $32, %rsp
    callq iii_witness_emit_kernel
    addq $32, %rsp
    popq %rax
    popq %rax
    movq %rbp, %rsp
    popq %rbp
    retq
    .seh_endproc
    .section .text,"xr"  /* PE/COFF §6 */
    /* IRQL_REQUIRES_MAX(2) */
    .global L_p_sha256_dispatch_init
L_p_sha256_dispatch_init:
    .seh_proc L_p_sha256_dispatch_init
    pushq %rbp
    .seh_pushreg %rbp
    movq %rsp, %rbp
    subq $1024, %rsp
    .seh_stackalloc 1024
    .seh_endprologue
    /* witness enter (D9, ADR-024) */
    movq $1, %rcx  /* IIIW_ENTER */
    subq $32, %rsp
    callq iii_witness_emit_kernel
    addq $32, %rsp
    subq $32, %rsp
    callq L_p_sha256_dispatch_select
    addq $32, %rsp
    pushq %rax
    popq %rax
    movq %rax, L_p_SHA_DISPATCH_ACTIVE(%rip)
    movq L_p_SHA_DISPATCH_ACTIVE(%rip), %rax
    pushq %rax
    movq L_p_SHA_PATH_SHA_NI(%rip), %rax
    pushq %rax
    popq %rcx
    popq %rax
    cmpq %rcx, %rax
    sete %al
    movzbq %al, %rax
    pushq %rax
    popq %rax
    testq %rax, %rax
    jz L_if_end_11
    subq $32, %rsp
    callq L_p_sha256_ni_init
    addq $32, %rsp
    pushq %rax
    popq %rax
    pushq %rax
    pushq %rax
    movq $2, %rcx  /* IIIW_EXIT */
    subq $32, %rsp
    callq iii_witness_emit_kernel
    addq $32, %rsp
    popq %rax
    popq %rax
    movq %rbp, %rsp
    popq %rbp
    retq
L_if_end_11:
    subq $32, %rsp
    callq L_p_sha256_init
    addq $32, %rsp
    pushq %rax
    popq %rax
    pushq %rax
    pushq %rax
    movq $2, %rcx  /* IIIW_EXIT */
    subq $32, %rsp
    callq iii_witness_emit_kernel
    addq $32, %rsp
    popq %rax
    popq %rax
    movq %rbp, %rsp
    popq %rbp
    retq
    .seh_endproc
    .section .text,"xr"  /* PE/COFF §6 */
    /* IRQL_REQUIRES_MAX(2) */
    .global L_p_sha256_dispatch_update
L_p_sha256_dispatch_update:
    .seh_proc L_p_sha256_dispatch_update
    pushq %rbp
    .seh_pushreg %rbp
    movq %rsp, %rbp
    subq $1024, %rsp
    .seh_stackalloc 1024
    .seh_endprologue
    movq %rcx, -8(%rbp)
    movq %rdx, -16(%rbp)
    /* witness enter (D9, ADR-024) */
    movq $1, %rcx  /* IIIW_ENTER */
    subq $32, %rsp
    callq iii_witness_emit_kernel
    addq $32, %rsp
    movq L_p_SHA_DISPATCH_ACTIVE(%rip), %rax
    pushq %rax
    movq L_p_SHA_PATH_SHA_NI(%rip), %rax
    pushq %rax
    popq %rcx
    popq %rax
    cmpq %rcx, %rax
    sete %al
    movzbq %al, %rax
    pushq %rax
    popq %rax
    testq %rax, %rax
    jz L_if_end_13
    movq -8(%rbp), %rax
    pushq %rax
    movq -16(%rbp), %rax
    pushq %rax
    popq %rdx
    popq %rcx
    subq $32, %rsp
    callq L_p_sha256_ni_update
    addq $32, %rsp
    pushq %rax
    popq %rax
    pushq %rax
    pushq %rax
    movq $2, %rcx  /* IIIW_EXIT */
    subq $32, %rsp
    callq iii_witness_emit_kernel
    addq $32, %rsp
    popq %rax
    popq %rax
    movq %rbp, %rsp
    popq %rbp
    retq
L_if_end_13:
    movq -8(%rbp), %rax
    pushq %rax
    movq -16(%rbp), %rax
    pushq %rax
    popq %rdx
    popq %rcx
    subq $32, %rsp
    callq L_p_sha256_update
    addq $32, %rsp
    pushq %rax
    popq %rax
    pushq %rax
    pushq %rax
    movq $2, %rcx  /* IIIW_EXIT */
    subq $32, %rsp
    callq iii_witness_emit_kernel
    addq $32, %rsp
    popq %rax
    popq %rax
    movq %rbp, %rsp
    popq %rbp
    retq
    .seh_endproc
    .section .text,"xr"  /* PE/COFF §6 */
    /* IRQL_REQUIRES_MAX(2) */
    .global L_p_sha256_dispatch_final
L_p_sha256_dispatch_final:
    .seh_proc L_p_sha256_dispatch_final
    pushq %rbp
    .seh_pushreg %rbp
    movq %rsp, %rbp
    subq $1024, %rsp
    .seh_stackalloc 1024
    .seh_endprologue
    movq %rcx, -8(%rbp)
    /* witness enter (D9, ADR-024) */
    movq $1, %rcx  /* IIIW_ENTER */
    subq $32, %rsp
    callq iii_witness_emit_kernel
    addq $32, %rsp
    movq L_p_SHA_DISPATCH_ACTIVE(%rip), %rax
    pushq %rax
    movq L_p_SHA_PATH_SHA_NI(%rip), %rax
    pushq %rax
    popq %rcx
    popq %rax
    cmpq %rcx, %rax
    sete %al
    movzbq %al, %rax
    pushq %rax
    popq %rax
    testq %rax, %rax
    jz L_if_end_15
    movq -8(%rbp), %rax
    pushq %rax
    popq %rcx
    subq $32, %rsp
    callq L_p_sha256_ni_final
    addq $32, %rsp
    pushq %rax
    popq %rax
    pushq %rax
    pushq %rax
    movq $2, %rcx  /* IIIW_EXIT */
    subq $32, %rsp
    callq iii_witness_emit_kernel
    addq $32, %rsp
    popq %rax
    popq %rax
    movq %rbp, %rsp
    popq %rbp
    retq
L_if_end_15:
    movq -8(%rbp), %rax
    pushq %rax
    popq %rcx
    subq $32, %rsp
    callq L_p_sha256_final
    addq $32, %rsp
    pushq %rax
    popq %rax
    pushq %rax
    pushq %rax
    movq $2, %rcx  /* IIIW_EXIT */
    subq $32, %rsp
    callq iii_witness_emit_kernel
    addq $32, %rsp
    popq %rax
    popq %rax
    movq %rbp, %rsp
    popq %rbp
    retq
    .seh_endproc
