
KATABASIS-DEPLOY/build/obj/sha256.o:     file format pe-x86-64


Disassembly of section .text:

0000000000000000 <L_p_sha_init_k>:
       0:	55                   	push   rbp
       1:	48 89 e5             	mov    rbp,rsp
       4:	48 81 ec 00 04 00 00 	sub    rsp,0x400
       b:	48 c7 c1 01 00 00 00 	mov    rcx,0x1
      12:	48 83 ec 20          	sub    rsp,0x20
      16:	e8 00 00 00 00       	call   1b <L_p_sha_init_k+0x1b>
      1b:	48 83 c4 20          	add    rsp,0x20
      1f:	48 b8 98 2f 8a 42 00 	movabs rax,0x428a2f98
      26:	00 00 00 
      29:	50                   	push   rax
      2a:	58                   	pop    rax
      2b:	50                   	push   rax
      2c:	48 8d 05 00 00 00 00 	lea    rax,[rip+0x0]        # 33 <L_p_sha_init_k+0x33>
      33:	50                   	push   rax
      34:	48 b8 00 00 00 00 00 	movabs rax,0x0
      3b:	00 00 00 
      3e:	50                   	push   rax
      3f:	59                   	pop    rcx
      40:	58                   	pop    rax
      41:	5a                   	pop    rdx
      42:	48 89 14 c8          	mov    QWORD PTR [rax+rcx*8],rdx
      46:	48 b8 91 44 37 71 00 	movabs rax,0x71374491
      4d:	00 00 00 
      50:	50                   	push   rax
      51:	58                   	pop    rax
      52:	50                   	push   rax
      53:	48 8d 05 00 00 00 00 	lea    rax,[rip+0x0]        # 5a <L_p_sha_init_k+0x5a>
      5a:	50                   	push   rax
      5b:	48 b8 01 00 00 00 00 	movabs rax,0x1
      62:	00 00 00 
      65:	50                   	push   rax
      66:	59                   	pop    rcx
      67:	58                   	pop    rax
      68:	5a                   	pop    rdx
      69:	48 89 14 c8          	mov    QWORD PTR [rax+rcx*8],rdx
      6d:	48 b8 cf fb c0 b5 00 	movabs rax,0xb5c0fbcf
      74:	00 00 00 
      77:	50                   	push   rax
      78:	58                   	pop    rax
      79:	50                   	push   rax
      7a:	48 8d 05 00 00 00 00 	lea    rax,[rip+0x0]        # 81 <L_p_sha_init_k+0x81>
      81:	50                   	push   rax
      82:	48 b8 02 00 00 00 00 	movabs rax,0x2
      89:	00 00 00 
      8c:	50                   	push   rax
      8d:	59                   	pop    rcx
      8e:	58                   	pop    rax
      8f:	5a                   	pop    rdx
      90:	48 89 14 c8          	mov    QWORD PTR [rax+rcx*8],rdx
      94:	48 b8 a5 db b5 e9 00 	movabs rax,0xe9b5dba5
      9b:	00 00 00 
      9e:	50                   	push   rax
      9f:	58                   	pop    rax
      a0:	50                   	push   rax
      a1:	48 8d 05 00 00 00 00 	lea    rax,[rip+0x0]        # a8 <L_p_sha_init_k+0xa8>
      a8:	50                   	push   rax
      a9:	48 b8 03 00 00 00 00 	movabs rax,0x3
      b0:	00 00 00 
      b3:	50                   	push   rax
      b4:	59                   	pop    rcx
      b5:	58                   	pop    rax
      b6:	5a                   	pop    rdx
      b7:	48 89 14 c8          	mov    QWORD PTR [rax+rcx*8],rdx
      bb:	48 b8 5b c2 56 39 00 	movabs rax,0x3956c25b
      c2:	00 00 00 
      c5:	50                   	push   rax
      c6:	58                   	pop    rax
      c7:	50                   	push   rax
      c8:	48 8d 05 00 00 00 00 	lea    rax,[rip+0x0]        # cf <L_p_sha_init_k+0xcf>
      cf:	50                   	push   rax
      d0:	48 b8 04 00 00 00 00 	movabs rax,0x4
      d7:	00 00 00 
      da:	50                   	push   rax
      db:	59                   	pop    rcx
      dc:	58                   	pop    rax
      dd:	5a                   	pop    rdx
      de:	48 89 14 c8          	mov    QWORD PTR [rax+rcx*8],rdx
      e2:	48 b8 f1 11 f1 59 00 	movabs rax,0x59f111f1
      e9:	00 00 00 
      ec:	50                   	push   rax
      ed:	58                   	pop    rax
      ee:	50                   	push   rax
      ef:	48 8d 05 00 00 00 00 	lea    rax,[rip+0x0]        # f6 <L_p_sha_init_k+0xf6>
      f6:	50                   	push   rax
      f7:	48 b8 05 00 00 00 00 	movabs rax,0x5
      fe:	00 00 00 
     101:	50                   	push   rax
     102:	59                   	pop    rcx
     103:	58                   	pop    rax
     104:	5a                   	pop    rdx
     105:	48 89 14 c8          	mov    QWORD PTR [rax+rcx*8],rdx
     109:	48 b8 a4 82 3f 92 00 	movabs rax,0x923f82a4
     110:	00 00 00 
     113:	50                   	push   rax
     114:	58                   	pop    rax
     115:	50                   	push   rax
     116:	48 8d 05 00 00 00 00 	lea    rax,[rip+0x0]        # 11d <L_p_sha_init_k+0x11d>
     11d:	50                   	push   rax
     11e:	48 b8 06 00 00 00 00 	movabs rax,0x6
     125:	00 00 00 
     128:	50                   	push   rax
     129:	59                   	pop    rcx
     12a:	58                   	pop    rax
     12b:	5a                   	pop    rdx
     12c:	48 89 14 c8          	mov    QWORD PTR [rax+rcx*8],rdx
     130:	48 b8 d5 5e 1c ab 00 	movabs rax,0xab1c5ed5
     137:	00 00 00 
     13a:	50                   	push   rax
     13b:	58                   	pop    rax
     13c:	50                   	push   rax
     13d:	48 8d 05 00 00 00 00 	lea    rax,[rip+0x0]        # 144 <L_p_sha_init_k+0x144>
     144:	50                   	push   rax
     145:	48 b8 07 00 00 00 00 	movabs rax,0x7
     14c:	00 00 00 
     14f:	50                   	push   rax
     150:	59                   	pop    rcx
     151:	58                   	pop    rax
     152:	5a                   	pop    rdx
     153:	48 89 14 c8          	mov    QWORD PTR [rax+rcx*8],rdx
     157:	48 b8 98 aa 07 d8 00 	movabs rax,0xd807aa98
     15e:	00 00 00 
     161:	50                   	push   rax
     162:	58                   	pop    rax
     163:	50                   	push   rax
     164:	48 8d 05 00 00 00 00 	lea    rax,[rip+0x0]        # 16b <L_p_sha_init_k+0x16b>
     16b:	50                   	push   rax
     16c:	48 b8 08 00 00 00 00 	movabs rax,0x8
     173:	00 00 00 
     176:	50                   	push   rax
     177:	59                   	pop    rcx
     178:	58                   	pop    rax
     179:	5a                   	pop    rdx
     17a:	48 89 14 c8          	mov    QWORD PTR [rax+rcx*8],rdx
     17e:	48 b8 01 5b 83 12 00 	movabs rax,0x12835b01
     185:	00 00 00 
     188:	50                   	push   rax
     189:	58                   	pop    rax
     18a:	50                   	push   rax
     18b:	48 8d 05 00 00 00 00 	lea    rax,[rip+0x0]        # 192 <L_p_sha_init_k+0x192>
     192:	50                   	push   rax
     193:	48 b8 09 00 00 00 00 	movabs rax,0x9
     19a:	00 00 00 
     19d:	50                   	push   rax
     19e:	59                   	pop    rcx
     19f:	58                   	pop    rax
     1a0:	5a                   	pop    rdx
     1a1:	48 89 14 c8          	mov    QWORD PTR [rax+rcx*8],rdx
     1a5:	48 b8 be 85 31 24 00 	movabs rax,0x243185be
     1ac:	00 00 00 
     1af:	50                   	push   rax
     1b0:	58                   	pop    rax
     1b1:	50                   	push   rax
     1b2:	48 8d 05 00 00 00 00 	lea    rax,[rip+0x0]        # 1b9 <L_p_sha_init_k+0x1b9>
     1b9:	50                   	push   rax
     1ba:	48 b8 0a 00 00 00 00 	movabs rax,0xa
     1c1:	00 00 00 
     1c4:	50                   	push   rax
     1c5:	59                   	pop    rcx
     1c6:	58                   	pop    rax
     1c7:	5a                   	pop    rdx
     1c8:	48 89 14 c8          	mov    QWORD PTR [rax+rcx*8],rdx
     1cc:	48 b8 c3 7d 0c 55 00 	movabs rax,0x550c7dc3
     1d3:	00 00 00 
     1d6:	50                   	push   rax
     1d7:	58                   	pop    rax
     1d8:	50                   	push   rax
     1d9:	48 8d 05 00 00 00 00 	lea    rax,[rip+0x0]        # 1e0 <L_p_sha_init_k+0x1e0>
     1e0:	50                   	push   rax
     1e1:	48 b8 0b 00 00 00 00 	movabs rax,0xb
     1e8:	00 00 00 
     1eb:	50                   	push   rax
     1ec:	59                   	pop    rcx
     1ed:	58                   	pop    rax
     1ee:	5a                   	pop    rdx
     1ef:	48 89 14 c8          	mov    QWORD PTR [rax+rcx*8],rdx
     1f3:	48 b8 74 5d be 72 00 	movabs rax,0x72be5d74
     1fa:	00 00 00 
     1fd:	50                   	push   rax
     1fe:	58                   	pop    rax
     1ff:	50                   	push   rax
     200:	48 8d 05 00 00 00 00 	lea    rax,[rip+0x0]        # 207 <L_p_sha_init_k+0x207>
     207:	50                   	push   rax
     208:	48 b8 0c 00 00 00 00 	movabs rax,0xc
     20f:	00 00 00 
     212:	50                   	push   rax
     213:	59                   	pop    rcx
     214:	58                   	pop    rax
     215:	5a                   	pop    rdx
     216:	48 89 14 c8          	mov    QWORD PTR [rax+rcx*8],rdx
     21a:	48 b8 fe b1 de 80 00 	movabs rax,0x80deb1fe
     221:	00 00 00 
     224:	50                   	push   rax
     225:	58                   	pop    rax
     226:	50                   	push   rax
     227:	48 8d 05 00 00 00 00 	lea    rax,[rip+0x0]        # 22e <L_p_sha_init_k+0x22e>
     22e:	50                   	push   rax
     22f:	48 b8 0d 00 00 00 00 	movabs rax,0xd
     236:	00 00 00 
     239:	50                   	push   rax
     23a:	59                   	pop    rcx
     23b:	58                   	pop    rax
     23c:	5a                   	pop    rdx
     23d:	48 89 14 c8          	mov    QWORD PTR [rax+rcx*8],rdx
     241:	48 b8 a7 06 dc 9b 00 	movabs rax,0x9bdc06a7
     248:	00 00 00 
     24b:	50                   	push   rax
     24c:	58                   	pop    rax
     24d:	50                   	push   rax
     24e:	48 8d 05 00 00 00 00 	lea    rax,[rip+0x0]        # 255 <L_p_sha_init_k+0x255>
     255:	50                   	push   rax
     256:	48 b8 0e 00 00 00 00 	movabs rax,0xe
     25d:	00 00 00 
     260:	50                   	push   rax
     261:	59                   	pop    rcx
     262:	58                   	pop    rax
     263:	5a                   	pop    rdx
     264:	48 89 14 c8          	mov    QWORD PTR [rax+rcx*8],rdx
     268:	48 b8 74 f1 9b c1 00 	movabs rax,0xc19bf174
     26f:	00 00 00 
     272:	50                   	push   rax
     273:	58                   	pop    rax
     274:	50                   	push   rax
     275:	48 8d 05 00 00 00 00 	lea    rax,[rip+0x0]        # 27c <L_p_sha_init_k+0x27c>
     27c:	50                   	push   rax
     27d:	48 b8 0f 00 00 00 00 	movabs rax,0xf
     284:	00 00 00 
     287:	50                   	push   rax
     288:	59                   	pop    rcx
     289:	58                   	pop    rax
     28a:	5a                   	pop    rdx
     28b:	48 89 14 c8          	mov    QWORD PTR [rax+rcx*8],rdx
     28f:	48 b8 c1 69 9b e4 00 	movabs rax,0xe49b69c1
     296:	00 00 00 
     299:	50                   	push   rax
     29a:	58                   	pop    rax
     29b:	50                   	push   rax
     29c:	48 8d 05 00 00 00 00 	lea    rax,[rip+0x0]        # 2a3 <L_p_sha_init_k+0x2a3>
     2a3:	50                   	push   rax
     2a4:	48 b8 10 00 00 00 00 	movabs rax,0x10
     2ab:	00 00 00 
     2ae:	50                   	push   rax
     2af:	59                   	pop    rcx
     2b0:	58                   	pop    rax
     2b1:	5a                   	pop    rdx
     2b2:	48 89 14 c8          	mov    QWORD PTR [rax+rcx*8],rdx
     2b6:	48 b8 86 47 be ef 00 	movabs rax,0xefbe4786
     2bd:	00 00 00 
     2c0:	50                   	push   rax
     2c1:	58                   	pop    rax
     2c2:	50                   	push   rax
     2c3:	48 8d 05 00 00 00 00 	lea    rax,[rip+0x0]        # 2ca <L_p_sha_init_k+0x2ca>
     2ca:	50                   	push   rax
     2cb:	48 b8 11 00 00 00 00 	movabs rax,0x11
     2d2:	00 00 00 
     2d5:	50                   	push   rax
     2d6:	59                   	pop    rcx
     2d7:	58                   	pop    rax
     2d8:	5a                   	pop    rdx
     2d9:	48 89 14 c8          	mov    QWORD PTR [rax+rcx*8],rdx
     2dd:	48 b8 c6 9d c1 0f 00 	movabs rax,0xfc19dc6
     2e4:	00 00 00 
     2e7:	50                   	push   rax
     2e8:	58                   	pop    rax
     2e9:	50                   	push   rax
     2ea:	48 8d 05 00 00 00 00 	lea    rax,[rip+0x0]        # 2f1 <L_p_sha_init_k+0x2f1>
     2f1:	50                   	push   rax
     2f2:	48 b8 12 00 00 00 00 	movabs rax,0x12
     2f9:	00 00 00 
     2fc:	50                   	push   rax
     2fd:	59                   	pop    rcx
     2fe:	58                   	pop    rax
     2ff:	5a                   	pop    rdx
     300:	48 89 14 c8          	mov    QWORD PTR [rax+rcx*8],rdx
     304:	48 b8 cc a1 0c 24 00 	movabs rax,0x240ca1cc
     30b:	00 00 00 
     30e:	50                   	push   rax
     30f:	58                   	pop    rax
     310:	50                   	push   rax
     311:	48 8d 05 00 00 00 00 	lea    rax,[rip+0x0]        # 318 <L_p_sha_init_k+0x318>
     318:	50                   	push   rax
     319:	48 b8 13 00 00 00 00 	movabs rax,0x13
     320:	00 00 00 
     323:	50                   	push   rax
     324:	59                   	pop    rcx
     325:	58                   	pop    rax
     326:	5a                   	pop    rdx
     327:	48 89 14 c8          	mov    QWORD PTR [rax+rcx*8],rdx
     32b:	48 b8 6f 2c e9 2d 00 	movabs rax,0x2de92c6f
     332:	00 00 00 
     335:	50                   	push   rax
     336:	58                   	pop    rax
     337:	50                   	push   rax
     338:	48 8d 05 00 00 00 00 	lea    rax,[rip+0x0]        # 33f <L_p_sha_init_k+0x33f>
     33f:	50                   	push   rax
     340:	48 b8 14 00 00 00 00 	movabs rax,0x14
     347:	00 00 00 
     34a:	50                   	push   rax
     34b:	59                   	pop    rcx
     34c:	58                   	pop    rax
     34d:	5a                   	pop    rdx
     34e:	48 89 14 c8          	mov    QWORD PTR [rax+rcx*8],rdx
     352:	48 b8 aa 84 74 4a 00 	movabs rax,0x4a7484aa
     359:	00 00 00 
     35c:	50                   	push   rax
     35d:	58                   	pop    rax
     35e:	50                   	push   rax
     35f:	48 8d 05 00 00 00 00 	lea    rax,[rip+0x0]        # 366 <L_p_sha_init_k+0x366>
     366:	50                   	push   rax
     367:	48 b8 15 00 00 00 00 	movabs rax,0x15
     36e:	00 00 00 
     371:	50                   	push   rax
     372:	59                   	pop    rcx
     373:	58                   	pop    rax
     374:	5a                   	pop    rdx
     375:	48 89 14 c8          	mov    QWORD PTR [rax+rcx*8],rdx
     379:	48 b8 dc a9 b0 5c 00 	movabs rax,0x5cb0a9dc
     380:	00 00 00 
     383:	50                   	push   rax
     384:	58                   	pop    rax
     385:	50                   	push   rax
     386:	48 8d 05 00 00 00 00 	lea    rax,[rip+0x0]        # 38d <L_p_sha_init_k+0x38d>
     38d:	50                   	push   rax
     38e:	48 b8 16 00 00 00 00 	movabs rax,0x16
     395:	00 00 00 
     398:	50                   	push   rax
     399:	59                   	pop    rcx
     39a:	58                   	pop    rax
     39b:	5a                   	pop    rdx
     39c:	48 89 14 c8          	mov    QWORD PTR [rax+rcx*8],rdx
     3a0:	48 b8 da 88 f9 76 00 	movabs rax,0x76f988da
     3a7:	00 00 00 
     3aa:	50                   	push   rax
     3ab:	58                   	pop    rax
     3ac:	50                   	push   rax
     3ad:	48 8d 05 00 00 00 00 	lea    rax,[rip+0x0]        # 3b4 <L_p_sha_init_k+0x3b4>
     3b4:	50                   	push   rax
     3b5:	48 b8 17 00 00 00 00 	movabs rax,0x17
     3bc:	00 00 00 
     3bf:	50                   	push   rax
     3c0:	59                   	pop    rcx
     3c1:	58                   	pop    rax
     3c2:	5a                   	pop    rdx
     3c3:	48 89 14 c8          	mov    QWORD PTR [rax+rcx*8],rdx
     3c7:	48 b8 52 51 3e 98 00 	movabs rax,0x983e5152
     3ce:	00 00 00 
     3d1:	50                   	push   rax
     3d2:	58                   	pop    rax
     3d3:	50                   	push   rax
     3d4:	48 8d 05 00 00 00 00 	lea    rax,[rip+0x0]        # 3db <L_p_sha_init_k+0x3db>
     3db:	50                   	push   rax
     3dc:	48 b8 18 00 00 00 00 	movabs rax,0x18
     3e3:	00 00 00 
     3e6:	50                   	push   rax
     3e7:	59                   	pop    rcx
     3e8:	58                   	pop    rax
     3e9:	5a                   	pop    rdx
     3ea:	48 89 14 c8          	mov    QWORD PTR [rax+rcx*8],rdx
     3ee:	48 b8 6d c6 31 a8 00 	movabs rax,0xa831c66d
     3f5:	00 00 00 
     3f8:	50                   	push   rax
     3f9:	58                   	pop    rax
     3fa:	50                   	push   rax
     3fb:	48 8d 05 00 00 00 00 	lea    rax,[rip+0x0]        # 402 <L_p_sha_init_k+0x402>
     402:	50                   	push   rax
     403:	48 b8 19 00 00 00 00 	movabs rax,0x19
     40a:	00 00 00 
     40d:	50                   	push   rax
     40e:	59                   	pop    rcx
     40f:	58                   	pop    rax
     410:	5a                   	pop    rdx
     411:	48 89 14 c8          	mov    QWORD PTR [rax+rcx*8],rdx
     415:	48 b8 c8 27 03 b0 00 	movabs rax,0xb00327c8
     41c:	00 00 00 
     41f:	50                   	push   rax
     420:	58                   	pop    rax
     421:	50                   	push   rax
     422:	48 8d 05 00 00 00 00 	lea    rax,[rip+0x0]        # 429 <L_p_sha_init_k+0x429>
     429:	50                   	push   rax
     42a:	48 b8 1a 00 00 00 00 	movabs rax,0x1a
     431:	00 00 00 
     434:	50                   	push   rax
     435:	59                   	pop    rcx
     436:	58                   	pop    rax
     437:	5a                   	pop    rdx
     438:	48 89 14 c8          	mov    QWORD PTR [rax+rcx*8],rdx
     43c:	48 b8 c7 7f 59 bf 00 	movabs rax,0xbf597fc7
     443:	00 00 00 
     446:	50                   	push   rax
     447:	58                   	pop    rax
     448:	50                   	push   rax
     449:	48 8d 05 00 00 00 00 	lea    rax,[rip+0x0]        # 450 <L_p_sha_init_k+0x450>
     450:	50                   	push   rax
     451:	48 b8 1b 00 00 00 00 	movabs rax,0x1b
     458:	00 00 00 
     45b:	50                   	push   rax
     45c:	59                   	pop    rcx
     45d:	58                   	pop    rax
     45e:	5a                   	pop    rdx
     45f:	48 89 14 c8          	mov    QWORD PTR [rax+rcx*8],rdx
     463:	48 b8 f3 0b e0 c6 00 	movabs rax,0xc6e00bf3
     46a:	00 00 00 
     46d:	50                   	push   rax
     46e:	58                   	pop    rax
     46f:	50                   	push   rax
     470:	48 8d 05 00 00 00 00 	lea    rax,[rip+0x0]        # 477 <L_p_sha_init_k+0x477>
     477:	50                   	push   rax
     478:	48 b8 1c 00 00 00 00 	movabs rax,0x1c
     47f:	00 00 00 
     482:	50                   	push   rax
     483:	59                   	pop    rcx
     484:	58                   	pop    rax
     485:	5a                   	pop    rdx
     486:	48 89 14 c8          	mov    QWORD PTR [rax+rcx*8],rdx
     48a:	48 b8 47 91 a7 d5 00 	movabs rax,0xd5a79147
     491:	00 00 00 
     494:	50                   	push   rax
     495:	58                   	pop    rax
     496:	50                   	push   rax
     497:	48 8d 05 00 00 00 00 	lea    rax,[rip+0x0]        # 49e <L_p_sha_init_k+0x49e>
     49e:	50                   	push   rax
     49f:	48 b8 1d 00 00 00 00 	movabs rax,0x1d
     4a6:	00 00 00 
     4a9:	50                   	push   rax
     4aa:	59                   	pop    rcx
     4ab:	58                   	pop    rax
     4ac:	5a                   	pop    rdx
     4ad:	48 89 14 c8          	mov    QWORD PTR [rax+rcx*8],rdx
     4b1:	48 b8 51 63 ca 06 00 	movabs rax,0x6ca6351
     4b8:	00 00 00 
     4bb:	50                   	push   rax
     4bc:	58                   	pop    rax
     4bd:	50                   	push   rax
     4be:	48 8d 05 00 00 00 00 	lea    rax,[rip+0x0]        # 4c5 <L_p_sha_init_k+0x4c5>
     4c5:	50                   	push   rax
     4c6:	48 b8 1e 00 00 00 00 	movabs rax,0x1e
     4cd:	00 00 00 
     4d0:	50                   	push   rax
     4d1:	59                   	pop    rcx
     4d2:	58                   	pop    rax
     4d3:	5a                   	pop    rdx
     4d4:	48 89 14 c8          	mov    QWORD PTR [rax+rcx*8],rdx
     4d8:	48 b8 67 29 29 14 00 	movabs rax,0x14292967
     4df:	00 00 00 
     4e2:	50                   	push   rax
     4e3:	58                   	pop    rax
     4e4:	50                   	push   rax
     4e5:	48 8d 05 00 00 00 00 	lea    rax,[rip+0x0]        # 4ec <L_p_sha_init_k+0x4ec>
     4ec:	50                   	push   rax
     4ed:	48 b8 1f 00 00 00 00 	movabs rax,0x1f
     4f4:	00 00 00 
     4f7:	50                   	push   rax
     4f8:	59                   	pop    rcx
     4f9:	58                   	pop    rax
     4fa:	5a                   	pop    rdx
     4fb:	48 89 14 c8          	mov    QWORD PTR [rax+rcx*8],rdx
     4ff:	48 b8 85 0a b7 27 00 	movabs rax,0x27b70a85
     506:	00 00 00 
     509:	50                   	push   rax
     50a:	58                   	pop    rax
     50b:	50                   	push   rax
     50c:	48 8d 05 00 00 00 00 	lea    rax,[rip+0x0]        # 513 <L_p_sha_init_k+0x513>
     513:	50                   	push   rax
     514:	48 b8 20 00 00 00 00 	movabs rax,0x20
     51b:	00 00 00 
     51e:	50                   	push   rax
     51f:	59                   	pop    rcx
     520:	58                   	pop    rax
     521:	5a                   	pop    rdx
     522:	48 89 14 c8          	mov    QWORD PTR [rax+rcx*8],rdx
     526:	48 b8 38 21 1b 2e 00 	movabs rax,0x2e1b2138
     52d:	00 00 00 
     530:	50                   	push   rax
     531:	58                   	pop    rax
     532:	50                   	push   rax
     533:	48 8d 05 00 00 00 00 	lea    rax,[rip+0x0]        # 53a <L_p_sha_init_k+0x53a>
     53a:	50                   	push   rax
     53b:	48 b8 21 00 00 00 00 	movabs rax,0x21
     542:	00 00 00 
     545:	50                   	push   rax
     546:	59                   	pop    rcx
     547:	58                   	pop    rax
     548:	5a                   	pop    rdx
     549:	48 89 14 c8          	mov    QWORD PTR [rax+rcx*8],rdx
     54d:	48 b8 fc 6d 2c 4d 00 	movabs rax,0x4d2c6dfc
     554:	00 00 00 
     557:	50                   	push   rax
     558:	58                   	pop    rax
     559:	50                   	push   rax
     55a:	48 8d 05 00 00 00 00 	lea    rax,[rip+0x0]        # 561 <L_p_sha_init_k+0x561>
     561:	50                   	push   rax
     562:	48 b8 22 00 00 00 00 	movabs rax,0x22
     569:	00 00 00 
     56c:	50                   	push   rax
     56d:	59                   	pop    rcx
     56e:	58                   	pop    rax
     56f:	5a                   	pop    rdx
     570:	48 89 14 c8          	mov    QWORD PTR [rax+rcx*8],rdx
     574:	48 b8 13 0d 38 53 00 	movabs rax,0x53380d13
     57b:	00 00 00 
     57e:	50                   	push   rax
     57f:	58                   	pop    rax
     580:	50                   	push   rax
     581:	48 8d 05 00 00 00 00 	lea    rax,[rip+0x0]        # 588 <L_p_sha_init_k+0x588>
     588:	50                   	push   rax
     589:	48 b8 23 00 00 00 00 	movabs rax,0x23
     590:	00 00 00 
     593:	50                   	push   rax
     594:	59                   	pop    rcx
     595:	58                   	pop    rax
     596:	5a                   	pop    rdx
     597:	48 89 14 c8          	mov    QWORD PTR [rax+rcx*8],rdx
     59b:	48 b8 54 73 0a 65 00 	movabs rax,0x650a7354
     5a2:	00 00 00 
     5a5:	50                   	push   rax
     5a6:	58                   	pop    rax
     5a7:	50                   	push   rax
     5a8:	48 8d 05 00 00 00 00 	lea    rax,[rip+0x0]        # 5af <L_p_sha_init_k+0x5af>
     5af:	50                   	push   rax
     5b0:	48 b8 24 00 00 00 00 	movabs rax,0x24
     5b7:	00 00 00 
     5ba:	50                   	push   rax
     5bb:	59                   	pop    rcx
     5bc:	58                   	pop    rax
     5bd:	5a                   	pop    rdx
     5be:	48 89 14 c8          	mov    QWORD PTR [rax+rcx*8],rdx
     5c2:	48 b8 bb 0a 6a 76 00 	movabs rax,0x766a0abb
     5c9:	00 00 00 
     5cc:	50                   	push   rax
     5cd:	58                   	pop    rax
     5ce:	50                   	push   rax
     5cf:	48 8d 05 00 00 00 00 	lea    rax,[rip+0x0]        # 5d6 <L_p_sha_init_k+0x5d6>
     5d6:	50                   	push   rax
     5d7:	48 b8 25 00 00 00 00 	movabs rax,0x25
     5de:	00 00 00 
     5e1:	50                   	push   rax
     5e2:	59                   	pop    rcx
     5e3:	58                   	pop    rax
     5e4:	5a                   	pop    rdx
     5e5:	48 89 14 c8          	mov    QWORD PTR [rax+rcx*8],rdx
     5e9:	48 b8 2e c9 c2 81 00 	movabs rax,0x81c2c92e
     5f0:	00 00 00 
     5f3:	50                   	push   rax
     5f4:	58                   	pop    rax
     5f5:	50                   	push   rax
     5f6:	48 8d 05 00 00 00 00 	lea    rax,[rip+0x0]        # 5fd <L_p_sha_init_k+0x5fd>
     5fd:	50                   	push   rax
     5fe:	48 b8 26 00 00 00 00 	movabs rax,0x26
     605:	00 00 00 
     608:	50                   	push   rax
     609:	59                   	pop    rcx
     60a:	58                   	pop    rax
     60b:	5a                   	pop    rdx
     60c:	48 89 14 c8          	mov    QWORD PTR [rax+rcx*8],rdx
     610:	48 b8 85 2c 72 92 00 	movabs rax,0x92722c85
     617:	00 00 00 
     61a:	50                   	push   rax
     61b:	58                   	pop    rax
     61c:	50                   	push   rax
     61d:	48 8d 05 00 00 00 00 	lea    rax,[rip+0x0]        # 624 <L_p_sha_init_k+0x624>
     624:	50                   	push   rax
     625:	48 b8 27 00 00 00 00 	movabs rax,0x27
     62c:	00 00 00 
     62f:	50                   	push   rax
     630:	59                   	pop    rcx
     631:	58                   	pop    rax
     632:	5a                   	pop    rdx
     633:	48 89 14 c8          	mov    QWORD PTR [rax+rcx*8],rdx
     637:	48 b8 a1 e8 bf a2 00 	movabs rax,0xa2bfe8a1
     63e:	00 00 00 
     641:	50                   	push   rax
     642:	58                   	pop    rax
     643:	50                   	push   rax
     644:	48 8d 05 00 00 00 00 	lea    rax,[rip+0x0]        # 64b <L_p_sha_init_k+0x64b>
     64b:	50                   	push   rax
     64c:	48 b8 28 00 00 00 00 	movabs rax,0x28
     653:	00 00 00 
     656:	50                   	push   rax
     657:	59                   	pop    rcx
     658:	58                   	pop    rax
     659:	5a                   	pop    rdx
     65a:	48 89 14 c8          	mov    QWORD PTR [rax+rcx*8],rdx
     65e:	48 b8 4b 66 1a a8 00 	movabs rax,0xa81a664b
     665:	00 00 00 
     668:	50                   	push   rax
     669:	58                   	pop    rax
     66a:	50                   	push   rax
     66b:	48 8d 05 00 00 00 00 	lea    rax,[rip+0x0]        # 672 <L_p_sha_init_k+0x672>
     672:	50                   	push   rax
     673:	48 b8 29 00 00 00 00 	movabs rax,0x29
     67a:	00 00 00 
     67d:	50                   	push   rax
     67e:	59                   	pop    rcx
     67f:	58                   	pop    rax
     680:	5a                   	pop    rdx
     681:	48 89 14 c8          	mov    QWORD PTR [rax+rcx*8],rdx
     685:	48 b8 70 8b 4b c2 00 	movabs rax,0xc24b8b70
     68c:	00 00 00 
     68f:	50                   	push   rax
     690:	58                   	pop    rax
     691:	50                   	push   rax
     692:	48 8d 05 00 00 00 00 	lea    rax,[rip+0x0]        # 699 <L_p_sha_init_k+0x699>
     699:	50                   	push   rax
     69a:	48 b8 2a 00 00 00 00 	movabs rax,0x2a
     6a1:	00 00 00 
     6a4:	50                   	push   rax
     6a5:	59                   	pop    rcx
     6a6:	58                   	pop    rax
     6a7:	5a                   	pop    rdx
     6a8:	48 89 14 c8          	mov    QWORD PTR [rax+rcx*8],rdx
     6ac:	48 b8 a3 51 6c c7 00 	movabs rax,0xc76c51a3
     6b3:	00 00 00 
     6b6:	50                   	push   rax
     6b7:	58                   	pop    rax
     6b8:	50                   	push   rax
     6b9:	48 8d 05 00 00 00 00 	lea    rax,[rip+0x0]        # 6c0 <L_p_sha_init_k+0x6c0>
     6c0:	50                   	push   rax
     6c1:	48 b8 2b 00 00 00 00 	movabs rax,0x2b
     6c8:	00 00 00 
     6cb:	50                   	push   rax
     6cc:	59                   	pop    rcx
     6cd:	58                   	pop    rax
     6ce:	5a                   	pop    rdx
     6cf:	48 89 14 c8          	mov    QWORD PTR [rax+rcx*8],rdx
     6d3:	48 b8 19 e8 92 d1 00 	movabs rax,0xd192e819
     6da:	00 00 00 
     6dd:	50                   	push   rax
     6de:	58                   	pop    rax
     6df:	50                   	push   rax
     6e0:	48 8d 05 00 00 00 00 	lea    rax,[rip+0x0]        # 6e7 <L_p_sha_init_k+0x6e7>
     6e7:	50                   	push   rax
     6e8:	48 b8 2c 00 00 00 00 	movabs rax,0x2c
     6ef:	00 00 00 
     6f2:	50                   	push   rax
     6f3:	59                   	pop    rcx
     6f4:	58                   	pop    rax
     6f5:	5a                   	pop    rdx
     6f6:	48 89 14 c8          	mov    QWORD PTR [rax+rcx*8],rdx
     6fa:	48 b8 24 06 99 d6 00 	movabs rax,0xd6990624
     701:	00 00 00 
     704:	50                   	push   rax
     705:	58                   	pop    rax
     706:	50                   	push   rax
     707:	48 8d 05 00 00 00 00 	lea    rax,[rip+0x0]        # 70e <L_p_sha_init_k+0x70e>
     70e:	50                   	push   rax
     70f:	48 b8 2d 00 00 00 00 	movabs rax,0x2d
     716:	00 00 00 
     719:	50                   	push   rax
     71a:	59                   	pop    rcx
     71b:	58                   	pop    rax
     71c:	5a                   	pop    rdx
     71d:	48 89 14 c8          	mov    QWORD PTR [rax+rcx*8],rdx
     721:	48 b8 85 35 0e f4 00 	movabs rax,0xf40e3585
     728:	00 00 00 
     72b:	50                   	push   rax
     72c:	58                   	pop    rax
     72d:	50                   	push   rax
     72e:	48 8d 05 00 00 00 00 	lea    rax,[rip+0x0]        # 735 <L_p_sha_init_k+0x735>
     735:	50                   	push   rax
     736:	48 b8 2e 00 00 00 00 	movabs rax,0x2e
     73d:	00 00 00 
     740:	50                   	push   rax
     741:	59                   	pop    rcx
     742:	58                   	pop    rax
     743:	5a                   	pop    rdx
     744:	48 89 14 c8          	mov    QWORD PTR [rax+rcx*8],rdx
     748:	48 b8 70 a0 6a 10 00 	movabs rax,0x106aa070
     74f:	00 00 00 
     752:	50                   	push   rax
     753:	58                   	pop    rax
     754:	50                   	push   rax
     755:	48 8d 05 00 00 00 00 	lea    rax,[rip+0x0]        # 75c <L_p_sha_init_k+0x75c>
     75c:	50                   	push   rax
     75d:	48 b8 2f 00 00 00 00 	movabs rax,0x2f
     764:	00 00 00 
     767:	50                   	push   rax
     768:	59                   	pop    rcx
     769:	58                   	pop    rax
     76a:	5a                   	pop    rdx
     76b:	48 89 14 c8          	mov    QWORD PTR [rax+rcx*8],rdx
     76f:	48 b8 16 c1 a4 19 00 	movabs rax,0x19a4c116
     776:	00 00 00 
     779:	50                   	push   rax
     77a:	58                   	pop    rax
     77b:	50                   	push   rax
     77c:	48 8d 05 00 00 00 00 	lea    rax,[rip+0x0]        # 783 <L_p_sha_init_k+0x783>
     783:	50                   	push   rax
     784:	48 b8 30 00 00 00 00 	movabs rax,0x30
     78b:	00 00 00 
     78e:	50                   	push   rax
     78f:	59                   	pop    rcx
     790:	58                   	pop    rax
     791:	5a                   	pop    rdx
     792:	48 89 14 c8          	mov    QWORD PTR [rax+rcx*8],rdx
     796:	48 b8 08 6c 37 1e 00 	movabs rax,0x1e376c08
     79d:	00 00 00 
     7a0:	50                   	push   rax
     7a1:	58                   	pop    rax
     7a2:	50                   	push   rax
     7a3:	48 8d 05 00 00 00 00 	lea    rax,[rip+0x0]        # 7aa <L_p_sha_init_k+0x7aa>
     7aa:	50                   	push   rax
     7ab:	48 b8 31 00 00 00 00 	movabs rax,0x31
     7b2:	00 00 00 
     7b5:	50                   	push   rax
     7b6:	59                   	pop    rcx
     7b7:	58                   	pop    rax
     7b8:	5a                   	pop    rdx
     7b9:	48 89 14 c8          	mov    QWORD PTR [rax+rcx*8],rdx
     7bd:	48 b8 4c 77 48 27 00 	movabs rax,0x2748774c
     7c4:	00 00 00 
     7c7:	50                   	push   rax
     7c8:	58                   	pop    rax
     7c9:	50                   	push   rax
     7ca:	48 8d 05 00 00 00 00 	lea    rax,[rip+0x0]        # 7d1 <L_p_sha_init_k+0x7d1>
     7d1:	50                   	push   rax
     7d2:	48 b8 32 00 00 00 00 	movabs rax,0x32
     7d9:	00 00 00 
     7dc:	50                   	push   rax
     7dd:	59                   	pop    rcx
     7de:	58                   	pop    rax
     7df:	5a                   	pop    rdx
     7e0:	48 89 14 c8          	mov    QWORD PTR [rax+rcx*8],rdx
     7e4:	48 b8 b5 bc b0 34 00 	movabs rax,0x34b0bcb5
     7eb:	00 00 00 
     7ee:	50                   	push   rax
     7ef:	58                   	pop    rax
     7f0:	50                   	push   rax
     7f1:	48 8d 05 00 00 00 00 	lea    rax,[rip+0x0]        # 7f8 <L_p_sha_init_k+0x7f8>
     7f8:	50                   	push   rax
     7f9:	48 b8 33 00 00 00 00 	movabs rax,0x33
     800:	00 00 00 
     803:	50                   	push   rax
     804:	59                   	pop    rcx
     805:	58                   	pop    rax
     806:	5a                   	pop    rdx
     807:	48 89 14 c8          	mov    QWORD PTR [rax+rcx*8],rdx
     80b:	48 b8 b3 0c 1c 39 00 	movabs rax,0x391c0cb3
     812:	00 00 00 
     815:	50                   	push   rax
     816:	58                   	pop    rax
     817:	50                   	push   rax
     818:	48 8d 05 00 00 00 00 	lea    rax,[rip+0x0]        # 81f <L_p_sha_init_k+0x81f>
     81f:	50                   	push   rax
     820:	48 b8 34 00 00 00 00 	movabs rax,0x34
     827:	00 00 00 
     82a:	50                   	push   rax
     82b:	59                   	pop    rcx
     82c:	58                   	pop    rax
     82d:	5a                   	pop    rdx
     82e:	48 89 14 c8          	mov    QWORD PTR [rax+rcx*8],rdx
     832:	48 b8 4a aa d8 4e 00 	movabs rax,0x4ed8aa4a
     839:	00 00 00 
     83c:	50                   	push   rax
     83d:	58                   	pop    rax
     83e:	50                   	push   rax
     83f:	48 8d 05 00 00 00 00 	lea    rax,[rip+0x0]        # 846 <L_p_sha_init_k+0x846>
     846:	50                   	push   rax
     847:	48 b8 35 00 00 00 00 	movabs rax,0x35
     84e:	00 00 00 
     851:	50                   	push   rax
     852:	59                   	pop    rcx
     853:	58                   	pop    rax
     854:	5a                   	pop    rdx
     855:	48 89 14 c8          	mov    QWORD PTR [rax+rcx*8],rdx
     859:	48 b8 4f ca 9c 5b 00 	movabs rax,0x5b9cca4f
     860:	00 00 00 
     863:	50                   	push   rax
     864:	58                   	pop    rax
     865:	50                   	push   rax
     866:	48 8d 05 00 00 00 00 	lea    rax,[rip+0x0]        # 86d <L_p_sha_init_k+0x86d>
     86d:	50                   	push   rax
     86e:	48 b8 36 00 00 00 00 	movabs rax,0x36
     875:	00 00 00 
     878:	50                   	push   rax
     879:	59                   	pop    rcx
     87a:	58                   	pop    rax
     87b:	5a                   	pop    rdx
     87c:	48 89 14 c8          	mov    QWORD PTR [rax+rcx*8],rdx
     880:	48 b8 f3 6f 2e 68 00 	movabs rax,0x682e6ff3
     887:	00 00 00 
     88a:	50                   	push   rax
     88b:	58                   	pop    rax
     88c:	50                   	push   rax
     88d:	48 8d 05 00 00 00 00 	lea    rax,[rip+0x0]        # 894 <L_p_sha_init_k+0x894>
     894:	50                   	push   rax
     895:	48 b8 37 00 00 00 00 	movabs rax,0x37
     89c:	00 00 00 
     89f:	50                   	push   rax
     8a0:	59                   	pop    rcx
     8a1:	58                   	pop    rax
     8a2:	5a                   	pop    rdx
     8a3:	48 89 14 c8          	mov    QWORD PTR [rax+rcx*8],rdx
     8a7:	48 b8 ee 82 8f 74 00 	movabs rax,0x748f82ee
     8ae:	00 00 00 
     8b1:	50                   	push   rax
     8b2:	58                   	pop    rax
     8b3:	50                   	push   rax
     8b4:	48 8d 05 00 00 00 00 	lea    rax,[rip+0x0]        # 8bb <L_p_sha_init_k+0x8bb>
     8bb:	50                   	push   rax
     8bc:	48 b8 38 00 00 00 00 	movabs rax,0x38
     8c3:	00 00 00 
     8c6:	50                   	push   rax
     8c7:	59                   	pop    rcx
     8c8:	58                   	pop    rax
     8c9:	5a                   	pop    rdx
     8ca:	48 89 14 c8          	mov    QWORD PTR [rax+rcx*8],rdx
     8ce:	48 b8 6f 63 a5 78 00 	movabs rax,0x78a5636f
     8d5:	00 00 00 
     8d8:	50                   	push   rax
     8d9:	58                   	pop    rax
     8da:	50                   	push   rax
     8db:	48 8d 05 00 00 00 00 	lea    rax,[rip+0x0]        # 8e2 <L_p_sha_init_k+0x8e2>
     8e2:	50                   	push   rax
     8e3:	48 b8 39 00 00 00 00 	movabs rax,0x39
     8ea:	00 00 00 
     8ed:	50                   	push   rax
     8ee:	59                   	pop    rcx
     8ef:	58                   	pop    rax
     8f0:	5a                   	pop    rdx
     8f1:	48 89 14 c8          	mov    QWORD PTR [rax+rcx*8],rdx
     8f5:	48 b8 14 78 c8 84 00 	movabs rax,0x84c87814
     8fc:	00 00 00 
     8ff:	50                   	push   rax
     900:	58                   	pop    rax
     901:	50                   	push   rax
     902:	48 8d 05 00 00 00 00 	lea    rax,[rip+0x0]        # 909 <L_p_sha_init_k+0x909>
     909:	50                   	push   rax
     90a:	48 b8 3a 00 00 00 00 	movabs rax,0x3a
     911:	00 00 00 
     914:	50                   	push   rax
     915:	59                   	pop    rcx
     916:	58                   	pop    rax
     917:	5a                   	pop    rdx
     918:	48 89 14 c8          	mov    QWORD PTR [rax+rcx*8],rdx
     91c:	48 b8 08 02 c7 8c 00 	movabs rax,0x8cc70208
     923:	00 00 00 
     926:	50                   	push   rax
     927:	58                   	pop    rax
     928:	50                   	push   rax
     929:	48 8d 05 00 00 00 00 	lea    rax,[rip+0x0]        # 930 <L_p_sha_init_k+0x930>
     930:	50                   	push   rax
     931:	48 b8 3b 00 00 00 00 	movabs rax,0x3b
     938:	00 00 00 
     93b:	50                   	push   rax
     93c:	59                   	pop    rcx
     93d:	58                   	pop    rax
     93e:	5a                   	pop    rdx
     93f:	48 89 14 c8          	mov    QWORD PTR [rax+rcx*8],rdx
     943:	48 b8 fa ff be 90 00 	movabs rax,0x90befffa
     94a:	00 00 00 
     94d:	50                   	push   rax
     94e:	58                   	pop    rax
     94f:	50                   	push   rax
     950:	48 8d 05 00 00 00 00 	lea    rax,[rip+0x0]        # 957 <L_p_sha_init_k+0x957>
     957:	50                   	push   rax
     958:	48 b8 3c 00 00 00 00 	movabs rax,0x3c
     95f:	00 00 00 
     962:	50                   	push   rax
     963:	59                   	pop    rcx
     964:	58                   	pop    rax
     965:	5a                   	pop    rdx
     966:	48 89 14 c8          	mov    QWORD PTR [rax+rcx*8],rdx
     96a:	48 b8 eb 6c 50 a4 00 	movabs rax,0xa4506ceb
     971:	00 00 00 
     974:	50                   	push   rax
     975:	58                   	pop    rax
     976:	50                   	push   rax
     977:	48 8d 05 00 00 00 00 	lea    rax,[rip+0x0]        # 97e <L_p_sha_init_k+0x97e>
     97e:	50                   	push   rax
     97f:	48 b8 3d 00 00 00 00 	movabs rax,0x3d
     986:	00 00 00 
     989:	50                   	push   rax
     98a:	59                   	pop    rcx
     98b:	58                   	pop    rax
     98c:	5a                   	pop    rdx
     98d:	48 89 14 c8          	mov    QWORD PTR [rax+rcx*8],rdx
     991:	48 b8 f7 a3 f9 be 00 	movabs rax,0xbef9a3f7
     998:	00 00 00 
     99b:	50                   	push   rax
     99c:	58                   	pop    rax
     99d:	50                   	push   rax
     99e:	48 8d 05 00 00 00 00 	lea    rax,[rip+0x0]        # 9a5 <L_p_sha_init_k+0x9a5>
     9a5:	50                   	push   rax
     9a6:	48 b8 3e 00 00 00 00 	movabs rax,0x3e
     9ad:	00 00 00 
     9b0:	50                   	push   rax
     9b1:	59                   	pop    rcx
     9b2:	58                   	pop    rax
     9b3:	5a                   	pop    rdx
     9b4:	48 89 14 c8          	mov    QWORD PTR [rax+rcx*8],rdx
     9b8:	48 b8 f2 78 71 c6 00 	movabs rax,0xc67178f2
     9bf:	00 00 00 
     9c2:	50                   	push   rax
     9c3:	58                   	pop    rax
     9c4:	50                   	push   rax
     9c5:	48 8d 05 00 00 00 00 	lea    rax,[rip+0x0]        # 9cc <L_p_sha_init_k+0x9cc>
     9cc:	50                   	push   rax
     9cd:	48 b8 3f 00 00 00 00 	movabs rax,0x3f
     9d4:	00 00 00 
     9d7:	50                   	push   rax
     9d8:	59                   	pop    rcx
     9d9:	58                   	pop    rax
     9da:	5a                   	pop    rdx
     9db:	48 89 14 c8          	mov    QWORD PTR [rax+rcx*8],rdx
     9df:	48 b8 00 00 00 00 00 	movabs rax,0x0
     9e6:	00 00 00 
     9e9:	50                   	push   rax
     9ea:	58                   	pop    rax
     9eb:	50                   	push   rax
     9ec:	50                   	push   rax
     9ed:	48 c7 c1 02 00 00 00 	mov    rcx,0x2
     9f4:	48 83 ec 20          	sub    rsp,0x20
     9f8:	e8 00 00 00 00       	call   9fd <L_p_sha_init_k+0x9fd>
     9fd:	48 83 c4 20          	add    rsp,0x20
     a01:	58                   	pop    rax
     a02:	58                   	pop    rax
     a03:	48 89 ec             	mov    rsp,rbp
     a06:	5d                   	pop    rbp
     a07:	c3                   	ret

0000000000000a08 <L_p_sha_rotr>:
     a08:	55                   	push   rbp
     a09:	48 89 e5             	mov    rbp,rsp
     a0c:	48 81 ec 00 04 00 00 	sub    rsp,0x400
     a13:	48 89 4d f8          	mov    QWORD PTR [rbp-0x8],rcx
     a17:	48 89 55 f0          	mov    QWORD PTR [rbp-0x10],rdx
     a1b:	48 c7 c1 01 00 00 00 	mov    rcx,0x1
     a22:	48 83 ec 20          	sub    rsp,0x20
     a26:	e8 00 00 00 00       	call   a2b <L_p_sha_rotr+0x23>
     a2b:	48 83 c4 20          	add    rsp,0x20
     a2f:	48 8b 45 f8          	mov    rax,QWORD PTR [rbp-0x8]
     a33:	50                   	push   rax
     a34:	48 8b 45 f0          	mov    rax,QWORD PTR [rbp-0x10]
     a38:	50                   	push   rax
     a39:	59                   	pop    rcx
     a3a:	58                   	pop    rax
     a3b:	48 d3 e8             	shr    rax,cl
     a3e:	50                   	push   rax
     a3f:	48 8b 45 f8          	mov    rax,QWORD PTR [rbp-0x8]
     a43:	50                   	push   rax
     a44:	48 b8 20 00 00 00 00 	movabs rax,0x20
     a4b:	00 00 00 
     a4e:	50                   	push   rax
     a4f:	48 8b 45 f0          	mov    rax,QWORD PTR [rbp-0x10]
     a53:	50                   	push   rax
     a54:	59                   	pop    rcx
     a55:	58                   	pop    rax
     a56:	48 29 c8             	sub    rax,rcx
     a59:	50                   	push   rax
     a5a:	59                   	pop    rcx
     a5b:	58                   	pop    rax
     a5c:	48 d3 e0             	shl    rax,cl
     a5f:	50                   	push   rax
     a60:	59                   	pop    rcx
     a61:	58                   	pop    rax
     a62:	48 09 c8             	or     rax,rcx
     a65:	50                   	push   rax
     a66:	58                   	pop    rax
     a67:	50                   	push   rax
     a68:	50                   	push   rax
     a69:	48 c7 c1 02 00 00 00 	mov    rcx,0x2
     a70:	48 83 ec 20          	sub    rsp,0x20
     a74:	e8 00 00 00 00       	call   a79 <L_p_sha_rotr+0x71>
     a79:	48 83 c4 20          	add    rsp,0x20
     a7d:	58                   	pop    rax
     a7e:	58                   	pop    rax
     a7f:	48 89 ec             	mov    rsp,rbp
     a82:	5d                   	pop    rbp
     a83:	c3                   	ret

0000000000000a84 <L_p__sha_sched4_scalar>:
     a84:	55                   	push   rbp
     a85:	48 89 e5             	mov    rbp,rsp
     a88:	48 81 ec 00 04 00 00 	sub    rsp,0x400
     a8f:	48 c7 c1 01 00 00 00 	mov    rcx,0x1
     a96:	48 83 ec 20          	sub    rsp,0x20
     a9a:	e8 00 00 00 00       	call   a9f <L_p__sha_sched4_scalar+0x1b>
     a9f:	48 83 c4 20          	add    rsp,0x20
     aa3:	48 8b 05 18 00 00 00 	mov    rax,QWORD PTR [rip+0x18]        # ac2 <L_p__sha_sched4_scalar+0x3e>
     aaa:	50                   	push   rax
     aab:	58                   	pop    rax
     aac:	48 89 45 f8          	mov    QWORD PTR [rbp-0x8],rax
     ab0:	48 b8 00 00 00 00 00 	movabs rax,0x0
     ab7:	00 00 00 
     aba:	50                   	push   rax
     abb:	58                   	pop    rax
     abc:	48 89 45 f0          	mov    QWORD PTR [rbp-0x10],rax
     ac0:	48 8b 45 f0          	mov    rax,QWORD PTR [rbp-0x10]
     ac4:	50                   	push   rax
     ac5:	48 b8 04 00 00 00 00 	movabs rax,0x4
     acc:	00 00 00 
     acf:	50                   	push   rax
     ad0:	59                   	pop    rcx
     ad1:	58                   	pop    rax
     ad2:	48 39 c8             	cmp    rax,rcx
     ad5:	0f 9c c0             	setl   al
     ad8:	48 0f b6 c0          	movzx  rax,al
     adc:	50                   	push   rax
     add:	58                   	pop    rax
     ade:	48 85 c0             	test   rax,rax
     ae1:	0f 84 57 01 00 00    	je     c3e <L_p__sha_sched4_scalar+0x1ba>
     ae7:	48 8d 05 40 02 00 00 	lea    rax,[rip+0x240]        # d2e <L_p__sha_sched4+0x7f>
     aee:	50                   	push   rax
     aef:	48 8b 45 f8          	mov    rax,QWORD PTR [rbp-0x8]
     af3:	50                   	push   rax
     af4:	48 8b 45 f0          	mov    rax,QWORD PTR [rbp-0x10]
     af8:	50                   	push   rax
     af9:	59                   	pop    rcx
     afa:	58                   	pop    rax
     afb:	48 01 c8             	add    rax,rcx
     afe:	50                   	push   rax
     aff:	48 b8 0f 00 00 00 00 	movabs rax,0xf
     b06:	00 00 00 
     b09:	50                   	push   rax
     b0a:	59                   	pop    rcx
     b0b:	58                   	pop    rax
     b0c:	48 29 c8             	sub    rax,rcx
     b0f:	50                   	push   rax
     b10:	59                   	pop    rcx
     b11:	58                   	pop    rax
     b12:	48 8b 04 c8          	mov    rax,QWORD PTR [rax+rcx*8]
     b16:	50                   	push   rax
     b17:	58                   	pop    rax
     b18:	48 89 45 e8          	mov    QWORD PTR [rbp-0x18],rax
     b1c:	48 8b 45 e8          	mov    rax,QWORD PTR [rbp-0x18]
     b20:	50                   	push   rax
     b21:	48 b8 07 00 00 00 00 	movabs rax,0x7
     b28:	00 00 00 
     b2b:	50                   	push   rax
     b2c:	5a                   	pop    rdx
     b2d:	59                   	pop    rcx
     b2e:	48 83 ec 20          	sub    rsp,0x20
     b32:	e8 d1 fe ff ff       	call   a08 <L_p_sha_rotr>
     b37:	48 83 c4 20          	add    rsp,0x20
     b3b:	50                   	push   rax
     b3c:	48 8b 45 e8          	mov    rax,QWORD PTR [rbp-0x18]
     b40:	50                   	push   rax
     b41:	48 b8 12 00 00 00 00 	movabs rax,0x12
     b48:	00 00 00 
     b4b:	50                   	push   rax
     b4c:	5a                   	pop    rdx
     b4d:	59                   	pop    rcx
     b4e:	48 83 ec 20          	sub    rsp,0x20
     b52:	e8 b1 fe ff ff       	call   a08 <L_p_sha_rotr>
     b57:	48 83 c4 20          	add    rsp,0x20
     b5b:	50                   	push   rax
     b5c:	59                   	pop    rcx
     b5d:	58                   	pop    rax
     b5e:	48 31 c8             	xor    rax,rcx
     b61:	50                   	push   rax
     b62:	48 8b 45 e8          	mov    rax,QWORD PTR [rbp-0x18]
     b66:	50                   	push   rax
     b67:	48 b8 03 00 00 00 00 	movabs rax,0x3
     b6e:	00 00 00 
     b71:	50                   	push   rax
     b72:	59                   	pop    rcx
     b73:	58                   	pop    rax
     b74:	48 d3 e8             	shr    rax,cl
     b77:	50                   	push   rax
     b78:	59                   	pop    rcx
     b79:	58                   	pop    rax
     b7a:	48 31 c8             	xor    rax,rcx
     b7d:	50                   	push   rax
     b7e:	58                   	pop    rax
     b7f:	48 89 45 e0          	mov    QWORD PTR [rbp-0x20],rax
     b83:	48 8d 05 40 02 00 00 	lea    rax,[rip+0x240]        # dca <L_p__sha_sched4+0x11b>
     b8a:	50                   	push   rax
     b8b:	48 8b 45 f8          	mov    rax,QWORD PTR [rbp-0x8]
     b8f:	50                   	push   rax
     b90:	48 8b 45 f0          	mov    rax,QWORD PTR [rbp-0x10]
     b94:	50                   	push   rax
     b95:	59                   	pop    rcx
     b96:	58                   	pop    rax
     b97:	48 01 c8             	add    rax,rcx
     b9a:	50                   	push   rax
     b9b:	48 b8 10 00 00 00 00 	movabs rax,0x10
     ba2:	00 00 00 
     ba5:	50                   	push   rax
     ba6:	59                   	pop    rcx
     ba7:	58                   	pop    rax
     ba8:	48 29 c8             	sub    rax,rcx
     bab:	50                   	push   rax
     bac:	59                   	pop    rcx
     bad:	58                   	pop    rax
     bae:	48 8b 04 c8          	mov    rax,QWORD PTR [rax+rcx*8]
     bb2:	50                   	push   rax
     bb3:	58                   	pop    rax
     bb4:	48 89 45 d8          	mov    QWORD PTR [rbp-0x28],rax
     bb8:	48 8d 05 40 02 00 00 	lea    rax,[rip+0x240]        # dff <L_p_sha256_sched_force+0x9>
     bbf:	50                   	push   rax
     bc0:	48 8b 45 f8          	mov    rax,QWORD PTR [rbp-0x8]
     bc4:	50                   	push   rax
     bc5:	48 8b 45 f0          	mov    rax,QWORD PTR [rbp-0x10]
     bc9:	50                   	push   rax
     bca:	59                   	pop    rcx
     bcb:	58                   	pop    rax
     bcc:	48 01 c8             	add    rax,rcx
     bcf:	50                   	push   rax
     bd0:	48 b8 07 00 00 00 00 	movabs rax,0x7
     bd7:	00 00 00 
     bda:	50                   	push   rax
     bdb:	59                   	pop    rcx
     bdc:	58                   	pop    rax
     bdd:	48 29 c8             	sub    rax,rcx
     be0:	50                   	push   rax
     be1:	59                   	pop    rcx
     be2:	58                   	pop    rax
     be3:	48 8b 04 c8          	mov    rax,QWORD PTR [rax+rcx*8]
     be7:	50                   	push   rax
     be8:	58                   	pop    rax
     be9:	48 89 45 d0          	mov    QWORD PTR [rbp-0x30],rax
     bed:	48 8b 45 d8          	mov    rax,QWORD PTR [rbp-0x28]
     bf1:	50                   	push   rax
     bf2:	48 8b 45 e0          	mov    rax,QWORD PTR [rbp-0x20]
     bf6:	50                   	push   rax
     bf7:	59                   	pop    rcx
     bf8:	58                   	pop    rax
     bf9:	48 01 c8             	add    rax,rcx
     bfc:	50                   	push   rax
     bfd:	48 8b 45 d0          	mov    rax,QWORD PTR [rbp-0x30]
     c01:	50                   	push   rax
     c02:	59                   	pop    rcx
     c03:	58                   	pop    rax
     c04:	48 01 c8             	add    rax,rcx
     c07:	50                   	push   rax
     c08:	58                   	pop    rax
     c09:	50                   	push   rax
     c0a:	48 8d 05 40 06 00 00 	lea    rax,[rip+0x640]        # 1251 <L_p_sha_block+0x402>
     c11:	50                   	push   rax
     c12:	48 8b 45 f0          	mov    rax,QWORD PTR [rbp-0x10]
     c16:	50                   	push   rax
     c17:	59                   	pop    rcx
     c18:	58                   	pop    rax
     c19:	5a                   	pop    rdx
     c1a:	48 89 14 c8          	mov    QWORD PTR [rax+rcx*8],rdx
     c1e:	48 8b 45 f0          	mov    rax,QWORD PTR [rbp-0x10]
     c22:	50                   	push   rax
     c23:	48 b8 01 00 00 00 00 	movabs rax,0x1
     c2a:	00 00 00 
     c2d:	50                   	push   rax
     c2e:	59                   	pop    rcx
     c2f:	58                   	pop    rax
     c30:	48 01 c8             	add    rax,rcx
     c33:	50                   	push   rax
     c34:	58                   	pop    rax
     c35:	48 89 45 f0          	mov    QWORD PTR [rbp-0x10],rax
     c39:	e9 82 fe ff ff       	jmp    ac0 <L_p__sha_sched4_scalar+0x3c>
     c3e:	48 b8 00 00 00 00 00 	movabs rax,0x0
     c45:	00 00 00 
     c48:	50                   	push   rax
     c49:	58                   	pop    rax
     c4a:	50                   	push   rax
     c4b:	50                   	push   rax
     c4c:	48 c7 c1 02 00 00 00 	mov    rcx,0x2
     c53:	48 83 ec 20          	sub    rsp,0x20
     c57:	e8 00 00 00 00       	call   c5c <L_p__sha_sched4_scalar+0x1d8>
     c5c:	48 83 c4 20          	add    rsp,0x20
     c60:	58                   	pop    rax
     c61:	58                   	pop    rax
     c62:	48 89 ec             	mov    rsp,rbp
     c65:	5d                   	pop    rbp
     c66:	c3                   	ret

0000000000000c67 <L_p__sha_sched4_avx512>:
     c67:	55                   	push   rbp
     c68:	48 89 e5             	mov    rbp,rsp
     c6b:	48 81 ec 00 04 00 00 	sub    rsp,0x400
     c72:	48 c7 c1 01 00 00 00 	mov    rcx,0x1
     c79:	48 83 ec 20          	sub    rsp,0x20
     c7d:	e8 00 00 00 00       	call   c82 <L_p__sha_sched4_avx512+0x1b>
     c82:	48 83 c4 20          	add    rsp,0x20
     c86:	48 b8 00 00 00 00 00 	movabs rax,0x0
     c8d:	00 00 00 
     c90:	50                   	push   rax
     c91:	58                   	pop    rax
     c92:	50                   	push   rax
     c93:	50                   	push   rax
     c94:	48 c7 c1 02 00 00 00 	mov    rcx,0x2
     c9b:	48 83 ec 20          	sub    rsp,0x20
     c9f:	e8 00 00 00 00       	call   ca4 <L_p__sha_sched4_avx512+0x3d>
     ca4:	48 83 c4 20          	add    rsp,0x20
     ca8:	58                   	pop    rax
     ca9:	58                   	pop    rax
     caa:	48 89 ec             	mov    rsp,rbp
     cad:	5d                   	pop    rbp
     cae:	c3                   	ret

0000000000000caf <L_p__sha_sched4>:
     caf:	55                   	push   rbp
     cb0:	48 89 e5             	mov    rbp,rsp
     cb3:	48 81 ec 00 04 00 00 	sub    rsp,0x400
     cba:	48 c7 c1 01 00 00 00 	mov    rcx,0x1
     cc1:	48 83 ec 20          	sub    rsp,0x20
     cc5:	e8 00 00 00 00       	call   cca <L_p__sha_sched4+0x1b>
     cca:	48 83 c4 20          	add    rsp,0x20
     cce:	48 8b 05 20 00 00 00 	mov    rax,QWORD PTR [rip+0x20]        # cf5 <L_p__sha_sched4+0x46>
     cd5:	50                   	push   rax
     cd6:	48 b8 01 00 00 00 00 	movabs rax,0x1
     cdd:	00 00 00 
     ce0:	50                   	push   rax
     ce1:	59                   	pop    rcx
     ce2:	58                   	pop    rax
     ce3:	48 39 c8             	cmp    rax,rcx
     ce6:	0f 94 c0             	sete   al
     ce9:	48 0f b6 c0          	movzx  rax,al
     ced:	50                   	push   rax
     cee:	58                   	pop    rax
     cef:	48 85 c0             	test   rax,rax
     cf2:	74 2c                	je     d20 <L_p__sha_sched4+0x71>
     cf4:	48 83 ec 20          	sub    rsp,0x20
     cf8:	e8 87 fd ff ff       	call   a84 <L_p__sha_sched4_scalar>
     cfd:	48 83 c4 20          	add    rsp,0x20
     d01:	50                   	push   rax
     d02:	58                   	pop    rax
     d03:	50                   	push   rax
     d04:	50                   	push   rax
     d05:	48 c7 c1 02 00 00 00 	mov    rcx,0x2
     d0c:	48 83 ec 20          	sub    rsp,0x20
     d10:	e8 00 00 00 00       	call   d15 <L_p__sha_sched4+0x66>
     d15:	48 83 c4 20          	add    rsp,0x20
     d19:	58                   	pop    rax
     d1a:	58                   	pop    rax
     d1b:	48 89 ec             	mov    rsp,rbp
     d1e:	5d                   	pop    rbp
     d1f:	c3                   	ret
     d20:	48 8b 05 20 00 00 00 	mov    rax,QWORD PTR [rip+0x20]        # d47 <L_p__sha_sched4+0x98>
     d27:	50                   	push   rax
     d28:	48 b8 02 00 00 00 00 	movabs rax,0x2
     d2f:	00 00 00 
     d32:	50                   	push   rax
     d33:	59                   	pop    rcx
     d34:	58                   	pop    rax
     d35:	48 39 c8             	cmp    rax,rcx
     d38:	0f 94 c0             	sete   al
     d3b:	48 0f b6 c0          	movzx  rax,al
     d3f:	50                   	push   rax
     d40:	58                   	pop    rax
     d41:	48 85 c0             	test   rax,rax
     d44:	74 2c                	je     d72 <L_p__sha_sched4+0xc3>
     d46:	48 83 ec 20          	sub    rsp,0x20
     d4a:	e8 18 ff ff ff       	call   c67 <L_p__sha_sched4_avx512>
     d4f:	48 83 c4 20          	add    rsp,0x20
     d53:	50                   	push   rax
     d54:	58                   	pop    rax
     d55:	50                   	push   rax
     d56:	50                   	push   rax
     d57:	48 c7 c1 02 00 00 00 	mov    rcx,0x2
     d5e:	48 83 ec 20          	sub    rsp,0x20
     d62:	e8 00 00 00 00       	call   d67 <L_p__sha_sched4+0xb8>
     d67:	48 83 c4 20          	add    rsp,0x20
     d6b:	58                   	pop    rax
     d6c:	58                   	pop    rax
     d6d:	48 89 ec             	mov    rsp,rbp
     d70:	5d                   	pop    rbp
     d71:	c3                   	ret
     d72:	48 83 ec 20          	sub    rsp,0x20
     d76:	e8 00 00 00 00       	call   d7b <L_p__sha_sched4+0xcc>
     d7b:	48 83 c4 20          	add    rsp,0x20
     d7f:	50                   	push   rax
     d80:	48 b8 01 00 00 00 00 	movabs rax,0x1
     d87:	00 00 00 
     d8a:	50                   	push   rax
     d8b:	59                   	pop    rcx
     d8c:	58                   	pop    rax
     d8d:	48 39 c8             	cmp    rax,rcx
     d90:	0f 94 c0             	sete   al
     d93:	48 0f b6 c0          	movzx  rax,al
     d97:	50                   	push   rax
     d98:	58                   	pop    rax
     d99:	48 85 c0             	test   rax,rax
     d9c:	74 2c                	je     dca <L_p__sha_sched4+0x11b>
     d9e:	48 83 ec 20          	sub    rsp,0x20
     da2:	e8 c0 fe ff ff       	call   c67 <L_p__sha_sched4_avx512>
     da7:	48 83 c4 20          	add    rsp,0x20
     dab:	50                   	push   rax
     dac:	58                   	pop    rax
     dad:	50                   	push   rax
     dae:	50                   	push   rax
     daf:	48 c7 c1 02 00 00 00 	mov    rcx,0x2
     db6:	48 83 ec 20          	sub    rsp,0x20
     dba:	e8 00 00 00 00       	call   dbf <L_p__sha_sched4+0x110>
     dbf:	48 83 c4 20          	add    rsp,0x20
     dc3:	58                   	pop    rax
     dc4:	58                   	pop    rax
     dc5:	48 89 ec             	mov    rsp,rbp
     dc8:	5d                   	pop    rbp
     dc9:	c3                   	ret
     dca:	48 83 ec 20          	sub    rsp,0x20
     dce:	e8 b1 fc ff ff       	call   a84 <L_p__sha_sched4_scalar>
     dd3:	48 83 c4 20          	add    rsp,0x20
     dd7:	50                   	push   rax
     dd8:	58                   	pop    rax
     dd9:	50                   	push   rax
     dda:	50                   	push   rax
     ddb:	48 c7 c1 02 00 00 00 	mov    rcx,0x2
     de2:	48 83 ec 20          	sub    rsp,0x20
     de6:	e8 00 00 00 00       	call   deb <L_p__sha_sched4+0x13c>
     deb:	48 83 c4 20          	add    rsp,0x20
     def:	58                   	pop    rax
     df0:	58                   	pop    rax
     df1:	48 89 ec             	mov    rsp,rbp
     df4:	5d                   	pop    rbp
     df5:	c3                   	ret

0000000000000df6 <L_p_sha256_sched_force>:
     df6:	55                   	push   rbp
     df7:	48 89 e5             	mov    rbp,rsp
     dfa:	48 81 ec 00 04 00 00 	sub    rsp,0x400
     e01:	48 89 4d f8          	mov    QWORD PTR [rbp-0x8],rcx
     e05:	48 c7 c1 01 00 00 00 	mov    rcx,0x1
     e0c:	48 83 ec 20          	sub    rsp,0x20
     e10:	e8 00 00 00 00       	call   e15 <L_p_sha256_sched_force+0x1f>
     e15:	48 83 c4 20          	add    rsp,0x20
     e19:	48 8b 45 f8          	mov    rax,QWORD PTR [rbp-0x8]
     e1d:	50                   	push   rax
     e1e:	58                   	pop    rax
     e1f:	48 89 05 20 00 00 00 	mov    QWORD PTR [rip+0x20],rax        # e46 <L_p_sha256_sched_force+0x50>
     e26:	48 b8 00 00 00 00 00 	movabs rax,0x0
     e2d:	00 00 00 
     e30:	50                   	push   rax
     e31:	58                   	pop    rax
     e32:	50                   	push   rax
     e33:	50                   	push   rax
     e34:	48 c7 c1 02 00 00 00 	mov    rcx,0x2
     e3b:	48 83 ec 20          	sub    rsp,0x20
     e3f:	e8 00 00 00 00       	call   e44 <L_p_sha256_sched_force+0x4e>
     e44:	48 83 c4 20          	add    rsp,0x20
     e48:	58                   	pop    rax
     e49:	58                   	pop    rax
     e4a:	48 89 ec             	mov    rsp,rbp
     e4d:	5d                   	pop    rbp
     e4e:	c3                   	ret

0000000000000e4f <L_p_sha_block>:
     e4f:	55                   	push   rbp
     e50:	48 89 e5             	mov    rbp,rsp
     e53:	48 81 ec 00 04 00 00 	sub    rsp,0x400
     e5a:	48 c7 c1 01 00 00 00 	mov    rcx,0x1
     e61:	48 83 ec 20          	sub    rsp,0x20
     e65:	e8 00 00 00 00       	call   e6a <L_p_sha_block+0x1b>
     e6a:	48 83 c4 20          	add    rsp,0x20
     e6e:	48 b8 00 00 00 00 00 	movabs rax,0x0
     e75:	00 00 00 
     e78:	50                   	push   rax
     e79:	58                   	pop    rax
     e7a:	48 89 45 f8          	mov    QWORD PTR [rbp-0x8],rax
     e7e:	48 8b 45 f8          	mov    rax,QWORD PTR [rbp-0x8]
     e82:	50                   	push   rax
     e83:	48 b8 10 00 00 00 00 	movabs rax,0x10
     e8a:	00 00 00 
     e8d:	50                   	push   rax
     e8e:	59                   	pop    rcx
     e8f:	58                   	pop    rax
     e90:	48 39 c8             	cmp    rax,rcx
     e93:	0f 9c c0             	setl   al
     e96:	48 0f b6 c0          	movzx  rax,al
     e9a:	50                   	push   rax
     e9b:	58                   	pop    rax
     e9c:	48 85 c0             	test   rax,rax
     e9f:	0f 84 a3 00 00 00    	je     f48 <L_p_sha_block+0xf9>
     ea5:	58                   	pop    rax
     ea6:	48 89 45 f0          	mov    QWORD PTR [rbp-0x10],rax
     eaa:	58                   	pop    rax
     eab:	48 89 45 e8          	mov    QWORD PTR [rbp-0x18],rax
     eaf:	58                   	pop    rax
     eb0:	48 89 45 e0          	mov    QWORD PTR [rbp-0x20],rax
     eb4:	58                   	pop    rax
     eb5:	48 89 45 d8          	mov    QWORD PTR [rbp-0x28],rax
     eb9:	48 8b 45 f0          	mov    rax,QWORD PTR [rbp-0x10]
     ebd:	50                   	push   rax
     ebe:	48 b8 18 00 00 00 00 	movabs rax,0x18
     ec5:	00 00 00 
     ec8:	50                   	push   rax
     ec9:	59                   	pop    rcx
     eca:	58                   	pop    rax
     ecb:	48 d3 e0             	shl    rax,cl
     ece:	50                   	push   rax
     ecf:	48 8b 45 e8          	mov    rax,QWORD PTR [rbp-0x18]
     ed3:	50                   	push   rax
     ed4:	48 b8 10 00 00 00 00 	movabs rax,0x10
     edb:	00 00 00 
     ede:	50                   	push   rax
     edf:	59                   	pop    rcx
     ee0:	58                   	pop    rax
     ee1:	48 d3 e0             	shl    rax,cl
     ee4:	50                   	push   rax
     ee5:	59                   	pop    rcx
     ee6:	58                   	pop    rax
     ee7:	48 09 c8             	or     rax,rcx
     eea:	50                   	push   rax
     eeb:	48 8b 45 e0          	mov    rax,QWORD PTR [rbp-0x20]
     eef:	50                   	push   rax
     ef0:	48 b8 08 00 00 00 00 	movabs rax,0x8
     ef7:	00 00 00 
     efa:	50                   	push   rax
     efb:	59                   	pop    rcx
     efc:	58                   	pop    rax
     efd:	48 d3 e0             	shl    rax,cl
     f00:	50                   	push   rax
     f01:	59                   	pop    rcx
     f02:	58                   	pop    rax
     f03:	48 09 c8             	or     rax,rcx
     f06:	50                   	push   rax
     f07:	48 8b 45 d8          	mov    rax,QWORD PTR [rbp-0x28]
     f0b:	50                   	push   rax
     f0c:	59                   	pop    rcx
     f0d:	58                   	pop    rax
     f0e:	48 09 c8             	or     rax,rcx
     f11:	50                   	push   rax
     f12:	58                   	pop    rax
     f13:	50                   	push   rax
     f14:	48 8d 05 40 02 00 00 	lea    rax,[rip+0x240]        # 115b <L_p_sha_block+0x30c>
     f1b:	50                   	push   rax
     f1c:	48 8b 45 f8          	mov    rax,QWORD PTR [rbp-0x8]
     f20:	50                   	push   rax
     f21:	59                   	pop    rcx
     f22:	58                   	pop    rax
     f23:	5a                   	pop    rdx
     f24:	48 89 14 c8          	mov    QWORD PTR [rax+rcx*8],rdx
     f28:	48 8b 45 f8          	mov    rax,QWORD PTR [rbp-0x8]
     f2c:	50                   	push   rax
     f2d:	48 b8 01 00 00 00 00 	movabs rax,0x1
     f34:	00 00 00 
     f37:	50                   	push   rax
     f38:	59                   	pop    rcx
     f39:	58                   	pop    rax
     f3a:	48 01 c8             	add    rax,rcx
     f3d:	50                   	push   rax
     f3e:	58                   	pop    rax
     f3f:	48 89 45 f8          	mov    QWORD PTR [rbp-0x8],rax
     f43:	e9 36 ff ff ff       	jmp    e7e <L_p_sha_block+0x2f>
     f48:	48 b8 10 00 00 00 00 	movabs rax,0x10
     f4f:	00 00 00 
     f52:	50                   	push   rax
     f53:	58                   	pop    rax
     f54:	48 89 45 d0          	mov    QWORD PTR [rbp-0x30],rax
     f58:	48 8b 45 d0          	mov    rax,QWORD PTR [rbp-0x30]
     f5c:	50                   	push   rax
     f5d:	48 b8 40 00 00 00 00 	movabs rax,0x40
     f64:	00 00 00 
     f67:	50                   	push   rax
     f68:	59                   	pop    rcx
     f69:	58                   	pop    rax
     f6a:	48 39 c8             	cmp    rax,rcx
     f6d:	0f 9c c0             	setl   al
     f70:	48 0f b6 c0          	movzx  rax,al
     f74:	50                   	push   rax
     f75:	58                   	pop    rax
     f76:	48 85 c0             	test   rax,rax
     f79:	0f 84 6f 01 00 00    	je     10ee <L_p_sha_block+0x29f>
     f7f:	48 8b 45 d0          	mov    rax,QWORD PTR [rbp-0x30]
     f83:	50                   	push   rax
     f84:	58                   	pop    rax
     f85:	48 89 05 18 00 00 00 	mov    QWORD PTR [rip+0x18],rax        # fa4 <L_p_sha_block+0x155>
     f8c:	48 83 ec 20          	sub    rsp,0x20
     f90:	e8 1a fd ff ff       	call   caf <L_p__sha_sched4>
     f95:	48 83 c4 20          	add    rsp,0x20
     f99:	50                   	push   rax
     f9a:	58                   	pop    rax
     f9b:	48 b8 00 00 00 00 00 	movabs rax,0x0
     fa2:	00 00 00 
     fa5:	50                   	push   rax
     fa6:	58                   	pop    rax
     fa7:	48 89 45 c8          	mov    QWORD PTR [rbp-0x38],rax
     fab:	48 8b 45 c8          	mov    rax,QWORD PTR [rbp-0x38]
     faf:	50                   	push   rax
     fb0:	48 b8 04 00 00 00 00 	movabs rax,0x4
     fb7:	00 00 00 
     fba:	50                   	push   rax
     fbb:	59                   	pop    rcx
     fbc:	58                   	pop    rax
     fbd:	48 39 c8             	cmp    rax,rcx
     fc0:	0f 9c c0             	setl   al
     fc3:	48 0f b6 c0          	movzx  rax,al
     fc7:	50                   	push   rax
     fc8:	58                   	pop    rax
     fc9:	48 85 c0             	test   rax,rax
     fcc:	0f 84 fc 00 00 00    	je     10ce <L_p_sha_block+0x27f>
     fd2:	48 8d 05 40 02 00 00 	lea    rax,[rip+0x240]        # 1219 <L_p_sha_block+0x3ca>
     fd9:	50                   	push   rax
     fda:	48 8b 45 d0          	mov    rax,QWORD PTR [rbp-0x30]
     fde:	50                   	push   rax
     fdf:	48 8b 45 c8          	mov    rax,QWORD PTR [rbp-0x38]
     fe3:	50                   	push   rax
     fe4:	59                   	pop    rcx
     fe5:	58                   	pop    rax
     fe6:	48 01 c8             	add    rax,rcx
     fe9:	50                   	push   rax
     fea:	48 b8 02 00 00 00 00 	movabs rax,0x2
     ff1:	00 00 00 
     ff4:	50                   	push   rax
     ff5:	59                   	pop    rcx
     ff6:	58                   	pop    rax
     ff7:	48 29 c8             	sub    rax,rcx
     ffa:	50                   	push   rax
     ffb:	59                   	pop    rcx
     ffc:	58                   	pop    rax
     ffd:	48 8b 04 c8          	mov    rax,QWORD PTR [rax+rcx*8]
    1001:	50                   	push   rax
    1002:	58                   	pop    rax
    1003:	48 89 45 c0          	mov    QWORD PTR [rbp-0x40],rax
    1007:	48 8b 45 c0          	mov    rax,QWORD PTR [rbp-0x40]
    100b:	50                   	push   rax
    100c:	48 b8 11 00 00 00 00 	movabs rax,0x11
    1013:	00 00 00 
    1016:	50                   	push   rax
    1017:	5a                   	pop    rdx
    1018:	59                   	pop    rcx
    1019:	48 83 ec 20          	sub    rsp,0x20
    101d:	e8 e6 f9 ff ff       	call   a08 <L_p_sha_rotr>
    1022:	48 83 c4 20          	add    rsp,0x20
    1026:	50                   	push   rax
    1027:	48 8b 45 c0          	mov    rax,QWORD PTR [rbp-0x40]
    102b:	50                   	push   rax
    102c:	48 b8 13 00 00 00 00 	movabs rax,0x13
    1033:	00 00 00 
    1036:	50                   	push   rax
    1037:	5a                   	pop    rdx
    1038:	59                   	pop    rcx
    1039:	48 83 ec 20          	sub    rsp,0x20
    103d:	e8 c6 f9 ff ff       	call   a08 <L_p_sha_rotr>
    1042:	48 83 c4 20          	add    rsp,0x20
    1046:	50                   	push   rax
    1047:	59                   	pop    rcx
    1048:	58                   	pop    rax
    1049:	48 31 c8             	xor    rax,rcx
    104c:	50                   	push   rax
    104d:	48 8b 45 c0          	mov    rax,QWORD PTR [rbp-0x40]
    1051:	50                   	push   rax
    1052:	48 b8 0a 00 00 00 00 	movabs rax,0xa
    1059:	00 00 00 
    105c:	50                   	push   rax
    105d:	59                   	pop    rcx
    105e:	58                   	pop    rax
    105f:	48 d3 e8             	shr    rax,cl
    1062:	50                   	push   rax
    1063:	59                   	pop    rcx
    1064:	58                   	pop    rax
    1065:	48 31 c8             	xor    rax,rcx
    1068:	50                   	push   rax
    1069:	58                   	pop    rax
    106a:	48 89 45 b8          	mov    QWORD PTR [rbp-0x48],rax
    106e:	48 8d 05 40 06 00 00 	lea    rax,[rip+0x640]        # 16b5 <L_p_sha_block+0x866>
    1075:	50                   	push   rax
    1076:	48 8b 45 c8          	mov    rax,QWORD PTR [rbp-0x38]
    107a:	50                   	push   rax
    107b:	59                   	pop    rcx
    107c:	58                   	pop    rax
    107d:	48 8b 04 c8          	mov    rax,QWORD PTR [rax+rcx*8]
    1081:	50                   	push   rax
    1082:	48 8b 45 b8          	mov    rax,QWORD PTR [rbp-0x48]
    1086:	50                   	push   rax
    1087:	59                   	pop    rcx
    1088:	58                   	pop    rax
    1089:	48 01 c8             	add    rax,rcx
    108c:	50                   	push   rax
    108d:	58                   	pop    rax
    108e:	50                   	push   rax
    108f:	48 8d 05 40 02 00 00 	lea    rax,[rip+0x240]        # 12d6 <L_p_sha_block+0x487>
    1096:	50                   	push   rax
    1097:	48 8b 45 d0          	mov    rax,QWORD PTR [rbp-0x30]
    109b:	50                   	push   rax
    109c:	48 8b 45 c8          	mov    rax,QWORD PTR [rbp-0x38]
    10a0:	50                   	push   rax
    10a1:	59                   	pop    rcx
    10a2:	58                   	pop    rax
    10a3:	48 01 c8             	add    rax,rcx
    10a6:	50                   	push   rax
    10a7:	59                   	pop    rcx
    10a8:	58                   	pop    rax
    10a9:	5a                   	pop    rdx
    10aa:	48 89 14 c8          	mov    QWORD PTR [rax+rcx*8],rdx
    10ae:	48 8b 45 c8          	mov    rax,QWORD PTR [rbp-0x38]
    10b2:	50                   	push   rax
    10b3:	48 b8 01 00 00 00 00 	movabs rax,0x1
    10ba:	00 00 00 
    10bd:	50                   	push   rax
    10be:	59                   	pop    rcx
    10bf:	58                   	pop    rax
    10c0:	48 01 c8             	add    rax,rcx
    10c3:	50                   	push   rax
    10c4:	58                   	pop    rax
    10c5:	48 89 45 c8          	mov    QWORD PTR [rbp-0x38],rax
    10c9:	e9 dd fe ff ff       	jmp    fab <L_p_sha_block+0x15c>
    10ce:	48 8b 45 d0          	mov    rax,QWORD PTR [rbp-0x30]
    10d2:	50                   	push   rax
    10d3:	48 b8 04 00 00 00 00 	movabs rax,0x4
    10da:	00 00 00 
    10dd:	50                   	push   rax
    10de:	59                   	pop    rcx
    10df:	58                   	pop    rax
    10e0:	48 01 c8             	add    rax,rcx
    10e3:	50                   	push   rax
    10e4:	58                   	pop    rax
    10e5:	48 89 45 d0          	mov    QWORD PTR [rbp-0x30],rax
    10e9:	e9 6a fe ff ff       	jmp    f58 <L_p_sha_block+0x109>
    10ee:	48 8d 05 00 02 00 00 	lea    rax,[rip+0x200]        # 12f5 <L_p_sha_block+0x4a6>
    10f5:	50                   	push   rax
    10f6:	48 b8 00 00 00 00 00 	movabs rax,0x0
    10fd:	00 00 00 
    1100:	50                   	push   rax
    1101:	59                   	pop    rcx
    1102:	58                   	pop    rax
    1103:	48 8b 04 c8          	mov    rax,QWORD PTR [rax+rcx*8]
    1107:	50                   	push   rax
    1108:	58                   	pop    rax
    1109:	48 89 45 b0          	mov    QWORD PTR [rbp-0x50],rax
    110d:	48 8d 05 00 02 00 00 	lea    rax,[rip+0x200]        # 1314 <L_p_sha_block+0x4c5>
    1114:	50                   	push   rax
    1115:	48 b8 01 00 00 00 00 	movabs rax,0x1
    111c:	00 00 00 
    111f:	50                   	push   rax
    1120:	59                   	pop    rcx
    1121:	58                   	pop    rax
    1122:	48 8b 04 c8          	mov    rax,QWORD PTR [rax+rcx*8]
    1126:	50                   	push   rax
    1127:	58                   	pop    rax
    1128:	48 89 45 a8          	mov    QWORD PTR [rbp-0x58],rax
    112c:	48 8d 05 00 02 00 00 	lea    rax,[rip+0x200]        # 1333 <L_p_sha_block+0x4e4>
    1133:	50                   	push   rax
    1134:	48 b8 02 00 00 00 00 	movabs rax,0x2
    113b:	00 00 00 
    113e:	50                   	push   rax
    113f:	59                   	pop    rcx
    1140:	58                   	pop    rax
    1141:	48 8b 04 c8          	mov    rax,QWORD PTR [rax+rcx*8]
    1145:	50                   	push   rax
    1146:	58                   	pop    rax
    1147:	48 89 45 a0          	mov    QWORD PTR [rbp-0x60],rax
    114b:	48 8d 05 00 02 00 00 	lea    rax,[rip+0x200]        # 1352 <L_p_sha_block+0x503>
    1152:	50                   	push   rax
    1153:	48 b8 03 00 00 00 00 	movabs rax,0x3
    115a:	00 00 00 
    115d:	50                   	push   rax
    115e:	59                   	pop    rcx
    115f:	58                   	pop    rax
    1160:	48 8b 04 c8          	mov    rax,QWORD PTR [rax+rcx*8]
    1164:	50                   	push   rax
    1165:	58                   	pop    rax
    1166:	48 89 45 98          	mov    QWORD PTR [rbp-0x68],rax
    116a:	48 8d 05 00 02 00 00 	lea    rax,[rip+0x200]        # 1371 <L_p_sha_block+0x522>
    1171:	50                   	push   rax
    1172:	48 b8 04 00 00 00 00 	movabs rax,0x4
    1179:	00 00 00 
    117c:	50                   	push   rax
    117d:	59                   	pop    rcx
    117e:	58                   	pop    rax
    117f:	48 8b 04 c8          	mov    rax,QWORD PTR [rax+rcx*8]
    1183:	50                   	push   rax
    1184:	58                   	pop    rax
    1185:	48 89 45 90          	mov    QWORD PTR [rbp-0x70],rax
    1189:	48 8d 05 00 02 00 00 	lea    rax,[rip+0x200]        # 1390 <L_p_sha_block+0x541>
    1190:	50                   	push   rax
    1191:	48 b8 05 00 00 00 00 	movabs rax,0x5
    1198:	00 00 00 
    119b:	50                   	push   rax
    119c:	59                   	pop    rcx
    119d:	58                   	pop    rax
    119e:	48 8b 04 c8          	mov    rax,QWORD PTR [rax+rcx*8]
    11a2:	50                   	push   rax
    11a3:	58                   	pop    rax
    11a4:	48 89 45 88          	mov    QWORD PTR [rbp-0x78],rax
    11a8:	48 8d 05 00 02 00 00 	lea    rax,[rip+0x200]        # 13af <L_p_sha_block+0x560>
    11af:	50                   	push   rax
    11b0:	48 b8 06 00 00 00 00 	movabs rax,0x6
    11b7:	00 00 00 
    11ba:	50                   	push   rax
    11bb:	59                   	pop    rcx
    11bc:	58                   	pop    rax
    11bd:	48 8b 04 c8          	mov    rax,QWORD PTR [rax+rcx*8]
    11c1:	50                   	push   rax
    11c2:	58                   	pop    rax
    11c3:	48 89 45 80          	mov    QWORD PTR [rbp-0x80],rax
    11c7:	48 8d 05 00 02 00 00 	lea    rax,[rip+0x200]        # 13ce <L_p_sha_block+0x57f>
    11ce:	50                   	push   rax
    11cf:	48 b8 07 00 00 00 00 	movabs rax,0x7
    11d6:	00 00 00 
    11d9:	50                   	push   rax
    11da:	59                   	pop    rcx
    11db:	58                   	pop    rax
    11dc:	48 8b 04 c8          	mov    rax,QWORD PTR [rax+rcx*8]
    11e0:	50                   	push   rax
    11e1:	58                   	pop    rax
    11e2:	48 89 85 78 ff ff ff 	mov    QWORD PTR [rbp-0x88],rax
    11e9:	48 b8 00 00 00 00 00 	movabs rax,0x0
    11f0:	00 00 00 
    11f3:	50                   	push   rax
    11f4:	58                   	pop    rax
    11f5:	48 89 85 70 ff ff ff 	mov    QWORD PTR [rbp-0x90],rax
    11fc:	48 8b 85 70 ff ff ff 	mov    rax,QWORD PTR [rbp-0x90]
    1203:	50                   	push   rax
    1204:	48 b8 40 00 00 00 00 	movabs rax,0x40
    120b:	00 00 00 
    120e:	50                   	push   rax
    120f:	59                   	pop    rcx
    1210:	58                   	pop    rax
    1211:	48 39 c8             	cmp    rax,rcx
    1214:	0f 9c c0             	setl   al
    1217:	48 0f b6 c0          	movzx  rax,al
    121b:	50                   	push   rax
    121c:	58                   	pop    rax
    121d:	48 85 c0             	test   rax,rax
    1220:	0f 84 9b 02 00 00    	je     14c1 <L_p_sha_block+0x672>
    1226:	48 8b 45 90          	mov    rax,QWORD PTR [rbp-0x70]
    122a:	50                   	push   rax
    122b:	48 b8 06 00 00 00 00 	movabs rax,0x6
    1232:	00 00 00 
    1235:	50                   	push   rax
    1236:	5a                   	pop    rdx
    1237:	59                   	pop    rcx
    1238:	48 83 ec 20          	sub    rsp,0x20
    123c:	e8 c7 f7 ff ff       	call   a08 <L_p_sha_rotr>
    1241:	48 83 c4 20          	add    rsp,0x20
    1245:	50                   	push   rax
    1246:	48 8b 45 90          	mov    rax,QWORD PTR [rbp-0x70]
    124a:	50                   	push   rax
    124b:	48 b8 0b 00 00 00 00 	movabs rax,0xb
    1252:	00 00 00 
    1255:	50                   	push   rax
    1256:	5a                   	pop    rdx
    1257:	59                   	pop    rcx
    1258:	48 83 ec 20          	sub    rsp,0x20
    125c:	e8 a7 f7 ff ff       	call   a08 <L_p_sha_rotr>
    1261:	48 83 c4 20          	add    rsp,0x20
    1265:	50                   	push   rax
    1266:	59                   	pop    rcx
    1267:	58                   	pop    rax
    1268:	48 31 c8             	xor    rax,rcx
    126b:	50                   	push   rax
    126c:	48 8b 45 90          	mov    rax,QWORD PTR [rbp-0x70]
    1270:	50                   	push   rax
    1271:	48 b8 19 00 00 00 00 	movabs rax,0x19
    1278:	00 00 00 
    127b:	50                   	push   rax
    127c:	5a                   	pop    rdx
    127d:	59                   	pop    rcx
    127e:	48 83 ec 20          	sub    rsp,0x20
    1282:	e8 81 f7 ff ff       	call   a08 <L_p_sha_rotr>
    1287:	48 83 c4 20          	add    rsp,0x20
    128b:	50                   	push   rax
    128c:	59                   	pop    rcx
    128d:	58                   	pop    rax
    128e:	48 31 c8             	xor    rax,rcx
    1291:	50                   	push   rax
    1292:	58                   	pop    rax
    1293:	48 89 85 68 ff ff ff 	mov    QWORD PTR [rbp-0x98],rax
    129a:	48 8b 45 90          	mov    rax,QWORD PTR [rbp-0x70]
    129e:	50                   	push   rax
    129f:	48 8b 45 88          	mov    rax,QWORD PTR [rbp-0x78]
    12a3:	50                   	push   rax
    12a4:	59                   	pop    rcx
    12a5:	58                   	pop    rax
    12a6:	48 21 c8             	and    rax,rcx
    12a9:	50                   	push   rax
    12aa:	48 8b 45 90          	mov    rax,QWORD PTR [rbp-0x70]
    12ae:	50                   	push   rax
    12af:	58                   	pop    rax
    12b0:	48 f7 d0             	not    rax
    12b3:	50                   	push   rax
    12b4:	48 8b 45 80          	mov    rax,QWORD PTR [rbp-0x80]
    12b8:	50                   	push   rax
    12b9:	59                   	pop    rcx
    12ba:	58                   	pop    rax
    12bb:	48 21 c8             	and    rax,rcx
    12be:	50                   	push   rax
    12bf:	59                   	pop    rcx
    12c0:	58                   	pop    rax
    12c1:	48 31 c8             	xor    rax,rcx
    12c4:	50                   	push   rax
    12c5:	58                   	pop    rax
    12c6:	48 89 85 60 ff ff ff 	mov    QWORD PTR [rbp-0xa0],rax
    12cd:	48 8d 05 00 00 00 00 	lea    rax,[rip+0x0]        # 12d4 <L_p_sha_block+0x485>
    12d4:	50                   	push   rax
    12d5:	48 8b 85 70 ff ff ff 	mov    rax,QWORD PTR [rbp-0x90]
    12dc:	50                   	push   rax
    12dd:	59                   	pop    rcx
    12de:	58                   	pop    rax
    12df:	48 8b 04 c8          	mov    rax,QWORD PTR [rax+rcx*8]
    12e3:	50                   	push   rax
    12e4:	58                   	pop    rax
    12e5:	48 89 85 58 ff ff ff 	mov    QWORD PTR [rbp-0xa8],rax
    12ec:	48 8d 05 40 02 00 00 	lea    rax,[rip+0x240]        # 1533 <L_p_sha_block+0x6e4>
    12f3:	50                   	push   rax
    12f4:	48 8b 85 70 ff ff ff 	mov    rax,QWORD PTR [rbp-0x90]
    12fb:	50                   	push   rax
    12fc:	59                   	pop    rcx
    12fd:	58                   	pop    rax
    12fe:	48 8b 04 c8          	mov    rax,QWORD PTR [rax+rcx*8]
    1302:	50                   	push   rax
    1303:	58                   	pop    rax
    1304:	48 89 85 50 ff ff ff 	mov    QWORD PTR [rbp-0xb0],rax
    130b:	48 8b 85 78 ff ff ff 	mov    rax,QWORD PTR [rbp-0x88]
    1312:	50                   	push   rax
    1313:	48 8b 85 68 ff ff ff 	mov    rax,QWORD PTR [rbp-0x98]
    131a:	50                   	push   rax
    131b:	59                   	pop    rcx
    131c:	58                   	pop    rax
    131d:	48 01 c8             	add    rax,rcx
    1320:	50                   	push   rax
    1321:	48 8b 85 60 ff ff ff 	mov    rax,QWORD PTR [rbp-0xa0]
    1328:	50                   	push   rax
    1329:	59                   	pop    rcx
    132a:	58                   	pop    rax
    132b:	48 01 c8             	add    rax,rcx
    132e:	50                   	push   rax
    132f:	48 8b 85 58 ff ff ff 	mov    rax,QWORD PTR [rbp-0xa8]
    1336:	50                   	push   rax
    1337:	59                   	pop    rcx
    1338:	58                   	pop    rax
    1339:	48 01 c8             	add    rax,rcx
    133c:	50                   	push   rax
    133d:	48 8b 85 50 ff ff ff 	mov    rax,QWORD PTR [rbp-0xb0]
    1344:	50                   	push   rax
    1345:	59                   	pop    rcx
    1346:	58                   	pop    rax
    1347:	48 01 c8             	add    rax,rcx
    134a:	50                   	push   rax
    134b:	58                   	pop    rax
    134c:	48 89 85 48 ff ff ff 	mov    QWORD PTR [rbp-0xb8],rax
    1353:	48 8b 45 b0          	mov    rax,QWORD PTR [rbp-0x50]
    1357:	50                   	push   rax
    1358:	48 b8 02 00 00 00 00 	movabs rax,0x2
    135f:	00 00 00 
    1362:	50                   	push   rax
    1363:	5a                   	pop    rdx
    1364:	59                   	pop    rcx
    1365:	48 83 ec 20          	sub    rsp,0x20
    1369:	e8 9a f6 ff ff       	call   a08 <L_p_sha_rotr>
    136e:	48 83 c4 20          	add    rsp,0x20
    1372:	50                   	push   rax
    1373:	48 8b 45 b0          	mov    rax,QWORD PTR [rbp-0x50]
    1377:	50                   	push   rax
    1378:	48 b8 0d 00 00 00 00 	movabs rax,0xd
    137f:	00 00 00 
    1382:	50                   	push   rax
    1383:	5a                   	pop    rdx
    1384:	59                   	pop    rcx
    1385:	48 83 ec 20          	sub    rsp,0x20
    1389:	e8 7a f6 ff ff       	call   a08 <L_p_sha_rotr>
    138e:	48 83 c4 20          	add    rsp,0x20
    1392:	50                   	push   rax
    1393:	59                   	pop    rcx
    1394:	58                   	pop    rax
    1395:	48 31 c8             	xor    rax,rcx
    1398:	50                   	push   rax
    1399:	48 8b 45 b0          	mov    rax,QWORD PTR [rbp-0x50]
    139d:	50                   	push   rax
    139e:	48 b8 16 00 00 00 00 	movabs rax,0x16
    13a5:	00 00 00 
    13a8:	50                   	push   rax
    13a9:	5a                   	pop    rdx
    13aa:	59                   	pop    rcx
    13ab:	48 83 ec 20          	sub    rsp,0x20
    13af:	e8 54 f6 ff ff       	call   a08 <L_p_sha_rotr>
    13b4:	48 83 c4 20          	add    rsp,0x20
    13b8:	50                   	push   rax
    13b9:	59                   	pop    rcx
    13ba:	58                   	pop    rax
    13bb:	48 31 c8             	xor    rax,rcx
    13be:	50                   	push   rax
    13bf:	58                   	pop    rax
    13c0:	48 89 85 40 ff ff ff 	mov    QWORD PTR [rbp-0xc0],rax
    13c7:	48 8b 45 b0          	mov    rax,QWORD PTR [rbp-0x50]
    13cb:	50                   	push   rax
    13cc:	48 8b 45 a8          	mov    rax,QWORD PTR [rbp-0x58]
    13d0:	50                   	push   rax
    13d1:	59                   	pop    rcx
    13d2:	58                   	pop    rax
    13d3:	48 21 c8             	and    rax,rcx
    13d6:	50                   	push   rax
    13d7:	48 8b 45 b0          	mov    rax,QWORD PTR [rbp-0x50]
    13db:	50                   	push   rax
    13dc:	48 8b 45 a0          	mov    rax,QWORD PTR [rbp-0x60]
    13e0:	50                   	push   rax
    13e1:	59                   	pop    rcx
    13e2:	58                   	pop    rax
    13e3:	48 21 c8             	and    rax,rcx
    13e6:	50                   	push   rax
    13e7:	59                   	pop    rcx
    13e8:	58                   	pop    rax
    13e9:	48 31 c8             	xor    rax,rcx
    13ec:	50                   	push   rax
    13ed:	48 8b 45 a8          	mov    rax,QWORD PTR [rbp-0x58]
    13f1:	50                   	push   rax
    13f2:	48 8b 45 a0          	mov    rax,QWORD PTR [rbp-0x60]
    13f6:	50                   	push   rax
    13f7:	59                   	pop    rcx
    13f8:	58                   	pop    rax
    13f9:	48 21 c8             	and    rax,rcx
    13fc:	50                   	push   rax
    13fd:	59                   	pop    rcx
    13fe:	58                   	pop    rax
    13ff:	48 31 c8             	xor    rax,rcx
    1402:	50                   	push   rax
    1403:	58                   	pop    rax
    1404:	48 89 85 38 ff ff ff 	mov    QWORD PTR [rbp-0xc8],rax
    140b:	48 8b 85 40 ff ff ff 	mov    rax,QWORD PTR [rbp-0xc0]
    1412:	50                   	push   rax
    1413:	48 8b 85 38 ff ff ff 	mov    rax,QWORD PTR [rbp-0xc8]
    141a:	50                   	push   rax
    141b:	59                   	pop    rcx
    141c:	58                   	pop    rax
    141d:	48 01 c8             	add    rax,rcx
    1420:	50                   	push   rax
    1421:	58                   	pop    rax
    1422:	48 89 85 30 ff ff ff 	mov    QWORD PTR [rbp-0xd0],rax
    1429:	48 8b 45 80          	mov    rax,QWORD PTR [rbp-0x80]
    142d:	50                   	push   rax
    142e:	58                   	pop    rax
    142f:	48 89 85 78 ff ff ff 	mov    QWORD PTR [rbp-0x88],rax
    1436:	48 8b 45 88          	mov    rax,QWORD PTR [rbp-0x78]
    143a:	50                   	push   rax
    143b:	58                   	pop    rax
    143c:	48 89 45 80          	mov    QWORD PTR [rbp-0x80],rax
    1440:	48 8b 45 90          	mov    rax,QWORD PTR [rbp-0x70]
    1444:	50                   	push   rax
    1445:	58                   	pop    rax
    1446:	48 89 45 88          	mov    QWORD PTR [rbp-0x78],rax
    144a:	48 8b 45 98          	mov    rax,QWORD PTR [rbp-0x68]
    144e:	50                   	push   rax
    144f:	48 8b 85 48 ff ff ff 	mov    rax,QWORD PTR [rbp-0xb8]
    1456:	50                   	push   rax
    1457:	59                   	pop    rcx
    1458:	58                   	pop    rax
    1459:	48 01 c8             	add    rax,rcx
    145c:	50                   	push   rax
    145d:	58                   	pop    rax
    145e:	48 89 45 90          	mov    QWORD PTR [rbp-0x70],rax
    1462:	48 8b 45 a0          	mov    rax,QWORD PTR [rbp-0x60]
    1466:	50                   	push   rax
    1467:	58                   	pop    rax
    1468:	48 89 45 98          	mov    QWORD PTR [rbp-0x68],rax
    146c:	48 8b 45 a8          	mov    rax,QWORD PTR [rbp-0x58]
    1470:	50                   	push   rax
    1471:	58                   	pop    rax
    1472:	48 89 45 a0          	mov    QWORD PTR [rbp-0x60],rax
    1476:	48 8b 45 b0          	mov    rax,QWORD PTR [rbp-0x50]
    147a:	50                   	push   rax
    147b:	58                   	pop    rax
    147c:	48 89 45 a8          	mov    QWORD PTR [rbp-0x58],rax
    1480:	48 8b 85 48 ff ff ff 	mov    rax,QWORD PTR [rbp-0xb8]
    1487:	50                   	push   rax
    1488:	48 8b 85 30 ff ff ff 	mov    rax,QWORD PTR [rbp-0xd0]
    148f:	50                   	push   rax
    1490:	59                   	pop    rcx
    1491:	58                   	pop    rax
    1492:	48 01 c8             	add    rax,rcx
    1495:	50                   	push   rax
    1496:	58                   	pop    rax
    1497:	48 89 45 b0          	mov    QWORD PTR [rbp-0x50],rax
    149b:	48 8b 85 70 ff ff ff 	mov    rax,QWORD PTR [rbp-0x90]
    14a2:	50                   	push   rax
    14a3:	48 b8 01 00 00 00 00 	movabs rax,0x1
    14aa:	00 00 00 
    14ad:	50                   	push   rax
    14ae:	59                   	pop    rcx
    14af:	58                   	pop    rax
    14b0:	48 01 c8             	add    rax,rcx
    14b3:	50                   	push   rax
    14b4:	58                   	pop    rax
    14b5:	48 89 85 70 ff ff ff 	mov    QWORD PTR [rbp-0x90],rax
    14bc:	e9 3b fd ff ff       	jmp    11fc <L_p_sha_block+0x3ad>
    14c1:	48 8d 05 00 02 00 00 	lea    rax,[rip+0x200]        # 16c8 <L_p_sha_block+0x879>
    14c8:	50                   	push   rax
    14c9:	48 b8 00 00 00 00 00 	movabs rax,0x0
    14d0:	00 00 00 
    14d3:	50                   	push   rax
    14d4:	59                   	pop    rcx
    14d5:	58                   	pop    rax
    14d6:	48 8b 04 c8          	mov    rax,QWORD PTR [rax+rcx*8]
    14da:	50                   	push   rax
    14db:	48 8b 45 b0          	mov    rax,QWORD PTR [rbp-0x50]
    14df:	50                   	push   rax
    14e0:	59                   	pop    rcx
    14e1:	58                   	pop    rax
    14e2:	48 01 c8             	add    rax,rcx
    14e5:	50                   	push   rax
    14e6:	58                   	pop    rax
    14e7:	50                   	push   rax
    14e8:	48 8d 05 00 02 00 00 	lea    rax,[rip+0x200]        # 16ef <L_p_sha_block+0x8a0>
    14ef:	50                   	push   rax
    14f0:	48 b8 00 00 00 00 00 	movabs rax,0x0
    14f7:	00 00 00 
    14fa:	50                   	push   rax
    14fb:	59                   	pop    rcx
    14fc:	58                   	pop    rax
    14fd:	5a                   	pop    rdx
    14fe:	48 89 14 c8          	mov    QWORD PTR [rax+rcx*8],rdx
    1502:	48 8d 05 00 02 00 00 	lea    rax,[rip+0x200]        # 1709 <L_p_sha256_init+0x14>
    1509:	50                   	push   rax
    150a:	48 b8 01 00 00 00 00 	movabs rax,0x1
    1511:	00 00 00 
    1514:	50                   	push   rax
    1515:	59                   	pop    rcx
    1516:	58                   	pop    rax
    1517:	48 8b 04 c8          	mov    rax,QWORD PTR [rax+rcx*8]
    151b:	50                   	push   rax
    151c:	48 8b 45 a8          	mov    rax,QWORD PTR [rbp-0x58]
    1520:	50                   	push   rax
    1521:	59                   	pop    rcx
    1522:	58                   	pop    rax
    1523:	48 01 c8             	add    rax,rcx
    1526:	50                   	push   rax
    1527:	58                   	pop    rax
    1528:	50                   	push   rax
    1529:	48 8d 05 00 02 00 00 	lea    rax,[rip+0x200]        # 1730 <L_p_sha256_init+0x3b>
    1530:	50                   	push   rax
    1531:	48 b8 01 00 00 00 00 	movabs rax,0x1
    1538:	00 00 00 
    153b:	50                   	push   rax
    153c:	59                   	pop    rcx
    153d:	58                   	pop    rax
    153e:	5a                   	pop    rdx
    153f:	48 89 14 c8          	mov    QWORD PTR [rax+rcx*8],rdx
    1543:	48 8d 05 00 02 00 00 	lea    rax,[rip+0x200]        # 174a <L_p_sha256_init+0x55>
    154a:	50                   	push   rax
    154b:	48 b8 02 00 00 00 00 	movabs rax,0x2
    1552:	00 00 00 
    1555:	50                   	push   rax
    1556:	59                   	pop    rcx
    1557:	58                   	pop    rax
    1558:	48 8b 04 c8          	mov    rax,QWORD PTR [rax+rcx*8]
    155c:	50                   	push   rax
    155d:	48 8b 45 a0          	mov    rax,QWORD PTR [rbp-0x60]
    1561:	50                   	push   rax
    1562:	59                   	pop    rcx
    1563:	58                   	pop    rax
    1564:	48 01 c8             	add    rax,rcx
    1567:	50                   	push   rax
    1568:	58                   	pop    rax
    1569:	50                   	push   rax
    156a:	48 8d 05 00 02 00 00 	lea    rax,[rip+0x200]        # 1771 <L_p_sha256_init+0x7c>
    1571:	50                   	push   rax
    1572:	48 b8 02 00 00 00 00 	movabs rax,0x2
    1579:	00 00 00 
    157c:	50                   	push   rax
    157d:	59                   	pop    rcx
    157e:	58                   	pop    rax
    157f:	5a                   	pop    rdx
    1580:	48 89 14 c8          	mov    QWORD PTR [rax+rcx*8],rdx
    1584:	48 8d 05 00 02 00 00 	lea    rax,[rip+0x200]        # 178b <L_p_sha256_init+0x96>
    158b:	50                   	push   rax
    158c:	48 b8 03 00 00 00 00 	movabs rax,0x3
    1593:	00 00 00 
    1596:	50                   	push   rax
    1597:	59                   	pop    rcx
    1598:	58                   	pop    rax
    1599:	48 8b 04 c8          	mov    rax,QWORD PTR [rax+rcx*8]
    159d:	50                   	push   rax
    159e:	48 8b 45 98          	mov    rax,QWORD PTR [rbp-0x68]
    15a2:	50                   	push   rax
    15a3:	59                   	pop    rcx
    15a4:	58                   	pop    rax
    15a5:	48 01 c8             	add    rax,rcx
    15a8:	50                   	push   rax
    15a9:	58                   	pop    rax
    15aa:	50                   	push   rax
    15ab:	48 8d 05 00 02 00 00 	lea    rax,[rip+0x200]        # 17b2 <L_p_sha256_init+0xbd>
    15b2:	50                   	push   rax
    15b3:	48 b8 03 00 00 00 00 	movabs rax,0x3
    15ba:	00 00 00 
    15bd:	50                   	push   rax
    15be:	59                   	pop    rcx
    15bf:	58                   	pop    rax
    15c0:	5a                   	pop    rdx
    15c1:	48 89 14 c8          	mov    QWORD PTR [rax+rcx*8],rdx
    15c5:	48 8d 05 00 02 00 00 	lea    rax,[rip+0x200]        # 17cc <L_p_sha256_init+0xd7>
    15cc:	50                   	push   rax
    15cd:	48 b8 04 00 00 00 00 	movabs rax,0x4
    15d4:	00 00 00 
    15d7:	50                   	push   rax
    15d8:	59                   	pop    rcx
    15d9:	58                   	pop    rax
    15da:	48 8b 04 c8          	mov    rax,QWORD PTR [rax+rcx*8]
    15de:	50                   	push   rax
    15df:	48 8b 45 90          	mov    rax,QWORD PTR [rbp-0x70]
    15e3:	50                   	push   rax
    15e4:	59                   	pop    rcx
    15e5:	58                   	pop    rax
    15e6:	48 01 c8             	add    rax,rcx
    15e9:	50                   	push   rax
    15ea:	58                   	pop    rax
    15eb:	50                   	push   rax
    15ec:	48 8d 05 00 02 00 00 	lea    rax,[rip+0x200]        # 17f3 <L_p_sha256_init+0xfe>
    15f3:	50                   	push   rax
    15f4:	48 b8 04 00 00 00 00 	movabs rax,0x4
    15fb:	00 00 00 
    15fe:	50                   	push   rax
    15ff:	59                   	pop    rcx
    1600:	58                   	pop    rax
    1601:	5a                   	pop    rdx
    1602:	48 89 14 c8          	mov    QWORD PTR [rax+rcx*8],rdx
    1606:	48 8d 05 00 02 00 00 	lea    rax,[rip+0x200]        # 180d <L_p_sha256_init+0x118>
    160d:	50                   	push   rax
    160e:	48 b8 05 00 00 00 00 	movabs rax,0x5
    1615:	00 00 00 
    1618:	50                   	push   rax
    1619:	59                   	pop    rcx
    161a:	58                   	pop    rax
    161b:	48 8b 04 c8          	mov    rax,QWORD PTR [rax+rcx*8]
    161f:	50                   	push   rax
    1620:	48 8b 45 88          	mov    rax,QWORD PTR [rbp-0x78]
    1624:	50                   	push   rax
    1625:	59                   	pop    rcx
    1626:	58                   	pop    rax
    1627:	48 01 c8             	add    rax,rcx
    162a:	50                   	push   rax
    162b:	58                   	pop    rax
    162c:	50                   	push   rax
    162d:	48 8d 05 00 02 00 00 	lea    rax,[rip+0x200]        # 1834 <L_p_sha256_init+0x13f>
    1634:	50                   	push   rax
    1635:	48 b8 05 00 00 00 00 	movabs rax,0x5
    163c:	00 00 00 
    163f:	50                   	push   rax
    1640:	59                   	pop    rcx
    1641:	58                   	pop    rax
    1642:	5a                   	pop    rdx
    1643:	48 89 14 c8          	mov    QWORD PTR [rax+rcx*8],rdx
    1647:	48 8d 05 00 02 00 00 	lea    rax,[rip+0x200]        # 184e <L_p_sha256_init+0x159>
    164e:	50                   	push   rax
    164f:	48 b8 06 00 00 00 00 	movabs rax,0x6
    1656:	00 00 00 
    1659:	50                   	push   rax
    165a:	59                   	pop    rcx
    165b:	58                   	pop    rax
    165c:	48 8b 04 c8          	mov    rax,QWORD PTR [rax+rcx*8]
    1660:	50                   	push   rax
    1661:	48 8b 45 80          	mov    rax,QWORD PTR [rbp-0x80]
    1665:	50                   	push   rax
    1666:	59                   	pop    rcx
    1667:	58                   	pop    rax
    1668:	48 01 c8             	add    rax,rcx
    166b:	50                   	push   rax
    166c:	58                   	pop    rax
    166d:	50                   	push   rax
    166e:	48 8d 05 00 02 00 00 	lea    rax,[rip+0x200]        # 1875 <L_p_sha256_init+0x180>
    1675:	50                   	push   rax
    1676:	48 b8 06 00 00 00 00 	movabs rax,0x6
    167d:	00 00 00 
    1680:	50                   	push   rax
    1681:	59                   	pop    rcx
    1682:	58                   	pop    rax
    1683:	5a                   	pop    rdx
    1684:	48 89 14 c8          	mov    QWORD PTR [rax+rcx*8],rdx
    1688:	48 8d 05 00 02 00 00 	lea    rax,[rip+0x200]        # 188f <L_p_sha256_init+0x19a>
    168f:	50                   	push   rax
    1690:	48 b8 07 00 00 00 00 	movabs rax,0x7
    1697:	00 00 00 
    169a:	50                   	push   rax
    169b:	59                   	pop    rcx
    169c:	58                   	pop    rax
    169d:	48 8b 04 c8          	mov    rax,QWORD PTR [rax+rcx*8]
    16a1:	50                   	push   rax
    16a2:	48 8b 85 78 ff ff ff 	mov    rax,QWORD PTR [rbp-0x88]
    16a9:	50                   	push   rax
    16aa:	59                   	pop    rcx
    16ab:	58                   	pop    rax
    16ac:	48 01 c8             	add    rax,rcx
    16af:	50                   	push   rax
    16b0:	58                   	pop    rax
    16b1:	50                   	push   rax
    16b2:	48 8d 05 00 02 00 00 	lea    rax,[rip+0x200]        # 18b9 <L_p_sha256_init+0x1c4>
    16b9:	50                   	push   rax
    16ba:	48 b8 07 00 00 00 00 	movabs rax,0x7
    16c1:	00 00 00 
    16c4:	50                   	push   rax
    16c5:	59                   	pop    rcx
    16c6:	58                   	pop    rax
    16c7:	5a                   	pop    rdx
    16c8:	48 89 14 c8          	mov    QWORD PTR [rax+rcx*8],rdx
    16cc:	48 b8 00 00 00 00 00 	movabs rax,0x0
    16d3:	00 00 00 
    16d6:	50                   	push   rax
    16d7:	58                   	pop    rax
    16d8:	50                   	push   rax
    16d9:	50                   	push   rax
    16da:	48 c7 c1 02 00 00 00 	mov    rcx,0x2
    16e1:	48 83 ec 20          	sub    rsp,0x20
    16e5:	e8 00 00 00 00       	call   16ea <L_p_sha_block+0x89b>
    16ea:	48 83 c4 20          	add    rsp,0x20
    16ee:	58                   	pop    rax
    16ef:	58                   	pop    rax
    16f0:	48 89 ec             	mov    rsp,rbp
    16f3:	5d                   	pop    rbp
    16f4:	c3                   	ret

00000000000016f5 <L_p_sha256_init>:
    16f5:	55                   	push   rbp
    16f6:	48 89 e5             	mov    rbp,rsp
    16f9:	48 81 ec 00 04 00 00 	sub    rsp,0x400
    1700:	48 c7 c1 01 00 00 00 	mov    rcx,0x1
    1707:	48 83 ec 20          	sub    rsp,0x20
    170b:	e8 00 00 00 00       	call   1710 <L_p_sha256_init+0x1b>
    1710:	48 83 c4 20          	add    rsp,0x20
    1714:	48 83 ec 20          	sub    rsp,0x20
    1718:	e8 e3 e8 ff ff       	call   0 <L_p_sha_init_k>
    171d:	48 83 c4 20          	add    rsp,0x20
    1721:	50                   	push   rax
    1722:	58                   	pop    rax
    1723:	48 b8 67 e6 09 6a 00 	movabs rax,0x6a09e667
    172a:	00 00 00 
    172d:	50                   	push   rax
    172e:	58                   	pop    rax
    172f:	50                   	push   rax
    1730:	48 8d 05 00 02 00 00 	lea    rax,[rip+0x200]        # 1937 <L_p_sha256_update+0x7a>
    1737:	50                   	push   rax
    1738:	48 b8 00 00 00 00 00 	movabs rax,0x0
    173f:	00 00 00 
    1742:	50                   	push   rax
    1743:	59                   	pop    rcx
    1744:	58                   	pop    rax
    1745:	5a                   	pop    rdx
    1746:	48 89 14 c8          	mov    QWORD PTR [rax+rcx*8],rdx
    174a:	48 b8 85 ae 67 bb 00 	movabs rax,0xbb67ae85
    1751:	00 00 00 
    1754:	50                   	push   rax
    1755:	58                   	pop    rax
    1756:	50                   	push   rax
    1757:	48 8d 05 00 02 00 00 	lea    rax,[rip+0x200]        # 195e <L_p_sha256_update+0xa1>
    175e:	50                   	push   rax
    175f:	48 b8 01 00 00 00 00 	movabs rax,0x1
    1766:	00 00 00 
    1769:	50                   	push   rax
    176a:	59                   	pop    rcx
    176b:	58                   	pop    rax
    176c:	5a                   	pop    rdx
    176d:	48 89 14 c8          	mov    QWORD PTR [rax+rcx*8],rdx
    1771:	48 b8 72 f3 6e 3c 00 	movabs rax,0x3c6ef372
    1778:	00 00 00 
    177b:	50                   	push   rax
    177c:	58                   	pop    rax
    177d:	50                   	push   rax
    177e:	48 8d 05 00 02 00 00 	lea    rax,[rip+0x200]        # 1985 <L_p_sha256_update+0xc8>
    1785:	50                   	push   rax
    1786:	48 b8 02 00 00 00 00 	movabs rax,0x2
    178d:	00 00 00 
    1790:	50                   	push   rax
    1791:	59                   	pop    rcx
    1792:	58                   	pop    rax
    1793:	5a                   	pop    rdx
    1794:	48 89 14 c8          	mov    QWORD PTR [rax+rcx*8],rdx
    1798:	48 b8 3a f5 4f a5 00 	movabs rax,0xa54ff53a
    179f:	00 00 00 
    17a2:	50                   	push   rax
    17a3:	58                   	pop    rax
    17a4:	50                   	push   rax
    17a5:	48 8d 05 00 02 00 00 	lea    rax,[rip+0x200]        # 19ac <L_p_sha256_update+0xef>
    17ac:	50                   	push   rax
    17ad:	48 b8 03 00 00 00 00 	movabs rax,0x3
    17b4:	00 00 00 
    17b7:	50                   	push   rax
    17b8:	59                   	pop    rcx
    17b9:	58                   	pop    rax
    17ba:	5a                   	pop    rdx
    17bb:	48 89 14 c8          	mov    QWORD PTR [rax+rcx*8],rdx
    17bf:	48 b8 7f 52 0e 51 00 	movabs rax,0x510e527f
    17c6:	00 00 00 
    17c9:	50                   	push   rax
    17ca:	58                   	pop    rax
    17cb:	50                   	push   rax
    17cc:	48 8d 05 00 02 00 00 	lea    rax,[rip+0x200]        # 19d3 <L_p_sha256_update+0x116>
    17d3:	50                   	push   rax
    17d4:	48 b8 04 00 00 00 00 	movabs rax,0x4
    17db:	00 00 00 
    17de:	50                   	push   rax
    17df:	59                   	pop    rcx
    17e0:	58                   	pop    rax
    17e1:	5a                   	pop    rdx
    17e2:	48 89 14 c8          	mov    QWORD PTR [rax+rcx*8],rdx
    17e6:	48 b8 8c 68 05 9b 00 	movabs rax,0x9b05688c
    17ed:	00 00 00 
    17f0:	50                   	push   rax
    17f1:	58                   	pop    rax
    17f2:	50                   	push   rax
    17f3:	48 8d 05 00 02 00 00 	lea    rax,[rip+0x200]        # 19fa <L_p_sha256_update+0x13d>
    17fa:	50                   	push   rax
    17fb:	48 b8 05 00 00 00 00 	movabs rax,0x5
    1802:	00 00 00 
    1805:	50                   	push   rax
    1806:	59                   	pop    rcx
    1807:	58                   	pop    rax
    1808:	5a                   	pop    rdx
    1809:	48 89 14 c8          	mov    QWORD PTR [rax+rcx*8],rdx
    180d:	48 b8 ab d9 83 1f 00 	movabs rax,0x1f83d9ab
    1814:	00 00 00 
    1817:	50                   	push   rax
    1818:	58                   	pop    rax
    1819:	50                   	push   rax
    181a:	48 8d 05 00 02 00 00 	lea    rax,[rip+0x200]        # 1a21 <L_p_sha256_update+0x164>
    1821:	50                   	push   rax
    1822:	48 b8 06 00 00 00 00 	movabs rax,0x6
    1829:	00 00 00 
    182c:	50                   	push   rax
    182d:	59                   	pop    rcx
    182e:	58                   	pop    rax
    182f:	5a                   	pop    rdx
    1830:	48 89 14 c8          	mov    QWORD PTR [rax+rcx*8],rdx
    1834:	48 b8 19 cd e0 5b 00 	movabs rax,0x5be0cd19
    183b:	00 00 00 
    183e:	50                   	push   rax
    183f:	58                   	pop    rax
    1840:	50                   	push   rax
    1841:	48 8d 05 00 02 00 00 	lea    rax,[rip+0x200]        # 1a48 <L_p_sha256_update+0x18b>
    1848:	50                   	push   rax
    1849:	48 b8 07 00 00 00 00 	movabs rax,0x7
    1850:	00 00 00 
    1853:	50                   	push   rax
    1854:	59                   	pop    rcx
    1855:	58                   	pop    rax
    1856:	5a                   	pop    rdx
    1857:	48 89 14 c8          	mov    QWORD PTR [rax+rcx*8],rdx
    185b:	48 b8 00 00 00 00 00 	movabs rax,0x0
    1862:	00 00 00 
    1865:	50                   	push   rax
    1866:	58                   	pop    rax
    1867:	48 89 05 08 00 00 00 	mov    QWORD PTR [rip+0x8],rax        # 1876 <L_p_sha256_init+0x181>
    186e:	48 b8 00 00 00 00 00 	movabs rax,0x0
    1875:	00 00 00 
    1878:	50                   	push   rax
    1879:	58                   	pop    rax
    187a:	48 89 05 00 00 00 00 	mov    QWORD PTR [rip+0x0],rax        # 1881 <L_p_sha256_init+0x18c>
    1881:	48 b8 01 00 00 00 00 	movabs rax,0x1
    1888:	00 00 00 
    188b:	50                   	push   rax
    188c:	58                   	pop    rax
    188d:	48 89 05 10 00 00 00 	mov    QWORD PTR [rip+0x10],rax        # 18a4 <L_p_sha256_init+0x1af>
    1894:	48 b8 00 00 00 00 00 	movabs rax,0x0
    189b:	00 00 00 
    189e:	50                   	push   rax
    189f:	58                   	pop    rax
    18a0:	50                   	push   rax
    18a1:	50                   	push   rax
    18a2:	48 c7 c1 02 00 00 00 	mov    rcx,0x2
    18a9:	48 83 ec 20          	sub    rsp,0x20
    18ad:	e8 00 00 00 00       	call   18b2 <L_p_sha256_init+0x1bd>
    18b2:	48 83 c4 20          	add    rsp,0x20
    18b6:	58                   	pop    rax
    18b7:	58                   	pop    rax
    18b8:	48 89 ec             	mov    rsp,rbp
    18bb:	5d                   	pop    rbp
    18bc:	c3                   	ret

00000000000018bd <L_p_sha256_update>:
    18bd:	55                   	push   rbp
    18be:	48 89 e5             	mov    rbp,rsp
    18c1:	48 81 ec 00 04 00 00 	sub    rsp,0x400
    18c8:	48 89 4d f8          	mov    QWORD PTR [rbp-0x8],rcx
    18cc:	48 89 55 f0          	mov    QWORD PTR [rbp-0x10],rdx
    18d0:	48 c7 c1 01 00 00 00 	mov    rcx,0x1
    18d7:	48 83 ec 20          	sub    rsp,0x20
    18db:	e8 00 00 00 00       	call   18e0 <L_p_sha256_update+0x23>
    18e0:	48 83 c4 20          	add    rsp,0x20
    18e4:	48 8b 05 10 00 00 00 	mov    rax,QWORD PTR [rip+0x10]        # 18fb <L_p_sha256_update+0x3e>
    18eb:	50                   	push   rax
    18ec:	48 b8 00 00 00 00 00 	movabs rax,0x0
    18f3:	00 00 00 
    18f6:	50                   	push   rax
    18f7:	59                   	pop    rcx
    18f8:	58                   	pop    rax
    18f9:	48 39 c8             	cmp    rax,rcx
    18fc:	0f 94 c0             	sete   al
    18ff:	48 0f b6 c0          	movzx  rax,al
    1903:	50                   	push   rax
    1904:	58                   	pop    rax
    1905:	48 85 c0             	test   rax,rax
    1908:	74 29                	je     1933 <L_p_sha256_update+0x76>
    190a:	48 b8 01 00 00 00 00 	movabs rax,0x1
    1911:	00 00 00 
    1914:	50                   	push   rax
    1915:	58                   	pop    rax
    1916:	50                   	push   rax
    1917:	50                   	push   rax
    1918:	48 c7 c1 02 00 00 00 	mov    rcx,0x2
    191f:	48 83 ec 20          	sub    rsp,0x20
    1923:	e8 00 00 00 00       	call   1928 <L_p_sha256_update+0x6b>
    1928:	48 83 c4 20          	add    rsp,0x20
    192c:	58                   	pop    rax
    192d:	58                   	pop    rax
    192e:	48 89 ec             	mov    rsp,rbp
    1931:	5d                   	pop    rbp
    1932:	c3                   	ret
    1933:	48 8b 05 08 00 00 00 	mov    rax,QWORD PTR [rip+0x8]        # 1942 <L_p_sha256_update+0x85>
    193a:	50                   	push   rax
    193b:	48 8b 45 f0          	mov    rax,QWORD PTR [rbp-0x10]
    193f:	50                   	push   rax
    1940:	48 b8 08 00 00 00 00 	movabs rax,0x8
    1947:	00 00 00 
    194a:	50                   	push   rax
    194b:	59                   	pop    rcx
    194c:	58                   	pop    rax
    194d:	48 0f af c1          	imul   rax,rcx
    1951:	50                   	push   rax
    1952:	59                   	pop    rcx
    1953:	58                   	pop    rax
    1954:	48 01 c8             	add    rax,rcx
    1957:	50                   	push   rax
    1958:	58                   	pop    rax
    1959:	48 89 05 08 00 00 00 	mov    QWORD PTR [rip+0x8],rax        # 1968 <L_p_sha256_update+0xab>
    1960:	48 8b 45 f0          	mov    rax,QWORD PTR [rbp-0x10]
    1964:	50                   	push   rax
    1965:	58                   	pop    rax
    1966:	48 89 45 e8          	mov    QWORD PTR [rbp-0x18],rax
    196a:	48 b8 00 00 00 00 00 	movabs rax,0x0
    1971:	00 00 00 
    1974:	50                   	push   rax
    1975:	58                   	pop    rax
    1976:	48 89 45 e0          	mov    QWORD PTR [rbp-0x20],rax
    197a:	48 8b 45 e8          	mov    rax,QWORD PTR [rbp-0x18]
    197e:	50                   	push   rax
    197f:	48 b8 00 00 00 00 00 	movabs rax,0x0
    1986:	00 00 00 
    1989:	50                   	push   rax
    198a:	59                   	pop    rcx
    198b:	58                   	pop    rax
    198c:	48 39 c8             	cmp    rax,rcx
    198f:	0f 9f c0             	setg   al
    1992:	48 0f b6 c0          	movzx  rax,al
    1996:	50                   	push   rax
    1997:	58                   	pop    rax
    1998:	48 85 c0             	test   rax,rax
    199b:	0f 84 56 01 00 00    	je     1af7 <L_p_sha256_update+0x23a>
    19a1:	48 b8 40 00 00 00 00 	movabs rax,0x40
    19a8:	00 00 00 
    19ab:	50                   	push   rax
    19ac:	59                   	pop    rcx
    19ad:	58                   	pop    rax
    19ae:	48 29 c8             	sub    rax,rcx
    19b1:	50                   	push   rax
    19b2:	58                   	pop    rax
    19b3:	48 89 45 d8          	mov    QWORD PTR [rbp-0x28],rax
    19b7:	48 8b 45 d8          	mov    rax,QWORD PTR [rbp-0x28]
    19bb:	50                   	push   rax
    19bc:	48 8b 45 e8          	mov    rax,QWORD PTR [rbp-0x18]
    19c0:	50                   	push   rax
    19c1:	59                   	pop    rcx
    19c2:	58                   	pop    rax
    19c3:	48 39 c8             	cmp    rax,rcx
    19c6:	0f 9f c0             	setg   al
    19c9:	48 0f b6 c0          	movzx  rax,al
    19cd:	50                   	push   rax
    19ce:	58                   	pop    rax
    19cf:	48 85 c0             	test   rax,rax
    19d2:	74 0a                	je     19de <L_p_sha256_update+0x121>
    19d4:	48 8b 45 e8          	mov    rax,QWORD PTR [rbp-0x18]
    19d8:	50                   	push   rax
    19d9:	58                   	pop    rax
    19da:	48 89 45 d8          	mov    QWORD PTR [rbp-0x28],rax
    19de:	48 b8 00 00 00 00 00 	movabs rax,0x0
    19e5:	00 00 00 
    19e8:	50                   	push   rax
    19e9:	58                   	pop    rax
    19ea:	48 89 45 d0          	mov    QWORD PTR [rbp-0x30],rax
    19ee:	48 8b 45 d0          	mov    rax,QWORD PTR [rbp-0x30]
    19f2:	50                   	push   rax
    19f3:	48 8b 45 d8          	mov    rax,QWORD PTR [rbp-0x28]
    19f7:	50                   	push   rax
    19f8:	59                   	pop    rcx
    19f9:	58                   	pop    rax
    19fa:	48 39 c8             	cmp    rax,rcx
    19fd:	0f 9c c0             	setl   al
    1a00:	48 0f b6 c0          	movzx  rax,al
    1a04:	50                   	push   rax
    1a05:	58                   	pop    rax
    1a06:	48 85 c0             	test   rax,rax
    1a09:	74 5f                	je     1a6a <L_p_sha256_update+0x1ad>
    1a0b:	48 8b 45 d0          	mov    rax,QWORD PTR [rbp-0x30]
    1a0f:	50                   	push   rax
    1a10:	59                   	pop    rcx
    1a11:	58                   	pop    rax
    1a12:	48 01 c8             	add    rax,rcx
    1a15:	50                   	push   rax
    1a16:	58                   	pop    rax
    1a17:	48 89 45 c8          	mov    QWORD PTR [rbp-0x38],rax
    1a1b:	48 8b 45 f8          	mov    rax,QWORD PTR [rbp-0x8]
    1a1f:	50                   	push   rax
    1a20:	48 8b 45 e0          	mov    rax,QWORD PTR [rbp-0x20]
    1a24:	50                   	push   rax
    1a25:	48 8b 45 d0          	mov    rax,QWORD PTR [rbp-0x30]
    1a29:	50                   	push   rax
    1a2a:	59                   	pop    rcx
    1a2b:	58                   	pop    rax
    1a2c:	48 01 c8             	add    rax,rcx
    1a2f:	50                   	push   rax
    1a30:	59                   	pop    rcx
    1a31:	58                   	pop    rax
    1a32:	48 8b 04 c8          	mov    rax,QWORD PTR [rax+rcx*8]
    1a36:	50                   	push   rax
    1a37:	58                   	pop    rax
    1a38:	50                   	push   rax
    1a39:	48 8d 05 40 04 00 00 	lea    rax,[rip+0x440]        # 1e80 <L_p_sha256_final+0x360>
    1a40:	50                   	push   rax
    1a41:	48 8b 45 c8          	mov    rax,QWORD PTR [rbp-0x38]
    1a45:	50                   	push   rax
    1a46:	59                   	pop    rcx
    1a47:	58                   	pop    rax
    1a48:	5a                   	pop    rdx
    1a49:	48 89 14 c8          	mov    QWORD PTR [rax+rcx*8],rdx
    1a4d:	48 8b 45 d0          	mov    rax,QWORD PTR [rbp-0x30]
    1a51:	50                   	push   rax
    1a52:	48 b8 01 00 00 00 00 	movabs rax,0x1
    1a59:	00 00 00 
    1a5c:	50                   	push   rax
    1a5d:	59                   	pop    rcx
    1a5e:	58                   	pop    rax
    1a5f:	48 01 c8             	add    rax,rcx
    1a62:	50                   	push   rax
    1a63:	58                   	pop    rax
    1a64:	48 89 45 d0          	mov    QWORD PTR [rbp-0x30],rax
    1a68:	eb 84                	jmp    19ee <L_p_sha256_update+0x131>
    1a6a:	48 8b 05 00 00 00 00 	mov    rax,QWORD PTR [rip+0x0]        # 1a71 <L_p_sha256_update+0x1b4>
    1a71:	50                   	push   rax
    1a72:	59                   	pop    rcx
    1a73:	58                   	pop    rax
    1a74:	48 01 c8             	add    rax,rcx
    1a77:	50                   	push   rax
    1a78:	58                   	pop    rax
    1a79:	48 89 05 00 00 00 00 	mov    QWORD PTR [rip+0x0],rax        # 1a80 <L_p_sha256_update+0x1c3>
    1a80:	48 8b 45 e0          	mov    rax,QWORD PTR [rbp-0x20]
    1a84:	50                   	push   rax
    1a85:	48 8b 45 d8          	mov    rax,QWORD PTR [rbp-0x28]
    1a89:	50                   	push   rax
    1a8a:	59                   	pop    rcx
    1a8b:	58                   	pop    rax
    1a8c:	48 01 c8             	add    rax,rcx
    1a8f:	50                   	push   rax
    1a90:	58                   	pop    rax
    1a91:	48 89 45 e0          	mov    QWORD PTR [rbp-0x20],rax
    1a95:	48 8b 45 e8          	mov    rax,QWORD PTR [rbp-0x18]
    1a99:	50                   	push   rax
    1a9a:	48 8b 45 d8          	mov    rax,QWORD PTR [rbp-0x28]
    1a9e:	50                   	push   rax
    1a9f:	59                   	pop    rcx
    1aa0:	58                   	pop    rax
    1aa1:	48 29 c8             	sub    rax,rcx
    1aa4:	50                   	push   rax
    1aa5:	58                   	pop    rax
    1aa6:	48 89 45 e8          	mov    QWORD PTR [rbp-0x18],rax
    1aaa:	48 8b 05 00 00 00 00 	mov    rax,QWORD PTR [rip+0x0]        # 1ab1 <L_p_sha256_update+0x1f4>
    1ab1:	50                   	push   rax
    1ab2:	48 b8 40 00 00 00 00 	movabs rax,0x40
    1ab9:	00 00 00 
    1abc:	50                   	push   rax
    1abd:	59                   	pop    rcx
    1abe:	58                   	pop    rax
    1abf:	48 39 c8             	cmp    rax,rcx
    1ac2:	0f 94 c0             	sete   al
    1ac5:	48 0f b6 c0          	movzx  rax,al
    1ac9:	50                   	push   rax
    1aca:	58                   	pop    rax
    1acb:	48 85 c0             	test   rax,rax
    1ace:	74 22                	je     1af2 <L_p_sha256_update+0x235>
    1ad0:	48 83 ec 20          	sub    rsp,0x20
    1ad4:	e8 76 f3 ff ff       	call   e4f <L_p_sha_block>
    1ad9:	48 83 c4 20          	add    rsp,0x20
    1add:	50                   	push   rax
    1ade:	58                   	pop    rax
    1adf:	48 b8 00 00 00 00 00 	movabs rax,0x0
    1ae6:	00 00 00 
    1ae9:	50                   	push   rax
    1aea:	58                   	pop    rax
    1aeb:	48 89 05 00 00 00 00 	mov    QWORD PTR [rip+0x0],rax        # 1af2 <L_p_sha256_update+0x235>
    1af2:	e9 83 fe ff ff       	jmp    197a <L_p_sha256_update+0xbd>
    1af7:	48 b8 00 00 00 00 00 	movabs rax,0x0
    1afe:	00 00 00 
    1b01:	50                   	push   rax
    1b02:	58                   	pop    rax
    1b03:	50                   	push   rax
    1b04:	50                   	push   rax
    1b05:	48 c7 c1 02 00 00 00 	mov    rcx,0x2
    1b0c:	48 83 ec 20          	sub    rsp,0x20
    1b10:	e8 00 00 00 00       	call   1b15 <L_p_sha256_update+0x258>
    1b15:	48 83 c4 20          	add    rsp,0x20
    1b19:	58                   	pop    rax
    1b1a:	58                   	pop    rax
    1b1b:	48 89 ec             	mov    rsp,rbp
    1b1e:	5d                   	pop    rbp
    1b1f:	c3                   	ret

0000000000001b20 <L_p_sha256_final>:
    1b20:	55                   	push   rbp
    1b21:	48 89 e5             	mov    rbp,rsp
    1b24:	48 81 ec 00 04 00 00 	sub    rsp,0x400
    1b2b:	48 89 4d f8          	mov    QWORD PTR [rbp-0x8],rcx
    1b2f:	48 c7 c1 01 00 00 00 	mov    rcx,0x1
    1b36:	48 83 ec 20          	sub    rsp,0x20
    1b3a:	e8 00 00 00 00       	call   1b3f <L_p_sha256_final+0x1f>
    1b3f:	48 83 c4 20          	add    rsp,0x20
    1b43:	48 8b 05 10 00 00 00 	mov    rax,QWORD PTR [rip+0x10]        # 1b5a <L_p_sha256_final+0x3a>
    1b4a:	50                   	push   rax
    1b4b:	48 b8 00 00 00 00 00 	movabs rax,0x0
    1b52:	00 00 00 
    1b55:	50                   	push   rax
    1b56:	59                   	pop    rcx
    1b57:	58                   	pop    rax
    1b58:	48 39 c8             	cmp    rax,rcx
    1b5b:	0f 94 c0             	sete   al
    1b5e:	48 0f b6 c0          	movzx  rax,al
    1b62:	50                   	push   rax
    1b63:	58                   	pop    rax
    1b64:	48 85 c0             	test   rax,rax
    1b67:	74 29                	je     1b92 <L_p_sha256_final+0x72>
    1b69:	48 b8 01 00 00 00 00 	movabs rax,0x1
    1b70:	00 00 00 
    1b73:	50                   	push   rax
    1b74:	58                   	pop    rax
    1b75:	50                   	push   rax
    1b76:	50                   	push   rax
    1b77:	48 c7 c1 02 00 00 00 	mov    rcx,0x2
    1b7e:	48 83 ec 20          	sub    rsp,0x20
    1b82:	e8 00 00 00 00       	call   1b87 <L_p_sha256_final+0x67>
    1b87:	48 83 c4 20          	add    rsp,0x20
    1b8b:	58                   	pop    rax
    1b8c:	58                   	pop    rax
    1b8d:	48 89 ec             	mov    rsp,rbp
    1b90:	5d                   	pop    rbp
    1b91:	c3                   	ret
    1b92:	48 8b 05 08 00 00 00 	mov    rax,QWORD PTR [rip+0x8]        # 1ba1 <L_p_sha256_final+0x81>
    1b99:	50                   	push   rax
    1b9a:	58                   	pop    rax
    1b9b:	48 89 45 f0          	mov    QWORD PTR [rbp-0x10],rax
    1b9f:	48 b8 80 00 00 00 00 	movabs rax,0x80
    1ba6:	00 00 00 
    1ba9:	50                   	push   rax
    1baa:	58                   	pop    rax
    1bab:	50                   	push   rax
    1bac:	48 8d 05 40 04 00 00 	lea    rax,[rip+0x440]        # 1ff3 <L_p_sha256_update_byte+0x20>
    1bb3:	50                   	push   rax
    1bb4:	48 8b 05 00 00 00 00 	mov    rax,QWORD PTR [rip+0x0]        # 1bbb <L_p_sha256_final+0x9b>
    1bbb:	50                   	push   rax
    1bbc:	59                   	pop    rcx
    1bbd:	58                   	pop    rax
    1bbe:	5a                   	pop    rdx
    1bbf:	48 89 14 c8          	mov    QWORD PTR [rax+rcx*8],rdx
    1bc3:	48 8b 05 00 00 00 00 	mov    rax,QWORD PTR [rip+0x0]        # 1bca <L_p_sha256_final+0xaa>
    1bca:	50                   	push   rax
    1bcb:	48 b8 01 00 00 00 00 	movabs rax,0x1
    1bd2:	00 00 00 
    1bd5:	50                   	push   rax
    1bd6:	59                   	pop    rcx
    1bd7:	58                   	pop    rax
    1bd8:	48 01 c8             	add    rax,rcx
    1bdb:	50                   	push   rax
    1bdc:	58                   	pop    rax
    1bdd:	48 89 05 00 00 00 00 	mov    QWORD PTR [rip+0x0],rax        # 1be4 <L_p_sha256_final+0xc4>
    1be4:	48 8b 05 00 00 00 00 	mov    rax,QWORD PTR [rip+0x0]        # 1beb <L_p_sha256_final+0xcb>
    1beb:	50                   	push   rax
    1bec:	48 b8 38 00 00 00 00 	movabs rax,0x38
    1bf3:	00 00 00 
    1bf6:	50                   	push   rax
    1bf7:	59                   	pop    rcx
    1bf8:	58                   	pop    rax
    1bf9:	48 39 c8             	cmp    rax,rcx
    1bfc:	0f 9f c0             	setg   al
    1bff:	48 0f b6 c0          	movzx  rax,al
    1c03:	50                   	push   rax
    1c04:	58                   	pop    rax
    1c05:	48 85 c0             	test   rax,rax
    1c08:	0f 84 8f 00 00 00    	je     1c9d <L_p_sha256_final+0x17d>
    1c0e:	48 8b 05 00 00 00 00 	mov    rax,QWORD PTR [rip+0x0]        # 1c15 <L_p_sha256_final+0xf5>
    1c15:	50                   	push   rax
    1c16:	48 b8 40 00 00 00 00 	movabs rax,0x40
    1c1d:	00 00 00 
    1c20:	50                   	push   rax
    1c21:	59                   	pop    rcx
    1c22:	58                   	pop    rax
    1c23:	48 39 c8             	cmp    rax,rcx
    1c26:	0f 9c c0             	setl   al
    1c29:	48 0f b6 c0          	movzx  rax,al
    1c2d:	50                   	push   rax
    1c2e:	58                   	pop    rax
    1c2f:	48 85 c0             	test   rax,rax
    1c32:	74 47                	je     1c7b <L_p_sha256_final+0x15b>
    1c34:	48 b8 00 00 00 00 00 	movabs rax,0x0
    1c3b:	00 00 00 
    1c3e:	50                   	push   rax
    1c3f:	58                   	pop    rax
    1c40:	50                   	push   rax
    1c41:	48 8d 05 40 04 00 00 	lea    rax,[rip+0x440]        # 2088 <L_p_sha256_update_byte+0xb5>
    1c48:	50                   	push   rax
    1c49:	48 8b 05 00 00 00 00 	mov    rax,QWORD PTR [rip+0x0]        # 1c50 <L_p_sha256_final+0x130>
    1c50:	50                   	push   rax
    1c51:	59                   	pop    rcx
    1c52:	58                   	pop    rax
    1c53:	5a                   	pop    rdx
    1c54:	48 89 14 c8          	mov    QWORD PTR [rax+rcx*8],rdx
    1c58:	48 8b 05 00 00 00 00 	mov    rax,QWORD PTR [rip+0x0]        # 1c5f <L_p_sha256_final+0x13f>
    1c5f:	50                   	push   rax
    1c60:	48 b8 01 00 00 00 00 	movabs rax,0x1
    1c67:	00 00 00 
    1c6a:	50                   	push   rax
    1c6b:	59                   	pop    rcx
    1c6c:	58                   	pop    rax
    1c6d:	48 01 c8             	add    rax,rcx
    1c70:	50                   	push   rax
    1c71:	58                   	pop    rax
    1c72:	48 89 05 00 00 00 00 	mov    QWORD PTR [rip+0x0],rax        # 1c79 <L_p_sha256_final+0x159>
    1c79:	eb 93                	jmp    1c0e <L_p_sha256_final+0xee>
    1c7b:	48 83 ec 20          	sub    rsp,0x20
    1c7f:	e8 cb f1 ff ff       	call   e4f <L_p_sha_block>
    1c84:	48 83 c4 20          	add    rsp,0x20
    1c88:	50                   	push   rax
    1c89:	58                   	pop    rax
    1c8a:	48 b8 00 00 00 00 00 	movabs rax,0x0
    1c91:	00 00 00 
    1c94:	50                   	push   rax
    1c95:	58                   	pop    rax
    1c96:	48 89 05 00 00 00 00 	mov    QWORD PTR [rip+0x0],rax        # 1c9d <L_p_sha256_final+0x17d>
    1c9d:	48 8b 05 00 00 00 00 	mov    rax,QWORD PTR [rip+0x0]        # 1ca4 <L_p_sha256_final+0x184>
    1ca4:	50                   	push   rax
    1ca5:	48 b8 38 00 00 00 00 	movabs rax,0x38
    1cac:	00 00 00 
    1caf:	50                   	push   rax
    1cb0:	59                   	pop    rcx
    1cb1:	58                   	pop    rax
    1cb2:	48 39 c8             	cmp    rax,rcx
    1cb5:	0f 9c c0             	setl   al
    1cb8:	48 0f b6 c0          	movzx  rax,al
    1cbc:	50                   	push   rax
    1cbd:	58                   	pop    rax
    1cbe:	48 85 c0             	test   rax,rax
    1cc1:	74 47                	je     1d0a <L_p_sha256_final+0x1ea>
    1cc3:	48 b8 00 00 00 00 00 	movabs rax,0x0
    1cca:	00 00 00 
    1ccd:	50                   	push   rax
    1cce:	58                   	pop    rax
    1ccf:	50                   	push   rax
    1cd0:	48 8d 05 40 04 00 00 	lea    rax,[rip+0x440]        # 2117 <L_p_sha256_finalize_internal+0x6>
    1cd7:	50                   	push   rax
    1cd8:	48 8b 05 00 00 00 00 	mov    rax,QWORD PTR [rip+0x0]        # 1cdf <L_p_sha256_final+0x1bf>
    1cdf:	50                   	push   rax
    1ce0:	59                   	pop    rcx
    1ce1:	58                   	pop    rax
    1ce2:	5a                   	pop    rdx
    1ce3:	48 89 14 c8          	mov    QWORD PTR [rax+rcx*8],rdx
    1ce7:	48 8b 05 00 00 00 00 	mov    rax,QWORD PTR [rip+0x0]        # 1cee <L_p_sha256_final+0x1ce>
    1cee:	50                   	push   rax
    1cef:	48 b8 01 00 00 00 00 	movabs rax,0x1
    1cf6:	00 00 00 
    1cf9:	50                   	push   rax
    1cfa:	59                   	pop    rcx
    1cfb:	58                   	pop    rax
    1cfc:	48 01 c8             	add    rax,rcx
    1cff:	50                   	push   rax
    1d00:	58                   	pop    rax
    1d01:	48 89 05 00 00 00 00 	mov    QWORD PTR [rip+0x0],rax        # 1d08 <L_p_sha256_final+0x1e8>
    1d08:	eb 93                	jmp    1c9d <L_p_sha256_final+0x17d>
    1d0a:	48 b8 00 00 00 00 00 	movabs rax,0x0
    1d11:	00 00 00 
    1d14:	50                   	push   rax
    1d15:	58                   	pop    rax
    1d16:	48 89 45 e8          	mov    QWORD PTR [rbp-0x18],rax
    1d1a:	48 8b 45 e8          	mov    rax,QWORD PTR [rbp-0x18]
    1d1e:	50                   	push   rax
    1d1f:	48 b8 08 00 00 00 00 	movabs rax,0x8
    1d26:	00 00 00 
    1d29:	50                   	push   rax
    1d2a:	59                   	pop    rcx
    1d2b:	58                   	pop    rax
    1d2c:	48 39 c8             	cmp    rax,rcx
    1d2f:	0f 9c c0             	setl   al
    1d32:	48 0f b6 c0          	movzx  rax,al
    1d36:	50                   	push   rax
    1d37:	58                   	pop    rax
    1d38:	48 85 c0             	test   rax,rax
    1d3b:	0f 84 91 00 00 00    	je     1dd2 <L_p_sha256_final+0x2b2>
    1d41:	48 b8 38 00 00 00 00 	movabs rax,0x38
    1d48:	00 00 00 
    1d4b:	50                   	push   rax
    1d4c:	48 8b 45 e8          	mov    rax,QWORD PTR [rbp-0x18]
    1d50:	50                   	push   rax
    1d51:	48 b8 08 00 00 00 00 	movabs rax,0x8
    1d58:	00 00 00 
    1d5b:	50                   	push   rax
    1d5c:	59                   	pop    rcx
    1d5d:	58                   	pop    rax
    1d5e:	48 0f af c1          	imul   rax,rcx
    1d62:	50                   	push   rax
    1d63:	59                   	pop    rcx
    1d64:	58                   	pop    rax
    1d65:	48 29 c8             	sub    rax,rcx
    1d68:	50                   	push   rax
    1d69:	58                   	pop    rax
    1d6a:	48 89 45 e0          	mov    QWORD PTR [rbp-0x20],rax
    1d6e:	58                   	pop    rax
    1d6f:	48 89 45 d8          	mov    QWORD PTR [rbp-0x28],rax
    1d73:	48 8b 45 d8          	mov    rax,QWORD PTR [rbp-0x28]
    1d77:	50                   	push   rax
    1d78:	58                   	pop    rax
    1d79:	50                   	push   rax
    1d7a:	48 8d 05 40 04 00 00 	lea    rax,[rip+0x440]        # 21c1 <L_p_sha256_finalize_internal+0xb0>
    1d81:	50                   	push   rax
    1d82:	48 8b 05 00 00 00 00 	mov    rax,QWORD PTR [rip+0x0]        # 1d89 <L_p_sha256_final+0x269>
    1d89:	50                   	push   rax
    1d8a:	59                   	pop    rcx
    1d8b:	58                   	pop    rax
    1d8c:	5a                   	pop    rdx
    1d8d:	48 89 14 c8          	mov    QWORD PTR [rax+rcx*8],rdx
    1d91:	48 8b 05 00 00 00 00 	mov    rax,QWORD PTR [rip+0x0]        # 1d98 <L_p_sha256_final+0x278>
    1d98:	50                   	push   rax
    1d99:	48 b8 01 00 00 00 00 	movabs rax,0x1
    1da0:	00 00 00 
    1da3:	50                   	push   rax
    1da4:	59                   	pop    rcx
    1da5:	58                   	pop    rax
    1da6:	48 01 c8             	add    rax,rcx
    1da9:	50                   	push   rax
    1daa:	58                   	pop    rax
    1dab:	48 89 05 00 00 00 00 	mov    QWORD PTR [rip+0x0],rax        # 1db2 <L_p_sha256_final+0x292>
    1db2:	48 8b 45 e8          	mov    rax,QWORD PTR [rbp-0x18]
    1db6:	50                   	push   rax
    1db7:	48 b8 01 00 00 00 00 	movabs rax,0x1
    1dbe:	00 00 00 
    1dc1:	50                   	push   rax
    1dc2:	59                   	pop    rcx
    1dc3:	58                   	pop    rax
    1dc4:	48 01 c8             	add    rax,rcx
    1dc7:	50                   	push   rax
    1dc8:	58                   	pop    rax
    1dc9:	48 89 45 e8          	mov    QWORD PTR [rbp-0x18],rax
    1dcd:	e9 48 ff ff ff       	jmp    1d1a <L_p_sha256_final+0x1fa>
    1dd2:	48 83 ec 20          	sub    rsp,0x20
    1dd6:	e8 74 f0 ff ff       	call   e4f <L_p_sha_block>
    1ddb:	48 83 c4 20          	add    rsp,0x20
    1ddf:	50                   	push   rax
    1de0:	58                   	pop    rax
    1de1:	48 b8 00 00 00 00 00 	movabs rax,0x0
    1de8:	00 00 00 
    1deb:	50                   	push   rax
    1dec:	58                   	pop    rax
    1ded:	48 89 05 00 00 00 00 	mov    QWORD PTR [rip+0x0],rax        # 1df4 <L_p_sha256_final+0x2d4>
    1df4:	48 b8 00 00 00 00 00 	movabs rax,0x0
    1dfb:	00 00 00 
    1dfe:	50                   	push   rax
    1dff:	58                   	pop    rax
    1e00:	48 89 45 d0          	mov    QWORD PTR [rbp-0x30],rax
    1e04:	48 8b 45 d0          	mov    rax,QWORD PTR [rbp-0x30]
    1e08:	50                   	push   rax
    1e09:	48 b8 08 00 00 00 00 	movabs rax,0x8
    1e10:	00 00 00 
    1e13:	50                   	push   rax
    1e14:	59                   	pop    rcx
    1e15:	58                   	pop    rax
    1e16:	48 39 c8             	cmp    rax,rcx
    1e19:	0f 9c c0             	setl   al
    1e1c:	48 0f b6 c0          	movzx  rax,al
    1e20:	50                   	push   rax
    1e21:	58                   	pop    rax
    1e22:	48 85 c0             	test   rax,rax
    1e25:	0f 84 e5 00 00 00    	je     1f10 <L_p_sha256_final+0x3f0>
    1e2b:	48 8d 05 00 02 00 00 	lea    rax,[rip+0x200]        # 2032 <L_p_sha256_update_byte+0x5f>
    1e32:	50                   	push   rax
    1e33:	48 8b 45 d0          	mov    rax,QWORD PTR [rbp-0x30]
    1e37:	50                   	push   rax
    1e38:	59                   	pop    rcx
    1e39:	58                   	pop    rax
    1e3a:	48 8b 04 c8          	mov    rax,QWORD PTR [rax+rcx*8]
    1e3e:	50                   	push   rax
    1e3f:	58                   	pop    rax
    1e40:	48 89 45 c8          	mov    QWORD PTR [rbp-0x38],rax
    1e44:	48 8b 45 d0          	mov    rax,QWORD PTR [rbp-0x30]
    1e48:	50                   	push   rax
    1e49:	48 b8 04 00 00 00 00 	movabs rax,0x4
    1e50:	00 00 00 
    1e53:	50                   	push   rax
    1e54:	59                   	pop    rcx
    1e55:	58                   	pop    rax
    1e56:	48 0f af c1          	imul   rax,rcx
    1e5a:	50                   	push   rax
    1e5b:	58                   	pop    rax
    1e5c:	48 89 45 c0          	mov    QWORD PTR [rbp-0x40],rax
    1e60:	58                   	pop    rax
    1e61:	50                   	push   rax
    1e62:	48 8b 45 f8          	mov    rax,QWORD PTR [rbp-0x8]
    1e66:	50                   	push   rax
    1e67:	48 8b 45 c0          	mov    rax,QWORD PTR [rbp-0x40]
    1e6b:	50                   	push   rax
    1e6c:	48 b8 00 00 00 00 00 	movabs rax,0x0
    1e73:	00 00 00 
    1e76:	50                   	push   rax
    1e77:	59                   	pop    rcx
    1e78:	58                   	pop    rax
    1e79:	48 01 c8             	add    rax,rcx
    1e7c:	50                   	push   rax
    1e7d:	59                   	pop    rcx
    1e7e:	58                   	pop    rax
    1e7f:	5a                   	pop    rdx
    1e80:	48 89 14 c8          	mov    QWORD PTR [rax+rcx*8],rdx
    1e84:	58                   	pop    rax
    1e85:	50                   	push   rax
    1e86:	48 8b 45 f8          	mov    rax,QWORD PTR [rbp-0x8]
    1e8a:	50                   	push   rax
    1e8b:	48 8b 45 c0          	mov    rax,QWORD PTR [rbp-0x40]
    1e8f:	50                   	push   rax
    1e90:	48 b8 01 00 00 00 00 	movabs rax,0x1
    1e97:	00 00 00 
    1e9a:	50                   	push   rax
    1e9b:	59                   	pop    rcx
    1e9c:	58                   	pop    rax
    1e9d:	48 01 c8             	add    rax,rcx
    1ea0:	50                   	push   rax
    1ea1:	59                   	pop    rcx
    1ea2:	58                   	pop    rax
    1ea3:	5a                   	pop    rdx
    1ea4:	48 89 14 c8          	mov    QWORD PTR [rax+rcx*8],rdx
    1ea8:	58                   	pop    rax
    1ea9:	50                   	push   rax
    1eaa:	48 8b 45 f8          	mov    rax,QWORD PTR [rbp-0x8]
    1eae:	50                   	push   rax
    1eaf:	48 8b 45 c0          	mov    rax,QWORD PTR [rbp-0x40]
    1eb3:	50                   	push   rax
    1eb4:	48 b8 02 00 00 00 00 	movabs rax,0x2
    1ebb:	00 00 00 
    1ebe:	50                   	push   rax
    1ebf:	59                   	pop    rcx
    1ec0:	58                   	pop    rax
    1ec1:	48 01 c8             	add    rax,rcx
    1ec4:	50                   	push   rax
    1ec5:	59                   	pop    rcx
    1ec6:	58                   	pop    rax
    1ec7:	5a                   	pop    rdx
    1ec8:	48 89 14 c8          	mov    QWORD PTR [rax+rcx*8],rdx
    1ecc:	58                   	pop    rax
    1ecd:	50                   	push   rax
    1ece:	48 8b 45 f8          	mov    rax,QWORD PTR [rbp-0x8]
    1ed2:	50                   	push   rax
    1ed3:	48 8b 45 c0          	mov    rax,QWORD PTR [rbp-0x40]
    1ed7:	50                   	push   rax
    1ed8:	48 b8 03 00 00 00 00 	movabs rax,0x3
    1edf:	00 00 00 
    1ee2:	50                   	push   rax
    1ee3:	59                   	pop    rcx
    1ee4:	58                   	pop    rax
    1ee5:	48 01 c8             	add    rax,rcx
    1ee8:	50                   	push   rax
    1ee9:	59                   	pop    rcx
    1eea:	58                   	pop    rax
    1eeb:	5a                   	pop    rdx
    1eec:	48 89 14 c8          	mov    QWORD PTR [rax+rcx*8],rdx
    1ef0:	48 8b 45 d0          	mov    rax,QWORD PTR [rbp-0x30]
    1ef4:	50                   	push   rax
    1ef5:	48 b8 01 00 00 00 00 	movabs rax,0x1
    1efc:	00 00 00 
    1eff:	50                   	push   rax
    1f00:	59                   	pop    rcx
    1f01:	58                   	pop    rax
    1f02:	48 01 c8             	add    rax,rcx
    1f05:	50                   	push   rax
    1f06:	58                   	pop    rax
    1f07:	48 89 45 d0          	mov    QWORD PTR [rbp-0x30],rax
    1f0b:	e9 f4 fe ff ff       	jmp    1e04 <L_p_sha256_final+0x2e4>
    1f10:	48 b8 00 00 00 00 00 	movabs rax,0x0
    1f17:	00 00 00 
    1f1a:	50                   	push   rax
    1f1b:	58                   	pop    rax
    1f1c:	48 89 05 10 00 00 00 	mov    QWORD PTR [rip+0x10],rax        # 1f33 <L_p_sha256_final+0x413>
    1f23:	48 b8 00 00 00 00 00 	movabs rax,0x0
    1f2a:	00 00 00 
    1f2d:	50                   	push   rax
    1f2e:	58                   	pop    rax
    1f2f:	50                   	push   rax
    1f30:	50                   	push   rax
    1f31:	48 c7 c1 02 00 00 00 	mov    rcx,0x2
    1f38:	48 83 ec 20          	sub    rsp,0x20
    1f3c:	e8 00 00 00 00       	call   1f41 <L_p_sha256_final+0x421>
    1f41:	48 83 c4 20          	add    rsp,0x20
    1f45:	58                   	pop    rax
    1f46:	58                   	pop    rax
    1f47:	48 89 ec             	mov    rsp,rbp
    1f4a:	5d                   	pop    rbp
    1f4b:	c3                   	ret

0000000000001f4c <L_p_sha256_oneshot>:
    1f4c:	55                   	push   rbp
    1f4d:	48 89 e5             	mov    rbp,rsp
    1f50:	48 81 ec 00 04 00 00 	sub    rsp,0x400
    1f57:	48 89 4d f8          	mov    QWORD PTR [rbp-0x8],rcx
    1f5b:	48 89 55 f0          	mov    QWORD PTR [rbp-0x10],rdx
    1f5f:	4c 89 45 e8          	mov    QWORD PTR [rbp-0x18],r8
    1f63:	48 c7 c1 01 00 00 00 	mov    rcx,0x1
    1f6a:	48 83 ec 20          	sub    rsp,0x20
    1f6e:	e8 00 00 00 00       	call   1f73 <L_p_sha256_oneshot+0x27>
    1f73:	48 83 c4 20          	add    rsp,0x20
    1f77:	48 83 ec 20          	sub    rsp,0x20
    1f7b:	e8 75 f7 ff ff       	call   16f5 <L_p_sha256_init>
    1f80:	48 83 c4 20          	add    rsp,0x20
    1f84:	50                   	push   rax
    1f85:	58                   	pop    rax
    1f86:	48 8b 45 f8          	mov    rax,QWORD PTR [rbp-0x8]
    1f8a:	50                   	push   rax
    1f8b:	48 8b 45 f0          	mov    rax,QWORD PTR [rbp-0x10]
    1f8f:	50                   	push   rax
    1f90:	5a                   	pop    rdx
    1f91:	59                   	pop    rcx
    1f92:	48 83 ec 20          	sub    rsp,0x20
    1f96:	e8 22 f9 ff ff       	call   18bd <L_p_sha256_update>
    1f9b:	48 83 c4 20          	add    rsp,0x20
    1f9f:	50                   	push   rax
    1fa0:	58                   	pop    rax
    1fa1:	48 8b 45 e8          	mov    rax,QWORD PTR [rbp-0x18]
    1fa5:	50                   	push   rax
    1fa6:	59                   	pop    rcx
    1fa7:	48 83 ec 20          	sub    rsp,0x20
    1fab:	e8 70 fb ff ff       	call   1b20 <L_p_sha256_final>
    1fb0:	48 83 c4 20          	add    rsp,0x20
    1fb4:	50                   	push   rax
    1fb5:	58                   	pop    rax
    1fb6:	50                   	push   rax
    1fb7:	50                   	push   rax
    1fb8:	48 c7 c1 02 00 00 00 	mov    rcx,0x2
    1fbf:	48 83 ec 20          	sub    rsp,0x20
    1fc3:	e8 00 00 00 00       	call   1fc8 <L_p_sha256_oneshot+0x7c>
    1fc8:	48 83 c4 20          	add    rsp,0x20
    1fcc:	58                   	pop    rax
    1fcd:	58                   	pop    rax
    1fce:	48 89 ec             	mov    rsp,rbp
    1fd1:	5d                   	pop    rbp
    1fd2:	c3                   	ret

0000000000001fd3 <L_p_sha256_update_byte>:
    1fd3:	55                   	push   rbp
    1fd4:	48 89 e5             	mov    rbp,rsp
    1fd7:	48 81 ec 00 04 00 00 	sub    rsp,0x400
    1fde:	48 89 4d f8          	mov    QWORD PTR [rbp-0x8],rcx
    1fe2:	48 c7 c1 01 00 00 00 	mov    rcx,0x1
    1fe9:	48 83 ec 20          	sub    rsp,0x20
    1fed:	e8 00 00 00 00       	call   1ff2 <L_p_sha256_update_byte+0x1f>
    1ff2:	48 83 c4 20          	add    rsp,0x20
    1ff6:	48 8b 05 10 00 00 00 	mov    rax,QWORD PTR [rip+0x10]        # 200d <L_p_sha256_update_byte+0x3a>
    1ffd:	50                   	push   rax
    1ffe:	48 b8 00 00 00 00 00 	movabs rax,0x0
    2005:	00 00 00 
    2008:	50                   	push   rax
    2009:	59                   	pop    rcx
    200a:	58                   	pop    rax
    200b:	48 39 c8             	cmp    rax,rcx
    200e:	0f 94 c0             	sete   al
    2011:	48 0f b6 c0          	movzx  rax,al
    2015:	50                   	push   rax
    2016:	58                   	pop    rax
    2017:	48 85 c0             	test   rax,rax
    201a:	74 29                	je     2045 <L_p_sha256_update_byte+0x72>
    201c:	48 b8 01 00 00 00 00 	movabs rax,0x1
    2023:	00 00 00 
    2026:	50                   	push   rax
    2027:	58                   	pop    rax
    2028:	50                   	push   rax
    2029:	50                   	push   rax
    202a:	48 c7 c1 02 00 00 00 	mov    rcx,0x2
    2031:	48 83 ec 20          	sub    rsp,0x20
    2035:	e8 00 00 00 00       	call   203a <L_p_sha256_update_byte+0x67>
    203a:	48 83 c4 20          	add    rsp,0x20
    203e:	58                   	pop    rax
    203f:	58                   	pop    rax
    2040:	48 89 ec             	mov    rsp,rbp
    2043:	5d                   	pop    rbp
    2044:	c3                   	ret
    2045:	48 8b 05 08 00 00 00 	mov    rax,QWORD PTR [rip+0x8]        # 2054 <L_p_sha256_update_byte+0x81>
    204c:	50                   	push   rax
    204d:	48 b8 08 00 00 00 00 	movabs rax,0x8
    2054:	00 00 00 
    2057:	50                   	push   rax
    2058:	59                   	pop    rcx
    2059:	58                   	pop    rax
    205a:	48 01 c8             	add    rax,rcx
    205d:	50                   	push   rax
    205e:	58                   	pop    rax
    205f:	48 89 05 08 00 00 00 	mov    QWORD PTR [rip+0x8],rax        # 206e <L_p_sha256_update_byte+0x9b>
    2066:	58                   	pop    rax
    2067:	50                   	push   rax
    2068:	48 8d 05 40 04 00 00 	lea    rax,[rip+0x440]        # 24af <L_p_sha256_digest_byte+0x92>
    206f:	50                   	push   rax
    2070:	48 8b 05 00 00 00 00 	mov    rax,QWORD PTR [rip+0x0]        # 2077 <L_p_sha256_update_byte+0xa4>
    2077:	50                   	push   rax
    2078:	59                   	pop    rcx
    2079:	58                   	pop    rax
    207a:	5a                   	pop    rdx
    207b:	48 89 14 c8          	mov    QWORD PTR [rax+rcx*8],rdx
    207f:	48 8b 05 00 00 00 00 	mov    rax,QWORD PTR [rip+0x0]        # 2086 <L_p_sha256_update_byte+0xb3>
    2086:	50                   	push   rax
    2087:	48 b8 01 00 00 00 00 	movabs rax,0x1
    208e:	00 00 00 
    2091:	50                   	push   rax
    2092:	59                   	pop    rcx
    2093:	58                   	pop    rax
    2094:	48 01 c8             	add    rax,rcx
    2097:	50                   	push   rax
    2098:	58                   	pop    rax
    2099:	48 89 05 00 00 00 00 	mov    QWORD PTR [rip+0x0],rax        # 20a0 <L_p_sha256_update_byte+0xcd>
    20a0:	48 8b 05 00 00 00 00 	mov    rax,QWORD PTR [rip+0x0]        # 20a7 <L_p_sha256_update_byte+0xd4>
    20a7:	50                   	push   rax
    20a8:	48 b8 40 00 00 00 00 	movabs rax,0x40
    20af:	00 00 00 
    20b2:	50                   	push   rax
    20b3:	59                   	pop    rcx
    20b4:	58                   	pop    rax
    20b5:	48 39 c8             	cmp    rax,rcx
    20b8:	0f 94 c0             	sete   al
    20bb:	48 0f b6 c0          	movzx  rax,al
    20bf:	50                   	push   rax
    20c0:	58                   	pop    rax
    20c1:	48 85 c0             	test   rax,rax
    20c4:	74 22                	je     20e8 <L_p_sha256_update_byte+0x115>
    20c6:	48 83 ec 20          	sub    rsp,0x20
    20ca:	e8 80 ed ff ff       	call   e4f <L_p_sha_block>
    20cf:	48 83 c4 20          	add    rsp,0x20
    20d3:	50                   	push   rax
    20d4:	58                   	pop    rax
    20d5:	48 b8 00 00 00 00 00 	movabs rax,0x0
    20dc:	00 00 00 
    20df:	50                   	push   rax
    20e0:	58                   	pop    rax
    20e1:	48 89 05 00 00 00 00 	mov    QWORD PTR [rip+0x0],rax        # 20e8 <L_p_sha256_update_byte+0x115>
    20e8:	48 b8 00 00 00 00 00 	movabs rax,0x0
    20ef:	00 00 00 
    20f2:	50                   	push   rax
    20f3:	58                   	pop    rax
    20f4:	50                   	push   rax
    20f5:	50                   	push   rax
    20f6:	48 c7 c1 02 00 00 00 	mov    rcx,0x2
    20fd:	48 83 ec 20          	sub    rsp,0x20
    2101:	e8 00 00 00 00       	call   2106 <L_p_sha256_update_byte+0x133>
    2106:	48 83 c4 20          	add    rsp,0x20
    210a:	58                   	pop    rax
    210b:	58                   	pop    rax
    210c:	48 89 ec             	mov    rsp,rbp
    210f:	5d                   	pop    rbp
    2110:	c3                   	ret

0000000000002111 <L_p_sha256_finalize_internal>:
    2111:	55                   	push   rbp
    2112:	48 89 e5             	mov    rbp,rsp
    2115:	48 81 ec 00 04 00 00 	sub    rsp,0x400
    211c:	48 c7 c1 01 00 00 00 	mov    rcx,0x1
    2123:	48 83 ec 20          	sub    rsp,0x20
    2127:	e8 00 00 00 00       	call   212c <L_p_sha256_finalize_internal+0x1b>
    212c:	48 83 c4 20          	add    rsp,0x20
    2130:	48 8b 05 10 00 00 00 	mov    rax,QWORD PTR [rip+0x10]        # 2147 <L_p_sha256_finalize_internal+0x36>
    2137:	50                   	push   rax
    2138:	48 b8 00 00 00 00 00 	movabs rax,0x0
    213f:	00 00 00 
    2142:	50                   	push   rax
    2143:	59                   	pop    rcx
    2144:	58                   	pop    rax
    2145:	48 39 c8             	cmp    rax,rcx
    2148:	0f 94 c0             	sete   al
    214b:	48 0f b6 c0          	movzx  rax,al
    214f:	50                   	push   rax
    2150:	58                   	pop    rax
    2151:	48 85 c0             	test   rax,rax
    2154:	74 29                	je     217f <L_p_sha256_finalize_internal+0x6e>
    2156:	48 b8 01 00 00 00 00 	movabs rax,0x1
    215d:	00 00 00 
    2160:	50                   	push   rax
    2161:	58                   	pop    rax
    2162:	50                   	push   rax
    2163:	50                   	push   rax
    2164:	48 c7 c1 02 00 00 00 	mov    rcx,0x2
    216b:	48 83 ec 20          	sub    rsp,0x20
    216f:	e8 00 00 00 00       	call   2174 <L_p_sha256_finalize_internal+0x63>
    2174:	48 83 c4 20          	add    rsp,0x20
    2178:	58                   	pop    rax
    2179:	58                   	pop    rax
    217a:	48 89 ec             	mov    rsp,rbp
    217d:	5d                   	pop    rbp
    217e:	c3                   	ret
    217f:	48 8b 05 08 00 00 00 	mov    rax,QWORD PTR [rip+0x8]        # 218e <L_p_sha256_finalize_internal+0x7d>
    2186:	50                   	push   rax
    2187:	58                   	pop    rax
    2188:	48 89 45 f8          	mov    QWORD PTR [rbp-0x8],rax
    218c:	48 b8 80 00 00 00 00 	movabs rax,0x80
    2193:	00 00 00 
    2196:	50                   	push   rax
    2197:	58                   	pop    rax
    2198:	50                   	push   rax
    2199:	48 8d 05 40 04 00 00 	lea    rax,[rip+0x440]        # 25e0 <L_p_sha256_digest_byte+0x1c3>
    21a0:	50                   	push   rax
    21a1:	48 8b 05 00 00 00 00 	mov    rax,QWORD PTR [rip+0x0]        # 21a8 <L_p_sha256_finalize_internal+0x97>
    21a8:	50                   	push   rax
    21a9:	59                   	pop    rcx
    21aa:	58                   	pop    rax
    21ab:	5a                   	pop    rdx
    21ac:	48 89 14 c8          	mov    QWORD PTR [rax+rcx*8],rdx
    21b0:	48 8b 05 00 00 00 00 	mov    rax,QWORD PTR [rip+0x0]        # 21b7 <L_p_sha256_finalize_internal+0xa6>
    21b7:	50                   	push   rax
    21b8:	48 b8 01 00 00 00 00 	movabs rax,0x1
    21bf:	00 00 00 
    21c2:	50                   	push   rax
    21c3:	59                   	pop    rcx
    21c4:	58                   	pop    rax
    21c5:	48 01 c8             	add    rax,rcx
    21c8:	50                   	push   rax
    21c9:	58                   	pop    rax
    21ca:	48 89 05 00 00 00 00 	mov    QWORD PTR [rip+0x0],rax        # 21d1 <L_p_sha256_finalize_internal+0xc0>
    21d1:	48 8b 05 00 00 00 00 	mov    rax,QWORD PTR [rip+0x0]        # 21d8 <L_p_sha256_finalize_internal+0xc7>
    21d8:	50                   	push   rax
    21d9:	48 b8 38 00 00 00 00 	movabs rax,0x38
    21e0:	00 00 00 
    21e3:	50                   	push   rax
    21e4:	59                   	pop    rcx
    21e5:	58                   	pop    rax
    21e6:	48 39 c8             	cmp    rax,rcx
    21e9:	0f 9f c0             	setg   al
    21ec:	48 0f b6 c0          	movzx  rax,al
    21f0:	50                   	push   rax
    21f1:	58                   	pop    rax
    21f2:	48 85 c0             	test   rax,rax
    21f5:	0f 84 8f 00 00 00    	je     228a <L_p_sha256_finalize_internal+0x179>
    21fb:	48 8b 05 00 00 00 00 	mov    rax,QWORD PTR [rip+0x0]        # 2202 <L_p_sha256_finalize_internal+0xf1>
    2202:	50                   	push   rax
    2203:	48 b8 40 00 00 00 00 	movabs rax,0x40
    220a:	00 00 00 
    220d:	50                   	push   rax
    220e:	59                   	pop    rcx
    220f:	58                   	pop    rax
    2210:	48 39 c8             	cmp    rax,rcx
    2213:	0f 9c c0             	setl   al
    2216:	48 0f b6 c0          	movzx  rax,al
    221a:	50                   	push   rax
    221b:	58                   	pop    rax
    221c:	48 85 c0             	test   rax,rax
    221f:	74 47                	je     2268 <L_p_sha256_finalize_internal+0x157>
    2221:	48 b8 00 00 00 00 00 	movabs rax,0x0
    2228:	00 00 00 
    222b:	50                   	push   rax
    222c:	58                   	pop    rax
    222d:	50                   	push   rax
    222e:	48 8d 05 40 04 00 00 	lea    rax,[rip+0x440]        # 2675 <L_p_sha256_digest_byte+0x258>
    2235:	50                   	push   rax
    2236:	48 8b 05 00 00 00 00 	mov    rax,QWORD PTR [rip+0x0]        # 223d <L_p_sha256_finalize_internal+0x12c>
    223d:	50                   	push   rax
    223e:	59                   	pop    rcx
    223f:	58                   	pop    rax
    2240:	5a                   	pop    rdx
    2241:	48 89 14 c8          	mov    QWORD PTR [rax+rcx*8],rdx
    2245:	48 8b 05 00 00 00 00 	mov    rax,QWORD PTR [rip+0x0]        # 224c <L_p_sha256_finalize_internal+0x13b>
    224c:	50                   	push   rax
    224d:	48 b8 01 00 00 00 00 	movabs rax,0x1
    2254:	00 00 00 
    2257:	50                   	push   rax
    2258:	59                   	pop    rcx
    2259:	58                   	pop    rax
    225a:	48 01 c8             	add    rax,rcx
    225d:	50                   	push   rax
    225e:	58                   	pop    rax
    225f:	48 89 05 00 00 00 00 	mov    QWORD PTR [rip+0x0],rax        # 2266 <L_p_sha256_finalize_internal+0x155>
    2266:	eb 93                	jmp    21fb <L_p_sha256_finalize_internal+0xea>
    2268:	48 83 ec 20          	sub    rsp,0x20
    226c:	e8 de eb ff ff       	call   e4f <L_p_sha_block>
    2271:	48 83 c4 20          	add    rsp,0x20
    2275:	50                   	push   rax
    2276:	58                   	pop    rax
    2277:	48 b8 00 00 00 00 00 	movabs rax,0x0
    227e:	00 00 00 
    2281:	50                   	push   rax
    2282:	58                   	pop    rax
    2283:	48 89 05 00 00 00 00 	mov    QWORD PTR [rip+0x0],rax        # 228a <L_p_sha256_finalize_internal+0x179>
    228a:	48 8b 05 00 00 00 00 	mov    rax,QWORD PTR [rip+0x0]        # 2291 <L_p_sha256_finalize_internal+0x180>
    2291:	50                   	push   rax
    2292:	48 b8 38 00 00 00 00 	movabs rax,0x38
    2299:	00 00 00 
    229c:	50                   	push   rax
    229d:	59                   	pop    rcx
    229e:	58                   	pop    rax
    229f:	48 39 c8             	cmp    rax,rcx
    22a2:	0f 9c c0             	setl   al
    22a5:	48 0f b6 c0          	movzx  rax,al
    22a9:	50                   	push   rax
    22aa:	58                   	pop    rax
    22ab:	48 85 c0             	test   rax,rax
    22ae:	74 47                	je     22f7 <L_p_sha256_finalize_internal+0x1e6>
    22b0:	48 b8 00 00 00 00 00 	movabs rax,0x0
    22b7:	00 00 00 
    22ba:	50                   	push   rax
    22bb:	58                   	pop    rax
    22bc:	50                   	push   rax
    22bd:	48 8d 05 40 04 00 00 	lea    rax,[rip+0x440]        # 2704 <L_p_sha256_digest_byte+0x2e7>
    22c4:	50                   	push   rax
    22c5:	48 8b 05 00 00 00 00 	mov    rax,QWORD PTR [rip+0x0]        # 22cc <L_p_sha256_finalize_internal+0x1bb>
    22cc:	50                   	push   rax
    22cd:	59                   	pop    rcx
    22ce:	58                   	pop    rax
    22cf:	5a                   	pop    rdx
    22d0:	48 89 14 c8          	mov    QWORD PTR [rax+rcx*8],rdx
    22d4:	48 8b 05 00 00 00 00 	mov    rax,QWORD PTR [rip+0x0]        # 22db <L_p_sha256_finalize_internal+0x1ca>
    22db:	50                   	push   rax
    22dc:	48 b8 01 00 00 00 00 	movabs rax,0x1
    22e3:	00 00 00 
    22e6:	50                   	push   rax
    22e7:	59                   	pop    rcx
    22e8:	58                   	pop    rax
    22e9:	48 01 c8             	add    rax,rcx
    22ec:	50                   	push   rax
    22ed:	58                   	pop    rax
    22ee:	48 89 05 00 00 00 00 	mov    QWORD PTR [rip+0x0],rax        # 22f5 <L_p_sha256_finalize_internal+0x1e4>
    22f5:	eb 93                	jmp    228a <L_p_sha256_finalize_internal+0x179>
    22f7:	48 b8 00 00 00 00 00 	movabs rax,0x0
    22fe:	00 00 00 
    2301:	50                   	push   rax
    2302:	58                   	pop    rax
    2303:	48 89 45 f0          	mov    QWORD PTR [rbp-0x10],rax
    2307:	48 8b 45 f0          	mov    rax,QWORD PTR [rbp-0x10]
    230b:	50                   	push   rax
    230c:	48 b8 08 00 00 00 00 	movabs rax,0x8
    2313:	00 00 00 
    2316:	50                   	push   rax
    2317:	59                   	pop    rcx
    2318:	58                   	pop    rax
    2319:	48 39 c8             	cmp    rax,rcx
    231c:	0f 9c c0             	setl   al
    231f:	48 0f b6 c0          	movzx  rax,al
    2323:	50                   	push   rax
    2324:	58                   	pop    rax
    2325:	48 85 c0             	test   rax,rax
    2328:	0f 84 91 00 00 00    	je     23bf <L_p_sha256_finalize_internal+0x2ae>
    232e:	48 b8 38 00 00 00 00 	movabs rax,0x38
    2335:	00 00 00 
    2338:	50                   	push   rax
    2339:	48 8b 45 f0          	mov    rax,QWORD PTR [rbp-0x10]
    233d:	50                   	push   rax
    233e:	48 b8 08 00 00 00 00 	movabs rax,0x8
    2345:	00 00 00 
    2348:	50                   	push   rax
    2349:	59                   	pop    rcx
    234a:	58                   	pop    rax
    234b:	48 0f af c1          	imul   rax,rcx
    234f:	50                   	push   rax
    2350:	59                   	pop    rcx
    2351:	58                   	pop    rax
    2352:	48 29 c8             	sub    rax,rcx
    2355:	50                   	push   rax
    2356:	58                   	pop    rax
    2357:	48 89 45 e8          	mov    QWORD PTR [rbp-0x18],rax
    235b:	58                   	pop    rax
    235c:	48 89 45 e0          	mov    QWORD PTR [rbp-0x20],rax
    2360:	48 8b 45 e0          	mov    rax,QWORD PTR [rbp-0x20]
    2364:	50                   	push   rax
    2365:	58                   	pop    rax
    2366:	50                   	push   rax
    2367:	48 8d 05 40 04 00 00 	lea    rax,[rip+0x440]        # 27ae <L_p_sha256_digest_byte+0x391>
    236e:	50                   	push   rax
    236f:	48 8b 05 00 00 00 00 	mov    rax,QWORD PTR [rip+0x0]        # 2376 <L_p_sha256_finalize_internal+0x265>
    2376:	50                   	push   rax
    2377:	59                   	pop    rcx
    2378:	58                   	pop    rax
    2379:	5a                   	pop    rdx
    237a:	48 89 14 c8          	mov    QWORD PTR [rax+rcx*8],rdx
    237e:	48 8b 05 00 00 00 00 	mov    rax,QWORD PTR [rip+0x0]        # 2385 <L_p_sha256_finalize_internal+0x274>
    2385:	50                   	push   rax
    2386:	48 b8 01 00 00 00 00 	movabs rax,0x1
    238d:	00 00 00 
    2390:	50                   	push   rax
    2391:	59                   	pop    rcx
    2392:	58                   	pop    rax
    2393:	48 01 c8             	add    rax,rcx
    2396:	50                   	push   rax
    2397:	58                   	pop    rax
    2398:	48 89 05 00 00 00 00 	mov    QWORD PTR [rip+0x0],rax        # 239f <L_p_sha256_finalize_internal+0x28e>
    239f:	48 8b 45 f0          	mov    rax,QWORD PTR [rbp-0x10]
    23a3:	50                   	push   rax
    23a4:	48 b8 01 00 00 00 00 	movabs rax,0x1
    23ab:	00 00 00 
    23ae:	50                   	push   rax
    23af:	59                   	pop    rcx
    23b0:	58                   	pop    rax
    23b1:	48 01 c8             	add    rax,rcx
    23b4:	50                   	push   rax
    23b5:	58                   	pop    rax
    23b6:	48 89 45 f0          	mov    QWORD PTR [rbp-0x10],rax
    23ba:	e9 48 ff ff ff       	jmp    2307 <L_p_sha256_finalize_internal+0x1f6>
    23bf:	48 83 ec 20          	sub    rsp,0x20
    23c3:	e8 87 ea ff ff       	call   e4f <L_p_sha_block>
    23c8:	48 83 c4 20          	add    rsp,0x20
    23cc:	50                   	push   rax
    23cd:	58                   	pop    rax
    23ce:	48 b8 00 00 00 00 00 	movabs rax,0x0
    23d5:	00 00 00 
    23d8:	50                   	push   rax
    23d9:	58                   	pop    rax
    23da:	48 89 05 00 00 00 00 	mov    QWORD PTR [rip+0x0],rax        # 23e1 <L_p_sha256_finalize_internal+0x2d0>
    23e1:	48 b8 00 00 00 00 00 	movabs rax,0x0
    23e8:	00 00 00 
    23eb:	50                   	push   rax
    23ec:	58                   	pop    rax
    23ed:	48 89 05 10 00 00 00 	mov    QWORD PTR [rip+0x10],rax        # 2404 <L_p_sha256_finalize_internal+0x2f3>
    23f4:	48 b8 00 00 00 00 00 	movabs rax,0x0
    23fb:	00 00 00 
    23fe:	50                   	push   rax
    23ff:	58                   	pop    rax
    2400:	50                   	push   rax
    2401:	50                   	push   rax
    2402:	48 c7 c1 02 00 00 00 	mov    rcx,0x2
    2409:	48 83 ec 20          	sub    rsp,0x20
    240d:	e8 00 00 00 00       	call   2412 <L_p_sha256_finalize_internal+0x301>
    2412:	48 83 c4 20          	add    rsp,0x20
    2416:	58                   	pop    rax
    2417:	58                   	pop    rax
    2418:	48 89 ec             	mov    rsp,rbp
    241b:	5d                   	pop    rbp
    241c:	c3                   	ret

000000000000241d <L_p_sha256_digest_byte>:
    241d:	55                   	push   rbp
    241e:	48 89 e5             	mov    rbp,rsp
    2421:	48 81 ec 00 04 00 00 	sub    rsp,0x400
    2428:	48 89 4d f8          	mov    QWORD PTR [rbp-0x8],rcx
    242c:	48 c7 c1 01 00 00 00 	mov    rcx,0x1
    2433:	48 83 ec 20          	sub    rsp,0x20
    2437:	e8 00 00 00 00       	call   243c <L_p_sha256_digest_byte+0x1f>
    243c:	48 83 c4 20          	add    rsp,0x20
    2440:	48 8b 45 f8          	mov    rax,QWORD PTR [rbp-0x8]
    2444:	50                   	push   rax
    2445:	48 b8 20 00 00 00 00 	movabs rax,0x20
    244c:	00 00 00 
    244f:	50                   	push   rax
    2450:	59                   	pop    rcx
    2451:	58                   	pop    rax
    2452:	48 39 c8             	cmp    rax,rcx
    2455:	0f 9d c0             	setge  al
    2458:	48 0f b6 c0          	movzx  rax,al
    245c:	50                   	push   rax
    245d:	58                   	pop    rax
    245e:	48 85 c0             	test   rax,rax
    2461:	74 29                	je     248c <L_p_sha256_digest_byte+0x6f>
    2463:	48 b8 00 01 00 00 00 	movabs rax,0x100
    246a:	00 00 00 
    246d:	50                   	push   rax
    246e:	58                   	pop    rax
    246f:	50                   	push   rax
    2470:	50                   	push   rax
    2471:	48 c7 c1 02 00 00 00 	mov    rcx,0x2
    2478:	48 83 ec 20          	sub    rsp,0x20
    247c:	e8 00 00 00 00       	call   2481 <L_p_sha256_digest_byte+0x64>
    2481:	48 83 c4 20          	add    rsp,0x20
    2485:	58                   	pop    rax
    2486:	58                   	pop    rax
    2487:	48 89 ec             	mov    rsp,rbp
    248a:	5d                   	pop    rbp
    248b:	c3                   	ret
    248c:	48 8b 45 f8          	mov    rax,QWORD PTR [rbp-0x8]
    2490:	50                   	push   rax
    2491:	48 b8 04 00 00 00 00 	movabs rax,0x4
    2498:	00 00 00 
    249b:	50                   	push   rax
    249c:	59                   	pop    rcx
    249d:	58                   	pop    rax
    249e:	48 99                	cqo
    24a0:	48 f7 f9             	idiv   rcx
    24a3:	50                   	push   rax
    24a4:	58                   	pop    rax
    24a5:	48 89 45 f0          	mov    QWORD PTR [rbp-0x10],rax
    24a9:	48 8b 45 f8          	mov    rax,QWORD PTR [rbp-0x8]
    24ad:	50                   	push   rax
    24ae:	48 b8 03 00 00 00 00 	movabs rax,0x3
    24b5:	00 00 00 
    24b8:	50                   	push   rax
    24b9:	59                   	pop    rcx
    24ba:	58                   	pop    rax
    24bb:	48 21 c8             	and    rax,rcx
    24be:	50                   	push   rax
    24bf:	58                   	pop    rax
    24c0:	48 89 45 e8          	mov    QWORD PTR [rbp-0x18],rax
    24c4:	48 8d 05 00 02 00 00 	lea    rax,[rip+0x200]        # 26cb <L_p_sha256_digest_byte+0x2ae>
    24cb:	50                   	push   rax
    24cc:	48 8b 45 f0          	mov    rax,QWORD PTR [rbp-0x10]
    24d0:	50                   	push   rax
    24d1:	59                   	pop    rcx
    24d2:	58                   	pop    rax
    24d3:	48 8b 04 c8          	mov    rax,QWORD PTR [rax+rcx*8]
    24d7:	50                   	push   rax
    24d8:	58                   	pop    rax
    24d9:	48 89 45 e0          	mov    QWORD PTR [rbp-0x20],rax
    24dd:	48 b8 03 00 00 00 00 	movabs rax,0x3
    24e4:	00 00 00 
    24e7:	50                   	push   rax
    24e8:	48 8b 45 e8          	mov    rax,QWORD PTR [rbp-0x18]
    24ec:	50                   	push   rax
    24ed:	59                   	pop    rcx
    24ee:	58                   	pop    rax
    24ef:	48 29 c8             	sub    rax,rcx
    24f2:	50                   	push   rax
    24f3:	48 b8 08 00 00 00 00 	movabs rax,0x8
    24fa:	00 00 00 
    24fd:	50                   	push   rax
    24fe:	59                   	pop    rcx
    24ff:	58                   	pop    rax
    2500:	48 0f af c1          	imul   rax,rcx
    2504:	50                   	push   rax
    2505:	58                   	pop    rax
    2506:	48 89 45 d8          	mov    QWORD PTR [rbp-0x28],rax
    250a:	48 8b 45 e0          	mov    rax,QWORD PTR [rbp-0x20]
    250e:	50                   	push   rax
    250f:	48 8b 45 d8          	mov    rax,QWORD PTR [rbp-0x28]
    2513:	50                   	push   rax
    2514:	59                   	pop    rcx
    2515:	58                   	pop    rax
    2516:	48 d3 e8             	shr    rax,cl
    2519:	50                   	push   rax
    251a:	48 b8 ff 00 00 00 00 	movabs rax,0xff
    2521:	00 00 00 
    2524:	50                   	push   rax
    2525:	59                   	pop    rcx
    2526:	58                   	pop    rax
    2527:	48 21 c8             	and    rax,rcx
    252a:	50                   	push   rax
    252b:	58                   	pop    rax
    252c:	50                   	push   rax
    252d:	50                   	push   rax
    252e:	48 c7 c1 02 00 00 00 	mov    rcx,0x2
    2535:	48 83 ec 20          	sub    rsp,0x20
    2539:	e8 00 00 00 00       	call   253e <L_p_sha256_digest_byte+0x121>
    253e:	48 83 c4 20          	add    rsp,0x20
    2542:	58                   	pop    rax
    2543:	58                   	pop    rax
    2544:	48 89 ec             	mov    rsp,rbp
    2547:	5d                   	pop    rbp
    2548:	c3                   	ret
    2549:	90                   	nop
    254a:	90                   	nop
    254b:	90                   	nop
    254c:	90                   	nop
    254d:	90                   	nop
    254e:	90                   	nop
    254f:	90                   	nop
